                            CODE:00401000 e8 00 00 00 00                   call   0x00401005
                            CODE:00401005 5e                               pop    %esi
                            CODE:00401006 83 c6 10                         add    $0x10,%esi
                            CODE:00401009 b9 97 0b 00 00                   mov    $0xb97,%ecx
                            CODE:0040100e 80 36 00                         xorb   $0x0,(%esi)
                            CODE:00401011 46                               inc    %esi
                            CODE:00401012 49                               dec    %ecx
                            CODE:00401013 75 f9                            jne    0x0040100e
                            CODE:00401015 e9 db 01 00 00                   jmp    0x004011f5
                            CODE:0040101a 00 00                            add    %al,(%eax)
                            CODE:0040101c 00 00                            add    %al,(%eax)
                            CODE:0040101e 55                               push   %ebp
                            CODE:0040101f 53                               push   %ebx
                            CODE:00401020 45                               inc    %ebp
                            CODE:00401021 52                               push   %edx
                            CODE:00401022 33 32                            xor    (%edx),%esi
                            CODE:00401024 00 00                            add    %al,(%eax)
                            CODE:00401026 00 00                            add    %al,(%eax)
                            CODE:00401028 00 00                            add    %al,(%eax)
                            CODE:0040102a 00 00                            add    %al,(%eax)
                            CODE:0040102c 00 00                            add    %al,(%eax)
                            CODE:0040102e 00 00                            add    %al,(%eax)
                            CODE:00401030 00 00                            add    %al,(%eax)
                            CODE:00401032 00 00                            add    %al,(%eax)
                            CODE:00401034 00 00                            add    %al,(%eax)
                            CODE:00401036 00 00                            add    %al,(%eax)
                            CODE:00401038 00 00                            add    %al,(%eax)
                            CODE:0040103a 00 00                            add    %al,(%eax)
                            CODE:0040103c 00 00                            add    %al,(%eax)
                            CODE:0040103e 00 00                            add    %al,(%eax)
                            CODE:00401040 00 00                            add    %al,(%eax)
                            CODE:00401042 00 00                            add    %al,(%eax)
                            CODE:00401044 00 43 3a                         add    %al,0x3a(%ebx)
                            CODE:00401047 5c                               pop    %esp
                            CODE:00401048 57                               push   %edi
                            CODE:00401049 49                               dec    %ecx
                            CODE:0040104a 4e                               dec    %esi
                            CODE:0040104b 2e 53                            cs push %ebx
                            CODE:0040104d 59                               pop    %ecx
                            CODE:0040104e 53                               push   %ebx
                            CODE:0040104f 00 00                            add    %al,(%eax)
                            CODE:00401051 00 00                            add    %al,(%eax)
                            CODE:00401053 00 00                            add    %al,(%eax)
                            CODE:00401055 00 00                            add    %al,(%eax)
                            CODE:00401057 43                               inc    %ebx
                            CODE:00401058 3a 5c 56 49                      cmp    0x49(%esi,%edx,2),%bl
                            CODE:0040105c 52                               push   %edx
                            CODE:0040105d 55                               push   %ebp
                            CODE:0040105e 53                               push   %ebx
                            CODE:0040105f 2e 54                            cs push %esp
                            CODE:00401061 58                               pop    %eax
                            CODE:00401062 54                               push   %esp
                            CODE:00401063 00 00                            add    %al,(%eax)
                            CODE:00401065 00 00                            add    %al,(%eax)
                            CODE:00401067 00 47 65                         add    %al,0x65(%edi)
                            CODE:0040106a 74 50                            je     0x004010bc
                            CODE:0040106c 72 6f                            jb     0x004010dd
                            CODE:0040106e 63 41 64                         arpl   %ax,0x64(%ecx)
                            CODE:00401071 64 72 65                         fs jb  0x004010d9
                            CODE:00401074 73 73                            jae    0x004010e9
                            CODE:00401076 00 00                            add    %al,(%eax)
                            CODE:00401078 00 00                            add    %al,(%eax)
                            CODE:0040107a 00 43 6c                         add    %al,0x6c(%ebx)
                            CODE:0040107d 6f                               outsl  %ds:(%esi),(%dx)
                            CODE:0040107e 73 65                            jae    0x004010e5
                            CODE:00401080 48                               dec    %eax
                            CODE:00401081 61                               popa   
                            CODE:00401082 6e                               outsb  %ds:(%esi),(%dx)
                            CODE:00401083 64 6c                            fs insb (%dx),%es:(%edi)
                            CODE:00401085 65 00 00                         add    %al,%gs:(%eax)
                            CODE:00401088 00 00                            add    %al,(%eax)
                            CODE:0040108a 00 43 72                         add    %al,0x72(%ebx)
                            CODE:0040108d 65 61                            gs popa 
                            CODE:0040108f 74 65                            je     0x004010f6
                            CODE:00401091 46                               inc    %esi
                            CODE:00401092 69 6c 65 41 00 00 00 00          imul   $0x0,0x41(%ebp,%eiz,2),%ebp
                            CODE:0040109a 00 43 72                         add    %al,0x72(%ebx)
                            CODE:0040109d 65 61                            gs popa 
                            CODE:0040109f 74 65                            je     0x00401106
                            CODE:004010a1 46                               inc    %esi
                            CODE:004010a2 69 6c 65 4d 61 70 70 69          imul   $0x69707061,0x4d(%ebp,%eiz,2),%ebp
                            CODE:004010aa 6e                               outsb  %ds:(%esi),(%dx)
                            CODE:004010ab 67 41                            addr16 inc %ecx
                            CODE:004010ad 00 00                            add    %al,(%eax)
                            CODE:004010af 00 00                            add    %al,(%eax)
                            CODE:004010b1 00 47 65                         add    %al,0x65(%edi)
                            CODE:004010b4 74 46                            je     0x004010fc
                            CODE:004010b6 69 6c 65 41 74 74 72 69          imul   $0x69727474,0x41(%ebp,%eiz,2),%ebp
                            CODE:004010be 62 75 74                         bound  %esi,0x74(%ebp)
                            CODE:004010c1 65 73 41                         gs jae 0x00401105
                            CODE:004010c4 00 00                            add    %al,(%eax)
                            CODE:004010c6 00 00                            add    %al,(%eax)
                            CODE:004010c8 00 47 65                         add    %al,0x65(%edi)
                            CODE:004010cb 74 46                            je     0x00401113
                            CODE:004010cd 69 6c 65 53 69 7a 65 00          imul   $0x657a69,0x53(%ebp,%eiz,2),%ebp
                            CODE:004010d5 00 00                            add    %al,(%eax)
                            CODE:004010d7 00 00                            add    %al,(%eax)
                            CODE:004010d9 47                               inc    %edi
                            CODE:004010da 65 74 46                         gs je  0x00401123
                            CODE:004010dd 69 6c 65 54 69 6d 65 00          imul   $0x656d69,0x54(%ebp,%eiz,2),%ebp
                            CODE:004010e5 00 00                            add    %al,(%eax)
                            CODE:004010e7 00 00                            add    %al,(%eax)
                            CODE:004010e9 47                               inc    %edi
                            CODE:004010ea 65 74 4c                         gs je  0x00401139
                            CODE:004010ed 6f                               outsl  %ds:(%esi),(%dx)
                            CODE:004010ee 63 61 6c                         arpl   %sp,0x6c(%ecx)
                            CODE:004010f1 54                               push   %esp
                            CODE:004010f2 69 6d 65 00 00 00 00             imul   $0x0,0x65(%ebp),%ebp
                            CODE:004010f9 00 47 65                         add    %al,0x65(%edi)
                            CODE:004010fc 74 54                            je     0x00401152
                            CODE:004010fe 69 63 6b 43 6f 75 6e             imul   $0x6e756f43,0x6b(%ebx),%esp
                            CODE:00401105 74 00                            je     0x00401107
                            CODE:00401107 00 00                            add    %al,(%eax)
                            CODE:00401109 00 00                            add    %al,(%eax)
                            CODE:0040110b 4c                               dec    %esp
                            CODE:0040110c 6f                               outsl  %ds:(%esi),(%dx)
                            CODE:0040110d 61                               popa   
                            CODE:0040110e 64 4c                            fs dec %esp
                            CODE:00401110 69 62 72 61 72 79 41             imul   $0x41797261,0x72(%edx),%esp
                            CODE:00401117 00 00                            add    %al,(%eax)
                            CODE:00401119 00 00                            add    %al,(%eax)
                            CODE:0040111b 00 4d 61                         add    %cl,0x61(%ebp)
                            CODE:0040111e 70 56                            jo     0x00401176
                            CODE:00401120 69 65 77 4f 66 46 69             imul   $0x6946664f,0x77(%ebp),%esp
                            CODE:00401127 6c                               insb   (%dx),%es:(%edi)
                            CODE:00401128 65 00 00                         add    %al,%gs:(%eax)
                            CODE:0040112b 00 00                            add    %al,(%eax)
                            CODE:0040112d 00 53 65                         add    %dl,0x65(%ebx)
                            CODE:00401130 74 46                            je     0x00401178
                            CODE:00401132 69 6c 65 41 74 74 72 69          imul   $0x69727474,0x41(%ebp,%eiz,2),%ebp
                            CODE:0040113a 62 75 74                         bound  %esi,0x74(%ebp)
                            CODE:0040113d 65 73 41                         gs jae 0x00401181
                            CODE:00401140 00 00                            add    %al,(%eax)
                            CODE:00401142 00 00                            add    %al,(%eax)
                            CODE:00401144 00 53 65                         add    %dl,0x65(%ebx)
                            CODE:00401147 74 46                            je     0x0040118f
                            CODE:00401149 69 6c 65 54 69 6d 65 00          imul   $0x656d69,0x54(%ebp,%eiz,2),%ebp
                            CODE:00401151 00 00                            add    %al,(%eax)
                            CODE:00401153 00 00                            add    %al,(%eax)
                            CODE:00401155 55                               push   %ebp
                            CODE:00401156 6e                               outsb  %ds:(%esi),(%dx)
                            CODE:00401157 6d                               insl   (%dx),%es:(%edi)
                            CODE:00401158 61                               popa   
                            CODE:00401159 70 56                            jo     0x004011b1
                            CODE:0040115b 69 65 77 4f 66 46 69             imul   $0x6946664f,0x77(%ebp),%esp
                            CODE:00401162 6c                               insb   (%dx),%es:(%edi)
                            CODE:00401163 65 00 00                         add    %al,%gs:(%eax)
                            CODE:00401166 00 00                            add    %al,(%eax)
                            CODE:00401168 00 45 78                         add    %al,0x78(%ebp)
                            CODE:0040116b 69 74 57 69 6e 64 6f 77          imul   $0x776f646e,0x69(%edi,%edx,2),%esi
                            CODE:00401173 73 45                            jae    0x004011ba
                            CODE:00401175 78 00                            js     0x00401177
                            CODE:00401177 00 00                            add    %al,(%eax)
                            CODE:00401179 00 00                            add    %al,(%eax)
                            CODE:0040117b 4d                               dec    %ebp
                            CODE:0040117c 65 73 73                         gs jae 0x004011f2
                            CODE:0040117f 61                               popa   
                            CODE:00401180 67 65 42                         addr16 gs inc %edx
                            CODE:00401183 6f                               outsl  %ds:(%esi),(%dx)
                            CODE:00401184 78 41                            js     0x004011c7
                            CODE:00401186 00 00                            add    %al,(%eax)
                            CODE:00401188 00 00                            add    %al,(%eax)
                            CODE:0040118a 00 4e 4f                         add    %cl,0x4f(%esi)
                            CODE:0040118d 54                               push   %esp
                            CODE:0040118e 45                               inc    %ebp
                            CODE:0040118f 50                               push   %eax
                            CODE:00401190 41                               inc    %ecx
                            CODE:00401191 44                               inc    %esp
                            CODE:00401192 2e 45                            cs inc %ebp
                            CODE:00401194 58                               pop    %eax
                            CODE:00401195 45                               inc    %ebp
                            CODE:00401196 00 55 6e                         add    %dl,0x6e(%ebp)
                            CODE:00401199 68 61 6e 64 6c                   push   $0x6c646e61
                            CODE:0040119e 65 64 20 45 78                   gs and %al,%fs:0x78(%ebp)
                            CODE:004011a3 63 65 70                         arpl   %sp,0x70(%ebp)
                            CODE:004011a6 74 69                            je     0x00401211
                            CODE:004011a8 6f                               outsl  %ds:(%esi),(%dx)
                            CODE:004011a9 6e                               outsb  %ds:(%esi),(%dx)
                            CODE:004011aa 20 69 6e                         and    %ch,0x6e(%ecx)
                            CODE:004011ad 20 57 69                         and    %dl,0x69(%edi)
                            CODE:004011b0 6e                               outsb  %ds:(%esi),(%dx)
                            CODE:004011b1 4d                               dec    %ebp
                            CODE:004011b2 61                               popa   
                            CODE:004011b3 69 6e 00 48 61 70 70             imul   $0x70706148,0x0(%esi),%ebp
                            CODE:004011ba 79 20                            jns    0x004011dc
                            CODE:004011bc 42                               inc    %edx
                            CODE:004011bd 69 72 74 68 44 61 79             imul   $0x79614468,0x74(%edx),%esi
                            CODE:004011c4 20 3a                            and    %bh,(%edx)
                            CODE:004011c6 2d 29 00 54 68                   sub    $0x68540029,%eax
                            CODE:004011cb 69 73 20 46 69 6c 65             imul   $0x656c6946,0x20(%ebx),%esi
                            CODE:004011d2 20 69 73                         and    %ch,0x73(%ecx)
                            CODE:004011d5 20 49 6e                         and    %cl,0x6e(%ecx)
                            CODE:004011d8 66 65 63 74 65 64                data16 arpl %si,%gs:0x64(%ebp,%eiz,2)
                            CODE:004011de 20 62 79                         and    %ah,0x79(%edx)
                            CODE:004011e1 20 74 68 65                      and    %dh,0x65(%eax,%ebp,2)
                            CODE:004011e5 20 42 6c                         and    %al,0x6c(%edx)
                            CODE:004011e8 61                               popa   
                            CODE:004011e9 63 6b 42                         arpl   %bp,0x42(%ebx)
                            CODE:004011ec 61                               popa   
                            CODE:004011ed 74 20                            je     0x0040120f
                            CODE:004011ef 56                               push   %esi
                            CODE:004011f0 69 72 75 73 00 fa f7             imul   $0xf7fa0073,0x75(%edx),%esi
                            CODE:004011f7 d4 f7                            aam    $0xf7
                            CODE:004011f9 d4 fb                            aam    $0xfb
                            CODE:004011fb 60                               pusha  
                            CODE:004011fc e8 00 00 00 00                   call   0x00401201
                            CODE:00401201 5e                               pop    %esi
                            CODE:00401202 81 c6 93 00 00 00                add    $0x93,%esi
                            CODE:00401208 56                               push   %esi
                            CODE:00401209 64 67 ff 36 00 00                pushl  %fs:0x0
                            CODE:0040120f 64 67 89 26 00 00                mov    %esp,%fs:0x0
                            CODE:00401215 e8 a6 08 00 00                   call   0x00401ac0
                            CODE:0040121a 85 c0                            test   %eax,%eax
                            CODE:0040121c 75 71                            jne    0x0040128f
                            CODE:0040121e 90                               nop
                            CODE:0040121f 90                               nop
                            CODE:00401220 90                               nop
                            CODE:00401221 90                               nop
                            CODE:00401222 e8 8e 00 00 00                   call   0x004012b5
                            CODE:00401227 85 c0                            test   %eax,%eax
                            CODE:00401229 74 64                            je     0x0040128f
                            CODE:0040122b 90                               nop
                            CODE:0040122c 90                               nop
                            CODE:0040122d 90                               nop
                            CODE:0040122e 90                               nop
                            CODE:0040122f e8 00 00 00 00                   call   0x00401234
                            CODE:00401234 5b                               pop    %ebx
                            CODE:00401235 81 c3 57 ff ff ff                add    $0xffffff57,%ebx
                            CODE:0040123b 53                               push   %ebx
                            CODE:0040123c e8 d3 03 00 00                   call   0x00401614
                            CODE:00401241 e8 93 05 00 00                   call   0x004017d9
                            CODE:00401246 85 c0                            test   %eax,%eax
                            CODE:00401248 74 45                            je     0x0040128f
                            CODE:0040124a 90                               nop
                            CODE:0040124b 90                               nop
                            CODE:0040124c 90                               nop
                            CODE:0040124d 90                               nop
                            CODE:0040124e e8 c2 05 00 00                   call   0x00401815
                            CODE:00401253 0b c0                            or     %eax,%eax
                            CODE:00401255 74 38                            je     0x0040128f
                            CODE:00401257 90                               nop
                            CODE:00401258 90                               nop
                            CODE:00401259 90                               nop
                            CODE:0040125a 90                               nop
                            CODE:0040125b e8 00 00 00 00                   call   0x00401260
                            CODE:00401260 5b                               pop    %ebx
                            CODE:00401261 81 c3 a0 fd ff ff                add    $0xfffffda0,%ebx
                            CODE:00401267 05 6e 02 00 00                   add    $0x26e,%eax
                            CODE:0040126c ff e0                            jmp    *%eax
                            CODE:0040126e e8 00 00 00 00                   call   0x00401273
                            CODE:00401273 58                               pop    %eax
                            CODE:00401274 2d 73 12 40 00                   sub    $0x401273,%eax
                            CODE:00401279 8b f0                            mov    %eax,%esi
                            CODE:0040127b 05 00 10 40 00                   add    $0x401000,%eax
                            CODE:00401280 2b c3                            sub    %ebx,%eax
                            CODE:00401282 81 c6 b1 12 40 00                add    $0x4012b1,%esi
                            CODE:00401288 29 06                            sub    %eax,(%esi)
                            CODE:0040128a e8 20 06 00 00                   call   0x004018af
                            CODE:0040128f eb 16                            jmp    0x004012a7
                            CODE:00401291 90                               nop
                            CODE:00401292 90                               nop
                            CODE:00401293 90                               nop
                            CODE:00401294 8b 64 24 08                      mov    0x8(%esp),%esp
                            CODE:00401298 64 67 8f 06 00 00                popl   %fs:0x0
                            CODE:0040129e 83 c4 04                         add    $0x4,%esp
                            CODE:004012a1 61                               popa   
                            CODE:004012a2 eb 0c                            jmp    0x004012b0
                            CODE:004012a4 90                               nop
                            CODE:004012a5 90                               nop
                            CODE:004012a6 90                               nop
                            CODE:004012a7 64 67 8f 06 00 00                popl   %fs:0x0
                            CODE:004012ad 83 c4 24                         add    $0x24,%esp
                            CODE:004012b0 e9 00 00 00 00                   jmp    0x004012b5
                            CODE:004012b5 6a 01                            push   $0x1
                            CODE:004012b7 e8 69 01 00 00                   call   0x00401425
                            CODE:004012bc 85 c0                            test   %eax,%eax
                            CODE:004012be 0f 84 60 01 00 00                je     0x00401424
                            CODE:004012c4 e8 00 00 00 00                   call   0x004012c9
                            CODE:004012c9 5e                               pop    %esi
                            CODE:004012ca 81 ee c9 12 40 00                sub    $0x4012c9,%esi
                            CODE:004012d0 8b d8                            mov    %eax,%ebx
                            CODE:004012d2 b9 00 00 f7 bf                   mov    $0xbff70000,%ecx
                            CODE:004012d7 53                               push   %ebx
                            CODE:004012d8 51                               push   %ecx
                            CODE:004012d9 8b c6                            mov    %esi,%eax
                            CODE:004012db 05 7b 10 40 00                   add    $0x40107b,%eax
                            CODE:004012e0 50                               push   %eax
                            CODE:004012e1 51                               push   %ecx
                            CODE:004012e2 ff d3                            call   *%ebx
                            CODE:004012e4 59                               pop    %ecx
                            CODE:004012e5 5b                               pop    %ebx
                            CODE:004012e6 89 86 87 10 40 00                mov    %eax,0x401087(%esi)
                            CODE:004012ec 53                               push   %ebx
                            CODE:004012ed 51                               push   %ecx
                            CODE:004012ee 8b c6                            mov    %esi,%eax
                            CODE:004012f0 05 8b 10 40 00                   add    $0x40108b,%eax
                            CODE:004012f5 50                               push   %eax
                            CODE:004012f6 51                               push   %ecx
                            CODE:004012f7 ff d3                            call   *%ebx
                            CODE:004012f9 59                               pop    %ecx
                            CODE:004012fa 5b                               pop    %ebx
                            CODE:004012fb 89 86 97 10 40 00                mov    %eax,0x401097(%esi)
                            CODE:00401301 53                               push   %ebx
                            CODE:00401302 51                               push   %ecx
                            CODE:00401303 8b c6                            mov    %esi,%eax
                            CODE:00401305 05 9b 10 40 00                   add    $0x40109b,%eax
                            CODE:0040130a 50                               push   %eax
                            CODE:0040130b 51                               push   %ecx
                            CODE:0040130c ff d3                            call   *%ebx
                            CODE:0040130e 59                               pop    %ecx
                            CODE:0040130f 5b                               pop    %ebx
                            CODE:00401310 89 86 ae 10 40 00                mov    %eax,0x4010ae(%esi)
                            CODE:00401316 53                               push   %ebx
                            CODE:00401317 51                               push   %ecx
                            CODE:00401318 8b c6                            mov    %esi,%eax
                            CODE:0040131a 05 b2 10 40 00                   add    $0x4010b2,%eax
                            CODE:0040131f 50                               push   %eax
                            CODE:00401320 51                               push   %ecx
                            CODE:00401321 ff d3                            call   *%ebx
                            CODE:00401323 59                               pop    %ecx
                            CODE:00401324 5b                               pop    %ebx
                            CODE:00401325 89 86 c5 10 40 00                mov    %eax,0x4010c5(%esi)
                            CODE:0040132b 53                               push   %ebx
                            CODE:0040132c 51                               push   %ecx
                            CODE:0040132d 8b c6                            mov    %esi,%eax
                            CODE:0040132f 05 c9 10 40 00                   add    $0x4010c9,%eax
                            CODE:00401334 50                               push   %eax
                            CODE:00401335 51                               push   %ecx
                            CODE:00401336 ff d3                            call   *%ebx
                            CODE:00401338 59                               pop    %ecx
                            CODE:00401339 5b                               pop    %ebx
                            CODE:0040133a 89 86 d5 10 40 00                mov    %eax,0x4010d5(%esi)
                            CODE:00401340 53                               push   %ebx
                            CODE:00401341 51                               push   %ecx
                            CODE:00401342 8b c6                            mov    %esi,%eax
                            CODE:00401344 05 d9 10 40 00                   add    $0x4010d9,%eax
                            CODE:00401349 50                               push   %eax
                            CODE:0040134a 51                               push   %ecx
                            CODE:0040134b ff d3                            call   *%ebx
                            CODE:0040134d 59                               pop    %ecx
                            CODE:0040134e 5b                               pop    %ebx
                            CODE:0040134f 89 86 e5 10 40 00                mov    %eax,0x4010e5(%esi)
                            CODE:00401355 53                               push   %ebx
                            CODE:00401356 51                               push   %ecx
                            CODE:00401357 8b c6                            mov    %esi,%eax
                            CODE:00401359 05 e9 10 40 00                   add    $0x4010e9,%eax
                            CODE:0040135e 50                               push   %eax
                            CODE:0040135f 51                               push   %ecx
                            CODE:00401360 ff d3                            call   *%ebx
                            CODE:00401362 59                               pop    %ecx
                            CODE:00401363 5b                               pop    %ebx
                            CODE:00401364 89 86 f6 10 40 00                mov    %eax,0x4010f6(%esi)
                            CODE:0040136a 53                               push   %ebx
                            CODE:0040136b 51                               push   %ecx
                            CODE:0040136c 8b c6                            mov    %esi,%eax
                            CODE:0040136e 05 fa 10 40 00                   add    $0x4010fa,%eax
                            CODE:00401373 50                               push   %eax
                            CODE:00401374 51                               push   %ecx
                            CODE:00401375 ff d3                            call   *%ebx
                            CODE:00401377 59                               pop    %ecx
                            CODE:00401378 5b                               pop    %ebx
                            CODE:00401379 89 86 07 11 40 00                mov    %eax,0x401107(%esi)
                            CODE:0040137f 53                               push   %ebx
                            CODE:00401380 51                               push   %ecx
                            CODE:00401381 8b c6                            mov    %esi,%eax
                            CODE:00401383 05 0b 11 40 00                   add    $0x40110b,%eax
                            CODE:00401388 50                               push   %eax
                            CODE:00401389 51                               push   %ecx
                            CODE:0040138a ff d3                            call   *%ebx
                            CODE:0040138c 59                               pop    %ecx
                            CODE:0040138d 5b                               pop    %ebx
                            CODE:0040138e 89 86 18 11 40 00                mov    %eax,0x401118(%esi)
                            CODE:00401394 53                               push   %ebx
                            CODE:00401395 51                               push   %ecx
                            CODE:00401396 8b c6                            mov    %esi,%eax
                            CODE:00401398 05 1c 11 40 00                   add    $0x40111c,%eax
                            CODE:0040139d 50                               push   %eax
                            CODE:0040139e 51                               push   %ecx
                            CODE:0040139f ff d3                            call   *%ebx
                            CODE:004013a1 59                               pop    %ecx
                            CODE:004013a2 5b                               pop    %ebx
                            CODE:004013a3 89 86 2a 11 40 00                mov    %eax,0x40112a(%esi)
                            CODE:004013a9 53                               push   %ebx
                            CODE:004013aa 51                               push   %ecx
                            CODE:004013ab 8b c6                            mov    %esi,%eax
                            CODE:004013ad 05 2e 11 40 00                   add    $0x40112e,%eax
                            CODE:004013b2 50                               push   %eax
                            CODE:004013b3 51                               push   %ecx
                            CODE:004013b4 ff d3                            call   *%ebx
                            CODE:004013b6 59                               pop    %ecx
                            CODE:004013b7 5b                               pop    %ebx
                            CODE:004013b8 89 86 41 11 40 00                mov    %eax,0x401141(%esi)
                            CODE:004013be 53                               push   %ebx
                            CODE:004013bf 51                               push   %ecx
                            CODE:004013c0 8b c6                            mov    %esi,%eax
                            CODE:004013c2 05 45 11 40 00                   add    $0x401145,%eax
                            CODE:004013c7 50                               push   %eax
                            CODE:004013c8 51                               push   %ecx
                            CODE:004013c9 ff d3                            call   *%ebx
                            CODE:004013cb 59                               pop    %ecx
                            CODE:004013cc 5b                               pop    %ebx
                            CODE:004013cd 89 86 51 11 40 00                mov    %eax,0x401151(%esi)
                            CODE:004013d3 53                               push   %ebx
                            CODE:004013d4 51                               push   %ecx
                            CODE:004013d5 8b c6                            mov    %esi,%eax
                            CODE:004013d7 05 55 11 40 00                   add    $0x401155,%eax
                            CODE:004013dc 50                               push   %eax
                            CODE:004013dd 51                               push   %ecx
                            CODE:004013de ff d3                            call   *%ebx
                            CODE:004013e0 59                               pop    %ecx
                            CODE:004013e1 5b                               pop    %ebx
                            CODE:004013e2 89 86 65 11 40 00                mov    %eax,0x401165(%esi)
                            CODE:004013e8 53                               push   %ebx
                            CODE:004013e9 8b c6                            mov    %esi,%eax
                            CODE:004013eb 05 1e 10 40 00                   add    $0x40101e,%eax
                            CODE:004013f0 50                               push   %eax
                            CODE:004013f1 ff 96 18 11 40 00                call   *0x401118(%esi)
                            CODE:004013f7 8b c8                            mov    %eax,%ecx
                            CODE:004013f9 5b                               pop    %ebx
                            CODE:004013fa 53                               push   %ebx
                            CODE:004013fb 51                               push   %ecx
                            CODE:004013fc 8b c6                            mov    %esi,%eax
                            CODE:004013fe 05 69 11 40 00                   add    $0x401169,%eax
                            CODE:00401403 50                               push   %eax
                            CODE:00401404 51                               push   %ecx
                            CODE:00401405 ff d3                            call   *%ebx
                            CODE:00401407 59                               pop    %ecx
                            CODE:00401408 5b                               pop    %ebx
                            CODE:00401409 89 86 77 11 40 00                mov    %eax,0x401177(%esi)
                            CODE:0040140f 53                               push   %ebx
                            CODE:00401410 51                               push   %ecx
                            CODE:00401411 8b c6                            mov    %esi,%eax
                            CODE:00401413 05 7b 11 40 00                   add    $0x40117b,%eax
                            CODE:00401418 50                               push   %eax
                            CODE:00401419 51                               push   %ecx
                            CODE:0040141a ff d3                            call   *%ebx
                            CODE:0040141c 59                               pop    %ecx
                            CODE:0040141d 5b                               pop    %ebx
                            CODE:0040141e 89 86 87 11 40 00                mov    %eax,0x401187(%esi)
                            CODE:00401424 c3                               ret    
                            CODE:00401425 c8 10 00 00                      enter  $0x10,$0x0
                            CODE:00401429 68 00 00 f7 bf                   push   $0xbff70000
                            CODE:0040142e e8 d8 06 00 00                   call   0x00401b0b
                            CODE:00401433 85 c0                            test   %eax,%eax
                            CODE:00401435 0f 84 7e 00 00 00                je     0x004014b9
                            CODE:0040143b 89 55 f0                         mov    %edx,-0x10(%ebp)
                            CODE:0040143e be 00 00 f7 bf                   mov    $0xbff70000,%esi
                            CODE:00401443 8b 4d f0                         mov    -0x10(%ebp),%ecx
                            CODE:00401446 8b 41 1c                         mov    0x1c(%ecx),%eax
                            CODE:00401449 03 c6                            add    %esi,%eax
                            CODE:0040144b 89 45 fc                         mov    %eax,-0x4(%ebp)
                            CODE:0040144e 66 83 7d 08 00                   cmpw   $0x0,0x8(%ebp)
                            CODE:00401453 75 0f                            jne    0x00401464
                            CODE:00401455 90                               nop
                            CODE:00401456 90                               nop
                            CODE:00401457 90                               nop
                            CODE:00401458 90                               nop
                            CODE:00401459 33 c0                            xor    %eax,%eax
                            CODE:0040145b 40                               inc    %eax
                            CODE:0040145c 2b 41 10                         sub    0x10(%ecx),%eax
                            CODE:0040145f eb 50                            jmp    0x004014b1
                            CODE:00401461 90                               nop
                            CODE:00401462 90                               nop
                            CODE:00401463 90                               nop
                            CODE:00401464 8b 4d f0                         mov    -0x10(%ebp),%ecx
                            CODE:00401467 8b 41 20                         mov    0x20(%ecx),%eax
                            CODE:0040146a 03 c6                            add    %esi,%eax
                            CODE:0040146c 89 45 f8                         mov    %eax,-0x8(%ebp)
                            CODE:0040146f 8b 4d f0                         mov    -0x10(%ebp),%ecx
                            CODE:00401472 8b 41 24                         mov    0x24(%ecx),%eax
                            CODE:00401475 03 c6                            add    %esi,%eax
                            CODE:00401477 89 45 f4                         mov    %eax,-0xc(%ebp)
                            CODE:0040147a 56                               push   %esi
                            CODE:0040147b 8b c6                            mov    %esi,%eax
                            CODE:0040147d 33 db                            xor    %ebx,%ebx
                            CODE:0040147f 4b                               dec    %ebx
                            CODE:00401480 8b 55 f8                         mov    -0x8(%ebp),%edx
                            CODE:00401483 e8 00 00 00 00                   call   0x00401488
                            CODE:00401488 5e                               pop    %esi
                            CODE:00401489 81 c6 e0 fb ff ff                add    $0xfffffbe0,%esi
                            CODE:0040148f 8b ce                            mov    %esi,%ecx
                            CODE:00401491 43                               inc    %ebx
                            CODE:00401492 8b 3c 9a                         mov    (%edx,%ebx,4),%edi
                            CODE:00401495 03 f8                            add    %eax,%edi
                            CODE:00401497 8b f1                            mov    %ecx,%esi
                            CODE:00401499 a6                               cmpsb  %es:(%edi),%ds:(%esi)
                            CODE:0040149a 75 f5                            jne    0x00401491
                            CODE:0040149c 80 3f 00                         cmpb   $0x0,(%edi)
                            CODE:0040149f 74 06                            je     0x004014a7
                            CODE:004014a1 90                               nop
                            CODE:004014a2 90                               nop
                            CODE:004014a3 90                               nop
                            CODE:004014a4 90                               nop
                            CODE:004014a5 eb f2                            jmp    0x00401499
                            CODE:004014a7 5e                               pop    %esi
                            CODE:004014a8 8b cb                            mov    %ebx,%ecx
                            CODE:004014aa 8b 55 f4                         mov    -0xc(%ebp),%edx
                            CODE:004014ad 0f b7 04 4a                      movzwl (%edx,%ecx,2),%eax
                            CODE:004014b1 8b 5d fc                         mov    -0x4(%ebp),%ebx
                            CODE:004014b4 8b 04 83                         mov    (%ebx,%eax,4),%eax
                            CODE:004014b7 03 c6                            add    %esi,%eax
                            CODE:004014b9 c9                               leave  
                            CODE:004014ba c2 04 00                         ret    $0x4
                            CODE:004014bd c8 00 00 00                      enter  $0x0,$0x0
                            CODE:004014c1 e8 00 00 00 00                   call   0x004014c6
                            CODE:004014c6 5e                               pop    %esi
                            CODE:004014c7 81 ee c6 14 40 00                sub    $0x4014c6,%esi
                            CODE:004014cd ff 75 08                         pushl  0x8(%ebp)
                            CODE:004014d0 ff 96 c5 10 40 00                call   *0x4010c5(%esi)
                            CODE:004014d6 89 86 41 10 40 00                mov    %eax,0x401041(%esi)
                            CODE:004014dc 68 80 00 00 00                   push   $0x80
                            CODE:004014e1 ff 75 08                         pushl  0x8(%ebp)
                            CODE:004014e4 ff 96 41 11 40 00                call   *0x401141(%esi)
                            CODE:004014ea 85 c0                            test   %eax,%eax
                            CODE:004014ec 0f 84 bb 00 00 00                je     0x004015ad
                            CODE:004014f2 6a 00                            push   $0x0
                            CODE:004014f4 6a 00                            push   $0x0
                            CODE:004014f6 6a 03                            push   $0x3
                            CODE:004014f8 6a 00                            push   $0x0
                            CODE:004014fa 6a 01                            push   $0x1
                            CODE:004014fc 68 00 00 00 c0                   push   $0xc0000000
                            CODE:00401501 ff 75 08                         pushl  0x8(%ebp)
                            CODE:00401504 ff 96 97 10 40 00                call   *0x401097(%esi)
                            CODE:0040150a 83 f8 ff                         cmp    $0xffffffff,%eax
                            CODE:0040150d 0f 84 89 00 00 00                je     0x0040159c
                            CODE:00401513 89 86 25 10 40 00                mov    %eax,0x401025(%esi)
                            CODE:00401519 8d 9e 31 10 40 00                lea    0x401031(%esi),%ebx
                            CODE:0040151f 8d 8e 39 10 40 00                lea    0x401039(%esi),%ecx
                            CODE:00401525 51                               push   %ecx
                            CODE:00401526 53                               push   %ebx
                            CODE:00401527 6a 00                            push   $0x0
                            CODE:00401529 50                               push   %eax
                            CODE:0040152a ff 96 e5 10 40 00                call   *0x4010e5(%esi)
                            CODE:00401530 6a 00                            push   $0x0
                            CODE:00401532 ff b6 25 10 40 00                pushl  0x401025(%esi)
                            CODE:00401538 ff 96 d5 10 40 00                call   *0x4010d5(%esi)
                            CODE:0040153e 03 45 0c                         add    0xc(%ebp),%eax
                            CODE:00401541 6a 00                            push   $0x0
                            CODE:00401543 50                               push   %eax
                            CODE:00401544 6a 00                            push   $0x0
                            CODE:00401546 6a 04                            push   $0x4
                            CODE:00401548 6a 00                            push   $0x0
                            CODE:0040154a ff b6 25 10 40 00                pushl  0x401025(%esi)
                            CODE:00401550 ff 96 ae 10 40 00                call   *0x4010ae(%esi)
                            CODE:00401556 85 c0                            test   %eax,%eax
                            CODE:00401558 74 36                            je     0x00401590
                            CODE:0040155a 90                               nop
                            CODE:0040155b 90                               nop
                            CODE:0040155c 90                               nop
                            CODE:0040155d 90                               nop
                            CODE:0040155e 89 86 29 10 40 00                mov    %eax,0x401029(%esi)
                            CODE:00401564 6a 00                            push   $0x0
                            CODE:00401566 6a 00                            push   $0x0
                            CODE:00401568 6a 00                            push   $0x0
                            CODE:0040156a 68 1f 00 0f 00                   push   $0xf001f
                            CODE:0040156f 50                               push   %eax
                            CODE:00401570 ff 96 2a 11 40 00                call   *0x40112a(%esi)
                            CODE:00401576 89 86 2d 10 40 00                mov    %eax,0x40102d(%esi)
                            CODE:0040157c 85 c0                            test   %eax,%eax
                            CODE:0040157e 75 2d                            jne    0x004015ad
                            CODE:00401580 90                               nop
                            CODE:00401581 90                               nop
                            CODE:00401582 90                               nop
                            CODE:00401583 90                               nop
                            CODE:00401584 ff b6 29 10 40 00                pushl  0x401029(%esi)
                            CODE:0040158a ff 96 87 10 40 00                call   *0x401087(%esi)
                            CODE:00401590 ff b6 25 10 40 00                pushl  0x401025(%esi)
                            CODE:00401596 ff 96 87 10 40 00                call   *0x401087(%esi)
                            CODE:0040159c ff b6 41 10 40 00                pushl  0x401041(%esi)
                            CODE:004015a2 ff 75 08                         pushl  0x8(%ebp)
                            CODE:004015a5 ff 96 41 11 40 00                call   *0x401141(%esi)
                            CODE:004015ab 33 c0                            xor    %eax,%eax
                            CODE:004015ad c9                               leave  
                            CODE:004015ae c2 08 00                         ret    $0x8
                            CODE:004015b1 c8 00 00 00                      enter  $0x0,$0x0
                            CODE:004015b5 e8 00 00 00 00                   call   0x004015ba
                            CODE:004015ba 5e                               pop    %esi
                            CODE:004015bb 81 ee ba 15 40 00                sub    $0x4015ba,%esi
                            CODE:004015c1 ff b6 2d 10 40 00                pushl  0x40102d(%esi)
                            CODE:004015c7 ff 96 65 11 40 00                call   *0x401165(%esi)
                            CODE:004015cd ff b6 29 10 40 00                pushl  0x401029(%esi)
                            CODE:004015d3 ff 96 87 10 40 00                call   *0x401087(%esi)
                            CODE:004015d9 8d 86 31 10 40 00                lea    0x401031(%esi),%eax
                            CODE:004015df 8d 9e 39 10 40 00                lea    0x401039(%esi),%ebx
                            CODE:004015e5 53                               push   %ebx
                            CODE:004015e6 50                               push   %eax
                            CODE:004015e7 6a 00                            push   $0x0
                            CODE:004015e9 ff b6 25 10 40 00                pushl  0x401025(%esi)
                            CODE:004015ef ff 96 51 11 40 00                call   *0x401151(%esi)
                            CODE:004015f5 ff b6 25 10 40 00                pushl  0x401025(%esi)
                            CODE:004015fb ff 96 87 10 40 00                call   *0x401087(%esi)
                            CODE:00401601 ff b6 41 10 40 00                pushl  0x401041(%esi)
                            CODE:00401607 ff 75 08                         pushl  0x8(%ebp)
                            CODE:0040160a ff 96 41 11 40 00                call   *0x401141(%esi)
                            CODE:00401610 c9                               leave  
                            CODE:00401611 c2 04 00                         ret    $0x4
                            CODE:00401614 c8 20 00 00                      enter  $0x20,$0x0
                            CODE:00401618 e8 00 00 00 00                   call   0x0040161d
                            CODE:0040161d 5e                               pop    %esi
                            CODE:0040161e 81 ee 1d 16 40 00                sub    $0x40161d,%esi
                            CODE:00401624 89 75 e0                         mov    %esi,-0x20(%ebp)
                            CODE:00401627 ff 75 08                         pushl  0x8(%ebp)
                            CODE:0040162a e8 1f 01 00 00                   call   0x0040174e
                            CODE:0040162f 85 c0                            test   %eax,%eax
                            CODE:00401631 0f 84 dc 00 00 00                je     0x00401713
                            CODE:00401637 89 5d e8                         mov    %ebx,-0x18(%ebp)
                            CODE:0040163a 89 4d e4                         mov    %ecx,-0x1c(%ebp)
                            CODE:0040163d ff 75 e8                         pushl  -0x18(%ebp)
                            CODE:00401640 ff 75 08                         pushl  0x8(%ebp)
                            CODE:00401643 e8 75 fe ff ff                   call   0x004014bd
                            CODE:00401648 85 c0                            test   %eax,%eax
                            CODE:0040164a 0f 84 c3 00 00 00                je     0x00401713
                            CODE:00401650 8b 75 e0                         mov    -0x20(%ebp),%esi
                            CODE:00401653 89 86 2d 10 40 00                mov    %eax,0x40102d(%esi)
                            CODE:00401659 50                               push   %eax
                            CODE:0040165a e8 ac 04 00 00                   call   0x00401b0b
                            CODE:0040165f 89 5d ec                         mov    %ebx,-0x14(%ebp)
                            CODE:00401662 89 4d fc                         mov    %ecx,-0x4(%ebp)
                            CODE:00401665 8b 41 14                         mov    0x14(%ecx),%eax
                            CODE:00401668 03 41 10                         add    0x10(%ecx),%eax
                            CODE:0040166b 89 45 f8                         mov    %eax,-0x8(%ebp)
                            CODE:0040166e 8b 5d fc                         mov    -0x4(%ebp),%ebx
                            CODE:00401671 2b 43 14                         sub    0x14(%ebx),%eax
                            CODE:00401674 03 43 0c                         add    0xc(%ebx),%eax
                            CODE:00401677 89 45 f4                         mov    %eax,-0xc(%ebp)
                            CODE:0040167a 05 b0 02 00 00                   add    $0x2b0,%eax
                            CODE:0040167f 8b 5d ec                         mov    -0x14(%ebp),%ebx
                            CODE:00401682 2b 43 10                         sub    0x10(%ebx),%eax
                            CODE:00401685 83 c0 04                         add    $0x4,%eax
                            CODE:00401688 f7 d0                            not    %eax
                            CODE:0040168a 89 45 f0                         mov    %eax,-0x10(%ebp)
                            CODE:0040168d be 00 10 40 00                   mov    $0x401000,%esi
                            CODE:00401692 03 75 e0                         add    -0x20(%ebp),%esi
                            CODE:00401695 8b 7d f8                         mov    -0x8(%ebp),%edi
                            CODE:00401698 8b 5d e0                         mov    -0x20(%ebp),%ebx
                            CODE:0040169b 03 bb 2d 10 40 00                add    0x40102d(%ebx),%edi
                            CODE:004016a1 b9 ac 0b 00 00                   mov    $0xbac,%ecx
                            CODE:004016a6 90                               nop
                            CODE:004016a7 f3 a4                            rep movsb %ds:(%esi),%es:(%edi)
                            CODE:004016a9 bb b1 02 00 00                   mov    $0x2b1,%ebx
                            CODE:004016ae 03 5d f8                         add    -0x8(%ebp),%ebx
                            CODE:004016b1 8b 75 e0                         mov    -0x20(%ebp),%esi
                            CODE:004016b4 03 9e 2d 10 40 00                add    0x40102d(%esi),%ebx
                            CODE:004016ba 8b 4d f0                         mov    -0x10(%ebp),%ecx
                            CODE:004016bd 89 0b                            mov    %ecx,(%ebx)
                            CODE:004016bf 8b 45 fc                         mov    -0x4(%ebp),%eax
                            CODE:004016c2 8b 5d e4                         mov    -0x1c(%ebp),%ebx
                            CODE:004016c5 8b 4d e8                         mov    -0x18(%ebp),%ecx
                            CODE:004016c8 01 48 10                         add    %ecx,0x10(%eax)
                            CODE:004016cb 01 58 08                         add    %ebx,0x8(%eax)
                            CODE:004016ce 81 48 24 00 00 00 e0             orl    $0xe0000000,0x24(%eax)
                            CODE:004016d5 8b 58 10                         mov    0x10(%eax),%ebx
                            CODE:004016d8 39 58 08                         cmp    %ebx,0x8(%eax)
                            CODE:004016db 7d 07                            jge    0x004016e4
                            CODE:004016dd 90                               nop
                            CODE:004016de 90                               nop
                            CODE:004016df 90                               nop
                            CODE:004016e0 90                               nop
                            CODE:004016e1 89 58 08                         mov    %ebx,0x8(%eax)
                            CODE:004016e4 8b 5d ec                         mov    -0x14(%ebp),%ebx
                            CODE:004016e7 01 4b 38                         add    %ecx,0x38(%ebx)
                            CODE:004016ea 8b 4d f4                         mov    -0xc(%ebp),%ecx
                            CODE:004016ed 89 4b 10                         mov    %ecx,0x10(%ebx)
                            CODE:004016f0 c7 43 34 75 19 12 08             movl   $0x8121975,0x34(%ebx)
                            CODE:004016f7 8b 5d e0                         mov    -0x20(%ebp),%ebx
                            CODE:004016fa 8b bb 2d 10 40 00                mov    0x40102d(%ebx),%edi
                            CODE:00401700 03 7d f8                         add    -0x8(%ebp),%edi
                            CODE:00401703 e8 0f 00 00 00                   call   0x00401717
                            CODE:00401708 ff 75 08                         pushl  0x8(%ebp)
                            CODE:0040170b e8 a1 fe ff ff                   call   0x004015b1
                            CODE:00401710 33 c0                            xor    %eax,%eax
                            CODE:00401712 40                               inc    %eax
                            CODE:00401713 c9                               leave  
                            CODE:00401714 c2 04 00                         ret    $0x4
                            CODE:00401717 57                               push   %edi
                            CODE:00401718 e4 40                            in     $0x40,%al
                            CODE:0040171a 32 c0                            xor    %al,%al
                            CODE:0040171c b9 97 0b 00 00                   mov    $0xb97,%ecx
                            CODE:00401721 90                               nop
                            CODE:00401722 83 c7 15                         add    $0x15,%edi
                            CODE:00401725 90                               nop
                            CODE:00401726 90                               nop
                            CODE:00401727 90                               nop
                            CODE:00401728 30 07                            xor    %al,(%edi)
                            CODE:0040172a 47                               inc    %edi
                            CODE:0040172b e2 fb                            loop   0x00401728
                            CODE:0040172d 5f                               pop    %edi
                            CODE:0040172e 88 47 10                         mov    %al,0x10(%edi)
                            CODE:00401731 e8 2e 04 00 00                   call   0x00401b64
                            CODE:00401736 c3                               ret    
                            CODE:00401737 c8 00 00 00                      enter  $0x0,$0x0
                            CODE:0040173b 8b 7d 08                         mov    0x8(%ebp),%edi
                            CODE:0040173e 33 c9                            xor    %ecx,%ecx
                            CODE:00401740 49                               dec    %ecx
                            CODE:00401741 33 c0                            xor    %eax,%eax
                            CODE:00401743 f2 ae                            repnz scas %es:(%edi),%al
                            CODE:00401745 f7 d1                            not    %ecx
                            CODE:00401747 49                               dec    %ecx
                            CODE:00401748 8b c1                            mov    %ecx,%eax
                            CODE:0040174a c9                               leave  
                            CODE:0040174b c2 04 00                         ret    $0x4
                            CODE:0040174e c8 00 00 00                      enter  $0x0,$0x0
                            CODE:00401752 6a 00                            push   $0x0
                            CODE:00401754 ff 75 08                         pushl  0x8(%ebp)
                            CODE:00401757 e8 61 fd ff ff                   call   0x004014bd
                            CODE:0040175c 85 c0                            test   %eax,%eax
                            CODE:0040175e 74 75                            je     0x004017d5
                            CODE:00401760 90                               nop
                            CODE:00401761 90                               nop
                            CODE:00401762 90                               nop
                            CODE:00401763 90                               nop
                            CODE:00401764 50                               push   %eax
                            CODE:00401765 e8 a1 03 00 00                   call   0x00401b0b
                            CODE:0040176a 85 c0                            test   %eax,%eax
                            CODE:0040176c 74 67                            je     0x004017d5
                            CODE:0040176e 90                               nop
                            CODE:0040176f 90                               nop
                            CODE:00401770 90                               nop
                            CODE:00401771 90                               nop
                            CODE:00401772 81 7b 34 75 19 12 08             cmpl   $0x8121975,0x34(%ebx)
                            CODE:00401779 74 50                            je     0x004017cb
                            CODE:0040177b 90                               nop
                            CODE:0040177c 90                               nop
                            CODE:0040177d 90                               nop
                            CODE:0040177e 90                               nop
                            CODE:0040177f 66 f7 40 12 00 20                testw  $0x2000,0x12(%eax)
                            CODE:00401785 75 44                            jne    0x004017cb
                            CODE:00401787 90                               nop
                            CODE:00401788 90                               nop
                            CODE:00401789 90                               nop
                            CODE:0040178a 90                               nop
                            CODE:0040178b 81 39 5f 77 69 6e                cmpl   $0x6e69775f,(%ecx)
                            CODE:00401791 74 38                            je     0x004017cb
                            CODE:00401793 90                               nop
                            CODE:00401794 90                               nop
                            CODE:00401795 90                               nop
                            CODE:00401796 90                               nop
                            CODE:00401797 8b c3                            mov    %ebx,%eax
                            CODE:00401799 8b 58 24                         mov    0x24(%eax),%ebx
                            CODE:0040179c 8b 48 20                         mov    0x20(%eax),%ecx
                            CODE:0040179f b8 ab 0b 00 00                   mov    $0xbab,%eax
                            CODE:004017a4 03 c1                            add    %ecx,%eax
                            CODE:004017a6 33 d2                            xor    %edx,%edx
                            CODE:004017a8 f7 f1                            div    %ecx
                            CODE:004017aa f7 e1                            mul    %ecx
                            CODE:004017ac 50                               push   %eax
                            CODE:004017ad b8 ab 0b 00 00                   mov    $0xbab,%eax
                            CODE:004017b2 03 c3                            add    %ebx,%eax
                            CODE:004017b4 f7 f3                            div    %ebx
                            CODE:004017b6 f7 e3                            mul    %ebx
                            CODE:004017b8 50                               push   %eax
                            CODE:004017b9 ff 75 08                         pushl  0x8(%ebp)
                            CODE:004017bc e8 f0 fd ff ff                   call   0x004015b1
                            CODE:004017c1 5b                               pop    %ebx
                            CODE:004017c2 59                               pop    %ecx
                            CODE:004017c3 33 c0                            xor    %eax,%eax
                            CODE:004017c5 40                               inc    %eax
                            CODE:004017c6 eb 0d                            jmp    0x004017d5
                            CODE:004017c8 90                               nop
                            CODE:004017c9 90                               nop
                            CODE:004017ca 90                               nop
                            CODE:004017cb ff 75 08                         pushl  0x8(%ebp)
                            CODE:004017ce e8 de fd ff ff                   call   0x004015b1
                            CODE:004017d3 33 c0                            xor    %eax,%eax
                            CODE:004017d5 c9                               leave  
                            CODE:004017d6 c2 04 00                         ret    $0x4
                            CODE:004017d9 e8 00 00 00 00                   call   0x004017de
                            CODE:004017de 5e                               pop    %esi
                            CODE:004017df 81 ee de 17 40 00                sub    $0x4017de,%esi
                            CODE:004017e5 8b c6                            mov    %esi,%eax
                            CODE:004017e7 05 45 10 40 00                   add    $0x401045,%eax
                            CODE:004017ec 6a 00                            push   $0x0
                            CODE:004017ee 6a 00                            push   $0x0
                            CODE:004017f0 6a 03                            push   $0x3
                            CODE:004017f2 6a 00                            push   $0x0
                            CODE:004017f4 6a 01                            push   $0x1
                            CODE:004017f6 68 00 00 00 80                   push   $0x80000000
                            CODE:004017fb 50                               push   %eax
                            CODE:004017fc ff 96 97 10 40 00                call   *0x401097(%esi)
                            CODE:00401802 83 f8 ff                         cmp    $0xffffffff,%eax
                            CODE:00401805 74 0d                            je     0x00401814
                            CODE:00401807 90                               nop
                            CODE:00401808 90                               nop
                            CODE:00401809 90                               nop
                            CODE:0040180a 90                               nop
                            CODE:0040180b 50                               push   %eax
                            CODE:0040180c ff 96 87 10 40 00                call   *0x401087(%esi)
                            CODE:00401812 33 c0                            xor    %eax,%eax
                            CODE:00401814 c3                               ret    
                            CODE:00401815 c8 08 00 00                      enter  $0x8,$0x0
                            CODE:00401819 e8 00 00 00 00                   call   0x0040181e
                            CODE:0040181e 5e                               pop    %esi
                            CODE:0040181f 81 ee 1e 18 40 00                sub    $0x40181e,%esi
                            CODE:00401825 89 75 fc                         mov    %esi,-0x4(%ebp)
                            CODE:00401828 e8 00 00 00 00                   call   0x0040182d
                            CODE:0040182d 5e                               pop    %esi
                            CODE:0040182e 81 ee 2d 18 40 00                sub    $0x40182d,%esi
                            CODE:00401834 68 00 00 06 00                   push   $0x60000
                            CODE:00401839 6a 01                            push   $0x1
                            CODE:0040183b 90                               nop
                            CODE:0040183c 90                               nop
                            CODE:0040183d 90                               nop
                            CODE:0040183e 90                               nop
                            CODE:0040183f 68 00 00 06 80                   push   $0x80060000
                            CODE:00401844 68 00 00 01 00                   push   $0x10000
                            CODE:00401849 ff 96 64 10 40 00                call   *0x401064(%esi)
                            CODE:0040184f 83 f8 ff                         cmp    $0xffffffff,%eax
                            CODE:00401852 74 57                            je     0x004018ab
                            CODE:00401854 90                               nop
                            CODE:00401855 90                               nop
                            CODE:00401856 90                               nop
                            CODE:00401857 90                               nop
                            CODE:00401858 3d 00 00 00 80                   cmp    $0x80000000,%eax
                            CODE:0040185d 72 4c                            jb     0x004018ab
                            CODE:0040185f 90                               nop
                            CODE:00401860 90                               nop
                            CODE:00401861 90                               nop
                            CODE:00401862 90                               nop
                            CODE:00401863 89 45 f8                         mov    %eax,-0x8(%ebp)
                            CODE:00401866 c1 e8 0c                         shr    $0xc,%eax
                            CODE:00401869 8b 75 fc                         mov    -0x4(%ebp),%esi
                            CODE:0040186c 68 08 00 06 80                   push   $0x80060008
                            CODE:00401871 6a 00                            push   $0x0
                            CODE:00401873 6a 01                            push   $0x1
                            CODE:00401875 6a 01                            push   $0x1
                            CODE:00401877 90                               nop
                            CODE:00401878 90                               nop
                            CODE:00401879 90                               nop
                            CODE:0040187a 90                               nop
                            CODE:0040187b 50                               push   %eax
                            CODE:0040187c 68 01 00 01 00                   push   $0x10001
                            CODE:00401881 ff 96 64 10 40 00                call   *0x401064(%esi)
                            CODE:00401887 0b c0                            or     %eax,%eax
                            CODE:00401889 74 20                            je     0x004018ab
                            CODE:0040188b 90                               nop
                            CODE:0040188c 90                               nop
                            CODE:0040188d 90                               nop
                            CODE:0040188e 90                               nop
                            CODE:0040188f 8b 75 fc                         mov    -0x4(%ebp),%esi
                            CODE:00401892 81 c6 00 10 40 00                add    $0x401000,%esi
                            CODE:00401898 8b 7d f8                         mov    -0x8(%ebp),%edi
                            CODE:0040189b b9 ac 0b 00 00                   mov    $0xbac,%ecx
                            CODE:004018a0 90                               nop
                            CODE:004018a1 f3 a4                            rep movsb %ds:(%esi),%es:(%edi)
                            CODE:004018a3 8b 45 f8                         mov    -0x8(%ebp),%eax
                            CODE:004018a6 eb 05                            jmp    0x004018ad
                            CODE:004018a8 90                               nop
                            CODE:004018a9 90                               nop
                            CODE:004018aa 90                               nop
                            CODE:004018ab 33 c0                            xor    %eax,%eax
                            CODE:004018ad c9                               leave  
                            CODE:004018ae c3                               ret    
                            CODE:004018af c8 04 00 00                      enter  $0x4,$0x0
                            CODE:004018b3 e8 00 00 00 00                   call   0x004018b8
                            CODE:004018b8 5e                               pop    %esi
                            CODE:004018b9 81 ee b8 18 40 00                sub    $0x4018b8,%esi
                            CODE:004018bf 89 75 fc                         mov    %esi,-0x4(%ebp)
                            CODE:004018c2 8b c6                            mov    %esi,%eax
                            CODE:004018c4 05 9e 19 40 00                   add    $0x40199e,%eax
                            CODE:004018c9 8b de                            mov    %esi,%ebx
                            CODE:004018cb 81 c3 50 10 40 00                add    $0x401050,%ebx
                            CODE:004018d1 89 18                            mov    %ebx,(%eax)
                            CODE:004018d3 81 c6 64 10 40 00                add    $0x401064,%esi
                            CODE:004018d9 8b 36                            mov    (%esi),%esi
                            CODE:004018db b9 32 00 00 00                   mov    $0x32,%ecx
                            CODE:004018e0 ac                               lods   %ds:(%esi),%al
                            CODE:004018e1 3c 2e                            cmp    $0x2e,%al
                            CODE:004018e3 75 0f                            jne    0x004018f4
                            CODE:004018e5 90                               nop
                            CODE:004018e6 90                               nop
                            CODE:004018e7 90                               nop
                            CODE:004018e8 90                               nop
                            CODE:004018e9 66 81 3e ff 1d                   cmpw   $0x1dff,(%esi)
                            CODE:004018ee 74 06                            je     0x004018f6
                            CODE:004018f0 90                               nop
                            CODE:004018f1 90                               nop
                            CODE:004018f2 90                               nop
                            CODE:004018f3 90                               nop
                            CODE:004018f4 e2 ea                            loop   0x004018e0
                            CODE:004018f6 fa                               cli    
                            CODE:004018f7 66 ad                            lods   %ds:(%esi),%ax
                            CODE:004018f9 ad                               lods   %ds:(%esi),%eax
                            CODE:004018fa 8b f0                            mov    %eax,%esi
                            CODE:004018fc 8b 7d fc                         mov    -0x4(%ebp),%edi
                            CODE:004018ff 81 c7 50 10 40 00                add    $0x401050,%edi
                            CODE:00401905 b9 06 00 00 00                   mov    $0x6,%ecx
                            CODE:0040190a f3 a4                            rep movsb %ds:(%esi),%es:(%edi)
                            CODE:0040190c 8b f8                            mov    %eax,%edi
                            CODE:0040190e 8b 45 fc                         mov    -0x4(%ebp),%eax
                            CODE:00401911 05 1f 19 40 00                   add    $0x40191f,%eax
                            CODE:00401916 ab                               stos   %eax,%es:(%edi)
                            CODE:00401917 66 8c c8                         mov    %cs,%ax
                            CODE:0040191a 66 ab                            stos   %ax,%es:(%edi)
                            CODE:0040191c fb                               sti    
                            CODE:0040191d c9                               leave  
                            CODE:0040191e c3                               ret    
                            CODE:0040191f 60                               pusha  
                            CODE:00401920 e8 00 00 00 00                   call   0x00401925
                            CODE:00401925 5d                               pop    %ebp
                            CODE:00401926 81 c5 31 f7 ff ff                add    $0xfffff731,%ebp
                            CODE:0040192c 80 7d 00 01                      cmpb   $0x1,0x0(%ebp)
                            CODE:00401930 74 68                            je     0x0040199a
                            CODE:00401932 90                               nop
                            CODE:00401933 90                               nop
                            CODE:00401934 90                               nop
                            CODE:00401935 90                               nop
                            CODE:00401936 3d 10 00 2a 00                   cmp    $0x2a0010,%eax
                            CODE:0040193b 75 5d                            jne    0x0040199a
                            CODE:0040193d 90                               nop
                            CODE:0040193e 90                               nop
                            CODE:0040193f 90                               nop
                            CODE:00401940 90                               nop
                            CODE:00401941 8b 44 24 2c                      mov    0x2c(%esp),%eax
                            CODE:00401945 66 3d 75 ad                      cmp    $0xad75,%ax
                            CODE:00401949 74 13                            je     0x0040195e
                            CODE:0040194b 90                               nop
                            CODE:0040194c 90                               nop
                            CODE:0040194d 90                               nop
                            CODE:0040194e 90                               nop
                            CODE:0040194f 66 3d 6c 71                      cmp    $0x716c,%ax
                            CODE:00401953 74 14                            je     0x00401969
                            CODE:00401955 90                               nop
                            CODE:00401956 90                               nop
                            CODE:00401957 90                               nop
                            CODE:00401958 90                               nop
                            CODE:00401959 eb 3f                            jmp    0x0040199a
                            CODE:0040195b 90                               nop
                            CODE:0040195c 90                               nop
                            CODE:0040195d 90                               nop
                            CODE:0040195e 61                               popa   
                            CODE:0040195f be 12 08 00 00                   mov    $0x812,%esi
                            CODE:00401964 eb 35                            jmp    0x0040199b
                            CODE:00401966 90                               nop
                            CODE:00401967 90                               nop
                            CODE:00401968 90                               nop
                            CODE:00401969 e8 00 00 00 00                   call   0x0040196e
                            CODE:0040196e 58                               pop    %eax
                            CODE:0040196f 05 e8 f6 ff ff                   add    $0xfffff6e8,%eax
                            CODE:00401974 c6 00 01                         movb   $0x1,(%eax)
                            CODE:00401977 56                               push   %esi
                            CODE:00401978 56                               push   %esi
                            CODE:00401979 e8 24 00 00 00                   call   0x004019a2
                            CODE:0040197e 5e                               pop    %esi
                            CODE:0040197f 0b c0                            or     %eax,%eax
                            CODE:00401981 74 09                            je     0x0040198c
                            CODE:00401983 90                               nop
                            CODE:00401984 90                               nop
                            CODE:00401985 90                               nop
                            CODE:00401986 90                               nop
                            CODE:00401987 e8 b1 00 00 00                   call   0x00401a3d
                            CODE:0040198c e8 00 00 00 00                   call   0x00401991
                            CODE:00401991 58                               pop    %eax
                            CODE:00401992 05 c5 f6 ff ff                   add    $0xfffff6c5,%eax
                            CODE:00401997 c6 00 00                         movb   $0x0,(%eax)
                            CODE:0040199a 61                               popa   
                            CODE:0040199b 2e ff 2d 00 00 00 00             ljmp   *%cs:0x0
                            CODE:004019a2 c8 04 00 00                      enter  $0x4,$0x0
                            CODE:004019a6 8b 75 08                         mov    0x8(%ebp),%esi
                            CODE:004019a9 56                               push   %esi
                            CODE:004019aa e8 88 fd ff ff                   call   0x00401737
                            CODE:004019af 83 f8 04                         cmp    $0x4,%eax
                            CODE:004019b2 0f 8c 7f 00 00 00                jl     0x00401a37
                            CODE:004019b8 50                               push   %eax
                            CODE:004019b9 8b 44 06 fc                      mov    -0x4(%esi,%eax,1),%eax
                            CODE:004019bd 8d 55 fc                         lea    -0x4(%ebp),%edx
                            CODE:004019c0 89 02                            mov    %eax,(%edx)
                            CODE:004019c2 b9 03 00 00 00                   mov    $0x3,%ecx
                            CODE:004019c7 42                               inc    %edx
                            CODE:004019c8 80 3a 61                         cmpb   $0x61,(%edx)
                            CODE:004019cb 7c 10                            jl     0x004019dd
                            CODE:004019cd 90                               nop
                            CODE:004019ce 90                               nop
                            CODE:004019cf 90                               nop
                            CODE:004019d0 90                               nop
                            CODE:004019d1 80 3a 7a                         cmpb   $0x7a,(%edx)
                            CODE:004019d4 7f 07                            jg     0x004019dd
                            CODE:004019d6 90                               nop
                            CODE:004019d7 90                               nop
                            CODE:004019d8 90                               nop
                            CODE:004019d9 90                               nop
                            CODE:004019da 80 2a 20                         subb   $0x20,(%edx)
                            CODE:004019dd e2 e8                            loop   0x004019c7
                            CODE:004019df 59                               pop    %ecx
                            CODE:004019e0 81 7a fd 2e 58 59 5a             cmpl   $0x5a59582e,-0x3(%edx)
                            CODE:004019e7 81 7a fd 2e 45 58 45             cmpl   $0x4558452e,-0x3(%edx)
                            CODE:004019ee 75 47                            jne    0x00401a37
                            CODE:004019f0 90                               nop
                            CODE:004019f1 90                               nop
                            CODE:004019f2 90                               nop
                            CODE:004019f3 90                               nop
                            CODE:004019f4 49                               dec    %ecx
                            CODE:004019f5 66 81 3e 41 56                   cmpw   $0x5641,(%esi)
                            CODE:004019fa 74 3b                            je     0x00401a37
                            CODE:004019fc 90                               nop
                            CODE:004019fd 90                               nop
                            CODE:004019fe 90                               nop
                            CODE:004019ff 90                               nop
                            CODE:00401a00 66 81 3e 61 76                   cmpw   $0x7661,(%esi)
                            CODE:00401a05 74 30                            je     0x00401a37
                            CODE:00401a07 90                               nop
                            CODE:00401a08 90                               nop
                            CODE:00401a09 90                               nop
                            CODE:00401a0a 90                               nop
                            CODE:00401a0b 66 81 3e 46 2d                   cmpw   $0x2d46,(%esi)
                            CODE:00401a10 74 25                            je     0x00401a37
                            CODE:00401a12 90                               nop
                            CODE:00401a13 90                               nop
                            CODE:00401a14 90                               nop
                            CODE:00401a15 90                               nop
                            CODE:00401a16 66 81 3e 41 4e                   cmpw   $0x4e41,(%esi)
                            CODE:00401a1b 74 1a                            je     0x00401a37
                            CODE:00401a1d 90                               nop
                            CODE:00401a1e 90                               nop
                            CODE:00401a1f 90                               nop
                            CODE:00401a20 90                               nop
                            CODE:00401a21 66 81 3e 61 6e                   cmpw   $0x6e61,(%esi)
                            CODE:00401a26 74 0f                            je     0x00401a37
                            CODE:00401a28 90                               nop
                            CODE:00401a29 90                               nop
                            CODE:00401a2a 90                               nop
                            CODE:00401a2b 90                               nop
                            CODE:00401a2c 46                               inc    %esi
                            CODE:00401a2d e2 c6                            loop   0x004019f5
                            CODE:00401a2f 33 c0                            xor    %eax,%eax
                            CODE:00401a31 40                               inc    %eax
                            CODE:00401a32 eb 05                            jmp    0x00401a39
                            CODE:00401a34 90                               nop
                            CODE:00401a35 90                               nop
                            CODE:00401a36 90                               nop
                            CODE:00401a37 33 c0                            xor    %eax,%eax
                            CODE:00401a39 c9                               leave  
                            CODE:00401a3a c2 04 00                         ret    $0x4
                            CODE:00401a3d c8 08 00 00                      enter  $0x8,$0x0
                            CODE:00401a41 89 75 fc                         mov    %esi,-0x4(%ebp)
                            CODE:00401a44 e8 00 00 00 00                   call   0x00401a49
                            CODE:00401a49 5e                               pop    %esi
                            CODE:00401a4a 81 ee 49 1a 40 00                sub    $0x401a49,%esi
                            CODE:00401a50 89 75 f8                         mov    %esi,-0x8(%ebp)
                            CODE:00401a53 8b 55 f8                         mov    -0x8(%ebp),%edx
                            CODE:00401a56 81 c2 57 10 40 00                add    $0x401057,%edx
                            CODE:00401a5c be df 7a f7 bf                   mov    $0xbff77adf,%esi
                            CODE:00401a61 6a 00                            push   $0x0
                            CODE:00401a63 68 80 00 00 00                   push   $0x80
                            CODE:00401a68 6a 03                            push   $0x3
                            CODE:00401a6a 6a 00                            push   $0x0
                            CODE:00401a6c 6a 01                            push   $0x1
                            CODE:00401a6e 68 00 00 00 c0                   push   $0xc0000000
                            CODE:00401a73 52                               push   %edx
                            CODE:00401a74 ff d6                            call   *%esi
                            CODE:00401a76 83 f8 ff                         cmp    $0xffffffff,%eax
                            CODE:00401a79 74 43                            je     0x00401abe
                            CODE:00401a7b 90                               nop
                            CODE:00401a7c 90                               nop
                            CODE:00401a7d 90                               nop
                            CODE:00401a7e 90                               nop
                            CODE:00401a7f 50                               push   %eax
                            CODE:00401a80 be 3f 71 f7 bf                   mov    $0xbff7713f,%esi
                            CODE:00401a85 6a 02                            push   $0x2
                            CODE:00401a87 6a 00                            push   $0x0
                            CODE:00401a89 6a 00                            push   $0x0
                            CODE:00401a8b 50                               push   %eax
                            CODE:00401a8c ff d6                            call   *%esi
                            CODE:00401a8e 58                               pop    %eax
                            CODE:00401a8f 50                               push   %eax
                            CODE:00401a90 8b 55 fc                         mov    -0x4(%ebp),%edx
                            CODE:00401a93 be ad 73 f7 bf                   mov    $0xbff773ad,%esi
                            CODE:00401a98 52                               push   %edx
                            CODE:00401a99 ff d6                            call   *%esi
                            CODE:00401a9b 8b d8                            mov    %eax,%ebx
                            CODE:00401a9d 58                               pop    %eax
                            CODE:00401a9e 50                               push   %eax
                            CODE:00401a9f 50                               push   %eax
                            CODE:00401aa0 8d 4c 24 fc                      lea    -0x4(%esp),%ecx
                            CODE:00401aa4 8b 55 fc                         mov    -0x4(%ebp),%edx
                            CODE:00401aa7 be d5 6f f7 bf                   mov    $0xbff76fd5,%esi
                            CODE:00401aac 6a 00                            push   $0x0
                            CODE:00401aae 51                               push   %ecx
                            CODE:00401aaf 53                               push   %ebx
                            CODE:00401ab0 52                               push   %edx
                            CODE:00401ab1 50                               push   %eax
                            CODE:00401ab2 ff d6                            call   *%esi
                            CODE:00401ab4 58                               pop    %eax
                            CODE:00401ab5 58                               pop    %eax
                            CODE:00401ab6 be 64 e0 f7 bf                   mov    $0xbff7e064,%esi
                            CODE:00401abb 50                               push   %eax
                            CODE:00401abc ff d6                            call   *%esi
                            CODE:00401abe c9                               leave  
                            CODE:00401abf c3                               ret    
                            CODE:00401ac0 6a 00                            push   $0x0
                            CODE:00401ac2 e8 5e f9 ff ff                   call   0x00401425
                            CODE:00401ac7 85 c0                            test   %eax,%eax
                            CODE:00401ac9 74 3f                            je     0x00401b0a
                            CODE:00401acb 90                               nop
                            CODE:00401acc 90                               nop
                            CODE:00401acd 90                               nop
                            CODE:00401ace 90                               nop
                            CODE:00401acf e8 00 00 00 00                   call   0x00401ad4
                            CODE:00401ad4 5b                               pop    %ebx
                            CODE:00401ad5 81 c3 90 f5 ff ff                add    $0xfffff590,%ebx
                            CODE:00401adb 89 03                            mov    %eax,(%ebx)
                            CODE:00401add b8 75 ad 00 00                   mov    $0xad75,%eax
                            CODE:00401ae2 e8 00 00 00 00                   call   0x00401ae7
                            CODE:00401ae7 5e                               pop    %esi
                            CODE:00401ae8 81 ee e7 1a 40 00                sub    $0x401ae7,%esi
                            CODE:00401aee 51                               push   %ecx
                            CODE:00401aef 50                               push   %eax
                            CODE:00401af0 68 10 00 2a 00                   push   $0x2a0010
                            CODE:00401af5 ff 96 64 10 40 00                call   *0x401064(%esi)
                            CODE:00401afb 33 c0                            xor    %eax,%eax
                            CODE:00401afd 81 fe 12 08 00 00                cmp    $0x812,%esi
                            CODE:00401b03 75 05                            jne    0x00401b0a
                            CODE:00401b05 90                               nop
                            CODE:00401b06 90                               nop
                            CODE:00401b07 90                               nop
                            CODE:00401b08 90                               nop
                            CODE:00401b09 40                               inc    %eax
                            CODE:00401b0a c3                               ret    
                            CODE:00401b0b c8 00 00 00                      enter  $0x0,$0x0
                            CODE:00401b0f 8b 75 08                         mov    0x8(%ebp),%esi
                            CODE:00401b12 66 81 3e 4d 5a                   cmpw   $0x5a4d,(%esi)
                            CODE:00401b17 75 45                            jne    0x00401b5e
                            CODE:00401b19 90                               nop
                            CODE:00401b1a 90                               nop
                            CODE:00401b1b 90                               nop
                            CODE:00401b1c 90                               nop
                            CODE:00401b1d 03 76 3c                         add    0x3c(%esi),%esi
                            CODE:00401b20 81 3e 50 45 00 00                cmpl   $0x4550,(%esi)
                            CODE:00401b26 75 36                            jne    0x00401b5e
                            CODE:00401b28 90                               nop
                            CODE:00401b29 90                               nop
                            CODE:00401b2a 90                               nop
                            CODE:00401b2b 90                               nop
                            CODE:00401b2c 83 c6 04                         add    $0x4,%esi
                            CODE:00401b2f 56                               push   %esi
                            CODE:00401b30 83 c6 14                         add    $0x14,%esi
                            CODE:00401b33 89 75 ec                         mov    %esi,-0x14(%ebp)
                            CODE:00401b36 8b 76 60                         mov    0x60(%esi),%esi
                            CODE:00401b39 03 75 08                         add    0x8(%ebp),%esi
                            CODE:00401b3c 89 75 ec                         mov    %esi,-0x14(%ebp)
                            CODE:00401b3f 5e                               pop    %esi
                            CODE:00401b40 0f b7 4e 10                      movzwl 0x10(%esi),%ecx
                            CODE:00401b44 03 4d ec                         add    -0x14(%ebp),%ecx
                            CODE:00401b47 0f b7 46 02                      movzwl 0x2(%esi),%eax
                            CODE:00401b4b 48                               dec    %eax
                            CODE:00401b4c 6b c0 28                         imul   $0x28,%eax,%eax
                            CODE:00401b4f 03 c8                            add    %eax,%ecx
                            CODE:00401b51 8b c6                            mov    %esi,%eax
                            CODE:00401b53 8b 5d ec                         mov    -0x14(%ebp),%ebx
                            CODE:00401b56 8b 55 ec                         mov    -0x14(%ebp),%edx
                            CODE:00401b59 eb 05                            jmp    0x00401b60
                            CODE:00401b5b 90                               nop
                            CODE:00401b5c 90                               nop
                            CODE:00401b5d 90                               nop
                            CODE:00401b5e 33 c0                            xor    %eax,%eax
                            CODE:00401b60 c9                               leave  
                            CODE:00401b61 c2 04 00                         ret    $0x4
                            CODE:00401b64 e8 36 00 00 00                   call   0x00401b9f
                            CODE:00401b69 8a e0                            mov    %al,%ah
                            CODE:00401b6b e8 2f 00 00 00                   call   0x00401b9f
                            CODE:00401b70 3a e0                            cmp    %al,%ah
                            CODE:00401b72 74 f7                            je     0x00401b6b
                            CODE:00401b74 b3 58                            mov    $0x58,%bl
                            CODE:00401b76 02 d8                            add    %al,%bl
                            CODE:00401b78 88 5f 05                         mov    %bl,0x5(%edi)
                            CODE:00401b7b b3 c0                            mov    $0xc0,%bl
                            CODE:00401b7d 02 d8                            add    %al,%bl
                            CODE:00401b7f 88 5f 07                         mov    %bl,0x7(%edi)
                            CODE:00401b82 b3 b8                            mov    $0xb8,%bl
                            CODE:00401b84 02 dc                            add    %ah,%bl
                            CODE:00401b86 88 5f 09                         mov    %bl,0x9(%edi)
                            CODE:00401b89 b3 30                            mov    $0x30,%bl
                            CODE:00401b8b 02 d8                            add    %al,%bl
                            CODE:00401b8d 88 5f 0f                         mov    %bl,0xf(%edi)
                            CODE:00401b90 b3 40                            mov    $0x40,%bl
                            CODE:00401b92 02 d8                            add    %al,%bl
                            CODE:00401b94 88 5f 11                         mov    %bl,0x11(%edi)
                            CODE:00401b97 b3 48                            mov    $0x48,%bl
                            CODE:00401b99 02 dc                            add    %ah,%bl
                            CODE:00401b9b 88 5f 12                         mov    %bl,0x12(%edi)
                            CODE:00401b9e c3                               ret    
                            CODE:00401b9f e4 40                            in     $0x40,%al
                            CODE:00401ba1 24 07                            and    $0x7,%al
                            CODE:00401ba3 3c 04                            cmp    $0x4,%al
                            CODE:00401ba5 74 f8                            je     0x00401b9f
                            CODE:00401ba7 3c 05                            cmp    $0x5,%al
                            CODE:00401ba9 74 f4                            je     0x00401b9f
                            CODE:00401bab c3                               ret    
                            CODE:00401bac ff 25 30 30 40 00                jmp    *0x403030
                            CODE:00401bb2 00 00                            add    %al,(%eax)
                            CODE:00401bb4 00 00                            add    %al,(%eax)
                            CODE:00401bb6 00 00                            add    %al,(%eax)
                            CODE:00401bb8 00 00                            add    %al,(%eax)
                            CODE:00401bba 00 00                            add    %al,(%eax)
                            CODE:00401bbc 00 00                            add    %al,(%eax)
                            CODE:00401bbe 00 00                            add    %al,(%eax)
                            CODE:00401bc0 00 00                            add    %al,(%eax)
                            CODE:00401bc2 00 00                            add    %al,(%eax)
                            CODE:00401bc4 00 00                            add    %al,(%eax)
                            CODE:00401bc6 00 00                            add    %al,(%eax)
                            CODE:00401bc8 00 00                            add    %al,(%eax)
                            CODE:00401bca 00 00                            add    %al,(%eax)
                            CODE:00401bcc 00 00                            add    %al,(%eax)
                            CODE:00401bce 00 00                            add    %al,(%eax)
                            CODE:00401bd0 00 00                            add    %al,(%eax)
                            CODE:00401bd2 00 00                            add    %al,(%eax)
                            CODE:00401bd4 00 00                            add    %al,(%eax)
                            CODE:00401bd6 00 00                            add    %al,(%eax)
                            CODE:00401bd8 00 00                            add    %al,(%eax)
                            CODE:00401bda 00 00                            add    %al,(%eax)
                            CODE:00401bdc 00 00                            add    %al,(%eax)
                            CODE:00401bde 00 00                            add    %al,(%eax)
                            CODE:00401be0 00 00                            add    %al,(%eax)
                            CODE:00401be2 00 00                            add    %al,(%eax)
                            CODE:00401be4 00 00                            add    %al,(%eax)
                            CODE:00401be6 00 00                            add    %al,(%eax)
                            CODE:00401be8 00 00                            add    %al,(%eax)
                            CODE:00401bea 00 00                            add    %al,(%eax)
                            CODE:00401bec 00 00                            add    %al,(%eax)
                            CODE:00401bee 00 00                            add    %al,(%eax)
                            CODE:00401bf0 00 00                            add    %al,(%eax)
                            CODE:00401bf2 00 00                            add    %al,(%eax)
                            CODE:00401bf4 00 00                            add    %al,(%eax)
                            CODE:00401bf6 00 00                            add    %al,(%eax)
                            CODE:00401bf8 00 00                            add    %al,(%eax)
                            CODE:00401bfa 00 00                            add    %al,(%eax)
                            CODE:00401bfc 00 00                            add    %al,(%eax)
                            CODE:00401bfe 00 00                            add    %al,(%eax)
                          .idata:00403000 28                               0x28 '('
                          .idata:00403001 30                               0x30 '0'
                          .idata:00403002 00                               0x00 
                          .idata:00403003 00                               0x00 
                          .idata:00403004 00                               0x00 
                          .idata:00403005 00                               0x00 
                          .idata:00403006 00                               0x00 
                          .idata:00403007 00                               0x00 
                          .idata:00403008 00                               0x00 
                          .idata:00403009 00                               0x00 
                          .idata:0040300a 00                               0x00 
                          .idata:0040300b 00                               0x00 
                          .idata:0040300c 38                               0x38 '8'
                          .idata:0040300d 30                               0x30 '0'
                          .idata:0040300e 00                               0x00 
                          .idata:0040300f 00                               0x00 
                          .idata:00403010 30                               0x30 '0'
                          .idata:00403011 30                               0x30 '0'
                          .idata:00403012 00                               0x00 
                          .idata:00403013 00                               0x00 
                          .idata:00403014 00                               0x00 
                          .idata:00403015 00                               0x00 
                          .idata:00403016 00                               0x00 
                          .idata:00403017 00                               0x00 
                          .idata:00403018 00                               0x00 
                          .idata:00403019 00                               0x00 
                          .idata:0040301a 00                               0x00 
                          .idata:0040301b 00                               0x00 
                          .idata:0040301c 00                               0x00 
                          .idata:0040301d 00                               0x00 
                          .idata:0040301e 00                               0x00 
                          .idata:0040301f 00                               0x00 
                          .idata:00403020 00                               0x00 
                          .idata:00403021 00                               0x00 
                          .idata:00403022 00                               0x00 
                          .idata:00403023 00                               0x00 
                          .idata:00403024 00                               0x00 
                          .idata:00403025 00                               0x00 
                          .idata:00403026 00                               0x00 
                          .idata:00403027 00                               0x00 
                          .idata:00403028 46                               0x46 'F'
                          .idata:00403029 30                               0x30 '0'
                          .idata:0040302a 00                               0x00 
                          .idata:0040302b 00                               0x00 
                          .idata:0040302c 00                               0x00 
                          .idata:0040302d 00                               0x00 
                          .idata:0040302e 00                               0x00 
                          .idata:0040302f 00                               0x00 
                          .idata:00403030 46                               0x46 'F'
                          .idata:00403031 30                               0x30 '0'
                          .idata:00403032 00                               0x00 
                          .idata:00403033 00                               0x00 
                          .idata:00403034 00                               0x00 
                          .idata:00403035 00                               0x00 
                          .idata:00403036 00                               0x00 
                          .idata:00403037 00                               0x00 
                          .idata:00403038 4b                               0x4b 'K'
                          .idata:00403039 45                               0x45 'E'
                          .idata:0040303a 52                               0x52 'R'
                          .idata:0040303b 4e                               0x4e 'N'
                          .idata:0040303c 45                               0x45 'E'
                          .idata:0040303d 4c                               0x4c 'L'
                          .idata:0040303e 33                               0x33 '3'
                          .idata:0040303f 32                               0x32 '2'
                          .idata:00403040 2e                               0x2e '.'
                          .idata:00403041 64                               0x64 'd'
                          .idata:00403042 6c                               0x6c 'l'
                          .idata:00403043 6c                               0x6c 'l'
                          .idata:00403044 00                               0x00 
                          .idata:00403045 00                               0x00 
                          .idata:00403046 00                               0x00 
                          .idata:00403047 00                               0x00 
                          .idata:00403048 45                               0x45 'E'
                          .idata:00403049 78                               0x78 'x'
                          .idata:0040304a 69                               0x69 'i'
                          .idata:0040304b 74                               0x74 't'
                          .idata:0040304c 50                               0x50 'P'
                          .idata:0040304d 72                               0x72 'r'
                          .idata:0040304e 6f                               0x6f 'o'
                          .idata:0040304f 63                               0x63 'c'
                          .idata:00403050 65                               0x65 'e'
                          .idata:00403051 73                               0x73 's'
                          .idata:00403052 73                               0x73 's'
                          .idata:00403053 00                               0x00 
                          .idata:00403054 00                               0x00 
                          .idata:00403055 00                               0x00 
                          .idata:00403056 00                               0x00 
                          .idata:00403057 00                               0x00 
                          .idata:00403058 00                               0x00 
                          .idata:00403059 00                               0x00 
                          .idata:0040305a 00                               0x00 
                          .idata:0040305b 00                               0x00 
                          .idata:0040305c 00                               0x00 
                          .idata:0040305d 00                               0x00 
                          .idata:0040305e 00                               0x00 
                          .idata:0040305f 00                               0x00 
                          .idata:00403060 00                               0x00 
                          .idata:00403061 00                               0x00 
                          .idata:00403062 00                               0x00 
                          .idata:00403063 00                               0x00 
                          .idata:00403064 00                               0x00 
                          .idata:00403065 00                               0x00 
                          .idata:00403066 00                               0x00 
                          .idata:00403067 00                               0x00 
                          .idata:00403068 00                               0x00 
                          .idata:00403069 00                               0x00 
                          .idata:0040306a 00                               0x00 
                          .idata:0040306b 00                               0x00 
                          .idata:0040306c 00                               0x00 
                          .idata:0040306d 00                               0x00 
                          .idata:0040306e 00                               0x00 
                          .idata:0040306f 00                               0x00 
                          .idata:00403070 00                               0x00 
                          .idata:00403071 00                               0x00 
                          .idata:00403072 00                               0x00 
                          .idata:00403073 00                               0x00 
                          .idata:00403074 00                               0x00 
                          .idata:00403075 00                               0x00 
                          .idata:00403076 00                               0x00 
                          .idata:00403077 00                               0x00 
                          .idata:00403078 00                               0x00 
                          .idata:00403079 00                               0x00 
                          .idata:0040307a 00                               0x00 
                          .idata:0040307b 00                               0x00 
                          .idata:0040307c 00                               0x00 
                          .idata:0040307d 00                               0x00 
                          .idata:0040307e 00                               0x00 
                          .idata:0040307f 00                               0x00 
                          .idata:00403080 00                               0x00 
                          .idata:00403081 00                               0x00 
                          .idata:00403082 00                               0x00 
                          .idata:00403083 00                               0x00 
                          .idata:00403084 00                               0x00 
                          .idata:00403085 00                               0x00 
                          .idata:00403086 00                               0x00 
                          .idata:00403087 00                               0x00 
                          .idata:00403088 00                               0x00 
                          .idata:00403089 00                               0x00 
                          .idata:0040308a 00                               0x00 
                          .idata:0040308b 00                               0x00 
                          .idata:0040308c 00                               0x00 
                          .idata:0040308d 00                               0x00 
                          .idata:0040308e 00                               0x00 
                          .idata:0040308f 00                               0x00 
                          .idata:00403090 00                               0x00 
                          .idata:00403091 00                               0x00 
                          .idata:00403092 00                               0x00 
                          .idata:00403093 00                               0x00 
                          .idata:00403094 00                               0x00 
                          .idata:00403095 00                               0x00 
                          .idata:00403096 00                               0x00 
                          .idata:00403097 00                               0x00 
                          .idata:00403098 00                               0x00 
                          .idata:00403099 00                               0x00 
                          .idata:0040309a 00                               0x00 
                          .idata:0040309b 00                               0x00 
                          .idata:0040309c 00                               0x00 
                          .idata:0040309d 00                               0x00 
                          .idata:0040309e 00                               0x00 
                          .idata:0040309f 00                               0x00 
                          .idata:004030a0 00                               0x00 
                          .idata:004030a1 00                               0x00 
                          .idata:004030a2 00                               0x00 
                          .idata:004030a3 00                               0x00 
                          .idata:004030a4 00                               0x00 
                          .idata:004030a5 00                               0x00 
                          .idata:004030a6 00                               0x00 
                          .idata:004030a7 00                               0x00 
                          .idata:004030a8 00                               0x00 
                          .idata:004030a9 00                               0x00 
                          .idata:004030aa 00                               0x00 
                          .idata:004030ab 00                               0x00 
                          .idata:004030ac 00                               0x00 
                          .idata:004030ad 00                               0x00 
                          .idata:004030ae 00                               0x00 
                          .idata:004030af 00                               0x00 
                          .idata:004030b0 00                               0x00 
                          .idata:004030b1 00                               0x00 
                          .idata:004030b2 00                               0x00 
                          .idata:004030b3 00                               0x00 
                          .idata:004030b4 00                               0x00 
                          .idata:004030b5 00                               0x00 
                          .idata:004030b6 00                               0x00 
                          .idata:004030b7 00                               0x00 
                          .idata:004030b8 00                               0x00 
                          .idata:004030b9 00                               0x00 
                          .idata:004030ba 00                               0x00 
                          .idata:004030bb 00                               0x00 
                          .idata:004030bc 00                               0x00 
                          .idata:004030bd 00                               0x00 
                          .idata:004030be 00                               0x00 
                          .idata:004030bf 00                               0x00 
                          .idata:004030c0 00                               0x00 
                          .idata:004030c1 00                               0x00 
                          .idata:004030c2 00                               0x00 
                          .idata:004030c3 00                               0x00 
                          .idata:004030c4 00                               0x00 
                          .idata:004030c5 00                               0x00 
                          .idata:004030c6 00                               0x00 
                          .idata:004030c7 00                               0x00 
                          .idata:004030c8 00                               0x00 
                          .idata:004030c9 00                               0x00 
                          .idata:004030ca 00                               0x00 
                          .idata:004030cb 00                               0x00 
                          .idata:004030cc 00                               0x00 
                          .idata:004030cd 00                               0x00 
                          .idata:004030ce 00                               0x00 
                          .idata:004030cf 00                               0x00 
                          .idata:004030d0 00                               0x00 
                          .idata:004030d1 00                               0x00 
                          .idata:004030d2 00                               0x00 
                          .idata:004030d3 00                               0x00 
                          .idata:004030d4 00                               0x00 
                          .idata:004030d5 00                               0x00 
                          .idata:004030d6 00                               0x00 
                          .idata:004030d7 00                               0x00 
                          .idata:004030d8 00                               0x00 
                          .idata:004030d9 00                               0x00 
                          .idata:004030da 00                               0x00 
                          .idata:004030db 00                               0x00 
                          .idata:004030dc 00                               0x00 
                          .idata:004030dd 00                               0x00 
                          .idata:004030de 00                               0x00 
                          .idata:004030df 00                               0x00 
                          .idata:004030e0 00                               0x00 
                          .idata:004030e1 00                               0x00 
                          .idata:004030e2 00                               0x00 
                          .idata:004030e3 00                               0x00 
                          .idata:004030e4 00                               0x00 
                          .idata:004030e5 00                               0x00 
                          .idata:004030e6 00                               0x00 
                          .idata:004030e7 00                               0x00 
                          .idata:004030e8 00                               0x00 
                          .idata:004030e9 00                               0x00 
                          .idata:004030ea 00                               0x00 
                          .idata:004030eb 00                               0x00 
                          .idata:004030ec 00                               0x00 
                          .idata:004030ed 00                               0x00 
                          .idata:004030ee 00                               0x00 
                          .idata:004030ef 00                               0x00 
                          .idata:004030f0 00                               0x00 
                          .idata:004030f1 00                               0x00 
                          .idata:004030f2 00                               0x00 
                          .idata:004030f3 00                               0x00 
                          .idata:004030f4 00                               0x00 
                          .idata:004030f5 00                               0x00 
                          .idata:004030f6 00                               0x00 
                          .idata:004030f7 00                               0x00 
                          .idata:004030f8 00                               0x00 
                          .idata:004030f9 00                               0x00 
                          .idata:004030fa 00                               0x00 
                          .idata:004030fb 00                               0x00 
                          .idata:004030fc 00                               0x00 
                          .idata:004030fd 00                               0x00 
                          .idata:004030fe 00                               0x00 
                          .idata:004030ff 00                               0x00 
                          .idata:00403100 00                               0x00 
                          .idata:00403101 00                               0x00 
                          .idata:00403102 00                               0x00 
                          .idata:00403103 00                               0x00 
                          .idata:00403104 00                               0x00 
                          .idata:00403105 00                               0x00 
                          .idata:00403106 00                               0x00 
                          .idata:00403107 00                               0x00 
                          .idata:00403108 00                               0x00 
                          .idata:00403109 00                               0x00 
                          .idata:0040310a 00                               0x00 
                          .idata:0040310b 00                               0x00 
                          .idata:0040310c 00                               0x00 
                          .idata:0040310d 00                               0x00 
                          .idata:0040310e 00                               0x00 
                          .idata:0040310f 00                               0x00 
                          .idata:00403110 00                               0x00 
                          .idata:00403111 00                               0x00 
                          .idata:00403112 00                               0x00 
                          .idata:00403113 00                               0x00 
                          .idata:00403114 00                               0x00 
                          .idata:00403115 00                               0x00 
                          .idata:00403116 00                               0x00 
                          .idata:00403117 00                               0x00 
                          .idata:00403118 00                               0x00 
                          .idata:00403119 00                               0x00 
                          .idata:0040311a 00                               0x00 
                          .idata:0040311b 00                               0x00 
                          .idata:0040311c 00                               0x00 
                          .idata:0040311d 00                               0x00 
                          .idata:0040311e 00                               0x00 
                          .idata:0040311f 00                               0x00 
                          .idata:00403120 00                               0x00 
                          .idata:00403121 00                               0x00 
                          .idata:00403122 00                               0x00 
                          .idata:00403123 00                               0x00 
                          .idata:00403124 00                               0x00 
                          .idata:00403125 00                               0x00 
                          .idata:00403126 00                               0x00 
                          .idata:00403127 00                               0x00 
                          .idata:00403128 00                               0x00 
                          .idata:00403129 00                               0x00 
                          .idata:0040312a 00                               0x00 
                          .idata:0040312b 00                               0x00 
                          .idata:0040312c 00                               0x00 
                          .idata:0040312d 00                               0x00 
                          .idata:0040312e 00                               0x00 
                          .idata:0040312f 00                               0x00 
                          .idata:00403130 00                               0x00 
                          .idata:00403131 00                               0x00 
                          .idata:00403132 00                               0x00 
                          .idata:00403133 00                               0x00 
                          .idata:00403134 00                               0x00 
                          .idata:00403135 00                               0x00 
                          .idata:00403136 00                               0x00 
                          .idata:00403137 00                               0x00 
                          .idata:00403138 00                               0x00 
                          .idata:00403139 00                               0x00 
                          .idata:0040313a 00                               0x00 
                          .idata:0040313b 00                               0x00 
                          .idata:0040313c 00                               0x00 
                          .idata:0040313d 00                               0x00 
                          .idata:0040313e 00                               0x00 
                          .idata:0040313f 00                               0x00 
                          .idata:00403140 00                               0x00 
                          .idata:00403141 00                               0x00 
                          .idata:00403142 00                               0x00 
                          .idata:00403143 00                               0x00 
                          .idata:00403144 00                               0x00 
                          .idata:00403145 00                               0x00 
                          .idata:00403146 00                               0x00 
                          .idata:00403147 00                               0x00 
                          .idata:00403148 00                               0x00 
                          .idata:00403149 00                               0x00 
                          .idata:0040314a 00                               0x00 
                          .idata:0040314b 00                               0x00 
                          .idata:0040314c 00                               0x00 
                          .idata:0040314d 00                               0x00 
                          .idata:0040314e 00                               0x00 
                          .idata:0040314f 00                               0x00 
                          .idata:00403150 00                               0x00 
                          .idata:00403151 00                               0x00 
                          .idata:00403152 00                               0x00 
                          .idata:00403153 00                               0x00 
                          .idata:00403154 00                               0x00 
                          .idata:00403155 00                               0x00 
                          .idata:00403156 00                               0x00 
                          .idata:00403157 00                               0x00 
                          .idata:00403158 00                               0x00 
                          .idata:00403159 00                               0x00 
                          .idata:0040315a 00                               0x00 
                          .idata:0040315b 00                               0x00 
                          .idata:0040315c 00                               0x00 
                          .idata:0040315d 00                               0x00 
                          .idata:0040315e 00                               0x00 
                          .idata:0040315f 00                               0x00 
                          .idata:00403160 00                               0x00 
                          .idata:00403161 00                               0x00 
                          .idata:00403162 00                               0x00 
                          .idata:00403163 00                               0x00 
                          .idata:00403164 00                               0x00 
                          .idata:00403165 00                               0x00 
                          .idata:00403166 00                               0x00 
                          .idata:00403167 00                               0x00 
                          .idata:00403168 00                               0x00 
                          .idata:00403169 00                               0x00 
                          .idata:0040316a 00                               0x00 
                          .idata:0040316b 00                               0x00 
                          .idata:0040316c 00                               0x00 
                          .idata:0040316d 00                               0x00 
                          .idata:0040316e 00                               0x00 
                          .idata:0040316f 00                               0x00 
                          .idata:00403170 00                               0x00 
                          .idata:00403171 00                               0x00 
                          .idata:00403172 00                               0x00 
                          .idata:00403173 00                               0x00 
                          .idata:00403174 00                               0x00 
                          .idata:00403175 00                               0x00 
                          .idata:00403176 00                               0x00 
                          .idata:00403177 00                               0x00 
                          .idata:00403178 00                               0x00 
                          .idata:00403179 00                               0x00 
                          .idata:0040317a 00                               0x00 
                          .idata:0040317b 00                               0x00 
                          .idata:0040317c 00                               0x00 
                          .idata:0040317d 00                               0x00 
                          .idata:0040317e 00                               0x00 
                          .idata:0040317f 00                               0x00 
                          .idata:00403180 00                               0x00 
                          .idata:00403181 00                               0x00 
                          .idata:00403182 00                               0x00 
                          .idata:00403183 00                               0x00 
                          .idata:00403184 00                               0x00 
                          .idata:00403185 00                               0x00 
                          .idata:00403186 00                               0x00 
                          .idata:00403187 00                               0x00 
                          .idata:00403188 00                               0x00 
                          .idata:00403189 00                               0x00 
                          .idata:0040318a 00                               0x00 
                          .idata:0040318b 00                               0x00 
                          .idata:0040318c 00                               0x00 
                          .idata:0040318d 00                               0x00 
                          .idata:0040318e 00                               0x00 
                          .idata:0040318f 00                               0x00 
                          .idata:00403190 00                               0x00 
                          .idata:00403191 00                               0x00 
                          .idata:00403192 00                               0x00 
                          .idata:00403193 00                               0x00 
                          .idata:00403194 00                               0x00 
                          .idata:00403195 00                               0x00 
                          .idata:00403196 00                               0x00 
                          .idata:00403197 00                               0x00 
                          .idata:00403198 00                               0x00 
                          .idata:00403199 00                               0x00 
                          .idata:0040319a 00                               0x00 
                          .idata:0040319b 00                               0x00 
                          .idata:0040319c 00                               0x00 
                          .idata:0040319d 00                               0x00 
                          .idata:0040319e 00                               0x00 
                          .idata:0040319f 00                               0x00 
                          .idata:004031a0 00                               0x00 
                          .idata:004031a1 00                               0x00 
                          .idata:004031a2 00                               0x00 
                          .idata:004031a3 00                               0x00 
                          .idata:004031a4 00                               0x00 
                          .idata:004031a5 00                               0x00 
                          .idata:004031a6 00                               0x00 
                          .idata:004031a7 00                               0x00 
                          .idata:004031a8 00                               0x00 
                          .idata:004031a9 00                               0x00 
                          .idata:004031aa 00                               0x00 
                          .idata:004031ab 00                               0x00 
                          .idata:004031ac 00                               0x00 
                          .idata:004031ad 00                               0x00 
                          .idata:004031ae 00                               0x00 
                          .idata:004031af 00                               0x00 
                          .idata:004031b0 00                               0x00 
                          .idata:004031b1 00                               0x00 
                          .idata:004031b2 00                               0x00 
                          .idata:004031b3 00                               0x00 
                          .idata:004031b4 00                               0x00 
                          .idata:004031b5 00                               0x00 
                          .idata:004031b6 00                               0x00 
                          .idata:004031b7 00                               0x00 
                          .idata:004031b8 00                               0x00 
                          .idata:004031b9 00                               0x00 
                          .idata:004031ba 00                               0x00 
                          .idata:004031bb 00                               0x00 
                          .idata:004031bc 00                               0x00 
                          .idata:004031bd 00                               0x00 
                          .idata:004031be 00                               0x00 
                          .idata:004031bf 00                               0x00 
                          .idata:004031c0 00                               0x00 
                          .idata:004031c1 00                               0x00 
                          .idata:004031c2 00                               0x00 
                          .idata:004031c3 00                               0x00 
                          .idata:004031c4 00                               0x00 
                          .idata:004031c5 00                               0x00 
                          .idata:004031c6 00                               0x00 
                          .idata:004031c7 00                               0x00 
                          .idata:004031c8 00                               0x00 
                          .idata:004031c9 00                               0x00 
                          .idata:004031ca 00                               0x00 
                          .idata:004031cb 00                               0x00 
                          .idata:004031cc 00                               0x00 
                          .idata:004031cd 00                               0x00 
                          .idata:004031ce 00                               0x00 
                          .idata:004031cf 00                               0x00 
                          .idata:004031d0 00                               0x00 
                          .idata:004031d1 00                               0x00 
                          .idata:004031d2 00                               0x00 
                          .idata:004031d3 00                               0x00 
                          .idata:004031d4 00                               0x00 
                          .idata:004031d5 00                               0x00 
                          .idata:004031d6 00                               0x00 
                          .idata:004031d7 00                               0x00 
                          .idata:004031d8 00                               0x00 
                          .idata:004031d9 00                               0x00 
                          .idata:004031da 00                               0x00 
                          .idata:004031db 00                               0x00 
                          .idata:004031dc 00                               0x00 
                          .idata:004031dd 00                               0x00 
                          .idata:004031de 00                               0x00 
                          .idata:004031df 00                               0x00 
                          .idata:004031e0 00                               0x00 
                          .idata:004031e1 00                               0x00 
                          .idata:004031e2 00                               0x00 
                          .idata:004031e3 00                               0x00 
                          .idata:004031e4 00                               0x00 
                          .idata:004031e5 00                               0x00 
                          .idata:004031e6 00                               0x00 
                          .idata:004031e7 00                               0x00 
                          .idata:004031e8 00                               0x00 
                          .idata:004031e9 00                               0x00 
                          .idata:004031ea 00                               0x00 
                          .idata:004031eb 00                               0x00 
                          .idata:004031ec 00                               0x00 
                          .idata:004031ed 00                               0x00 
                          .idata:004031ee 00                               0x00 
                          .idata:004031ef 00                               0x00 
                          .idata:004031f0 00                               0x00 
                          .idata:004031f1 00                               0x00 
                          .idata:004031f2 00                               0x00 
                          .idata:004031f3 00                               0x00 
                          .idata:004031f4 00                               0x00 
                          .idata:004031f5 00                               0x00 
                          .idata:004031f6 00                               0x00 
                          .idata:004031f7 00                               0x00 
                          .idata:004031f8 00                               0x00 
                          .idata:004031f9 00                               0x00 
                          .idata:004031fa 00                               0x00 
                          .idata:004031fb 00                               0x00 
                          .idata:004031fc 00                               0x00 
                          .idata:004031fd 00                               0x00 
                          .idata:004031fe 00                               0x00 
                          .idata:004031ff 00                               0x00 
                          .reloc:00404000 00                               0x00 
                          .reloc:00404001 10                               0x10 
                          .reloc:00404002 00                               0x00 
                          .reloc:00404003 00                               0x00 
                          .reloc:00404004 cc                               0xcc 
                          .reloc:00404005 00                               0x00 
                          .reloc:00404006 00                               0x00 
                          .reloc:00404007 00                               0x00 
                          .reloc:00404008 75                               0x75 'u'
                          .reloc:00404009 32                               0x32 '2'
                          .reloc:0040400a 7c                               0x7c '|'
                          .reloc:0040400b 32                               0x32 '2'
                          .reloc:0040400c cc                               0xcc 
                          .reloc:0040400d 32                               0x32 '2'
                          .reloc:0040400e dc                               0xdc 
                          .reloc:0040400f 32                               0x32 '2'
                          .reloc:00404010 e8                               0xe8 
                          .reloc:00404011 32                               0x32 '2'
                          .reloc:00404012 f1                               0xf1 
                          .reloc:00404013 32                               0x32 '2'
                          .reloc:00404014 fd                               0xfd 
                          .reloc:00404015 32                               0x32 '2'
                          .reloc:00404016 06                               0x06 
                          .reloc:00404017 33                               0x33 '3'
                          .reloc:00404018 12                               0x12 
                          .reloc:00404019 33                               0x33 '3'
                          .reloc:0040401a 1b                               0x1b 
                          .reloc:0040401b 33                               0x33 '3'
                          .reloc:0040401c 27                               0x27 '''
                          .reloc:0040401d 33                               0x33 '3'
                          .reloc:0040401e 30                               0x30 '0'
                          .reloc:0040401f 33                               0x33 '3'
                          .reloc:00404020 3c                               0x3c '<'
                          .reloc:00404021 33                               0x33 '3'
                          .reloc:00404022 45                               0x45 'E'
                          .reloc:00404023 33                               0x33 '3'
                          .reloc:00404024 51                               0x51 'Q'
                          .reloc:00404025 33                               0x33 '3'
                          .reloc:00404026 5a                               0x5a 'Z'
                          .reloc:00404027 33                               0x33 '3'
                          .reloc:00404028 66                               0x66 'f'
                          .reloc:00404029 33                               0x33 '3'
                          .reloc:0040402a 6f                               0x6f 'o'
                          .reloc:0040402b 33                               0x33 '3'
                          .reloc:0040402c 7b                               0x7b '{'
                          .reloc:0040402d 33                               0x33 '3'
                          .reloc:0040402e 84                               0x84 
                          .reloc:0040402f 33                               0x33 '3'
                          .reloc:00404030 90                               0x90 
                          .reloc:00404031 33                               0x33 '3'
                          .reloc:00404032 99                               0x99 
                          .reloc:00404033 33                               0x33 '3'
                          .reloc:00404034 a5                               0xa5 
                          .reloc:00404035 33                               0x33 '3'
                          .reloc:00404036 ae                               0xae 
                          .reloc:00404037 33                               0x33 '3'
                          .reloc:00404038 ba                               0xba 
                          .reloc:00404039 33                               0x33 '3'
                          .reloc:0040403a c3                               0xc3 
                          .reloc:0040403b 33                               0x33 '3'
                          .reloc:0040403c cf                               0xcf 
                          .reloc:0040403d 33                               0x33 '3'
                          .reloc:0040403e d8                               0xd8 
                          .reloc:0040403f 33                               0x33 '3'
                          .reloc:00404040 e4                               0xe4 
                          .reloc:00404041 33                               0x33 '3'
                          .reloc:00404042 ec                               0xec 
                          .reloc:00404043 33                               0x33 '3'
                          .reloc:00404044 f3                               0xf3 
                          .reloc:00404045 33                               0x33 '3'
                          .reloc:00404046 ff                               0xff 
                          .reloc:00404047 33                               0x33 '3'
                          .reloc:00404048 0b                               0x0b ''
                          .reloc:00404049 34                               0x34 '4'
                          .reloc:0040404a 14                               0x14 
                          .reloc:0040404b 34                               0x34 '4'
                          .reloc:0040404c 20                               0x20 ' '
                          .reloc:0040404d 34                               0x34 '4'
                          .reloc:0040404e c9                               0xc9 
                          .reloc:0040404f 34                               0x34 '4'
                          .reloc:00404050 d2                               0xd2 
                          .reloc:00404051 34                               0x34 '4'
                          .reloc:00404052 d8                               0xd8 
                          .reloc:00404053 34                               0x34 '4'
                          .reloc:00404054 e6                               0xe6 
                          .reloc:00404055 34                               0x34 '4'
                          .reloc:00404056 06                               0x06 
                          .reloc:00404057 35                               0x35 '5'
                          .reloc:00404058 15                               0x15 
                          .reloc:00404059 35                               0x35 '5'
                          .reloc:0040405a 1b                               0x1b 
                          .reloc:0040405b 35                               0x35 '5'
                          .reloc:0040405c 21                               0x21 '!'
                          .reloc:0040405d 35                               0x35 '5'
                          .reloc:0040405e 2c                               0x2c ','
                          .reloc:0040405f 35                               0x35 '5'
                          .reloc:00404060 34                               0x34 '4'
                          .reloc:00404061 35                               0x35 '5'
                          .reloc:00404062 3a                               0x3a ':'
                          .reloc:00404063 35                               0x35 '5'
                          .reloc:00404064 4c                               0x4c 'L'
                          .reloc:00404065 35                               0x35 '5'
                          .reloc:00404066 52                               0x52 'R'
                          .reloc:00404067 35                               0x35 '5'
                          .reloc:00404068 60                               0x60 '`'
                          .reloc:00404069 35                               0x35 '5'
                          .reloc:0040406a 84                               0x84 
                          .reloc:0040406b 32                               0x32 '2'
                          .reloc:0040406c 72                               0x72 'r'
                          .reloc:0040406d 35                               0x35 '5'
                          .reloc:0040406e 78                               0x78 'x'
                          .reloc:0040406f 35                               0x35 '5'
                          .reloc:00404070 86                               0x86 
                          .reloc:00404071 35                               0x35 '5'
                          .reloc:00404072 8c                               0x8c 
                          .reloc:00404073 35                               0x35 '5'
                          .reloc:00404074 92                               0x92 
                          .reloc:00404075 35                               0x35 '5'
                          .reloc:00404076 98                               0x98 
                          .reloc:00404077 35                               0x35 '5'
                          .reloc:00404078 9e                               0x9e 
                          .reloc:00404079 35                               0x35 '5'
                          .reloc:0040407a a7                               0xa7 
                          .reloc:0040407b 35                               0x35 '5'
                          .reloc:0040407c bd                               0xbd 
                          .reloc:0040407d 35                               0x35 '5'
                          .reloc:0040407e c3                               0xc3 
                          .reloc:0040407f 35                               0x35 '5'
                          .reloc:00404080 c9                               0xc9 
                          .reloc:00404081 35                               0x35 '5'
                          .reloc:00404082 cf                               0xcf 
                          .reloc:00404083 35                               0x35 '5'
                          .reloc:00404084 d5                               0xd5 
                          .reloc:00404085 35                               0x35 '5'
                          .reloc:00404086 db                               0xdb 
                          .reloc:00404087 35                               0x35 '5'
                          .reloc:00404088 e1                               0xe1 
                          .reloc:00404089 35                               0x35 '5'
                          .reloc:0040408a eb                               0xeb 
                          .reloc:0040408b 35                               0x35 '5'
                          .reloc:0040408c f1                               0xf1 
                          .reloc:0040408d 35                               0x35 '5'
                          .reloc:0040408e f7                               0xf7 
                          .reloc:0040408f 35                               0x35 '5'
                          .reloc:00404090 fd                               0xfd 
                          .reloc:00404091 35                               0x35 '5'
                          .reloc:00404092 03                               0x03 
                          .reloc:00404093 36                               0x36 '6'
                          .reloc:00404094 0c                               0x0c ''
                          .reloc:00404095 36                               0x36 '6'
                          .reloc:00404096 20                               0x20 ' '
                          .reloc:00404097 36                               0x36 '6'
                          .reloc:00404098 55                               0x55 'U'
                          .reloc:00404099 36                               0x36 '6'
                          .reloc:0040409a 8e                               0x8e 
                          .reloc:0040409b 36                               0x36 '6'
                          .reloc:0040409c 9d                               0x9d 
                          .reloc:0040409d 36                               0x36 '6'
                          .reloc:0040409e b6                               0xb6 
                          .reloc:0040409f 36                               0x36 '6'
                          .reloc:004040a0 fc                               0xfc 
                          .reloc:004040a1 36                               0x36 '6'
                          .reloc:004040a2 e1                               0xe1 
                          .reloc:004040a3 37                               0x37 '7'
                          .reloc:004040a4 e8                               0xe8 
                          .reloc:004040a5 37                               0x37 '7'
                          .reloc:004040a6 fe                               0xfe 
                          .reloc:004040a7 37                               0x37 '7'
                          .reloc:004040a8 0e                               0x0e 
                          .reloc:004040a9 38                               0x38 '8'
                          .reloc:004040aa 21                               0x21 '!'
                          .reloc:004040ab 38                               0x38 '8'
                          .reloc:004040ac 30                               0x30 '0'
                          .reloc:004040ad 38                               0x38 '8'
                          .reloc:004040ae 4b                               0x4b 'K'
                          .reloc:004040af 38                               0x38 '8'
                          .reloc:004040b0 83                               0x83 
                          .reloc:004040b1 38                               0x38 '8'
                          .reloc:004040b2 94                               0x94 
                          .reloc:004040b3 38                               0x38 '8'
                          .reloc:004040b4 bb                               0xbb 
                          .reloc:004040b5 38                               0x38 '8'
                          .reloc:004040b6 cd                               0xcd 
                          .reloc:004040b7 38                               0x38 '8'
                          .reloc:004040b8 d5                               0xd5 
                          .reloc:004040b9 38                               0x38 '8'
                          .reloc:004040ba 01                               0x01 
                          .reloc:004040bb 39                               0x39 '9'
                          .reloc:004040bc c5                               0xc5 
                          .reloc:004040bd 38                               0x38 '8'
                          .reloc:004040be 12                               0x12 
                          .reloc:004040bf 39                               0x39 '9'
                          .reloc:004040c0 4c                               0x4c 'L'
                          .reloc:004040c1 3a                               0x3a ':'
                          .reloc:004040c2 58                               0x58 'X'
                          .reloc:004040c3 3a                               0x3a ':'
                          .reloc:004040c4 ea                               0xea 
                          .reloc:004040c5 3a                               0x3a ':'
                          .reloc:004040c6 f7                               0xf7 
                          .reloc:004040c7 3a                               0x3a ':'
                          .reloc:004040c8 ae                               0xae 
                          .reloc:004040c9 3b                               0x3b ';'
                          .reloc:004040ca 00                               0x00 
                          .reloc:004040cb 00                               0x00 
                          .reloc:004040cc 00                               0x00 
                          .reloc:004040cd 00                               0x00 
                          .reloc:004040ce 00                               0x00 
                          .reloc:004040cf 00                               0x00 
                          .reloc:004040d0 00                               0x00 
                          .reloc:004040d1 00                               0x00 
                          .reloc:004040d2 00                               0x00 
                          .reloc:004040d3 00                               0x00 
                          .reloc:004040d4 00                               0x00 
                          .reloc:004040d5 00                               0x00 
                          .reloc:004040d6 00                               0x00 
                          .reloc:004040d7 00                               0x00 
                          .reloc:004040d8 00                               0x00 
                          .reloc:004040d9 00                               0x00 
                          .reloc:004040da 00                               0x00 
                          .reloc:004040db 00                               0x00 
                          .reloc:004040dc 00                               0x00 
                          .reloc:004040dd 00                               0x00 
                          .reloc:004040de 00                               0x00 
                          .reloc:004040df 00                               0x00 
                          .reloc:004040e0 00                               0x00 
                          .reloc:004040e1 00                               0x00 
                          .reloc:004040e2 00                               0x00 
                          .reloc:004040e3 00                               0x00 
                          .reloc:004040e4 00                               0x00 
                          .reloc:004040e5 00                               0x00 
                          .reloc:004040e6 00                               0x00 
                          .reloc:004040e7 00                               0x00 
                          .reloc:004040e8 00                               0x00 
                          .reloc:004040e9 00                               0x00 
                          .reloc:004040ea 00                               0x00 
                          .reloc:004040eb 00                               0x00 
                          .reloc:004040ec 00                               0x00 
                          .reloc:004040ed 00                               0x00 
                          .reloc:004040ee 00                               0x00 
                          .reloc:004040ef 00                               0x00 
                          .reloc:004040f0 00                               0x00 
                          .reloc:004040f1 00                               0x00 
                          .reloc:004040f2 00                               0x00 
                          .reloc:004040f3 00                               0x00 
                          .reloc:004040f4 00                               0x00 
                          .reloc:004040f5 00                               0x00 
                          .reloc:004040f6 00                               0x00 
                          .reloc:004040f7 00                               0x00 
                          .reloc:004040f8 00                               0x00 
                          .reloc:004040f9 00                               0x00 
                          .reloc:004040fa 00                               0x00 
                          .reloc:004040fb 00                               0x00 
                          .reloc:004040fc 00                               0x00 
                          .reloc:004040fd 00                               0x00 
                          .reloc:004040fe 00                               0x00 
                          .reloc:004040ff 00                               0x00 
                          .reloc:00404100 00                               0x00 
                          .reloc:00404101 00                               0x00 
                          .reloc:00404102 00                               0x00 
                          .reloc:00404103 00                               0x00 
                          .reloc:00404104 00                               0x00 
                          .reloc:00404105 00                               0x00 
                          .reloc:00404106 00                               0x00 
                          .reloc:00404107 00                               0x00 
                          .reloc:00404108 00                               0x00 
                          .reloc:00404109 00                               0x00 
                          .reloc:0040410a 00                               0x00 
                          .reloc:0040410b 00                               0x00 
                          .reloc:0040410c 00                               0x00 
                          .reloc:0040410d 00                               0x00 
                          .reloc:0040410e 00                               0x00 
                          .reloc:0040410f 00                               0x00 
                          .reloc:00404110 00                               0x00 
                          .reloc:00404111 00                               0x00 
                          .reloc:00404112 00                               0x00 
                          .reloc:00404113 00                               0x00 
                          .reloc:00404114 00                               0x00 
                          .reloc:00404115 00                               0x00 
                          .reloc:00404116 00                               0x00 
                          .reloc:00404117 00                               0x00 
                          .reloc:00404118 00                               0x00 
                          .reloc:00404119 00                               0x00 
                          .reloc:0040411a 00                               0x00 
                          .reloc:0040411b 00                               0x00 
                          .reloc:0040411c 00                               0x00 
                          .reloc:0040411d 00                               0x00 
                          .reloc:0040411e 00                               0x00 
                          .reloc:0040411f 00                               0x00 
                          .reloc:00404120 00                               0x00 
                          .reloc:00404121 00                               0x00 
                          .reloc:00404122 00                               0x00 
                          .reloc:00404123 00                               0x00 
                          .reloc:00404124 00                               0x00 
                          .reloc:00404125 00                               0x00 
                          .reloc:00404126 00                               0x00 
                          .reloc:00404127 00                               0x00 
                          .reloc:00404128 00                               0x00 
                          .reloc:00404129 00                               0x00 
                          .reloc:0040412a 00                               0x00 
                          .reloc:0040412b 00                               0x00 
                          .reloc:0040412c 00                               0x00 
                          .reloc:0040412d 00                               0x00 
                          .reloc:0040412e 00                               0x00 
                          .reloc:0040412f 00                               0x00 
                          .reloc:00404130 00                               0x00 
                          .reloc:00404131 00                               0x00 
                          .reloc:00404132 00                               0x00 
                          .reloc:00404133 00                               0x00 
                          .reloc:00404134 00                               0x00 
                          .reloc:00404135 00                               0x00 
                          .reloc:00404136 00                               0x00 
                          .reloc:00404137 00                               0x00 
                          .reloc:00404138 00                               0x00 
                          .reloc:00404139 00                               0x00 
                          .reloc:0040413a 00                               0x00 
                          .reloc:0040413b 00                               0x00 
                          .reloc:0040413c 00                               0x00 
                          .reloc:0040413d 00                               0x00 
                          .reloc:0040413e 00                               0x00 
                          .reloc:0040413f 00                               0x00 
                          .reloc:00404140 00                               0x00 
                          .reloc:00404141 00                               0x00 
                          .reloc:00404142 00                               0x00 
                          .reloc:00404143 00                               0x00 
                          .reloc:00404144 00                               0x00 
                          .reloc:00404145 00                               0x00 
                          .reloc:00404146 00                               0x00 
                          .reloc:00404147 00                               0x00 
                          .reloc:00404148 00                               0x00 
                          .reloc:00404149 00                               0x00 
                          .reloc:0040414a 00                               0x00 
                          .reloc:0040414b 00                               0x00 
                          .reloc:0040414c 00                               0x00 
                          .reloc:0040414d 00                               0x00 
                          .reloc:0040414e 00                               0x00 
                          .reloc:0040414f 00                               0x00 
                          .reloc:00404150 00                               0x00 
                          .reloc:00404151 00                               0x00 
                          .reloc:00404152 00                               0x00 
                          .reloc:00404153 00                               0x00 
                          .reloc:00404154 00                               0x00 
                          .reloc:00404155 00                               0x00 
                          .reloc:00404156 00                               0x00 
                          .reloc:00404157 00                               0x00 
                          .reloc:00404158 00                               0x00 
                          .reloc:00404159 00                               0x00 
                          .reloc:0040415a 00                               0x00 
                          .reloc:0040415b 00                               0x00 
                          .reloc:0040415c 00                               0x00 
                          .reloc:0040415d 00                               0x00 
                          .reloc:0040415e 00                               0x00 
                          .reloc:0040415f 00                               0x00 
                          .reloc:00404160 00                               0x00 
                          .reloc:00404161 00                               0x00 
                          .reloc:00404162 00                               0x00 
                          .reloc:00404163 00                               0x00 
                          .reloc:00404164 00                               0x00 
                          .reloc:00404165 00                               0x00 
                          .reloc:00404166 00                               0x00 
                          .reloc:00404167 00                               0x00 
                          .reloc:00404168 00                               0x00 
                          .reloc:00404169 00                               0x00 
                          .reloc:0040416a 00                               0x00 
                          .reloc:0040416b 00                               0x00 
                          .reloc:0040416c 00                               0x00 
                          .reloc:0040416d 00                               0x00 
                          .reloc:0040416e 00                               0x00 
                          .reloc:0040416f 00                               0x00 
                          .reloc:00404170 00                               0x00 
                          .reloc:00404171 00                               0x00 
                          .reloc:00404172 00                               0x00 
                          .reloc:00404173 00                               0x00 
                          .reloc:00404174 00                               0x00 
                          .reloc:00404175 00                               0x00 
                          .reloc:00404176 00                               0x00 
                          .reloc:00404177 00                               0x00 
                          .reloc:00404178 00                               0x00 
                          .reloc:00404179 00                               0x00 
                          .reloc:0040417a 00                               0x00 
                          .reloc:0040417b 00                               0x00 
                          .reloc:0040417c 00                               0x00 
                          .reloc:0040417d 00                               0x00 
                          .reloc:0040417e 00                               0x00 
                          .reloc:0040417f 00                               0x00 
                          .reloc:00404180 00                               0x00 
                          .reloc:00404181 00                               0x00 
                          .reloc:00404182 00                               0x00 
                          .reloc:00404183 00                               0x00 
                          .reloc:00404184 00                               0x00 
                          .reloc:00404185 00                               0x00 
                          .reloc:00404186 00                               0x00 
                          .reloc:00404187 00                               0x00 
                          .reloc:00404188 00                               0x00 
                          .reloc:00404189 00                               0x00 
                          .reloc:0040418a 00                               0x00 
                          .reloc:0040418b 00                               0x00 
                          .reloc:0040418c 00                               0x00 
                          .reloc:0040418d 00                               0x00 
                          .reloc:0040418e 00                               0x00 
                          .reloc:0040418f 00                               0x00 
                          .reloc:00404190 00                               0x00 
                          .reloc:00404191 00                               0x00 
                          .reloc:00404192 00                               0x00 
                          .reloc:00404193 00                               0x00 
                          .reloc:00404194 00                               0x00 
                          .reloc:00404195 00                               0x00 
                          .reloc:00404196 00                               0x00 
                          .reloc:00404197 00                               0x00 
                          .reloc:00404198 00                               0x00 
                          .reloc:00404199 00                               0x00 
                          .reloc:0040419a 00                               0x00 
                          .reloc:0040419b 00                               0x00 
                          .reloc:0040419c 00                               0x00 
                          .reloc:0040419d 00                               0x00 
                          .reloc:0040419e 00                               0x00 
                          .reloc:0040419f 00                               0x00 
                          .reloc:004041a0 00                               0x00 
                          .reloc:004041a1 00                               0x00 
                          .reloc:004041a2 00                               0x00 
                          .reloc:004041a3 00                               0x00 
                          .reloc:004041a4 00                               0x00 
                          .reloc:004041a5 00                               0x00 
                          .reloc:004041a6 00                               0x00 
                          .reloc:004041a7 00                               0x00 
                          .reloc:004041a8 00                               0x00 
                          .reloc:004041a9 00                               0x00 
                          .reloc:004041aa 00                               0x00 
                          .reloc:004041ab 00                               0x00 
                          .reloc:004041ac 00                               0x00 
                          .reloc:004041ad 00                               0x00 
                          .reloc:004041ae 00                               0x00 
                          .reloc:004041af 00                               0x00 
                          .reloc:004041b0 00                               0x00 
                          .reloc:004041b1 00                               0x00 
                          .reloc:004041b2 00                               0x00 
                          .reloc:004041b3 00                               0x00 
                          .reloc:004041b4 00                               0x00 
                          .reloc:004041b5 00                               0x00 
                          .reloc:004041b6 00                               0x00 
                          .reloc:004041b7 00                               0x00 
                          .reloc:004041b8 00                               0x00 
                          .reloc:004041b9 00                               0x00 
                          .reloc:004041ba 00                               0x00 
                          .reloc:004041bb 00                               0x00 
                          .reloc:004041bc 00                               0x00 
                          .reloc:004041bd 00                               0x00 
                          .reloc:004041be 00                               0x00 
                          .reloc:004041bf 00                               0x00 
                          .reloc:004041c0 00                               0x00 
                          .reloc:004041c1 00                               0x00 
                          .reloc:004041c2 00                               0x00 
                          .reloc:004041c3 00                               0x00 
                          .reloc:004041c4 00                               0x00 
                          .reloc:004041c5 00                               0x00 
                          .reloc:004041c6 00                               0x00 
                          .reloc:004041c7 00                               0x00 
                          .reloc:004041c8 00                               0x00 
                          .reloc:004041c9 00                               0x00 
                          .reloc:004041ca 00                               0x00 
                          .reloc:004041cb 00                               0x00 
                          .reloc:004041cc 00                               0x00 
                          .reloc:004041cd 00                               0x00 
                          .reloc:004041ce 00                               0x00 
                          .reloc:004041cf 00                               0x00 
                          .reloc:004041d0 00                               0x00 
                          .reloc:004041d1 00                               0x00 
                          .reloc:004041d2 00                               0x00 
                          .reloc:004041d3 00                               0x00 
                          .reloc:004041d4 00                               0x00 
                          .reloc:004041d5 00                               0x00 
                          .reloc:004041d6 00                               0x00 
                          .reloc:004041d7 00                               0x00 
                          .reloc:004041d8 00                               0x00 
                          .reloc:004041d9 00                               0x00 
                          .reloc:004041da 00                               0x00 
                          .reloc:004041db 00                               0x00 
                          .reloc:004041dc 00                               0x00 
                          .reloc:004041dd 00                               0x00 
                          .reloc:004041de 00                               0x00 
                          .reloc:004041df 00                               0x00 
                          .reloc:004041e0 00                               0x00 
                          .reloc:004041e1 00                               0x00 
                          .reloc:004041e2 00                               0x00 
                          .reloc:004041e3 00                               0x00 
                          .reloc:004041e4 00                               0x00 
                          .reloc:004041e5 00                               0x00 
                          .reloc:004041e6 00                               0x00 
                          .reloc:004041e7 00                               0x00 
                          .reloc:004041e8 00                               0x00 
                          .reloc:004041e9 00                               0x00 
                          .reloc:004041ea 00                               0x00 
                          .reloc:004041eb 00                               0x00 
                          .reloc:004041ec 00                               0x00 
                          .reloc:004041ed 00                               0x00 
                          .reloc:004041ee 00                               0x00 
                          .reloc:004041ef 00                               0x00 
                          .reloc:004041f0 00                               0x00 
                          .reloc:004041f1 00                               0x00 
                          .reloc:004041f2 00                               0x00 
                          .reloc:004041f3 00                               0x00 
                          .reloc:004041f4 00                               0x00 
                          .reloc:004041f5 00                               0x00 
                          .reloc:004041f6 00                               0x00 
                          .reloc:004041f7 00                               0x00 
                          .reloc:004041f8 00                               0x00 
                          .reloc:004041f9 00                               0x00 
                          .reloc:004041fa 00                               0x00 
                          .reloc:004041fb 00                               0x00 
                          .reloc:004041fc 00                               0x00 
                          .reloc:004041fd 00                               0x00 
                          .reloc:004041fe 00                               0x00 
                          .reloc:004041ff 00                               0x00 
