                           .text:00401000 c3                               ret    
                           .text:00401001 00 00                            add    %al,(%eax)
                           .text:00401003 00 00                            add    %al,(%eax)
                           .text:00401005 00 00                            add    %al,(%eax)
                           .text:00401007 00 00                            add    %al,(%eax)
                           .text:00401009 00 00                            add    %al,(%eax)
                           .text:0040100b 00 ce                            add    %cl,%dh
                           .text:0040100d 04 00                            add    $0x0,%al
                           .text:0040100f 00 55 8d                         add    %dl,-0x73(%ebp)
                           .text:00401012 44                               inc    %esp
                           .text:00401013 24 f8                            and    $0xf8,%al
                           .text:00401015 33 db                            xor    %ebx,%ebx
                           .text:00401017 64 87 03                         xchg   %eax,%fs:(%ebx)
                           .text:0040101a e8 00 00 00 00                   call   0x0040101f
                           .text:0040101f 5b                               pop    %ebx
                           .text:00401020 8d 4b 51                         lea    0x51(%ebx),%ecx
                           .text:00401023 90                               nop
                           .text:00401024 90                               nop
                           .text:00401025 90                               nop
                           .text:00401026 51                               push   %ecx
                           .text:00401027 50                               push   %eax
                           .text:00401028 50                               push   %eax
                           .text:00401029 0f 01 4c 24 fe                   sidtl  -0x2(%esp)
                           .text:0040102e 5b                               pop    %ebx
                           .text:0040102f 83 c3 2c                         add    $0x2c,%ebx
                           .text:00401032 fa                               cli    
                           .text:00401033 8b 2b                            mov    (%ebx),%ebp
                           .text:00401035 66 8b 6b fc                      mov    -0x4(%ebx),%bp
                           .text:00401039 8d 71 12                         lea    0x12(%ecx),%esi
                           .text:0040103c 90                               nop
                           .text:0040103d 90                               nop
                           .text:0040103e 90                               nop
                           .text:0040103f 56                               push   %esi
                           .text:00401040 66 89 73 fc                      mov    %si,-0x4(%ebx)
                           .text:00401044 c1 ee 10                         shr    $0x10,%esi
                           .text:00401047 66 89 73 02                      mov    %si,0x2(%ebx)
                           .text:0040104b 5e                               pop    %esi
                           .text:0040104c cd 05                            int    $0x5
                           .text:0040104e 56                               push   %esi
                           .text:0040104f 8b f0                            mov    %eax,%esi
                           .text:00401051 8b 48 fc                         mov    -0x4(%eax),%ecx
                           .text:00401054 f3 a4                            rep movsb %ds:(%esi),%es:(%edi)
                           .text:00401056 83 e8 08                         sub    $0x8,%eax
                           .text:00401059 8b 30                            mov    (%eax),%esi
                           .text:0040105b 0b f6                            or     %esi,%esi
                           .text:0040105d 74 06                            je     0x00401065
                           .text:0040105f 90                               nop
                           .text:00401060 90                               nop
                           .text:00401061 90                               nop
                           .text:00401062 90                               nop
                           .text:00401063 eb ec                            jmp    0x00401051
                           .text:00401065 5e                               pop    %esi
                           .text:00401066 cd 05                            int    $0x5
                           .text:00401068 fb                               sti    
                           .text:00401069 33 db                            xor    %ebx,%ebx
                           .text:0040106b eb 0a                            jmp    0x00401077
                           .text:0040106d 90                               nop
                           .text:0040106e 90                               nop
                           .text:0040106f 90                               nop
                           .text:00401070 33 db                            xor    %ebx,%ebx
                           .text:00401072 64 8b 03                         mov    %fs:(%ebx),%eax
                           .text:00401075 8b 20                            mov    (%eax),%esp
                           .text:00401077 64 8f 03                         popl   %fs:(%ebx)
                           .text:0040107a 58                               pop    %eax
                           .text:0040107b 5d                               pop    %ebp
                           .text:0040107c 68 00 10 40 00                   push   $0x401000
                           .text:00401081 c3                               ret    
                           .text:00401082 74 36                            je     0x004010ba
                           .text:00401084 90                               nop
                           .text:00401085 90                               nop
                           .text:00401086 90                               nop
                           .text:00401087 90                               nop
                           .text:00401088 0f 21 c1                         mov    %db0,%ecx
                           .text:0040108b e3 10                            jecxz  0x0040109d
                           .text:0040108d 83 04 24 1a                      addl   $0x1a,(%esp)
                           .text:00401091 66 89 6b fc                      mov    %bp,-0x4(%ebx)
                           .text:00401095 c1 ed 10                         shr    $0x10,%ebp
                           .text:00401098 66 89 6b 02                      mov    %bp,0x2(%ebx)
                           .text:0040109c cf                               iret   
                           .text:0040109d 0f 23 c3                         mov    %ebx,%db0
                           .text:004010a0 6a 0f                            push   $0xf
                           .text:004010a2 51                               push   %ecx
                           .text:004010a3 6a ff                            push   $0xffffffff
                           .text:004010a5 51                               push   %ecx
                           .text:004010a6 51                               push   %ecx
                           .text:004010a7 51                               push   %ecx
                           .text:004010a8 6a 01                            push   $0x1
                           .text:004010aa 6a 02                            push   $0x2
                           .text:004010ac cd 20                            int    $0x20
                           .text:004010ae 53                               push   %ebx
                           .text:004010af 00 01                            add    %al,(%ecx)
                           .text:004010b1 00 83 c4 20 97 8d                add    %al,-0x7268df3c(%ebx)
                           .text:004010b7 46                               inc    %esi
                           .text:004010b8 8e cf                            mov    %edi,%cs
                           .text:004010ba 8d 87 36 fc ff ff                lea    -0x3ca(%edi),%eax
                           .text:004010c0 50                               push   %eax
                           .text:004010c1 cd 20                            int    $0x20
                           .text:004010c3 67 00 40 00                      add    %al,0x0(%bx,%si)
                           .text:004010c7 0f 23 c0                         mov    %eax,%db0
                           .text:004010ca 58                               pop    %eax
                           .text:004010cb 8b 4e 41                         mov    0x41(%esi),%ecx
                           .text:004010ce 8b 11                            mov    (%ecx),%edx
                           .text:004010d0 89 50 fc                         mov    %edx,-0x4(%eax)
                           .text:004010d3 90                               nop
                           .text:004010d4 90                               nop
                           .text:004010d5 90                               nop
                           .text:004010d6 8d 40 cd                         lea    -0x33(%eax),%eax
                           .text:004010d9 90                               nop
                           .text:004010da 90                               nop
                           .text:004010db 90                               nop
                           .text:004010dc 89 01                            mov    %eax,(%ecx)
                           .text:004010de fa                               cli    
                           .text:004010df eb b0                            jmp    0x00401091
                           .text:004010e1 53                               push   %ebx
                           .text:004010e2 e8 00 00 00 00                   call   0x004010e7
                           .text:004010e7 5b                               pop    %ebx
                           .text:004010e8 83 c3 2d                         add    $0x2d,%ebx
                           .text:004010eb 90                               nop
                           .text:004010ec 90                               nop
                           .text:004010ed 90                               nop
                           .text:004010ee 53                               push   %ebx
                           .text:004010ef cd 20                            int    $0x20
                           .text:004010f1 68 00 40 00 58                   push   $0x58004000
                           .text:004010f6 ff 74 24 08                      pushl  0x8(%esp)
                           .text:004010fa ff 53 fc                         call   *-0x4(%ebx)
                           .text:004010fd 90                               nop
                           .text:004010fe 90                               nop
                           .text:004010ff 90                               nop
                           .text:00401100 59                               pop    %ecx
                           .text:00401101 50                               push   %eax
                           .text:00401102 53                               push   %ebx
                           .text:00401103 ff 53 fc                         call   *-0x4(%ebx)
                           .text:00401106 90                               nop
                           .text:00401107 90                               nop
                           .text:00401108 90                               nop
                           .text:00401109 59                               pop    %ecx
                           .text:0040110a 0f 23 c0                         mov    %eax,%db0
                           .text:0040110d 58                               pop    %eax
                           .text:0040110e 5b                               pop    %ebx
                           .text:0040110f c3                               ret    
                           .text:00401110 00 00                            add    %al,(%eax)
                           .text:00401112 00 00                            add    %al,(%eax)
                           .text:00401114 60                               pusha  
                           .text:00401115 e8 00 00 00 00                   call   0x0040111a
                           .text:0040111a 5e                               pop    %esi
                           .text:0040111b 81 c6 c4 03 00 00                add    $0x3c4,%esi
                           .text:00401121 f6 06 01                         testb  $0x1,(%esi)
                           .text:00401124 90                               nop
                           .text:00401125 90                               nop
                           .text:00401126 90                               nop
                           .text:00401127 90                               nop
                           .text:00401128 0f 85 9e 02 00 00                jne    0x004013cc
                           .text:0040112e 8d 5c 24 28                      lea    0x28(%esp),%ebx
                           .text:00401132 83 3b 24                         cmpl   $0x24,(%ebx)
                           .text:00401135 0f 85 8b 02 00 00                jne    0x004013c6
                           .text:0040113b fe 06                            incb   (%esi)
                           .text:0040113d 90                               nop
                           .text:0040113e 90                               nop
                           .text:0040113f 90                               nop
                           .text:00401140 90                               nop
                           .text:00401141 83 c6 05                         add    $0x5,%esi
                           .text:00401144 90                               nop
                           .text:00401145 90                               nop
                           .text:00401146 90                               nop
                           .text:00401147 56                               push   %esi
                           .text:00401148 8a 43 04                         mov    0x4(%ebx),%al
                           .text:0040114b 3c ff                            cmp    $0xff,%al
                           .text:0040114d 74 0c                            je     0x0040115b
                           .text:0040114f 90                               nop
                           .text:00401150 90                               nop
                           .text:00401151 90                               nop
                           .text:00401152 90                               nop
                           .text:00401153 04 40                            add    $0x40,%al
                           .text:00401155 b4 3a                            mov    $0x3a,%ah
                           .text:00401157 89 06                            mov    %eax,(%esi)
                           .text:00401159 46                               inc    %esi
                           .text:0040115a 46                               inc    %esi
                           .text:0040115b 6a 00                            push   $0x0
                           .text:0040115d 6a 7f                            push   $0x7f
                           .text:0040115f 8b 5b 10                         mov    0x10(%ebx),%ebx
                           .text:00401162 8b 43 0c                         mov    0xc(%ebx),%eax
                           .text:00401165 83 c0 04                         add    $0x4,%eax
                           .text:00401168 50                               push   %eax
                           .text:00401169 56                               push   %esi
                           .text:0040116a cd 20                            int    $0x20
                           .text:0040116c 41                               inc    %ecx
                           .text:0040116d 00 40 00                         add    %al,0x0(%eax)
                           .text:00401170 83 c4 10                         add    $0x10,%esp
                           .text:00401173 81 7c 06 fc 2e 45 58 45          cmpl   $0x4558452e,-0x4(%esi,%eax,1)
                           .text:0040117b 5e                               pop    %esi
                           .text:0040117c 0f 85 3e 02 00 00                jne    0x004013c0
                           .text:00401182 81 7c 06 fa 46 55 43 4b          cmpl   $0x4b435546,-0x6(%esi,%eax,1)
                           .text:0040118a 0f 85 30 02 00 00                jne    0x004013c0
                           .text:00401190 66 83 7b 18 01                   cmpw   $0x1,0x18(%ebx)
                           .text:00401195 0f 85 25 02 00 00                jne    0x004013c0
                           .text:0040119b 66 b8 00 43                      mov    $0x4300,%ax
                           .text:0040119f cd 20                            int    $0x20
                           .text:004011a1 32 00                            xor    (%eax),%al
                           .text:004011a3 40                               inc    %eax
                           .text:004011a4 00 0f                            add    %cl,(%edi)
                           .text:004011a6 82                               (bad)  
                           .text:004011a7 15 02 00 00 51                   adc    $0x51000002,%eax
                           .text:004011ac 8b be be fc ff ff                mov    -0x342(%esi),%edi
                           .text:004011b2 8b 3f                            mov    (%edi),%edi
                           .text:004011b4 f6 c1 01                         test   $0x1,%cl
                           .text:004011b7 74 0c                            je     0x004011c5
                           .text:004011b9 90                               nop
                           .text:004011ba 90                               nop
                           .text:004011bb 90                               nop
                           .text:004011bc 90                               nop
                           .text:004011bd 66 b8 01 43                      mov    $0x4301,%ax
                           .text:004011c1 33 c9                            xor    %ecx,%ecx
                           .text:004011c3 ff d7                            call   *%edi
                           .text:004011c5 33 c0                            xor    %eax,%eax
                           .text:004011c7 b4 d5                            mov    $0xd5,%ah
                           .text:004011c9 33 c9                            xor    %ecx,%ecx
                           .text:004011cb 33 d2                            xor    %edx,%edx
                           .text:004011cd 42                               inc    %edx
                           .text:004011ce 8b da                            mov    %edx,%ebx
                           .text:004011d0 43                               inc    %ebx
                           .text:004011d1 ff d7                            call   *%edi
                           .text:004011d3 93                               xchg   %eax,%ebx
                           .text:004011d4 59                               pop    %ecx
                           .text:004011d5 9c                               pushf  
                           .text:004011d6 f6 c1 01                         test   $0x1,%cl
                           .text:004011d9 74 0a                            je     0x004011e5
                           .text:004011db 90                               nop
                           .text:004011dc 90                               nop
                           .text:004011dd 90                               nop
                           .text:004011de 90                               nop
                           .text:004011df 66 b8 01 43                      mov    $0x4301,%ax
                           .text:004011e3 ff d7                            call   *%edi
                           .text:004011e5 9d                               popf   
                           .text:004011e6 0f 82 d4 01 00 00                jb     0x004013c0
                           .text:004011ec 56                               push   %esi
                           .text:004011ed 9c                               pushf  
                           .text:004011ee 83 c6 7f                         add    $0x7f,%esi
                           .text:004011f1 90                               nop
                           .text:004011f2 90                               nop
                           .text:004011f3 90                               nop
                           .text:004011f4 33 c0                            xor    %eax,%eax
                           .text:004011f6 b4 d6                            mov    $0xd6,%ah
                           .text:004011f8 8b e8                            mov    %eax,%ebp
                           .text:004011fa 6a 04                            push   $0x4
                           .text:004011fc 59                               pop    %ecx
                           .text:004011fd 6a 3c                            push   $0x3c
                           .text:004011ff 5a                               pop    %edx
                           .text:00401200 ff d7                            call   *%edi
                           .text:00401202 8b 16                            mov    (%esi),%edx
                           .text:00401204 4a                               dec    %edx
                           .text:00401205 8b c5                            mov    %ebp,%eax
                           .text:00401207 ff d7                            call   *%edi
                           .text:00401209 81 3e 00 50 45 00                cmpl   $0x455000,(%esi)
                           .text:0040120f 0f 85 89 01 00 00                jne    0x0040139e
                           .text:00401215 53                               push   %ebx
                           .text:00401216 6a 00                            push   $0x0
                           .text:00401218 6a 01                            push   $0x1
                           .text:0040121a 52                               push   %edx
                           .text:0040121b 57                               push   %edi
                           .text:0040121c 0f 23 cc                         mov    %esp,%db1
                           .text:0040121f 50                               push   %eax
                           .text:00401220 8b c5                            mov    %ebp,%eax
                           .text:00401222 b1 52                            mov    $0x52,%cl
                           .text:00401224 90                               nop
                           .text:00401225 90                               nop
                           .text:00401226 90                               nop
                           .text:00401227 90                               nop
                           .text:00401228 83 c2 07                         add    $0x7,%edx
                           .text:0040122b ff d7                            call   *%edi
                           .text:0040122d 8d 42 22                         lea    0x22(%edx),%eax
                           .text:00401230 90                               nop
                           .text:00401231 90                               nop
                           .text:00401232 90                               nop
                           .text:00401233 50                               push   %eax
                           .text:00401234 8d 06                            lea    (%esi),%eax
                           .text:00401236 90                               nop
                           .text:00401237 90                               nop
                           .text:00401238 90                               nop
                           .text:00401239 90                               nop
                           .text:0040123a 50                               push   %eax
                           .text:0040123b 0f b7 46 0e                      movzwl 0xe(%esi),%eax
                           .text:0040123f 90                               nop
                           .text:00401240 90                               nop
                           .text:00401241 90                               nop
                           .text:00401242 8d 54 10 12                      lea    0x12(%eax,%edx,1),%edx
                           .text:00401246 b0 28                            mov    $0x28,%al
                           .text:00401248 90                               nop
                           .text:00401249 90                               nop
                           .text:0040124a 90                               nop
                           .text:0040124b 8a 0e                            mov    (%esi),%cl
                           .text:0040124d 90                               nop
                           .text:0040124e 90                               nop
                           .text:0040124f 90                               nop
                           .text:00401250 90                               nop
                           .text:00401251 f6 e1                            mul    %cl
                           .text:00401253 8d 76 32                         lea    0x32(%esi),%esi
                           .text:00401256 90                               nop
                           .text:00401257 90                               nop
                           .text:00401258 90                               nop
                           .text:00401259 50                               push   %eax
                           .text:0040125a 52                               push   %edx
                           .text:0040125b 56                               push   %esi
                           .text:0040125c 41                               inc    %ecx
                           .text:0040125d 51                               push   %ecx
                           .text:0040125e c1 e1 03                         shl    $0x3,%ecx
                           .text:00401261 51                               push   %ecx
                           .text:00401262 03 c8                            add    %eax,%ecx
                           .text:00401264 03 ca                            add    %edx,%ecx
                           .text:00401266 2b 4e 1c                         sub    0x1c(%esi),%ecx
                           .text:00401269 90                               nop
                           .text:0040126a 90                               nop
                           .text:0040126b 90                               nop
                           .text:0040126c f7 d1                            not    %ecx
                           .text:0040126e 41                               inc    %ecx
                           .text:0040126f 51                               push   %ecx
                           .text:00401270 91                               xchg   %eax,%ecx
                           .text:00401271 8b 46 f0                         mov    -0x10(%esi),%eax
                           .text:00401274 90                               nop
                           .text:00401275 90                               nop
                           .text:00401276 90                               nop
                           .text:00401277 03 46 fc                         add    -0x4(%esi),%eax
                           .text:0040127a 90                               nop
                           .text:0040127b 90                               nop
                           .text:0040127c 90                               nop
                           .text:0040127d 89 86 e9 fa ff ff                mov    %eax,-0x517(%esi)
                           .text:00401283 66 81 3c 24 d1 00                cmpw   $0xd1,(%esp)
                           .text:00401289 0f 8c b1 00 00 00                jl     0x00401340
                           .text:0040128f 8b c5                            mov    %ebp,%eax
                           .text:00401291 ff d7                            call   *%edi
                           .text:00401293 95                               xchg   %eax,%ebp
                           .text:00401294 6a 04                            push   $0x4
                           .text:00401296 59                               pop    %ecx
                           .text:00401297 52                               push   %edx
                           .text:00401298 8b 56 3c                         mov    0x3c(%esi),%edx
                           .text:0040129b 90                               nop
                           .text:0040129c 90                               nop
                           .text:0040129d 90                               nop
                           .text:0040129e 83 c2 12                         add    $0x12,%edx
                           .text:004012a1 ff d7                            call   *%edi
                           .text:004012a3 81 3e 6e 5a 69 70                cmpl   $0x70695a6e,(%esi)
                           .text:004012a9 0f 84 99 00 00 00                je     0x00401348
                           .text:004012af 5a                               pop    %edx
                           .text:004012b0 5b                               pop    %ebx
                           .text:004012b1 5f                               pop    %edi
                           .text:004012b2 59                               pop    %ecx
                           .text:004012b3 57                               push   %edi
                           .text:004012b4 03 d5                            add    %ebp,%edx
                           .text:004012b6 52                               push   %edx
                           .text:004012b7 03 ee                            add    %esi,%ebp
                           .text:004012b9 55                               push   %ebp
                           .text:004012ba 8d 44 3d fc                      lea    -0x4(%ebp,%edi,1),%eax
                           .text:004012be 89 18                            mov    %ebx,(%eax)
                           .text:004012c0 53                               push   %ebx
                           .text:004012c1 03 d7                            add    %edi,%edx
                           .text:004012c3 52                               push   %edx
                           .text:004012c4 8d be 7c fa ff ff                lea    -0x584(%esi),%edi
                           .text:004012ca 57                               push   %edi
                           .text:004012cb 89 56 ce                         mov    %edx,-0x32(%esi)
                           .text:004012ce 90                               nop
                           .text:004012cf 90                               nop
                           .text:004012d0 90                               nop
                           .text:004012d1 8d 56 d8                         lea    -0x28(%esi),%edx
                           .text:004012d4 90                               nop
                           .text:004012d5 90                               nop
                           .text:004012d6 90                               nop
                           .text:004012d7 bd ce 04 00 00                   mov    $0x4ce,%ebp
                           .text:004012dc eb 56                            jmp    0x00401334
                           .text:004012de 90                               nop
                           .text:004012df 90                               nop
                           .text:004012e0 90                               nop
                           .text:004012e1 83 c2 28                         add    $0x28,%edx
                           .text:004012e4 90                               nop
                           .text:004012e5 90                               nop
                           .text:004012e6 90                               nop
                           .text:004012e7 8b 5a 10                         mov    0x10(%edx),%ebx
                           .text:004012ea 90                               nop
                           .text:004012eb 90                               nop
                           .text:004012ec 90                               nop
                           .text:004012ed 2b 5a 08                         sub    0x8(%edx),%ebx
                           .text:004012f0 90                               nop
                           .text:004012f1 90                               nop
                           .text:004012f2 90                               nop
                           .text:004012f3 76 49                            jbe    0x0040133e
                           .text:004012f5 90                               nop
                           .text:004012f6 90                               nop
                           .text:004012f7 90                               nop
                           .text:004012f8 90                               nop
                           .text:004012f9 53                               push   %ebx
                           .text:004012fa 83 e8 08                         sub    $0x8,%eax
                           .text:004012fd 89 18                            mov    %ebx,(%eax)
                           .text:004012ff 8b 5a 14                         mov    0x14(%edx),%ebx
                           .text:00401302 90                               nop
                           .text:00401303 90                               nop
                           .text:00401304 90                               nop
                           .text:00401305 03 5a 08                         add    0x8(%edx),%ebx
                           .text:00401308 90                               nop
                           .text:00401309 90                               nop
                           .text:0040130a 90                               nop
                           .text:0040130b 53                               push   %ebx
                           .text:0040130c 57                               push   %edi
                           .text:0040130d 8b 5a 08                         mov    0x8(%edx),%ebx
                           .text:00401310 90                               nop
                           .text:00401311 90                               nop
                           .text:00401312 90                               nop
                           .text:00401313 03 5a 0c                         add    0xc(%edx),%ebx
                           .text:00401316 90                               nop
                           .text:00401317 90                               nop
                           .text:00401318 90                               nop
                           .text:00401319 03 5e fc                         add    -0x4(%esi),%ebx
                           .text:0040131c 90                               nop
                           .text:0040131d 90                               nop
                           .text:0040131e 90                               nop
                           .text:0040131f 89 58 04                         mov    %ebx,0x4(%eax)
                           .text:00401322 8b 18                            mov    (%eax),%ebx
                           .text:00401324 01 5a 08                         add    %ebx,0x8(%edx)
                           .text:00401327 90                               nop
                           .text:00401328 90                               nop
                           .text:00401329 90                               nop
                           .text:0040132a 81 4a 24 40 00 00 40             orl    $0x40000040,0x24(%edx)
                           .text:00401331 90                               nop
                           .text:00401332 90                               nop
                           .text:00401333 90                               nop
                           .text:00401334 2b eb                            sub    %ebx,%ebp
                           .text:00401336 76 18                            jbe    0x00401350
                           .text:00401338 90                               nop
                           .text:00401339 90                               nop
                           .text:0040133a 90                               nop
                           .text:0040133b 90                               nop
                           .text:0040133c 03 fb                            add    %ebx,%edi
                           .text:0040133e e2 a1                            loop   0x004012e1
                           .text:00401340 0f 21 cc                         mov    %db1,%esp
                           .text:00401343 eb 3d                            jmp    0x00401382
                           .text:00401345 90                               nop
                           .text:00401346 90                               nop
                           .text:00401347 90                               nop
                           .text:00401348 83 c4 3c                         add    $0x3c,%esp
                           .text:0040134b eb 51                            jmp    0x0040139e
                           .text:0040134d 90                               nop
                           .text:0040134e 90                               nop
                           .text:0040134f 90                               nop
                           .text:00401350 01 28                            add    %ebp,(%eax)
                           .text:00401352 01 6c 24 08                      add    %ebp,0x8(%esp)
                           .text:00401356 33 db                            xor    %ebx,%ebx
                           .text:00401358 89 58 fc                         mov    %ebx,-0x4(%eax)
                           .text:0040135b 8d 86 0b fc ff ff                lea    -0x3f5(%esi),%eax
                           .text:00401361 b1 04                            mov    $0x4,%cl
                           .text:00401363 90                               nop
                           .text:00401364 90                               nop
                           .text:00401365 90                               nop
                           .text:00401366 90                               nop
                           .text:00401367 66 c7 00 cd 20                   movw   $0x20cd,(%eax)
                           .text:0040136c 8b 94 8e 27 ff ff ff             mov    -0xd9(%esi,%ecx,4),%edx
                           .text:00401373 89 50 02                         mov    %edx,0x2(%eax)
                           .text:00401376 0f b6 94 31 26 ff ff ff          movzbl -0xda(%ecx,%esi,1),%edx
                           .text:0040137e 2b c2                            sub    %edx,%eax
                           .text:00401380 e2 e5                            loop   0x00401367
                           .text:00401382 0f 21 c8                         mov    %db1,%eax
                           .text:00401385 8b 58 10                         mov    0x10(%eax),%ebx
                           .text:00401388 8b 38                            mov    (%eax),%edi
                           .text:0040138a 59                               pop    %ecx
                           .text:0040138b e3 0d                            jecxz  0x0040139a
                           .text:0040138d 8b f1                            mov    %ecx,%esi
                           .text:0040138f b8 01 d6 00 00                   mov    $0xd601,%eax
                           .text:00401394 5a                               pop    %edx
                           .text:00401395 59                               pop    %ecx
                           .text:00401396 ff d7                            call   *%edi
                           .text:00401398 eb f0                            jmp    0x0040138a
                           .text:0040139a 5b                               pop    %ebx
                           .text:0040139b 58                               pop    %eax
                           .text:0040139c f9                               stc    
                           .text:0040139d 9c                               pushf  
                           .text:0040139e 33 c0                            xor    %eax,%eax
                           .text:004013a0 b4 d7                            mov    $0xd7,%ah
                           .text:004013a2 ff d7                            call   *%edi
                           .text:004013a4 9d                               popf   
                           .text:004013a5 5e                               pop    %esi
                           .text:004013a6 73 45                            jae    0x004013ed
                           .text:004013a8 90                               nop
                           .text:004013a9 90                               nop
                           .text:004013aa 90                               nop
                           .text:004013ab 90                               nop
                           .text:004013ac 8b df                            mov    %edi,%ebx
                           .text:004013ae 66 b8 03 43                      mov    $0x4303,%ax
                           .text:004013b2 8b 4e fc                         mov    -0x4(%esi),%ecx
                           .text:004013b5 90                               nop
                           .text:004013b6 90                               nop
                           .text:004013b7 90                               nop
                           .text:004013b8 8b 7e fe                         mov    -0x2(%esi),%edi
                           .text:004013bb 90                               nop
                           .text:004013bc 90                               nop
                           .text:004013bd 90                               nop
                           .text:004013be ff d3                            call   *%ebx
                           .text:004013c0 fe 4e fb                         decb   -0x5(%esi)
                           .text:004013c3 90                               nop
                           .text:004013c4 90                               nop
                           .text:004013c5 90                               nop
                           .text:004013c6 61                               popa   
                           .text:004013c7 0f 21 c0                         mov    %db0,%eax
                           .text:004013ca ff 20                            jmp    *(%eax)
                           .text:004013cc 8b dc                            mov    %esp,%ebx
                           .text:004013ce ff 73 38                         pushl  0x38(%ebx)
                           .text:004013d1 ff 53 24                         call   *0x24(%ebx)
                           .text:004013d4 59                               pop    %ecx
                           .text:004013d5 89 43 1c                         mov    %eax,0x1c(%ebx)
                           .text:004013d8 83 7b 28 24                      cmpl   $0x24,0x28(%ebx)
                           .text:004013dc 75 0d                            jne    0x004013eb
                           .text:004013de 90                               nop
                           .text:004013df 90                               nop
                           .text:004013e0 90                               nop
                           .text:004013e1 90                               nop
                           .text:004013e2 8b 41 28                         mov    0x28(%ecx),%eax
                           .text:004013e5 89 46 01                         mov    %eax,0x1(%esi)
                           .text:004013e8 90                               nop
                           .text:004013e9 90                               nop
                           .text:004013ea 90                               nop
                           .text:004013eb 61                               popa   
                           .text:004013ec c3                               ret    
                           .text:004013ed b0 07                            mov    $0x7,%al
                           .text:004013ef e6 70                            out    %al,$0x70
                           .text:004013f1 e4 71                            in     $0x71,%al
                           .text:004013f3 34 26                            xor    $0x26,%al
                           .text:004013f5 eb c9                            jmp    0x004013c0
                           .text:004013f7 66 bd f8 0c                      mov    $0xcf8,%bp
                           .text:004013fb 8d 76 c5                         lea    -0x3b(%esi),%esi
                           .text:004013fe 90                               nop
                           .text:004013ff 90                               nop
                           .text:00401400 90                               nop
                           .text:00401401 bf 4c 38 00 80                   mov    $0x8000384c,%edi
                           .text:00401406 66 ba fe 0c                      mov    $0xcfe,%dx
                           .text:0040140a fa                               cli    
                           .text:0040140b ff d6                            call   *%esi
                           .text:0040140d 66 bf 58 00                      mov    $0x58,%di
                           .text:00401411 4a                               dec    %edx
                           .text:00401412 66 c7 46 08 24 0f                movw   $0xf24,0x8(%esi)
                           .text:00401418 90                               nop
                           .text:00401419 90                               nop
                           .text:0040141a 90                               nop
                           .text:0040141b ff d6                            call   *%esi
                           .text:0040141d 8d 5e f4                         lea    -0xc(%esi),%ebx
                           .text:00401420 90                               nop
                           .text:00401421 90                               nop
                           .text:00401422 90                               nop
                           .text:00401423 b8 55 55 0e 00                   mov    $0xe5555,%eax
                           .text:00401428 b9 aa 2a 0e 00                   mov    $0xe2aaa,%ecx
                           .text:0040142d ff d3                            call   *%ebx
                           .text:0040142f c6 00 60                         movb   $0x60,(%eax)
                           .text:00401432 51                               push   %ecx
                           .text:00401433 e2 fe                            loop   0x00401433
                           .text:00401435 32 e4                            xor    %ah,%ah
                           .text:00401437 88 00                            mov    %al,(%eax)
                           .text:00401439 91                               xchg   %eax,%ecx
                           .text:0040143a e2 fe                            loop   0x0040143a
                           .text:0040143c b8 55 55 0f 00                   mov    $0xf5555,%eax
                           .text:00401441 59                               pop    %ecx
                           .text:00401442 b5 aa                            mov    $0xaa,%ch
                           .text:00401444 ff d3                            call   *%ebx
                           .text:00401446 c6 00 20                         movb   $0x20,(%eax)
                           .text:00401449 e2 fe                            loop   0x00401449
                           .text:0040144b b4 e0                            mov    $0xe0,%ah
                           .text:0040144d 88 00                            mov    %al,(%eax)
                           .text:0040144f 66 c7 46 08 0c 10                movw   $0x100c,0x8(%esi)
                           .text:00401455 90                               nop
                           .text:00401456 90                               nop
                           .text:00401457 90                               nop
                           .text:00401458 ff d6                            call   *%esi
                           .text:0040145a 33 db                            xor    %ebx,%ebx
                           .text:0040145c b7 81                            mov    $0x81,%bh
                           .text:0040145e 53                               push   %ebx
                           .text:0040145f 83 ec 2c                         sub    $0x2c,%esp
                           .text:00401462 68 00 10 00 c0                   push   $0xc0001000
                           .text:00401467 b7 08                            mov    $0x8,%bh
                           .text:00401469 53                               push   %ebx
                           .text:0040146a 51                               push   %ecx
                           .text:0040146b 51                               push   %ecx
                           .text:0040146c 51                               push   %ecx
                           .text:0040146d 68 01 05 00 40                   push   $0x40000501
                           .text:00401472 41                               inc    %ecx
                           .text:00401473 51                               push   %ecx
                           .text:00401474 51                               push   %ecx
                           .text:00401475 8b f4                            mov    %esp,%esi
                           .text:00401477 81 ec ac 00 00 00                sub    $0xac,%esp
                           .text:0040147d cd 20                            int    $0x20
                           .text:0040147f 04 00                            add    $0x0,%al
                           .text:00401481 10 00                            adc    %al,(%eax)
                           .text:00401483 66 83 7e 06 17                   cmpw   $0x17,0x6(%esi)
                           .text:00401488 74 09                            je     0x00401493
                           .text:0040148a 90                               nop
                           .text:0040148b 90                               nop
                           .text:0040148c 90                               nop
                           .text:0040148d 90                               nop
                           .text:0040148e fe 46 4d                         incb   0x4d(%esi)
                           .text:00401491 eb ea                            jmp    0x0040147d
                           .text:00401493 01 5e 10                         add    %ebx,0x10(%esi)
                           .text:00401496 c6 46 4d 81                      movb   $0x81,0x4d(%esi)
                           .text:0040149a eb e1                            jmp    0x0040147d
                           .text:0040149c 88 08                            mov    %cl,(%eax)
                           .text:0040149e 88 01                            mov    %al,(%ecx)
                           .text:004014a0 c6 00 80                         movb   $0x80,(%eax)
                           .text:004014a3 88 08                            mov    %cl,(%eax)
                           .text:004014a5 88 01                            mov    %al,(%ecx)
                           .text:004014a7 c3                               ret    
                           .text:004014a8 97                               xchg   %eax,%edi
                           .text:004014a9 87 d5                            xchg   %edx,%ebp
                           .text:004014ab ef                               out    %eax,(%dx)
                           .text:004014ac 97                               xchg   %eax,%edi
                           .text:004014ad 87 d5                            xchg   %edx,%ebp
                           .text:004014af ec                               in     (%dx),%al
                           .text:004014b0 0c 44                            or     $0x44,%al
                           .text:004014b2 97                               xchg   %eax,%edi
                           .text:004014b3 87 d5                            xchg   %edx,%ebp
                           .text:004014b5 ef                               out    %eax,(%dx)
                           .text:004014b6 97                               xchg   %eax,%edi
                           .text:004014b7 87 d5                            xchg   %edx,%ebp
                           .text:004014b9 ee                               out    %al,(%dx)
                           .text:004014ba c3                               ret    
                           .text:004014bb 00 43 7b                         add    %al,0x7b(%ebx)
                           .text:004014be 35 53 00 01 00                   xor    $0x10053,%eax
                           .text:004014c3 68 00 40 00 41                   push   $0x41004000
                           .text:004014c8 00 40 00                         add    %al,0x0(%eax)
                           .text:004014cb 32 00                            xor    (%eax),%al
                           .text:004014cd 40                               inc    %eax
                           .text:004014ce 00 43 49                         add    %al,0x49(%ebx)
                           .text:004014d1 48                               dec    %eax
                           .text:004014d2 20 76 31                         and    %dh,0x31(%esi)
                           .text:004014d5 2e 34 20                         cs xor $0x20,%al
                           .text:004014d8 54                               push   %esp
                           .text:004014d9 41                               inc    %ecx
                           .text:004014da 54                               push   %esp
                           .text:004014db 55                               push   %ebp
                           .text:004014dc 4e                               dec    %esi
                           .text:004014dd 47                               inc    %edi
                           .text:004014de 00 00                            add    %al,(%eax)
                           .text:004014e0 c0 d9 b8                         rcr    $0xb8,%cl
                           .text:004014e3 b8 bf 7f 00 00                   mov    $0x7fbf,%eax
                           .text:004014e8 28 c3                            sub    %al,%bl
                           .text:004014ea 52                               push   %edx
                           .text:004014eb c0 bf 7f 00 00 90 df             sarb   $0xdf,-0x6fffff81(%edi)
                           .text:004014f2 b8 b8 bf 7f 00                   mov    $0x7fbfb8,%eax
                           .text:004014f7 00 08                            add    %cl,(%eax)
                           .text:004014f9 5a                               pop    %edx
                           .text:004014fa 6d                               insl   (%dx),%es:(%edi)
                           .text:004014fb c5 bf 7f 00 00 00                lds    0x7f(%edi),%edi
                           .text:00401501 d9 b8 b8 bf 7f 00                fnstcw 0x7fbfb8(%eax)
                           .text:00401507 00 28                            add    %ch,(%eax)
                           .text:00401509 c3                               ret    
                           .text:0040150a 52                               push   %edx
                           .text:0040150b c0 bf 7f 00 00 60 d9             sarb   $0xd9,0x6000007f(%edi)
                           .text:00401512 b8 b8 bf 7f 00                   mov    $0x7fbfb8,%eax
                           .text:00401517 00 08                            add    %cl,(%eax)
                           .text:00401519 5a                               pop    %edx
                           .text:0040151a 6d                               insl   (%dx),%es:(%edi)
                           .text:0040151b c5 bf 7f 00 00 20                lds    0x2000007f(%edi),%edi
                           .text:00401521 da b8 b8 bf 7f 00                fidivrl 0x7fbfb8(%eax)
                           .text:00401527 00 28                            add    %ch,(%eax)
                           .text:00401529 c3                               ret    
                           .text:0040152a 52                               push   %edx
                           .text:0040152b c0 bf 7f 00 00 70 d5             sarb   $0xd5,0x7000007f(%edi)
                           .text:00401532 b8 b8 bf 7f 00                   mov    $0x7fbfb8,%eax
                           .text:00401537 00 08                            add    %cl,(%eax)
                           .text:00401539 5a                               pop    %edx
                           .text:0040153a 6d                               insl   (%dx),%es:(%edi)
                           .text:0040153b c5 bf 7f 00 00 10                lds    0x1000007f(%edi),%edi
                           .text:00401541 f8                               clc    
                           .text:00401542 e2 bf                            loop   0x00401503
                           .text:00401544 bf 7f 00 00 28                   mov    $0x2800007f,%edi
                           .text:00401549 c3                               ret    
                           .text:0040154a 52                               push   %edx
                           .text:0040154b c0 bf 7f 00 00 b0 d4             sarb   $0xd4,-0x4fffff81(%edi)
                           .text:00401552 b8 b8 bf 7f 00                   mov    $0x7fbfb8,%eax
                           .text:00401557 00 08                            add    %cl,(%eax)
                           .text:00401559 5a                               pop    %edx
                           .text:0040155a 6d                               insl   (%dx),%es:(%edi)
                           .text:0040155b c5 bf 7f 00 00 10                lds    0x1000007f(%edi),%edi
                           .text:00401561 f8                               clc    
                           .text:00401562 e2 bf                            loop   0x00401523
                           .text:00401564 bf 7f 00 00 28                   mov    $0x2800007f,%edi
                           .text:00401569 c3                               ret    
                           .text:0040156a 52                               push   %edx
                           .text:0040156b c0 bf 7f 00 00 20 dd             sarb   $0xdd,0x2000007f(%edi)
                           .text:00401572 b8 b8 bf 7f 00                   mov    $0x7fbfb8,%eax
                           .text:00401577 00 08                            add    %cl,(%eax)
                           .text:00401579 5a                               pop    %edx
                           .text:0040157a 6d                               insl   (%dx),%es:(%edi)
                           .text:0040157b c5 bf 7f 00 00 10                lds    0x1000007f(%edi),%edi
                           .text:00401581 f8                               clc    
                           .text:00401582 e2 bf                            loop   0x00401543
                           .text:00401584 bf 7f 00 00 28                   mov    $0x2800007f,%edi
                           .text:00401589 c3                               ret    
                           .text:0040158a 52                               push   %edx
                           .text:0040158b c0 bf 7f 00 00 50 dd             sarb   $0xdd,0x5000007f(%edi)
                           .text:00401592 b8 b8 bf 7f 00                   mov    $0x7fbfb8,%eax
                           .text:00401597 00 08                            add    %cl,(%eax)
                           .text:00401599 5a                               pop    %edx
                           .text:0040159a 6d                               insl   (%dx),%es:(%edi)
                           .text:0040159b c5 bf 7f 00 00 68                lds    0x6800007f(%edi),%edi
                           .text:004015a1 7e af                            jle    0x00401552
                           .text:004015a3 ba bf 7f 00 00                   mov    $0x7fbf,%edx
                           .text:004015a8 28 c3                            sub    %al,%bl
                           .text:004015aa 52                               push   %edx
                           .text:004015ab c0 bf 7f 00 00 30 dc             sarb   $0xdc,0x3000007f(%edi)
                           .text:004015b2 b8 b8 bf 7f 00                   mov    $0x7fbfb8,%eax
                           .text:004015b7 00 08                            add    %cl,(%eax)
                           .text:004015b9 5a                               pop    %edx
                           .text:004015ba 6d                               insl   (%dx),%es:(%edi)
                           .text:004015bb c5 bf 7f 00 00 70                lds    0x7000007f(%edi),%edi
                           .text:004015c1 f8                               clc    
                           .text:004015c2 e2 bf                            loop   0x00401583
                           .text:004015c4 bf 7f 00 00 28                   mov    $0x2800007f,%edi
                           .text:004015c9 c3                               ret    
                           .text:004015ca 52                               push   %edx
                           .text:004015cb c0 bf 7f 00 00 98 c9             sarb   $0xc9,-0x67ffff81(%edi)
                           .text:004015d2 c2 b8 bf                         ret    $0xbfb8
                           .text:004015d5 7f 00                            jg     0x004015d7
                           .text:004015d7 00 08                            add    %cl,(%eax)
                           .text:004015d9 5a                               pop    %edx
                           .text:004015da 6d                               insl   (%dx),%es:(%edi)
                           .text:004015db c5 bf 7f 00 00 70                lds    0x7000007f(%edi),%edi
                           .text:004015e1 f8                               clc    
                           .text:004015e2 e2 bf                            loop   0x004015a3
                           .text:004015e4 bf 7f 00 00 28                   mov    $0x2800007f,%edi
                           .text:004015e9 c3                               ret    
                           .text:004015ea 52                               push   %edx
                           .text:004015eb c0 bf 7f 00 00 90 d3             sarb   $0xd3,-0x6fffff81(%edi)
                           .text:004015f2 b8 b8 bf 7f 00                   mov    $0x7fbfb8,%eax
                           .text:004015f7 00 08                            add    %cl,(%eax)
                           .text:004015f9 5a                               pop    %edx
                           .text:004015fa 6d                               insl   (%dx),%es:(%edi)
                           .text:004015fb c5 bf 7f 00 00 c0                lds    -0x3fffff81(%edi),%edi
                           .text:00401601 d0 b8 b8 bf 7f 00                sarb   0x7fbfb8(%eax)
                           .text:00401607 00 28                            add    %ch,(%eax)
                           .text:00401609 c3                               ret    
                           .text:0040160a 52                               push   %edx
                           .text:0040160b c0 bf 7f 00 00 40 db             sarb   $0xdb,0x4000007f(%edi)
                           .text:00401612 b8 b8 bf 7f 00                   mov    $0x7fbfb8,%eax
                           .text:00401617 00 08                            add    %cl,(%eax)
                           .text:00401619 5a                               pop    %edx
                           .text:0040161a 6d                               insl   (%dx),%es:(%edi)
                           .text:0040161b c5 bf 7f 00 00 40                lds    0x4000007f(%edi),%edi
                           .text:00401621 f8                               clc    
                           .text:00401622 e2 bf                            loop   0x004015e3
                           .text:00401624 bf 7f 00 00 c8                   mov    $0xc800007f,%edi
                           .text:00401629 d8 6b c5                         fsubrs -0x3b(%ebx)
                           .text:0040162c bf 7f 00 00 28                   mov    $0x2800007f,%edi
                           .text:00401631 c3                               ret    
                           .text:00401632 52                               push   %edx
                           .text:00401633 c0 bf 7f 00 00 a0 d8             sarb   $0xd8,-0x5fffff81(%edi)
                           .text:0040163a 6b c5 bf                         imul   $0xffffffbf,%ebp,%eax
                           .text:0040163d 7f 00                            jg     0x0040163f
                           .text:0040163f 00 80 c1 c2 b8 bf                add    %al,-0x40473d3f(%eax)
                           .text:00401645 7f 00                            jg     0x00401647
                           .text:00401647 00 08                            add    %cl,(%eax)
                           .text:00401649 5a                               pop    %edx
                           .text:0040164a 6d                               insl   (%dx),%es:(%edi)
                           .text:0040164b c5 bf 7f 00 00 e0                lds    -0x1fffff81(%edi),%edi
                           .text:00401651 d4 b8                            aam    $0xb8
                           .text:00401653 b8 bf 7f 00 00                   mov    $0x7fbf,%eax
                           .text:00401658 28 c3                            sub    %al,%bl
                           .text:0040165a 52                               push   %edx
                           .text:0040165b c0 bf 7f 00 00 d0 de             sarb   $0xde,-0x2fffff81(%edi)
                           .text:00401662 b8 b8 bf 7f 00                   mov    $0x7fbfb8,%eax
                           .text:00401667 00 08                            add    %cl,(%eax)
                           .text:00401669 5a                               pop    %edx
                           .text:0040166a 6d                               insl   (%dx),%es:(%edi)
                           .text:0040166b c5 bf 7f 00 00 d0                lds    -0x2fffff81(%edi),%edi
                           .text:00401671 d5 b8                            aad    $0xb8
                           .text:00401673 b8 bf 7f 00 00                   mov    $0x7fbf,%eax
                           .text:00401678 28 c3                            sub    %al,%bl
                           .text:0040167a 52                               push   %edx
                           .text:0040167b c0 bf 7f 00 00 90 d9             sarb   $0xd9,-0x6fffff81(%edi)
                           .text:00401682 b8 b8 bf 7f 00                   mov    $0x7fbfb8,%eax
                           .text:00401687 00 08                            add    %cl,(%eax)
                           .text:00401689 5a                               pop    %edx
                           .text:0040168a 6d                               insl   (%dx),%es:(%edi)
                           .text:0040168b c5 bf 7f 00 00 80                lds    -0x7fffff81(%edi),%edi
                           .text:00401691 d7                               xlat   %ds:(%ebx)
                           .text:00401692 b8 b8 bf 7f 00                   mov    $0x7fbfb8,%eax
                           .text:00401697 00 28                            add    %ch,(%eax)
                           .text:00401699 c3                               ret    
                           .text:0040169a 52                               push   %edx
                           .text:0040169b c0 bf 7f 00 00 70 d2             sarb   $0xd2,0x7000007f(%edi)
                           .text:004016a2 b8 b8 bf 7f 00                   mov    $0x7fbfb8,%eax
                           .text:004016a7 00 08                            add    %cl,(%eax)
                           .text:004016a9 5a                               pop    %edx
                           .text:004016aa 6d                               insl   (%dx),%es:(%edi)
                           .text:004016ab c5 bf 7f 00 00 30                lds    0x3000007f(%edi),%edi
                           .text:004016b1 d9 b8 b8 bf 7f 00                fnstcw 0x7fbfb8(%eax)
                           .text:004016b7 00 28                            add    %ch,(%eax)
                           .text:004016b9 c3                               ret    
                           .text:004016ba 52                               push   %edx
                           .text:004016bb c0 bf 7f 00 00 b0 dd             sarb   $0xdd,-0x4fffff81(%edi)
                           .text:004016c2 b8 b8 bf 7f 00                   mov    $0x7fbfb8,%eax
                           .text:004016c7 00 08                            add    %cl,(%eax)
                           .text:004016c9 5a                               pop    %edx
                           .text:004016ca 6d                               insl   (%dx),%es:(%edi)
                           .text:004016cb c5 bf 7f 00 00 90                lds    -0x6fffff81(%edi),%edi
                           .text:004016d1 dc b8 b8 bf 7f 00                fdivrl 0x7fbfb8(%eax)
                           .text:004016d7 00 28                            add    %ch,(%eax)
                           .text:004016d9 c3                               ret    
                           .text:004016da 52                               push   %edx
                           .text:004016db c0 bf 7f 00 00 b8 c1             sarb   $0xc1,-0x47ffff81(%edi)
                           .text:004016e2 c2 b8 bf                         ret    $0xbfb8
                           .text:004016e5 7f 00                            jg     0x004016e7
                           .text:004016e7 00 08                            add    %cl,(%eax)
                           .text:004016e9 5a                               pop    %edx
                           .text:004016ea 6d                               insl   (%dx),%es:(%edi)
                           .text:004016eb c5 bf 7f 00 00 c0                lds    -0x3fffff81(%edi),%edi
                           .text:004016f1 d3 b8 b8 bf 7f 00                sarl   %cl,0x7fbfb8(%eax)
                           .text:004016f7 00 28                            add    %ch,(%eax)
                           .text:004016f9 c3                               ret    
                           .text:004016fa 52                               push   %edx
                           .text:004016fb c0 bf 7f 00 00 70 de             sarb   $0xde,0x7000007f(%edi)
                           .text:00401702 b8 b8 bf 7f 00                   mov    $0x7fbfb8,%eax
                           .text:00401707 00 08                            add    %cl,(%eax)
                           .text:00401709 5a                               pop    %edx
                           .text:0040170a 6d                               insl   (%dx),%es:(%edi)
                           .text:0040170b c5 bf 7f 00 00 40                lds    0x4000007f(%edi),%edi
                           .text:00401711 d5 b8                            aad    $0xb8
                           .text:00401713 b8 bf 7f 00 00                   mov    $0x7fbf,%eax
                           .text:00401718 28 c3                            sub    %al,%bl
                           .text:0040171a 52                               push   %edx
                           .text:0040171b c0 bf 7f 00 00 90 d6             sarb   $0xd6,-0x6fffff81(%edi)
                           .text:00401722 b8 b8 bf 7f 00                   mov    $0x7fbfb8,%eax
                           .text:00401727 00 08                            add    %cl,(%eax)
                           .text:00401729 5a                               pop    %edx
                           .text:0040172a 6d                               insl   (%dx),%es:(%edi)
                           .text:0040172b c5 bf 7f 00 00 50                lds    0x5000007f(%edi),%edi
                           .text:00401731 d4 b8                            aam    $0xb8
                           .text:00401733 b8 bf 7f 00 00                   mov    $0x7fbf,%eax
                           .text:00401738 28 c3                            sub    %al,%bl
                           .text:0040173a 52                               push   %edx
                           .text:0040173b c0 bf 7f 00 00 c0 dc             sarb   $0xdc,-0x3fffff81(%edi)
                           .text:00401742 b8 b8 bf 7f 00                   mov    $0x7fbfb8,%eax
                           .text:00401747 00 08                            add    %cl,(%eax)
                           .text:00401749 5a                               pop    %edx
                           .text:0040174a 6d                               insl   (%dx),%es:(%edi)
                           .text:0040174b c5 bf 7f 00 00 10                lds    0x1000007f(%edi),%edi
                           .text:00401751 f8                               clc    
                           .text:00401752 e2 bf                            loop   0x00401713
                           .text:00401754 bf 7f 00 00 28                   mov    $0x2800007f,%edi
                           .text:00401759 c3                               ret    
                           .text:0040175a 52                               push   %edx
                           .text:0040175b c0 bf 7f 00 00 e0 da             sarb   $0xda,-0x1fffff81(%edi)
                           .text:00401762 b8 b8 bf 7f 00                   mov    $0x7fbfb8,%eax
                           .text:00401767 00 08                            add    %cl,(%eax)
                           .text:00401769 5a                               pop    %edx
                           .text:0040176a 6d                               insl   (%dx),%es:(%edi)
                           .text:0040176b c5 bf 7f 00 00 10                lds    0x1000007f(%edi),%edi
                           .text:00401771 f8                               clc    
                           .text:00401772 e2 bf                            loop   0x00401733
                           .text:00401774 bf 7f 00 00 28                   mov    $0x2800007f,%edi
                           .text:00401779 c3                               ret    
                           .text:0040177a 52                               push   %edx
                           .text:0040177b c0 bf 7f 00 00 50 d7             sarb   $0xd7,0x5000007f(%edi)
                           .text:00401782 b8 b8 bf 7f 00                   mov    $0x7fbfb8,%eax
                           .text:00401787 00 08                            add    %cl,(%eax)
                           .text:00401789 5a                               pop    %edx
                           .text:0040178a 6d                               insl   (%dx),%es:(%edi)
                           .text:0040178b c5 bf 7f 00 00 10                lds    0x1000007f(%edi),%edi
                           .text:00401791 f8                               clc    
                           .text:00401792 e2 bf                            loop   0x00401753
                           .text:00401794 bf 7f 00 00 28                   mov    $0x2800007f,%edi
                           .text:00401799 c3                               ret    
                           .text:0040179a 52                               push   %edx
                           .text:0040179b c0 bf 7f 00 00 a0 d8             sarb   $0xd8,-0x5fffff81(%edi)
                           .text:004017a2 b8 b8 bf 7f 00                   mov    $0x7fbfb8,%eax
                           .text:004017a7 00 08                            add    %cl,(%eax)
                           .text:004017a9 5a                               pop    %edx
                           .text:004017aa 6d                               insl   (%dx),%es:(%edi)
                           .text:004017ab c5 bf 7f 00 00 68                lds    0x6800007f(%edi),%edi
                           .text:004017b1 7e af                            jle    0x00401762
                           .text:004017b3 ba bf 7f 00 00                   mov    $0x7fbf,%edx
                           .text:004017b8 28 c3                            sub    %al,%bl
                           .text:004017ba 52                               push   %edx
                           .text:004017bb c0 bf 7f 00 00 d0 d2             sarb   $0xd2,-0x2fffff81(%edi)
                           .text:004017c2 b8 b8 bf 7f 00                   mov    $0x7fbfb8,%eax
                           .text:004017c7 00 08                            add    %cl,(%eax)
                           .text:004017c9 5a                               pop    %edx
                           .text:004017ca 6d                               insl   (%dx),%es:(%edi)
                           .text:004017cb c5 bf 7f 00 00 70                lds    0x7000007f(%edi),%edi
                           .text:004017d1 f8                               clc    
                           .text:004017d2 e2 bf                            loop   0x00401793
                           .text:004017d4 bf 7f 00 00 28                   mov    $0x2800007f,%edi
                           .text:004017d9 c3                               ret    
                           .text:004017da 52                               push   %edx
                           .text:004017db c0 bf 7f 00 00 60 c2             sarb   $0xc2,0x6000007f(%edi)
                           .text:004017e2 c2 b8 bf                         ret    $0xbfb8
                           .text:004017e5 7f 00                            jg     0x004017e7
                           .text:004017e7 00 08                            add    %cl,(%eax)
                           .text:004017e9 5a                               pop    %edx
                           .text:004017ea 6d                               insl   (%dx),%es:(%edi)
                           .text:004017eb c5 bf 7f 00 00 70                lds    0x7000007f(%edi),%edi
                           .text:004017f1 f8                               clc    
                           .text:004017f2 e2 bf                            loop   0x004017b3
                           .text:004017f4 bf 7f 00 00 28                   mov    $0x2800007f,%edi
                           .text:004017f9 c3                               ret    
                           .text:004017fa 52                               push   %edx
                           .text:004017fb c0 bf 7f 00 00 a0 de             sarb   $0xde,-0x5fffff81(%edi)
                           .text:00401802 b8 b8 bf 7f 00                   mov    $0x7fbfb8,%eax
                           .text:00401807 00 08                            add    %cl,(%eax)
                           .text:00401809 5a                               pop    %edx
                           .text:0040180a 6d                               insl   (%dx),%es:(%edi)
                           .text:0040180b c5 bf 7f 00 00 c0                lds    -0x3fffff81(%edi),%edi
                           .text:00401811 d6                               (bad)  
                           .text:00401812 b8 b8 bf 7f 00                   mov    $0x7fbfb8,%eax
                           .text:00401817 00 28                            add    %ch,(%eax)
                           .text:00401819 c3                               ret    
                           .text:0040181a 52                               push   %edx
                           .text:0040181b c0 bf 7f 00 00 f0 d9             sarb   $0xd9,-0xfffff81(%edi)
                           .text:00401822 b8 b8 bf 7f 00                   mov    $0x7fbfb8,%eax
                           .text:00401827 00 08                            add    %cl,(%eax)
                           .text:00401829 5a                               pop    %edx
                           .text:0040182a 6d                               insl   (%dx),%es:(%edi)
                           .text:0040182b c5 bf 7f 00 00 40                lds    0x4000007f(%edi),%edi
                           .text:00401831 f8                               clc    
                           .text:00401832 e2 bf                            loop   0x004017f3
                           .text:00401834 bf 7f 00 00 c8                   mov    $0xc800007f,%edi
                           .text:00401839 d8 6b c5                         fsubrs -0x3b(%ebx)
                           .text:0040183c bf 7f 00 00 28                   mov    $0x2800007f,%edi
                           .text:00401841 c3                               ret    
                           .text:00401842 52                               push   %edx
                           .text:00401843 c0 bf 7f 00 00 a0 d8             sarb   $0xd8,-0x5fffff81(%edi)
                           .text:0040184a 6b c5 bf                         imul   $0xffffffbf,%ebp,%eax
                           .text:0040184d 7f 00                            jg     0x0040184f
                           .text:0040184f 00 88 cd c2 b8 bf                add    %cl,-0x40473d33(%eax)
                           .text:00401855 7f 00                            jg     0x00401857
                           .text:00401857 00 08                            add    %cl,(%eax)
                           .text:00401859 5a                               pop    %edx
                           .text:0040185a 6d                               insl   (%dx),%es:(%edi)
                           .text:0040185b c5 bf 7f 00 00 e0                lds    -0x1fffff81(%edi),%edi
                           .text:00401861 dd b8 b8 bf 7f 00                fnstsw 0x7fbfb8(%eax)
                           .text:00401867 00 28                            add    %ch,(%eax)
                           .text:00401869 c3                               ret    
                           .text:0040186a 52                               push   %edx
                           .text:0040186b c0 bf 7f 00 00 60 dc             sarb   $0xdc,0x6000007f(%edi)
                           .text:00401872 b8 b8 bf 7f 00                   mov    $0x7fbfb8,%eax
                           .text:00401877 00 08                            add    %cl,(%eax)
                           .text:00401879 5a                               pop    %edx
                           .text:0040187a 6d                               insl   (%dx),%es:(%edi)
                           .text:0040187b c5 bf 7f 00 00 f0                lds    -0xfffff81(%edi),%edi
                           .text:00401881 d6                               (bad)  
                           .text:00401882 b8 b8 bf 7f 00                   mov    $0x7fbfb8,%eax
                           .text:00401887 00 28                            add    %ch,(%eax)
                           .text:00401889 c3                               ret    
                           .text:0040188a 52                               push   %edx
                           .text:0040188b c0 bf 7f 00 00 80 dd             sarb   $0xdd,-0x7fffff81(%edi)
                           .text:00401892 b8 b8 bf 7f 00                   mov    $0x7fbfb8,%eax
                           .text:00401897 00 08                            add    %cl,(%eax)
                           .text:00401899 5a                               pop    %edx
                           .text:0040189a 6d                               insl   (%dx),%es:(%edi)
                           .text:0040189b c5 bf 7f 00 00 b0                lds    -0x4fffff81(%edi),%edi
                           .text:004018a1 d1 b8 b8 bf 7f 00                sarl   0x7fbfb8(%eax)
                           .text:004018a7 00 28                            add    %ch,(%eax)
                           .text:004018a9 c3                               ret    
                           .text:004018aa 52                               push   %edx
                           .text:004018ab c0 bf 7f 00 00 00 df             sarb   $0xdf,0x7f(%edi)
                           .text:004018b2 b8 b8 bf 7f 00                   mov    $0x7fbfb8,%eax
                           .text:004018b7 00 08                            add    %cl,(%eax)
                           .text:004018b9 5a                               pop    %edx
                           .text:004018ba 6d                               insl   (%dx),%es:(%edi)
                           .text:004018bb c5 bf 7f 00 00 a0                lds    -0x5fffff81(%edi),%edi
                           .text:004018c1 d5 b8                            aad    $0xb8
                           .text:004018c3 b8 bf 7f 00 00                   mov    $0x7fbf,%eax
                           .text:004018c8 28 c3                            sub    %al,%bl
                           .text:004018ca 52                               push   %edx
                           .text:004018cb c0 bf 7f 00 00 b0 da             sarb   $0xda,-0x4fffff81(%edi)
                           .text:004018d2 b8 b8 bf 7f 00                   mov    $0x7fbfb8,%eax
                           .text:004018d7 00 08                            add    %cl,(%eax)
                           .text:004018d9 5a                               pop    %edx
                           .text:004018da 6d                               insl   (%dx),%es:(%edi)
                           .text:004018db c5 bf 7f 00 00 20                lds    0x2000007f(%edi),%edi
                           .text:004018e1 d1 b8 b8 bf 7f 00                sarl   0x7fbfb8(%eax)
                           .text:004018e7 00 28                            add    %ch,(%eax)
                           .text:004018e9 c3                               ret    
                           .text:004018ea 52                               push   %edx
                           .text:004018eb c0 bf 7f 00 00 c8 cb             sarb   $0xcb,-0x37ffff81(%edi)
                           .text:004018f2 c2 b8 bf                         ret    $0xbfb8
                           .text:004018f5 7f 00                            jg     0x004018f7
                           .text:004018f7 00 08                            add    %cl,(%eax)
                           .text:004018f9 5a                               pop    %edx
                           .text:004018fa 6d                               insl   (%dx),%es:(%edi)
                           .text:004018fb c5 bf 7f 00 00 f0                lds    -0xfffff81(%edi),%edi
                           .text:00401901 dc b8 b8 bf 7f 00                fdivrl 0x7fbfb8(%eax)
                           .text:00401907 00 28                            add    %ch,(%eax)
                           .text:00401909 c3                               ret    
                           .text:0040190a 52                               push   %edx
                           .text:0040190b c0 bf 7f 00 00 50 d1             sarb   $0xd1,0x5000007f(%edi)
                           .text:00401912 b8 b8 bf 7f 00                   mov    $0x7fbfb8,%eax
                           .text:00401917 00 08                            add    %cl,(%eax)
                           .text:00401919 5a                               pop    %edx
                           .text:0040191a 6d                               insl   (%dx),%es:(%edi)
                           .text:0040191b c5 bf 7f 00 00 50                lds    0x5000007f(%edi),%edi
                           .text:00401921 da b8 b8 bf 7f 00                fidivrl 0x7fbfb8(%eax)
                           .text:00401927 00 28                            add    %ch,(%eax)
                           .text:00401929 c3                               ret    
                           .text:0040192a 52                               push   %edx
                           .text:0040192b c0 bf 7f 00 00 e0 d7             sarb   $0xd7,-0x1fffff81(%edi)
                           .text:00401932 b8 b8 bf 7f 00                   mov    $0x7fbfb8,%eax
                           .text:00401937 00 08                            add    %cl,(%eax)
                           .text:00401939 5a                               pop    %edx
                           .text:0040193a 6d                               insl   (%dx),%es:(%edi)
                           .text:0040193b c5 bf 7f 00 00 70                lds    0x7000007f(%edi),%edi
                           .text:00401941 d8 b8 b8 bf 7f 00                fdivrs 0x7fbfb8(%eax)
                           .text:00401947 00 28                            add    %ch,(%eax)
                           .text:00401949 c3                               ret    
                           .text:0040194a 52                               push   %edx
                           .text:0040194b c0 bf 7f 00 00 c0 df             sarb   $0xdf,-0x3fffff81(%edi)
                           .text:00401952 b8 b8 bf 7f 00                   mov    $0x7fbfb8,%eax
                           .text:00401957 00 08                            add    %cl,(%eax)
                           .text:00401959 5a                               pop    %edx
                           .text:0040195a 6d                               insl   (%dx),%es:(%edi)
                           .text:0040195b c5 bf 7f 00 00 10                lds    0x1000007f(%edi),%edi
                           .text:00401961 f8                               clc    
                           .text:00401962 e2 bf                            loop   0x00401923
                           .text:00401964 bf 7f 00 00 28                   mov    $0x2800007f,%edi
                           .text:00401969 c3                               ret    
                           .text:0040196a 52                               push   %edx
                           .text:0040196b c0 bf 7f 00 00 10 d8             sarb   $0xd8,0x1000007f(%edi)
                           .text:00401972 b8 b8 bf 7f 00                   mov    $0x7fbfb8,%eax
                           .text:00401977 00 08                            add    %cl,(%eax)
                           .text:00401979 5a                               pop    %edx
                           .text:0040197a 6d                               insl   (%dx),%es:(%edi)
                           .text:0040197b c5 bf 7f 00 00 10                lds    0x1000007f(%edi),%edi
                           .text:00401981 f8                               clc    
                           .text:00401982 e2 bf                            loop   0x00401943
                           .text:00401984 bf 7f 00 00 28                   mov    $0x2800007f,%edi
                           .text:00401989 c3                               ret    
                           .text:0040198a 52                               push   %edx
                           .text:0040198b c0 bf 7f 00 00 40 d2             sarb   $0xd2,0x4000007f(%edi)
                           .text:00401992 b8 b8 bf 7f 00                   mov    $0x7fbfb8,%eax
                           .text:00401997 00 08                            add    %cl,(%eax)
                           .text:00401999 5a                               pop    %edx
                           .text:0040199a 6d                               insl   (%dx),%es:(%edi)
                           .text:0040199b c5 bf 7f 00 00 10                lds    0x1000007f(%edi),%edi
                           .text:004019a1 f8                               clc    
                           .text:004019a2 e2 bf                            loop   0x00401963
                           .text:004019a4 bf 7f 00 00 28                   mov    $0x2800007f,%edi
                           .text:004019a9 c3                               ret    
                           .text:004019aa 52                               push   %edx
                           .text:004019ab c0 bf 7f 00 00 60 d6             sarb   $0xd6,0x6000007f(%edi)
                           .text:004019b2 b8 b8 bf 7f 00                   mov    $0x7fbfb8,%eax
                           .text:004019b7 00 08                            add    %cl,(%eax)
                           .text:004019b9 5a                               pop    %edx
                           .text:004019ba 6d                               insl   (%dx),%es:(%edi)
                           .text:004019bb c5 bf 7f 00 00 68                lds    0x6800007f(%edi),%edi
                           .text:004019c1 7e af                            jle    0x00401972
                           .text:004019c3 ba bf 7f 00 00                   mov    $0x7fbf,%edx
                           .text:004019c8 28 c3                            sub    %al,%bl
                           .text:004019ca 52                               push   %edx
                           .text:004019cb c0 bf 7f 00 00 40 de             sarb   $0xde,0x4000007f(%edi)
                           .text:004019d2 b8 b8 bf 7f 00                   mov    $0x7fbfb8,%eax
                           .text:004019d7 00 08                            add    %cl,(%eax)
                           .text:004019d9 5a                               pop    %edx
                           .text:004019da 6d                               insl   (%dx),%es:(%edi)
                           .text:004019db c5 bf 7f 00 00 70                lds    0x7000007f(%edi),%edi
                           .text:004019e1 f8                               clc    
                           .text:004019e2 e2 bf                            loop   0x004019a3
                           .text:004019e4 bf 7f 00 00 28                   mov    $0x2800007f,%edi
                           .text:004019e9 c3                               ret    
                           .text:004019ea 52                               push   %edx
                           .text:004019eb c0 bf 7f 00 00 80 cf             sarb   $0xcf,-0x7fffff81(%edi)
                           .text:004019f2 c2 b8 bf                         ret    $0xbfb8
                           .text:004019f5 7f 00                            jg     0x004019f7
                           .text:004019f7 00 08                            add    %cl,(%eax)
                           .text:004019f9 5a                               pop    %edx
                           .text:004019fa 6d                               insl   (%dx),%es:(%edi)
                           .text:004019fb c5 bf 7f 00 00 70                lds    0x7000007f(%edi),%edi
                           .text:00401a01 f8                               clc    
                           .text:00401a02 e2 bf                            loop   0x004019c3
                           .text:00401a04 bf 7f 00 00 28                   mov    $0x2800007f,%edi
                           .text:00401a09 c3                               ret    
                           .text:00401a0a 52                               push   %edx
                           .text:00401a0b c0 bf 7f 00 00 20 d7             sarb   $0xd7,0x2000007f(%edi)
                           .text:00401a12 b8 b8 bf 7f 00                   mov    $0x7fbfb8,%eax
                           .text:00401a17 00 08                            add    %cl,(%eax)
                           .text:00401a19 5a                               pop    %edx
                           .text:00401a1a 6d                               insl   (%dx),%es:(%edi)
                           .text:00401a1b c5 bf 7f 00 00 00                lds    0x7f(%edi),%edi
                           .text:00401a21 d3 b8 b8 bf 7f 00                sarl   %cl,0x7fbfb8(%eax)
                           .text:00401a27 00 28                            add    %ch,(%eax)
                           .text:00401a29 c3                               ret    
                           .text:00401a2a 52                               push   %edx
                           .text:00401a2b c0 bf 7f 00 00 30 d6             sarb   $0xd6,0x3000007f(%edi)
                           .text:00401a32 b8 b8 bf 7f 00                   mov    $0x7fbfb8,%eax
                           .text:00401a37 00 08                            add    %cl,(%eax)
                           .text:00401a39 5a                               pop    %edx
                           .text:00401a3a 6d                               insl   (%dx),%es:(%edi)
                           .text:00401a3b c5 bf 7f 00 00 40                lds    0x4000007f(%edi),%edi
                           .text:00401a41 f8                               clc    
                           .text:00401a42 e2 bf                            loop   0x00401a03
                           .text:00401a44 bf 7f 00 00 c8                   mov    $0xc800007f,%edi
                           .text:00401a49 d8 6b c5                         fsubrs -0x3b(%ebx)
                           .text:00401a4c bf 7f 00 00 28                   mov    $0x2800007f,%edi
                           .text:00401a51 c3                               ret    
                           .text:00401a52 52                               push   %edx
                           .text:00401a53 c0 bf 7f 00 00 a0 d8             sarb   $0xd8,-0x5fffff81(%edi)
                           .text:00401a5a 6b c5 bf                         imul   $0xffffffbf,%ebp,%eax
                           .text:00401a5d 7f 00                            jg     0x00401a5f
                           .text:00401a5f 00 00                            add    %al,(%eax)
                           .text:00401a61 cc                               int3   
                           .text:00401a62 c2 b8 bf                         ret    $0xbfb8
                           .text:00401a65 7f 00                            jg     0x00401a67
                           .text:00401a67 00 08                            add    %cl,(%eax)
                           .text:00401a69 5a                               pop    %edx
                           .text:00401a6a 6d                               insl   (%dx),%es:(%edi)
                           .text:00401a6b c5 bf 7f 00 00 10                lds    0x1000007f(%edi),%edi
                           .text:00401a71 d2 b8 b8 bf 7f 00                sarb   %cl,0x7fbfb8(%eax)
                           .text:00401a77 00 28                            add    %ch,(%eax)
                           .text:00401a79 c3                               ret    
                           .text:00401a7a 52                               push   %edx
                           .text:00401a7b c0 bf 7f 00 00 f0 d3             sarb   $0xd3,-0xfffff81(%edi)
                           .text:00401a82 b8 b8 bf 7f 00                   mov    $0x7fbfb8,%eax
                           .text:00401a87 00 08                            add    %cl,(%eax)
                           .text:00401a89 5a                               pop    %edx
                           .text:00401a8a 6d                               insl   (%dx),%es:(%edi)
                           .text:00401a8b c5 bf 7f 00 00 60                lds    0x6000007f(%edi),%edi
                           .text:00401a91 d3 b8 b8 bf 7f 00                sarl   %cl,0x7fbfb8(%eax)
                           .text:00401a97 00 28                            add    %ch,(%eax)
                           .text:00401a99 c3                               ret    
                           .text:00401a9a 52                               push   %edx
                           .text:00401a9b c0 bf 7f 00 00 d0 d8             sarb   $0xd8,-0x2fffff81(%edi)
                           .text:00401aa2 b8 b8 bf 7f 00                   mov    $0x7fbfb8,%eax
                           .text:00401aa7 00 08                            add    %cl,(%eax)
                           .text:00401aa9 5a                               pop    %edx
                           .text:00401aaa 6d                               insl   (%dx),%es:(%edi)
                           .text:00401aab c5 bf 7f 00 00 60                lds    0x6000007f(%edi),%edi
                           .text:00401ab1 df b8 b8 bf 7f 00                fistpll 0x7fbfb8(%eax)
                           .text:00401ab7 00 28                            add    %ch,(%eax)
                           .text:00401ab9 c3                               ret    
                           .text:00401aba 52                               push   %edx
                           .text:00401abb c0 bf 7f 00 00 00 d6             sarb   $0xd6,0x7f(%edi)
                           .text:00401ac2 b8 b8 bf 7f 00                   mov    $0x7fbfb8,%eax
                           .text:00401ac7 00 08                            add    %cl,(%eax)
                           .text:00401ac9 5a                               pop    %edx
                           .text:00401aca 6d                               insl   (%dx),%es:(%edi)
                           .text:00401acb c5 bf 7f 00 00 30                lds    0x3000007f(%edi),%edi
                           .text:00401ad1 df b8 b8 bf 7f 00                fistpll 0x7fbfb8(%eax)
                           .text:00401ad7 00 28                            add    %ch,(%eax)
                           .text:00401ad9 c3                               ret    
                           .text:00401ada 52                               push   %edx
                           .text:00401adb c0 bf 7f 00 00 b0 d7             sarb   $0xd7,-0x4fffff81(%edi)
                           .text:00401ae2 b8 b8 bf 7f 00                   mov    $0x7fbfb8,%eax
                           .text:00401ae7 00 08                            add    %cl,(%eax)
                           .text:00401ae9 5a                               pop    %edx
                           .text:00401aea 6d                               insl   (%dx),%es:(%edi)
                           .text:00401aeb c5 bf 7f 00 00 30                lds    0x3000007f(%edi),%edi
                           .text:00401af1 d3 b8 b8 bf 7f 00                sarl   %cl,0x7fbfb8(%eax)
                           .text:00401af7 00 28                            add    %ch,(%eax)
                           .text:00401af9 c3                               ret    
                           .text:00401afa 52                               push   %edx
                           .text:00401afb c0 bf 7f 00 00 50 c6             sarb   $0xc6,0x5000007f(%edi)
                           .text:00401b02 c2 b8 bf                         ret    $0xbfb8
                           .text:00401b05 7f 00                            jg     0x00401b07
                           .text:00401b07 00 08                            add    %cl,(%eax)
                           .text:00401b09 5a                               pop    %edx
                           .text:00401b0a 6d                               insl   (%dx),%es:(%edi)
                           .text:00401b0b c5 bf 7f 00 00 10                lds    0x1000007f(%edi),%edi
                           .text:00401b11 d5 b8                            aad    $0xb8
                           .text:00401b13 b8 bf 7f 00 00                   mov    $0x7fbf,%eax
                           .text:00401b18 28 c3                            sub    %al,%bl
                           .text:00401b1a 52                               push   %edx
                           .text:00401b1b c0 bf 7f 00 00 80 61             sarb   $0x61,-0x7fffff81(%edi)
                           .text:00401b22 dc b8 bf 7f 00 00                fdivrl 0x7fbf(%eax)
                           .text:00401b28 08 5a 6d                         or     %bl,0x6d(%edx)
                           .text:00401b2b c5 bf 7f 00 00 b0                lds    -0x4fffff81(%edi),%edi
                           .text:00401b31 61                               popa   
                           .text:00401b32 dc b8 bf 7f 00 00                fdivrl 0x7fbf(%eax)
                           .text:00401b38 28 c3                            sub    %al,%bl
                           .text:00401b3a 52                               push   %edx
                           .text:00401b3b c0 bf 7f 00 00 b0 6d             sarb   $0x6d,-0x4fffff81(%edi)
                           .text:00401b42 dc b8 bf 7f 00 00                fdivrl 0x7fbf(%eax)
                           .text:00401b48 08 5a 6d                         or     %bl,0x6d(%edx)
                           .text:00401b4b c5 bf 7f 00 00 c0                lds    -0x3fffff81(%edi),%edi
                           .text:00401b51 60                               pusha  
                           .text:00401b52 dc b8 bf 7f 00 00                fdivrl 0x7fbf(%eax)
                           .text:00401b58 28 c3                            sub    %al,%bl
                           .text:00401b5a 52                               push   %edx
                           .text:00401b5b c0 bf 7f 00 00 60 6c             sarb   $0x6c,0x6000007f(%edi)
                           .text:00401b62 dc b8 bf 7f 00 00                fdivrl 0x7fbf(%eax)
                           .text:00401b68 08 5a 6d                         or     %bl,0x6d(%edx)
                           .text:00401b6b c5 bf 7f 00 00 10                lds    0x1000007f(%edi),%edi
                           .text:00401b71 f8                               clc    
                           .text:00401b72 e2 bf                            loop   0x00401b33
                           .text:00401b74 bf 7f 00 00 28                   mov    $0x2800007f,%edi
                           .text:00401b79 c3                               ret    
                           .text:00401b7a 52                               push   %edx
                           .text:00401b7b c0 bf 7f 00 00 00 6c             sarb   $0x6c,0x7f(%edi)
                           .text:00401b82 dc b8 bf 7f 00 00                fdivrl 0x7fbf(%eax)
                           .text:00401b88 08 5a 6d                         or     %bl,0x6d(%edx)
                           .text:00401b8b c5 bf 7f 00 00 10                lds    0x1000007f(%edi),%edi
                           .text:00401b91 f8                               clc    
                           .text:00401b92 e2 bf                            loop   0x00401b53
                           .text:00401b94 bf 7f 00 00 28                   mov    $0x2800007f,%edi
                           .text:00401b99 c3                               ret    
                           .text:00401b9a 52                               push   %edx
                           .text:00401b9b c0 bf 7f 00 00 90 69             sarb   $0x69,-0x6fffff81(%edi)
                           .text:00401ba2 dc b8 bf 7f 00 00                fdivrl 0x7fbf(%eax)
                           .text:00401ba8 08 5a 6d                         or     %bl,0x6d(%edx)
                           .text:00401bab c5 bf 7f 00 00 10                lds    0x1000007f(%edi),%edi
                           .text:00401bb1 f8                               clc    
                           .text:00401bb2 e2 bf                            loop   0x00401b73
                           .text:00401bb4 bf 7f 00 00 28                   mov    $0x2800007f,%edi
                           .text:00401bb9 c3                               ret    
                           .text:00401bba 52                               push   %edx
                           .text:00401bbb c0 bf 7f 00 00 20 64             sarb   $0x64,0x2000007f(%edi)
                           .text:00401bc2 dc b8 bf 7f 00 00                fdivrl 0x7fbf(%eax)
                           .text:00401bc8 08 5a 6d                         or     %bl,0x6d(%edx)
                           .text:00401bcb c5 bf 7f 00 00 68                lds    0x6800007f(%edi),%edi
                           .text:00401bd1 7e af                            jle    0x00401b82
                           .text:00401bd3 ba bf 7f 00 00                   mov    $0x7fbf,%edx
                           .text:00401bd8 28 c3                            sub    %al,%bl
                           .text:00401bda 52                               push   %edx
                           .text:00401bdb c0 bf 7f 00 00 d0 62             sarb   $0x62,-0x2fffff81(%edi)
                           .text:00401be2 dc b8 bf 7f 00 00                fdivrl 0x7fbf(%eax)
                           .text:00401be8 08 5a 6d                         or     %bl,0x6d(%edx)
                           .text:00401beb c5 bf 7f 00 00 70                lds    0x7000007f(%edi),%edi
                           .text:00401bf1 f8                               clc    
                           .text:00401bf2 e2 bf                            loop   0x00401bb3
                           .text:00401bf4 bf 7f 00 00 28                   mov    $0x2800007f,%edi
                           .text:00401bf9 c3                               ret    
                           .text:00401bfa 52                               push   %edx
                           .text:00401bfb c0 bf 7f 00 00 f0 c8             sarb   $0xc8,-0xfffff81(%edi)
                           .text:00401c02 c2 b8 bf                         ret    $0xbfb8
                           .text:00401c05 7f 00                            jg     0x00401c07
                           .text:00401c07 00 08                            add    %cl,(%eax)
                           .text:00401c09 5a                               pop    %edx
                           .text:00401c0a 6d                               insl   (%dx),%es:(%edi)
                           .text:00401c0b c5 bf 7f 00 00 70                lds    0x7000007f(%edi),%edi
                           .text:00401c11 f8                               clc    
                           .text:00401c12 e2 bf                            loop   0x00401bd3
                           .text:00401c14 bf 7f 00 00 28                   mov    $0x2800007f,%edi
                           .text:00401c19 c3                               ret    
                           .text:00401c1a 52                               push   %edx
                           .text:00401c1b c0 bf 7f 00 00 a0 62             sarb   $0x62,-0x5fffff81(%edi)
                           .text:00401c22 dc b8 bf 7f 00 00                fdivrl 0x7fbf(%eax)
                           .text:00401c28 08 5a 6d                         or     %bl,0x6d(%edx)
                           .text:00401c2b c5 bf 7f 00 00 60                lds    0x6000007f(%edi),%edi
                           .text:00401c31 60                               pusha  
                           .text:00401c32 dc b8 bf 7f 00 00                fdivrl 0x7fbf(%eax)
                           .text:00401c38 28 c3                            sub    %al,%bl
                           .text:00401c3a 52                               push   %edx
                           .text:00401c3b c0 bf 7f 00 00 50 61             sarb   $0x61,0x5000007f(%edi)
                           .text:00401c42 dc b8 bf 7f 00 00                fdivrl 0x7fbf(%eax)
                           .text:00401c48 08 5a 6d                         or     %bl,0x6d(%edx)
                           .text:00401c4b c5 bf 7f 00 00 40                lds    0x4000007f(%edi),%edi
                           .text:00401c51 f8                               clc    
                           .text:00401c52 e2 bf                            loop   0x00401c13
                           .text:00401c54 bf 7f 00 00 c8                   mov    $0xc800007f,%edi
                           .text:00401c59 d8 6b c5                         fsubrs -0x3b(%ebx)
                           .text:00401c5c bf 7f 00 00 28                   mov    $0x2800007f,%edi
                           .text:00401c61 c3                               ret    
                           .text:00401c62 52                               push   %edx
                           .text:00401c63 c0 bf 7f 00 00 a0 d8             sarb   $0xd8,-0x5fffff81(%edi)
                           .text:00401c6a 6b c5 bf                         imul   $0xffffffbf,%ebp,%eax
                           .text:00401c6d 7f 00                            jg     0x00401c6f
                           .text:00401c6f 00 98 c2 c2 b8 bf                add    %bl,-0x40473d3e(%eax)
                           .text:00401c75 7f 00                            jg     0x00401c77
                           .text:00401c77 00 08                            add    %cl,(%eax)
                           .text:00401c79 5a                               pop    %edx
                           .text:00401c7a 6d                               insl   (%dx),%es:(%edi)
                           .text:00401c7b c5 bf 7f 00 00 f0                lds    -0xfffff81(%edi),%edi
                           .text:00401c81 66 dc b8 bf 7f 00 00             data16 fdivrl 0x7fbf(%eax)
                           .text:00401c88 28 c3                            sub    %al,%bl
                           .text:00401c8a 52                               push   %edx
                           .text:00401c8b c0 bf 7f 00 00 90 66             sarb   $0x66,-0x6fffff81(%edi)
                           .text:00401c92 dc b8 bf 7f 00 00                fdivrl 0x7fbf(%eax)
                           .text:00401c98 08 5a 6d                         or     %bl,0x6d(%edx)
                           .text:00401c9b c5 bf 7f 00 00 a0                lds    -0x5fffff81(%edi),%edi
                           .text:00401ca1 6b dc b8                         imul   $0xffffffb8,%esp,%ebx
                           .text:00401ca4 bf 7f 00 00 28                   mov    $0x2800007f,%edi
                           .text:00401ca9 c3                               ret    
                           .text:00401caa 52                               push   %edx
                           .text:00401cab c0 bf 7f 00 00 40 65             sarb   $0x65,0x4000007f(%edi)
                           .text:00401cb2 dc b8 bf 7f 00 00                fdivrl 0x7fbf(%eax)
                           .text:00401cb8 08 5a 6d                         or     %bl,0x6d(%edx)
                           .text:00401cbb c5 bf 7f 00 00 d0                lds    -0x2fffff81(%edi),%edi
                           .text:00401cc1 6b dc b8                         imul   $0xffffffb8,%esp,%ebx
                           .text:00401cc4 bf 7f 00 00 28                   mov    $0x2800007f,%edi
                           .text:00401cc9 c3                               ret    
                           .text:00401cca 52                               push   %edx
                           .text:00401ccb c0 bf 7f 00 00 60 63             sarb   $0x63,0x6000007f(%edi)
                           .text:00401cd2 dc b8 bf 7f 00 00                fdivrl 0x7fbf(%eax)
                           .text:00401cd8 08 5a 6d                         or     %bl,0x6d(%edx)
                           .text:00401cdb c5 bf 7f 00 00 c0                lds    -0x3fffff81(%edi),%edi
                           .text:00401ce1 6c                               insb   (%dx),%es:(%edi)
                           .text:00401ce2 dc b8 bf 7f 00 00                fdivrl 0x7fbf(%eax)
                           .text:00401ce8 28 c3                            sub    %al,%bl
                           .text:00401cea 52                               push   %edx
                           .text:00401ceb c0 bf 7f 00 00 d0 6e             sarb   $0x6e,-0x2fffff81(%edi)
                           .text:00401cf2 dc b8 bf 7f 00 00                fdivrl 0x7fbf(%eax)
                           .text:00401cf8 08 5a 6d                         or     %bl,0x6d(%edx)
                           .text:00401cfb c5 bf 7f 00 00 10                lds    0x1000007f(%edi),%edi
                           .text:00401d01 62                               (bad)  
                           .text:00401d02 dc b8 bf 7f 00 00                fdivrl 0x7fbf(%eax)
                           .text:00401d08 28 c3                            sub    %al,%bl
                           .text:00401d0a 52                               push   %edx
                           .text:00401d0b c0 bf 7f 00 00 e8 c3             sarb   $0xc3,-0x17ffff81(%edi)
                           .text:00401d12 c2 b8 bf                         ret    $0xbfb8
                           .text:00401d15 7f 00                            jg     0x00401d17
                           .text:00401d17 00 08                            add    %cl,(%eax)
                           .text:00401d19 5a                               pop    %edx
                           .text:00401d1a 6d                               insl   (%dx),%es:(%edi)
                           .text:00401d1b c5 bf 7f 00 00 a0                lds    -0x5fffff81(%edi),%edi
                           .text:00401d21 6e                               outsb  %ds:(%esi),(%dx)
                           .text:00401d22 dc b8 bf 7f 00 00                fdivrl 0x7fbf(%eax)
                           .text:00401d28 28 c3                            sub    %al,%bl
                           .text:00401d2a 52                               push   %edx
                           .text:00401d2b c0 bf 7f 00 00 80 6a             sarb   $0x6a,-0x7fffff81(%edi)
                           .text:00401d32 dc b8 bf 7f 00 00                fdivrl 0x7fbf(%eax)
                           .text:00401d38 08 5a 6d                         or     %bl,0x6d(%edx)
                           .text:00401d3b c5 bf 7f 00 00 d0                lds    -0x2fffff81(%edi),%edi
                           .text:00401d41 65 dc b8 bf 7f 00 00             fdivrl %gs:0x7fbf(%eax)
                           .text:00401d48 28 c3                            sub    %al,%bl
                           .text:00401d4a 52                               push   %edx
                           .text:00401d4b c0 bf 7f 00 00 a0 65             sarb   $0x65,-0x5fffff81(%edi)
                           .text:00401d52 dc b8 bf 7f 00 00                fdivrl 0x7fbf(%eax)
                           .text:00401d58 08 5a 6d                         or     %bl,0x6d(%edx)
                           .text:00401d5b c5 bf 7f 00 00 50                lds    0x5000007f(%edi),%edi
                           .text:00401d61 6a dc                            push   $0xffffffdc
                           .text:00401d63 b8 bf 7f 00 00                   mov    $0x7fbf,%eax
                           .text:00401d68 28 c3                            sub    %al,%bl
                           .text:00401d6a 52                               push   %edx
                           .text:00401d6b c0 bf 7f 00 00 20 61             sarb   $0x61,0x2000007f(%edi)
                           .text:00401d72 dc b8 bf 7f 00 00                fdivrl 0x7fbf(%eax)
                           .text:00401d78 08 5a 6d                         or     %bl,0x6d(%edx)
                           .text:00401d7b c5 bf 7f 00 00 10                lds    0x1000007f(%edi),%edi
                           .text:00401d81 f8                               clc    
                           .text:00401d82 e2 bf                            loop   0x00401d43
                           .text:00401d84 bf 7f 00 00 28                   mov    $0x2800007f,%edi
                           .text:00401d89 c3                               ret    
                           .text:00401d8a 52                               push   %edx
                           .text:00401d8b c0 bf 7f 00 00 30 60             sarb   $0x60,0x3000007f(%edi)
                           .text:00401d92 dc b8 bf 7f 00 00                fdivrl 0x7fbf(%eax)
                           .text:00401d98 08 5a 6d                         or     %bl,0x6d(%edx)
                           .text:00401d9b c5 bf 7f 00 00 10                lds    0x1000007f(%edi),%edi
                           .text:00401da1 f8                               clc    
                           .text:00401da2 e2 bf                            loop   0x00401d63
                           .text:00401da4 bf 7f 00 00 28                   mov    $0x2800007f,%edi
                           .text:00401da9 c3                               ret    
                           .text:00401daa 52                               push   %edx
                           .text:00401dab c0 bf 7f 00 00 e0 6d             sarb   $0x6d,-0x1fffff81(%edi)
                           .text:00401db2 dc b8 bf 7f 00 00                fdivrl 0x7fbf(%eax)
                           .text:00401db8 08 5a 6d                         or     %bl,0x6d(%edx)
                           .text:00401dbb c5 bf 7f 00 00 10                lds    0x1000007f(%edi),%edi
                           .text:00401dc1 f8                               clc    
                           .text:00401dc2 e2 bf                            loop   0x00401d83
                           .text:00401dc4 bf 7f 00 00 28                   mov    $0x2800007f,%edi
                           .text:00401dc9 c3                               ret    
                           .text:00401dca 52                               push   %edx
                           .text:00401dcb c0 bf 7f 00 00 50 6d             sarb   $0x6d,0x5000007f(%edi)
                           .text:00401dd2 dc b8 bf 7f 00 00                fdivrl 0x7fbf(%eax)
                           .text:00401dd8 08 5a 6d                         or     %bl,0x6d(%edx)
                           .text:00401ddb c5 bf 7f 00 00 68                lds    0x6800007f(%edi),%edi
                           .text:00401de1 7e af                            jle    0x00401d92
                           .text:00401de3 ba bf 7f 00 00                   mov    $0x7fbf,%edx
                           .text:00401de8 28 c3                            sub    %al,%bl
                           .text:00401dea 52                               push   %edx
                           .text:00401deb c0 bf 7f 00 00 80 6d             sarb   $0x6d,-0x7fffff81(%edi)
                           .text:00401df2 dc b8 bf 7f 00 00                fdivrl 0x7fbf(%eax)
                           .text:00401df8 08 5a 6d                         or     %bl,0x6d(%edx)
                           .text:00401dfb c5 bf 7f 00 00 70                lds    0x7000007f(%edi),%edi
                           .text:00401e01 f8                               clc    
                           .text:00401e02 e2 bf                            loop   0x00401dc3
                           .text:00401e04 bf 7f 00 00 28                   mov    $0x2800007f,%edi
                           .text:00401e09 c3                               ret    
                           .text:00401e0a 52                               push   %edx
                           .text:00401e0b c0 bf 7f 00 00 f8 cd             sarb   $0xcd,-0x7ffff81(%edi)
                           .text:00401e12 c2 b8 bf                         ret    $0xbfb8
                           .text:00401e15 7f 00                            jg     0x00401e17
                           .text:00401e17 00 08                            add    %cl,(%eax)
                           .text:00401e19 5a                               pop    %edx
                           .text:00401e1a 6d                               insl   (%dx),%es:(%edi)
                           .text:00401e1b c5 bf 7f 00 00 70                lds    0x7000007f(%edi),%edi
                           .text:00401e21 f8                               clc    
                           .text:00401e22 e2 bf                            loop   0x00401de3
                           .text:00401e24 bf 7f 00 00 28                   mov    $0x2800007f,%edi
                           .text:00401e29 c3                               ret    
                           .text:00401e2a 52                               push   %edx
                           .text:00401e2b c0 bf 7f 00 00 30 6c             sarb   $0x6c,0x3000007f(%edi)
                           .text:00401e32 dc b8 bf 7f 00 00                fdivrl 0x7fbf(%eax)
                           .text:00401e38 08 5a 6d                         or     %bl,0x6d(%edx)
                           .text:00401e3b c5 bf 7f 00 00 a0                lds    -0x5fffff81(%edi),%edi
                           .text:00401e41 68 dc b8 bf 7f                   push   $0x7fbfb8dc
                           .text:00401e46 00 00                            add    %al,(%eax)
                           .text:00401e48 28 c3                            sub    %al,%bl
                           .text:00401e4a 52                               push   %edx
                           .text:00401e4b c0 bf 7f 00 00 d0 68             sarb   $0x68,-0x2fffff81(%edi)
                           .text:00401e52 dc b8 bf 7f 00 00                fdivrl 0x7fbf(%eax)
                           .text:00401e58 08 5a 6d                         or     %bl,0x6d(%edx)
                           .text:00401e5b c5 bf 7f 00 00 40                lds    0x4000007f(%edi),%edi
                           .text:00401e61 f8                               clc    
                           .text:00401e62 e2 bf                            loop   0x00401e23
                           .text:00401e64 bf 7f 00 00 c8                   mov    $0xc800007f,%edi
                           .text:00401e69 d8 6b c5                         fsubrs -0x3b(%ebx)
                           .text:00401e6c bf 7f 00 00 28                   mov    $0x2800007f,%edi
                           .text:00401e71 c3                               ret    
                           .text:00401e72 52                               push   %edx
                           .text:00401e73 c0 bf 7f 00 00 a0 d8             sarb   $0xd8,-0x5fffff81(%edi)
                           .text:00401e7a 6b c5 bf                         imul   $0xffffffbf,%ebp,%eax
                           .text:00401e7d 7f 00                            jg     0x00401e7f
                           .text:00401e7f 00 78 c3                         add    %bh,-0x3d(%eax)
                           .text:00401e82 c2 b8 bf                         ret    $0xbfb8
                           .text:00401e85 7f 00                            jg     0x00401e87
                           .text:00401e87 00 08                            add    %cl,(%eax)
                           .text:00401e89 5a                               pop    %edx
                           .text:00401e8a 6d                               insl   (%dx),%es:(%edi)
                           .text:00401e8b c5 bf 7f 00 00 f0                lds    -0xfffff81(%edi),%edi
                           .text:00401e91 63 dc                            arpl   %bx,%sp
                           .text:00401e93 b8 bf 7f 00 00                   mov    $0x7fbf,%eax
                           .text:00401e98 28 c3                            sub    %al,%bl
                           .text:00401e9a 52                               push   %edx
                           .text:00401e9b c0 bf 7f 00 00 20 6d             sarb   $0x6d,0x2000007f(%edi)
                           .text:00401ea2 dc b8 bf 7f 00 00                fdivrl 0x7fbf(%eax)
                           .text:00401ea8 08 5a 6d                         or     %bl,0x6d(%edx)
                           .text:00401eab c5 bf 7f 00 00 90                lds    -0x6fffff81(%edi),%edi
                           .text:00401eb1 6f                               outsl  %ds:(%esi),(%dx)
                           .text:00401eb2 dc b8 bf 7f 00 00                fdivrl 0x7fbf(%eax)
                           .text:00401eb8 28 c3                            sub    %al,%bl
                           .text:00401eba 52                               push   %edx
                           .text:00401ebb c0 bf 7f 00 00 c0 69             sarb   $0x69,-0x3fffff81(%edi)
                           .text:00401ec2 dc b8 bf 7f 00 00                fdivrl 0x7fbf(%eax)
                           .text:00401ec8 08 5a 6d                         or     %bl,0x6d(%edx)
                           .text:00401ecb c5 bf 7f 00 00 60                lds    0x6000007f(%edi),%edi
                           .text:00401ed1 6f                               outsl  %ds:(%esi),(%dx)
                           .text:00401ed2 dc b8 bf 7f 00 00                fdivrl 0x7fbf(%eax)
                           .text:00401ed8 28 c3                            sub    %al,%bl
                           .text:00401eda 52                               push   %edx
                           .text:00401edb c0 bf 7f 00 00 00 69             sarb   $0x69,0x7f(%edi)
                           .text:00401ee2 dc b8 bf 7f 00 00                fdivrl 0x7fbf(%eax)
                           .text:00401ee8 08 5a 6d                         or     %bl,0x6d(%edx)
                           .text:00401eeb c5 bf 7f 00 00 40                lds    0x4000007f(%edi),%edi
                           .text:00401ef1 6b dc b8                         imul   $0xffffffb8,%esp,%ebx
                           .text:00401ef4 bf 7f 00 00 28                   mov    $0x2800007f,%edi
                           .text:00401ef9 c3                               ret    
                           .text:00401efa 52                               push   %edx
                           .text:00401efb c0 bf 7f 00 00 c0 66             sarb   $0x66,-0x3fffff81(%edi)
                           .text:00401f02 dc b8 bf 7f 00 00                fdivrl 0x7fbf(%eax)
                           .text:00401f08 08 5a 6d                         or     %bl,0x6d(%edx)
                           .text:00401f0b c5 bf 7f 00 00 20                lds    0x2000007f(%edi),%edi
                           .text:00401f11 6a dc                            push   $0xffffffdc
                           .text:00401f13 b8 bf 7f 00 00                   mov    $0x7fbf,%eax
                           .text:00401f18 28 c3                            sub    %al,%bl
                           .text:00401f1a 52                               push   %edx
                           .text:00401f1b c0 bf 7f 00 00 28 c2             sarb   $0xc2,0x2800007f(%edi)
                           .text:00401f22 c2 b8 bf                         ret    $0xbfb8
                           .text:00401f25 7f 00                            jg     0x00401f27
                           .text:00401f27 00 08                            add    %cl,(%eax)
                           .text:00401f29 5a                               pop    %edx
                           .text:00401f2a 6d                               insl   (%dx),%es:(%edi)
                           .text:00401f2b c5 bf 7f 00 00 40                lds    0x4000007f(%edi),%edi
                           .text:00401f31 6e                               outsb  %ds:(%esi),(%dx)
                           .text:00401f32 dc b8 bf 7f 00 00                fdivrl 0x7fbf(%eax)
                           .text:00401f38 28 c3                            sub    %al,%bl
                           .text:00401f3a 52                               push   %edx
                           .text:00401f3b c0 bf 7f 00 00 70 68             sarb   $0x68,0x7000007f(%edi)
                           .text:00401f42 dc b8 bf 7f 00 00                fdivrl 0x7fbf(%eax)
                           .text:00401f48 08 5a 6d                         or     %bl,0x6d(%edx)
                           .text:00401f4b c5 bf 7f 00 00 f0                lds    -0xfffff81(%edi),%edi
                           .text:00401f51 6c                               insb   (%dx),%es:(%edi)
                           .text:00401f52 dc b8 bf 7f 00 00                fdivrl 0x7fbf(%eax)
                           .text:00401f58 28 c3                            sub    %al,%bl
                           .text:00401f5a 52                               push   %edx
                           .text:00401f5b c0 bf 7f 00 00 e0 67             sarb   $0x67,-0x1fffff81(%edi)
                           .text:00401f62 dc b8 bf 7f 00 00                fdivrl 0x7fbf(%eax)
                           .text:00401f68 08 5a 6d                         or     %bl,0x6d(%edx)
                           .text:00401f6b c5 bf 7f 00 00 30                lds    0x3000007f(%edi),%edi
                           .text:00401f71 6f                               outsl  %ds:(%esi),(%dx)
                           .text:00401f72 dc b8 bf 7f 00 00                fdivrl 0x7fbf(%eax)
                           .text:00401f78 28 c3                            sub    %al,%bl
                           .text:00401f7a 52                               push   %edx
                           .text:00401f7b c0 bf 7f 00 00 70 6b             sarb   $0x6b,0x7000007f(%edi)
                           .text:00401f82 dc b8 bf 7f 00 00                fdivrl 0x7fbf(%eax)
                           .text:00401f88 08 5a 6d                         or     %bl,0x6d(%edx)
                           .text:00401f8b c5 bf 7f 00 00 10                lds    0x1000007f(%edi),%edi
                           .text:00401f91 f8                               clc    
                           .text:00401f92 e2 bf                            loop   0x00401f53
                           .text:00401f94 bf 7f 00 00 28                   mov    $0x2800007f,%edi
                           .text:00401f99 c3                               ret    
                           .text:00401f9a 52                               push   %edx
                           .text:00401f9b c0 bf 7f 00 00 70 62             sarb   $0x62,0x7000007f(%edi)
                           .text:00401fa2 dc b8 bf 7f 00 00                fdivrl 0x7fbf(%eax)
                           .text:00401fa8 08 5a 6d                         or     %bl,0x6d(%edx)
                           .text:00401fab c5 bf 7f 00 00 10                lds    0x1000007f(%edi),%edi
                           .text:00401fb1 f8                               clc    
                           .text:00401fb2 e2 bf                            loop   0x00401f73
                           .text:00401fb4 bf 7f 00 00 28                   mov    $0x2800007f,%edi
                           .text:00401fb9 c3                               ret    
                           .text:00401fba 52                               push   %edx
                           .text:00401fbb c0 bf 7f 00 00 e0 64             sarb   $0x64,-0x1fffff81(%edi)
                           .text:00401fc2 dc b8 bf 7f 00 00                fdivrl 0x7fbf(%eax)
                           .text:00401fc8 08 5a 6d                         or     %bl,0x6d(%edx)
                           .text:00401fcb c5 bf 7f 00 00 10                lds    0x1000007f(%edi),%edi
                           .text:00401fd1 f8                               clc    
                           .text:00401fd2 e2 bf                            loop   0x00401f93
                           .text:00401fd4 bf 7f 00 00 28                   mov    $0x2800007f,%edi
                           .text:00401fd9 c3                               ret    
                           .text:00401fda 52                               push   %edx
                           .text:00401fdb c0 bf 7f 00 00 60 69             sarb   $0x69,0x6000007f(%edi)
                           .text:00401fe2 dc b8 bf 7f 00 00                fdivrl 0x7fbf(%eax)
                           .text:00401fe8 08 5a 6d                         or     %bl,0x6d(%edx)
                           .text:00401feb c5 bf 7f 00 00 68                lds    0x6800007f(%edi),%edi
                           .text:00401ff1 7e af                            jle    0x00401fa2
                           .text:00401ff3 ba bf 7f 00 00                   mov    $0x7fbf,%edx
                           .text:00401ff8 28 c3                            sub    %al,%bl
                           .text:00401ffa 52                               push   %edx
                           .text:00401ffb c0                               .byte 0xc0
                           .text:00401ffc bf                               .byte 0xbf
                           .text:00401ffd 7f 00                            jg     0x00401fff
                           .text:00401fff 00                               .byte 0x0
