                           .text:00401000 51                               push   %ecx
                           .text:00401001 53                               push   %ebx
                           .text:00401002 55                               push   %ebp
                           .text:00401003 56                               push   %esi
                           .text:00401004 8b 35 1c 30 40 00                mov    0x40301c,%esi
                           .text:0040100a 33 db                            xor    %ebx,%ebx
                           .text:0040100c 57                               push   %edi
                           .text:0040100d 53                               push   %ebx
                           .text:0040100e ff d6                            call   *%esi
                           .text:00401010 53                               push   %ebx
                           .text:00401011 ff d6                            call   *%esi
                           .text:00401013 53                               push   %ebx
                           .text:00401014 ff d6                            call   *%esi
                           .text:00401016 53                               push   %ebx
                           .text:00401017 ff d6                            call   *%esi
                           .text:00401019 53                               push   %ebx
                           .text:0040101a ff d6                            call   *%esi
                           .text:0040101c 53                               push   %ebx
                           .text:0040101d ff d6                            call   *%esi
                           .text:0040101f 53                               push   %ebx
                           .text:00401020 ff d6                            call   *%esi
                           .text:00401022 53                               push   %ebx
                           .text:00401023 ff d6                            call   *%esi
                           .text:00401025 53                               push   %ebx
                           .text:00401026 ff d6                            call   *%esi
                           .text:00401028 8b 44 24 18                      mov    0x18(%esp),%eax
                           .text:0040102c 66 81 38 4d 5a                   cmpw   $0x5a4d,(%eax)
                           .text:00401031 0f 85 32 01 00 00                jne    0x00401169
                           .text:00401037 8b 78 3c                         mov    0x3c(%eax),%edi
                           .text:0040103a 53                               push   %ebx
                           .text:0040103b 03 f8                            add    %eax,%edi
                           .text:0040103d ff d6                            call   *%esi
                           .text:0040103f 81 3f 50 45 00 00                cmpl   $0x4550,(%edi)
                           .text:00401045 0f 85 1e 01 00 00                jne    0x00401169
                           .text:0040104b 6a 04                            push   $0x4
                           .text:0040104d 68 00 20 00 00                   push   $0x2000
                           .text:00401052 ff 77 50                         pushl  0x50(%edi)
                           .text:00401055 ff 77 34                         pushl  0x34(%edi)
                           .text:00401058 ff 15 20 30 40 00                call   *0x403020
                           .text:0040105e 53                               push   %ebx
                           .text:0040105f 8b e8                            mov    %eax,%ebp
                           .text:00401061 ff d6                            call   *%esi
                           .text:00401063 3b eb                            cmp    %ebx,%ebp
                           .text:00401065 75 1e                            jne    0x00401085
                           .text:00401067 6a 04                            push   $0x4
                           .text:00401069 68 00 20 00 00                   push   $0x2000
                           .text:0040106e ff 77 50                         pushl  0x50(%edi)
                           .text:00401071 53                               push   %ebx
                           .text:00401072 ff 15 20 30 40 00                call   *0x403020
                           .text:00401078 53                               push   %ebx
                           .text:00401079 8b e8                            mov    %eax,%ebp
                           .text:0040107b ff d6                            call   *%esi
                           .text:0040107d 3b eb                            cmp    %ebx,%ebp
                           .text:0040107f 0f 84 e4 00 00 00                je     0x00401169
                           .text:00401085 6a 14                            push   $0x14
                           .text:00401087 53                               push   %ebx
                           .text:00401088 ff 15 24 30 40 00                call   *0x403024
                           .text:0040108e 50                               push   %eax
                           .text:0040108f ff 15 28 30 40 00                call   *0x403028
                           .text:00401095 6a 00                            push   $0x0
                           .text:00401097 8b d8                            mov    %eax,%ebx
                           .text:00401099 ff d6                            call   *%esi
                           .text:0040109b 6a 00                            push   $0x0
                           .text:0040109d 89 6b 04                         mov    %ebp,0x4(%ebx)
                           .text:004010a0 ff d6                            call   *%esi
                           .text:004010a2 83 63 0c 00                      andl   $0x0,0xc(%ebx)
                           .text:004010a6 6a 00                            push   $0x0
                           .text:004010a8 ff d6                            call   *%esi
                           .text:004010aa 83 63 08 00                      andl   $0x0,0x8(%ebx)
                           .text:004010ae 6a 00                            push   $0x0
                           .text:004010b0 ff d6                            call   *%esi
                           .text:004010b2 83 63 10 00                      andl   $0x0,0x10(%ebx)
                           .text:004010b6 6a 04                            push   $0x4
                           .text:004010b8 68 00 10 00 00                   push   $0x1000
                           .text:004010bd ff 77 50                         pushl  0x50(%edi)
                           .text:004010c0 55                               push   %ebp
                           .text:004010c1 ff 15 20 30 40 00                call   *0x403020
                           .text:004010c7 6a 04                            push   $0x4
                           .text:004010c9 68 00 10 00 00                   push   $0x1000
                           .text:004010ce ff 77 54                         pushl  0x54(%edi)
                           .text:004010d1 55                               push   %ebp
                           .text:004010d2 ff 15 20 30 40 00                call   *0x403020
                           .text:004010d8 6a 00                            push   $0x0
                           .text:004010da 89 44 24 14                      mov    %eax,0x14(%esp)
                           .text:004010de ff d6                            call   *%esi
                           .text:004010e0 8b 44 24 18                      mov    0x18(%esp),%eax
                           .text:004010e4 8b 48 3c                         mov    0x3c(%eax),%ecx
                           .text:004010e7 03 4f 54                         add    0x54(%edi),%ecx
                           .text:004010ea 51                               push   %ecx
                           .text:004010eb 50                               push   %eax
                           .text:004010ec ff 74 24 18                      pushl  0x18(%esp)
                           .text:004010f0 e8 fd 13 00 00                   call   0x004024f2
                           .text:004010f5 8b 44 24 24                      mov    0x24(%esp),%eax
                           .text:004010f9 8b 4c 24 1c                      mov    0x1c(%esp),%ecx
                           .text:004010fd 83 c4 0c                         add    $0xc,%esp
                           .text:00401100 8b 40 3c                         mov    0x3c(%eax),%eax
                           .text:00401103 03 c1                            add    %ecx,%eax
                           .text:00401105 6a 00                            push   $0x0
                           .text:00401107 89 03                            mov    %eax,(%ebx)
                           .text:00401109 89 68 34                         mov    %ebp,0x34(%eax)
                           .text:0040110c ff d6                            call   *%esi
                           .text:0040110e 53                               push   %ebx
                           .text:0040110f 57                               push   %edi
                           .text:00401110 ff 74 24 20                      pushl  0x20(%esp)
                           .text:00401114 e8 63 00 00 00                   call   0x0040117c
                           .text:00401119 8b c5                            mov    %ebp,%eax
                           .text:0040111b 83 c4 0c                         add    $0xc,%esp
                           .text:0040111e 2b 47 34                         sub    0x34(%edi),%eax
                           .text:00401121 74 09                            je     0x0040112c
                           .text:00401123 50                               push   %eax
                           .text:00401124 53                               push   %ebx
                           .text:00401125 e8 2d 02 00 00                   call   0x00401357
                           .text:0040112a 59                               pop    %ecx
                           .text:0040112b 59                               pop    %ecx
                           .text:0040112c 53                               push   %ebx
                           .text:0040112d e8 df 02 00 00                   call   0x00401411
                           .text:00401132 85 c0                            test   %eax,%eax
                           .text:00401134 59                               pop    %ecx
                           .text:00401135 74 23                            je     0x0040115a
                           .text:00401137 53                               push   %ebx
                           .text:00401138 e8 1c 01 00 00                   call   0x00401259
                           .text:0040113d 8b 03                            mov    (%ebx),%eax
                           .text:0040113f 59                               pop    %ecx
                           .text:00401140 8b 40 28                         mov    0x28(%eax),%eax
                           .text:00401143 85 c0                            test   %eax,%eax
                           .text:00401145 74 2d                            je     0x00401174
                           .text:00401147 03 c5                            add    %ebp,%eax
                           .text:00401149 85 c0                            test   %eax,%eax
                           .text:0040114b 74 0d                            je     0x0040115a
                           .text:0040114d 6a 00                            push   $0x0
                           .text:0040114f 6a 01                            push   $0x1
                           .text:00401151 5f                               pop    %edi
                           .text:00401152 57                               push   %edi
                           .text:00401153 55                               push   %ebp
                           .text:00401154 ff d0                            call   *%eax
                           .text:00401156 85 c0                            test   %eax,%eax
                           .text:00401158 75 13                            jne    0x0040116d
                           .text:0040115a 6a 00                            push   $0x0
                           .text:0040115c ff d6                            call   *%esi
                           .text:0040115e 53                               push   %ebx
                           .text:0040115f e8 d4 04 00 00                   call   0x00401638
                           .text:00401164 59                               pop    %ecx
                           .text:00401165 6a 00                            push   $0x0
                           .text:00401167 ff d6                            call   *%esi
                           .text:00401169 33 c0                            xor    %eax,%eax
                           .text:0040116b eb 09                            jmp    0x00401176
                           .text:0040116d 6a 00                            push   $0x0
                           .text:0040116f ff d6                            call   *%esi
                           .text:00401171 89 7b 10                         mov    %edi,0x10(%ebx)
                           .text:00401174 8b c3                            mov    %ebx,%eax
                           .text:00401176 5f                               pop    %edi
                           .text:00401177 5e                               pop    %esi
                           .text:00401178 5d                               pop    %ebp
                           .text:00401179 5b                               pop    %ebx
                           .text:0040117a 59                               pop    %ecx
                           .text:0040117b c3                               ret    
                           .text:0040117c 83 ec 0c                         sub    $0xc,%esp
                           .text:0040117f 53                               push   %ebx
                           .text:00401180 56                               push   %esi
                           .text:00401181 33 db                            xor    %ebx,%ebx
                           .text:00401183 57                               push   %edi
                           .text:00401184 8b 3d 1c 30 40 00                mov    0x40301c,%edi
                           .text:0040118a 53                               push   %ebx
                           .text:0040118b ff d7                            call   *%edi
                           .text:0040118d 53                               push   %ebx
                           .text:0040118e ff d7                            call   *%edi
                           .text:00401190 8b 74 24 24                      mov    0x24(%esp),%esi
                           .text:00401194 53                               push   %ebx
                           .text:00401195 8b 46 04                         mov    0x4(%esi),%eax
                           .text:00401198 89 44 24 14                      mov    %eax,0x14(%esp)
                           .text:0040119c ff d7                            call   *%edi
                           .text:0040119e 8b 06                            mov    (%esi),%eax
                           .text:004011a0 89 5c 24 0c                      mov    %ebx,0xc(%esp)
                           .text:004011a4 0f b7 48 14                      movzwl 0x14(%eax),%ecx
                           .text:004011a8 66 39 58 06                      cmp    %bx,0x6(%eax)
                           .text:004011ac 8d 74 01 18                      lea    0x18(%ecx,%eax,1),%esi
                           .text:004011b0 0f 86 9c 00 00 00                jbe    0x00401252
                           .text:004011b6 55                               push   %ebp
                           .text:004011b7 8b 2d 20 30 40 00                mov    0x403020,%ebp
                           .text:004011bd 83 c6 10                         add    $0x10,%esi
                           .text:004011c0 eb 02                            jmp    0x004011c4
                           .text:004011c2 33 db                            xor    %ebx,%ebx
                           .text:004011c4 39 1e                            cmp    %ebx,(%esi)
                           .text:004011c6 75 3f                            jne    0x00401207
                           .text:004011c8 8b 44 24 24                      mov    0x24(%esp),%eax
                           .text:004011cc 8b 40 38                         mov    0x38(%eax),%eax
                           .text:004011cf 3b c3                            cmp    %ebx,%eax
                           .text:004011d1 89 44 24 18                      mov    %eax,0x18(%esp)
                           .text:004011d5 7e 5f                            jle    0x00401236
                           .text:004011d7 6a 04                            push   $0x4
                           .text:004011d9 68 00 10 00 00                   push   $0x1000
                           .text:004011de 50                               push   %eax
                           .text:004011df 8b 46 fc                         mov    -0x4(%esi),%eax
                           .text:004011e2 03 44 24 20                      add    0x20(%esp),%eax
                           .text:004011e6 50                               push   %eax
                           .text:004011e7 ff d5                            call   *%ebp
                           .text:004011e9 6a 00                            push   $0x0
                           .text:004011eb 8b d8                            mov    %eax,%ebx
                           .text:004011ed ff d7                            call   *%edi
                           .text:004011ef 6a 00                            push   $0x0
                           .text:004011f1 89 5e f8                         mov    %ebx,-0x8(%esi)
                           .text:004011f4 ff d7                            call   *%edi
                           .text:004011f6 ff 74 24 18                      pushl  0x18(%esp)
                           .text:004011fa 6a 00                            push   $0x0
                           .text:004011fc 53                               push   %ebx
                           .text:004011fd e8 f6 12 00 00                   call   0x004024f8
                           .text:00401202 83 c4 0c                         add    $0xc,%esp
                           .text:00401205 eb 2f                            jmp    0x00401236
                           .text:00401207 8b 46 fc                         mov    -0x4(%esi),%eax
                           .text:0040120a 6a 04                            push   $0x4
                           .text:0040120c 03 44 24 18                      add    0x18(%esp),%eax
                           .text:00401210 68 00 10 00 00                   push   $0x1000
                           .text:00401215 ff 36                            pushl  (%esi)
                           .text:00401217 50                               push   %eax
                           .text:00401218 ff d5                            call   *%ebp
                           .text:0040121a ff 36                            pushl  (%esi)
                           .text:0040121c 8b d8                            mov    %eax,%ebx
                           .text:0040121e 8b 46 04                         mov    0x4(%esi),%eax
                           .text:00401221 03 44 24 24                      add    0x24(%esp),%eax
                           .text:00401225 50                               push   %eax
                           .text:00401226 53                               push   %ebx
                           .text:00401227 e8 c6 12 00 00                   call   0x004024f2
                           .text:0040122c 83 c4 0c                         add    $0xc,%esp
                           .text:0040122f 6a 00                            push   $0x0
                           .text:00401231 ff d7                            call   *%edi
                           .text:00401233 89 5e f8                         mov    %ebx,-0x8(%esi)
                           .text:00401236 8b 44 24 28                      mov    0x28(%esp),%eax
                           .text:0040123a ff 44 24 10                      incl   0x10(%esp)
                           .text:0040123e 83 c6 28                         add    $0x28,%esi
                           .text:00401241 8b 00                            mov    (%eax),%eax
                           .text:00401243 0f b7 40 06                      movzwl 0x6(%eax),%eax
                           .text:00401247 39 44 24 10                      cmp    %eax,0x10(%esp)
                           .text:0040124b 0f 8c 71 ff ff ff                jl     0x004011c2
                           .text:00401251 5d                               pop    %ebp
                           .text:00401252 5f                               pop    %edi
                           .text:00401253 5e                               pop    %esi
                           .text:00401254 5b                               pop    %ebx
                           .text:00401255 83 c4 0c                         add    $0xc,%esp
                           .text:00401258 c3                               ret    
                           .text:00401259 83 ec 0c                         sub    $0xc,%esp
                           .text:0040125c 55                               push   %ebp
                           .text:0040125d 56                               push   %esi
                           .text:0040125e 33 ed                            xor    %ebp,%ebp
                           .text:00401260 57                               push   %edi
                           .text:00401261 8b 3d 1c 30 40 00                mov    0x40301c,%edi
                           .text:00401267 55                               push   %ebp
                           .text:00401268 ff d7                            call   *%edi
                           .text:0040126a 8b 44 24 1c                      mov    0x1c(%esp),%eax
                           .text:0040126e 89 6c 24 0c                      mov    %ebp,0xc(%esp)
                           .text:00401272 8b 00                            mov    (%eax),%eax
                           .text:00401274 0f b7 48 14                      movzwl 0x14(%eax),%ecx
                           .text:00401278 66 39 68 06                      cmp    %bp,0x6(%eax)
                           .text:0040127c 8d 74 01 18                      lea    0x18(%ecx,%eax,1),%esi
                           .text:00401280 0f 86 ca 00 00 00                jbe    0x00401350
                           .text:00401286 53                               push   %ebx
                           .text:00401287 83 c6 24                         add    $0x24,%esi
                           .text:0040128a eb 02                            jmp    0x0040128e
                           .text:0040128c 33 ed                            xor    %ebp,%ebp
                           .text:0040128e 55                               push   %ebp
                           .text:0040128f ff d7                            call   *%edi
                           .text:00401291 8b 1e                            mov    (%esi),%ebx
                           .text:00401293 55                               push   %ebp
                           .text:00401294 c1 eb 1d                         shr    $0x1d,%ebx
                           .text:00401297 83 e3 01                         and    $0x1,%ebx
                           .text:0040129a ff d7                            call   *%edi
                           .text:0040129c 8b 2e                            mov    (%esi),%ebp
                           .text:0040129e 6a 00                            push   $0x0
                           .text:004012a0 c1 ed 1e                         shr    $0x1e,%ebp
                           .text:004012a3 83 e5 01                         and    $0x1,%ebp
                           .text:004012a6 ff d7                            call   *%edi
                           .text:004012a8 8b 06                            mov    (%esi),%eax
                           .text:004012aa 6a 00                            push   $0x0
                           .text:004012ac c1 e8 1f                         shr    $0x1f,%eax
                           .text:004012af 89 44 24 18                      mov    %eax,0x18(%esp)
                           .text:004012b3 ff d7                            call   *%edi
                           .text:004012b5 f6 46 03 02                      testb  $0x2,0x3(%esi)
                           .text:004012b9 74 13                            je     0x004012ce
                           .text:004012bb 68 00 40 00 00                   push   $0x4000
                           .text:004012c0 ff 76 ec                         pushl  -0x14(%esi)
                           .text:004012c3 ff 76 e4                         pushl  -0x1c(%esi)
                           .text:004012c6 ff 15 14 30 40 00                call   *0x403014
                           .text:004012cc eb 66                            jmp    0x00401334
                           .text:004012ce 8b 4c 24 14                      mov    0x14(%esp),%ecx
                           .text:004012d2 8d 44 5d 00                      lea    0x0(%ebp,%ebx,2),%eax
                           .text:004012d6 6a 00                            push   $0x0
                           .text:004012d8 8d 04 41                         lea    (%ecx,%eax,2),%eax
                           .text:004012db 8b 2c 85 10 40 40 00             mov    0x404010(,%eax,4),%ebp
                           .text:004012e2 ff d7                            call   *%edi
                           .text:004012e4 f6 46 03 04                      testb  $0x4,0x3(%esi)
                           .text:004012e8 74 06                            je     0x004012f0
                           .text:004012ea 81 cd 00 02 00 00                or     $0x200,%ebp
                           .text:004012f0 8b 5e ec                         mov    -0x14(%esi),%ebx
                           .text:004012f3 6a 00                            push   $0x0
                           .text:004012f5 ff d7                            call   *%edi
                           .text:004012f7 85 db                            test   %ebx,%ebx
                           .text:004012f9 75 20                            jne    0x0040131b
                           .text:004012fb 8b 06                            mov    (%esi),%eax
                           .text:004012fd a8 40                            test   $0x40,%al
                           .text:004012ff 74 0b                            je     0x0040130c
                           .text:00401301 8b 44 24 20                      mov    0x20(%esp),%eax
                           .text:00401305 8b 00                            mov    (%eax),%eax
                           .text:00401307 8b 58 20                         mov    0x20(%eax),%ebx
                           .text:0040130a eb 0d                            jmp    0x00401319
                           .text:0040130c a8 80                            test   $0x80,%al
                           .text:0040130e 74 24                            je     0x00401334
                           .text:00401310 8b 44 24 20                      mov    0x20(%esp),%eax
                           .text:00401314 8b 00                            mov    (%eax),%eax
                           .text:00401316 8b 58 24                         mov    0x24(%eax),%ebx
                           .text:00401319 85 db                            test   %ebx,%ebx
                           .text:0040131b 76 17                            jbe    0x00401334
                           .text:0040131d 8d 44 24 18                      lea    0x18(%esp),%eax
                           .text:00401321 50                               push   %eax
                           .text:00401322 55                               push   %ebp
                           .text:00401323 53                               push   %ebx
                           .text:00401324 ff 76 e4                         pushl  -0x1c(%esi)
                           .text:00401327 ff 15 18 30 40 00                call   *0x403018
                           .text:0040132d 85 c0                            test   %eax,%eax
                           .text:0040132f 75 03                            jne    0x00401334
                           .text:00401331 50                               push   %eax
                           .text:00401332 ff d7                            call   *%edi
                           .text:00401334 8b 44 24 20                      mov    0x20(%esp),%eax
                           .text:00401338 ff 44 24 10                      incl   0x10(%esp)
                           .text:0040133c 83 c6 28                         add    $0x28,%esi
                           .text:0040133f 8b 00                            mov    (%eax),%eax
                           .text:00401341 0f b7 40 06                      movzwl 0x6(%eax),%eax
                           .text:00401345 39 44 24 10                      cmp    %eax,0x10(%esp)
                           .text:00401349 0f 8c 3d ff ff ff                jl     0x0040128c
                           .text:0040134f 5b                               pop    %ebx
                           .text:00401350 5f                               pop    %edi
                           .text:00401351 5e                               pop    %esi
                           .text:00401352 5d                               pop    %ebp
                           .text:00401353 83 c4 0c                         add    $0xc,%esp
                           .text:00401356 c3                               ret    
                           .text:00401357 83 ec 0c                         sub    $0xc,%esp
                           .text:0040135a 53                               push   %ebx
                           .text:0040135b 55                               push   %ebp
                           .text:0040135c 56                               push   %esi
                           .text:0040135d 8b 74 24 1c                      mov    0x1c(%esp),%esi
                           .text:00401361 33 ed                            xor    %ebp,%ebp
                           .text:00401363 57                               push   %edi
                           .text:00401364 8b 5e 04                         mov    0x4(%esi),%ebx
                           .text:00401367 8b 3d 1c 30 40 00                mov    0x40301c,%edi
                           .text:0040136d 55                               push   %ebp
                           .text:0040136e 89 5c 24 1c                      mov    %ebx,0x1c(%esp)
                           .text:00401372 ff d7                            call   *%edi
                           .text:00401374 8b 36                            mov    (%esi),%esi
                           .text:00401376 55                               push   %ebp
                           .text:00401377 81 c6 a0 00 00 00                add    $0xa0,%esi
                           .text:0040137d ff d7                            call   *%edi
                           .text:0040137f 39 6e 04                         cmp    %ebp,0x4(%esi)
                           .text:00401382 0f 86 81 00 00 00                jbe    0x00401409
                           .text:00401388 8b 36                            mov    (%esi),%esi
                           .text:0040138a 55                               push   %ebp
                           .text:0040138b 03 f3                            add    %ebx,%esi
                           .text:0040138d ff d7                            call   *%edi
                           .text:0040138f 8b 06                            mov    (%esi),%eax
                           .text:00401391 3b c5                            cmp    %ebp,%eax
                           .text:00401393 76 74                            jbe    0x00401409
                           .text:00401395 03 c3                            add    %ebx,%eax
                           .text:00401397 6a 00                            push   $0x0
                           .text:00401399 89 44 24 18                      mov    %eax,0x18(%esp)
                           .text:0040139d 8d 6e 08                         lea    0x8(%esi),%ebp
                           .text:004013a0 ff d7                            call   *%edi
                           .text:004013a2 8b 46 04                         mov    0x4(%esi),%eax
                           .text:004013a5 83 64 24 20 00                   andl   $0x0,0x20(%esp)
                           .text:004013aa 83 e8 08                         sub    $0x8,%eax
                           .text:004013ad a9 fe ff ff ff                   test   $0xfffffffe,%eax
                           .text:004013b2 76 4c                            jbe    0x00401400
                           .text:004013b4 0f b7 45 00                      movzwl 0x0(%ebp),%eax
                           .text:004013b8 8b d8                            mov    %eax,%ebx
                           .text:004013ba 25 ff 0f 00 00                   and    $0xfff,%eax
                           .text:004013bf 6a 00                            push   $0x0
                           .text:004013c1 89 44 24 14                      mov    %eax,0x14(%esp)
                           .text:004013c5 c1 eb 0c                         shr    $0xc,%ebx
                           .text:004013c8 ff d7                            call   *%edi
                           .text:004013ca 83 fb 03                         cmp    $0x3,%ebx
                           .text:004013cd 75 19                            jne    0x004013e8
                           .text:004013cf 8b 44 24 10                      mov    0x10(%esp),%eax
                           .text:004013d3 8b 4c 24 14                      mov    0x14(%esp),%ecx
                           .text:004013d7 6a 00                            push   $0x0
                           .text:004013d9 8d 1c 08                         lea    (%eax,%ecx,1),%ebx
                           .text:004013dc ff d7                            call   *%edi
                           .text:004013de 8b 44 24 24                      mov    0x24(%esp),%eax
                           .text:004013e2 6a 00                            push   $0x0
                           .text:004013e4 01 03                            add    %eax,(%ebx)
                           .text:004013e6 ff d7                            call   *%edi
                           .text:004013e8 8b 46 04                         mov    0x4(%esi),%eax
                           .text:004013eb ff 44 24 20                      incl   0x20(%esp)
                           .text:004013ef 83 e8 08                         sub    $0x8,%eax
                           .text:004013f2 45                               inc    %ebp
                           .text:004013f3 d1 e8                            shr    %eax
                           .text:004013f5 45                               inc    %ebp
                           .text:004013f6 39 44 24 20                      cmp    %eax,0x20(%esp)
                           .text:004013fa 72 b8                            jb     0x004013b4
                           .text:004013fc 8b 5c 24 18                      mov    0x18(%esp),%ebx
                           .text:00401400 03 76 04                         add    0x4(%esi),%esi
                           .text:00401403 8b 06                            mov    (%esi),%eax
                           .text:00401405 85 c0                            test   %eax,%eax
                           .text:00401407 77 8c                            ja     0x00401395
                           .text:00401409 5f                               pop    %edi
                           .text:0040140a 5e                               pop    %esi
                           .text:0040140b 5d                               pop    %ebp
                           .text:0040140c 5b                               pop    %ebx
                           .text:0040140d 83 c4 0c                         add    $0xc,%esp
                           .text:00401410 c3                               ret    
                           .text:00401411 83 ec 10                         sub    $0x10,%esp
                           .text:00401414 53                               push   %ebx
                           .text:00401415 55                               push   %ebp
                           .text:00401416 56                               push   %esi
                           .text:00401417 8b 35 1c 30 40 00                mov    0x40301c,%esi
                           .text:0040141d 57                               push   %edi
                           .text:0040141e 33 ff                            xor    %edi,%edi
                           .text:00401420 57                               push   %edi
                           .text:00401421 ff d6                            call   *%esi
                           .text:00401423 57                               push   %edi
                           .text:00401424 c7 44 24 14 01 00 00 00          movl   $0x1,0x14(%esp)
                           .text:0040142c ff d6                            call   *%esi
                           .text:0040142e 8b 6c 24 24                      mov    0x24(%esp),%ebp
                           .text:00401432 8b 45 00                         mov    0x0(%ebp),%eax
                           .text:00401435 8b 5d 04                         mov    0x4(%ebp),%ebx
                           .text:00401438 05 80 00 00 00                   add    $0x80,%eax
                           .text:0040143d 89 5c 24 18                      mov    %ebx,0x18(%esp)
                           .text:00401441 39 78 04                         cmp    %edi,0x4(%eax)
                           .text:00401444 0f 86 28 01 00 00                jbe    0x00401572
                           .text:0040144a 8b 38                            mov    (%eax),%edi
                           .text:0040144c 6a 00                            push   $0x0
                           .text:0040144e 03 fb                            add    %ebx,%edi
                           .text:00401450 ff d6                            call   *%esi
                           .text:00401452 6a 14                            push   $0x14
                           .text:00401454 57                               push   %edi
                           .text:00401455 ff 15 08 30 40 00                call   *0x403008
                           .text:0040145b 85 c0                            test   %eax,%eax
                           .text:0040145d 0f 85 0f 01 00 00                jne    0x00401572
                           .text:00401463 eb 04                            jmp    0x00401469
                           .text:00401465 8b 5c 24 18                      mov    0x18(%esp),%ebx
                           .text:00401469 83 7f 0c 00                      cmpl   $0x0,0xc(%edi)
                           .text:0040146d 0f 84 ff 00 00 00                je     0x00401572
                           .text:00401473 6a 00                            push   $0x0
                           .text:00401475 ff d6                            call   *%esi
                           .text:00401477 8b 47 0c                         mov    0xc(%edi),%eax
                           .text:0040147a 03 c3                            add    %ebx,%eax
                           .text:0040147c 50                               push   %eax
                           .text:0040147d ff 15 0c 30 40 00                call   *0x40300c
                           .text:00401483 6a 00                            push   $0x0
                           .text:00401485 89 44 24 18                      mov    %eax,0x18(%esp)
                           .text:00401489 ff d6                            call   *%esi
                           .text:0040148b 33 c0                            xor    %eax,%eax
                           .text:0040148d 39 44 24 14                      cmp    %eax,0x14(%esp)
                           .text:00401491 0f 84 cd 00 00 00                je     0x00401564
                           .text:00401497 8b 45 0c                         mov    0xc(%ebp),%eax
                           .text:0040149a 8d 04 85 04 00 00 00             lea    0x4(,%eax,4),%eax
                           .text:004014a1 50                               push   %eax
                           .text:004014a2 ff 75 08                         pushl  0x8(%ebp)
                           .text:004014a5 e8 54 10 00 00                   call   0x004024fe
                           .text:004014aa 59                               pop    %ecx
                           .text:004014ab 89 45 08                         mov    %eax,0x8(%ebp)
                           .text:004014ae 85 c0                            test   %eax,%eax
                           .text:004014b0 59                               pop    %ecx
                           .text:004014b1 0f 84 b6 00 00 00                je     0x0040156d
                           .text:004014b7 8b 4d 0c                         mov    0xc(%ebp),%ecx
                           .text:004014ba 8b 54 24 14                      mov    0x14(%esp),%edx
                           .text:004014be 6a 00                            push   $0x0
                           .text:004014c0 89 14 88                         mov    %edx,(%eax,%ecx,4)
                           .text:004014c3 ff 45 0c                         incl   0xc(%ebp)
                           .text:004014c6 ff d6                            call   *%esi
                           .text:004014c8 8b 07                            mov    (%edi),%eax
                           .text:004014ca 85 c0                            test   %eax,%eax
                           .text:004014cc 74 17                            je     0x004014e5
                           .text:004014ce 03 c3                            add    %ebx,%eax
                           .text:004014d0 6a 00                            push   $0x0
                           .text:004014d2 89 44 24 28                      mov    %eax,0x28(%esp)
                           .text:004014d6 ff d6                            call   *%esi
                           .text:004014d8 8b 5f 10                         mov    0x10(%edi),%ebx
                           .text:004014db 8b 44 24 24                      mov    0x24(%esp),%eax
                           .text:004014df 03 5c 24 18                      add    0x18(%esp),%ebx
                           .text:004014e3 eb 0b                            jmp    0x004014f0
                           .text:004014e5 8b 47 10                         mov    0x10(%edi),%eax
                           .text:004014e8 03 c3                            add    %ebx,%eax
                           .text:004014ea 89 44 24 24                      mov    %eax,0x24(%esp)
                           .text:004014ee 8b d8                            mov    %eax,%ebx
                           .text:004014f0 8b 00                            mov    (%eax),%eax
                           .text:004014f2 85 c0                            test   %eax,%eax
                           .text:004014f4 74 51                            je     0x00401547
                           .text:004014f6 a9 00 00 00 80                   test   $0x80000000,%eax
                           .text:004014fb 74 07                            je     0x00401504
                           .text:004014fd 25 ff ff 00 00                   and    $0xffff,%eax
                           .text:00401502 eb 15                            jmp    0x00401519
                           .text:00401504 8b 4c 24 18                      mov    0x18(%esp),%ecx
                           .text:00401508 6a 00                            push   $0x0
                           .text:0040150a 03 c1                            add    %ecx,%eax
                           .text:0040150c 89 44 24 20                      mov    %eax,0x20(%esp)
                           .text:00401510 ff d6                            call   *%esi
                           .text:00401512 8b 44 24 1c                      mov    0x1c(%esp),%eax
                           .text:00401516 83 c0 02                         add    $0x2,%eax
                           .text:00401519 50                               push   %eax
                           .text:0040151a ff 74 24 18                      pushl  0x18(%esp)
                           .text:0040151e ff 15 10 30 40 00                call   *0x403010
                           .text:00401524 33 c9                            xor    %ecx,%ecx
                           .text:00401526 89 03                            mov    %eax,(%ebx)
                           .text:00401528 3b c1                            cmp    %ecx,%eax
                           .text:0040152a 74 14                            je     0x00401540
                           .text:0040152c 83 44 24 24 04                   addl   $0x4,0x24(%esp)
                           .text:00401531 83 c3 04                         add    $0x4,%ebx
                           .text:00401534 8b 44 24 24                      mov    0x24(%esp),%eax
                           .text:00401538 8b 00                            mov    (%eax),%eax
                           .text:0040153a 3b c1                            cmp    %ecx,%eax
                           .text:0040153c 75 b8                            jne    0x004014f6
                           .text:0040153e eb 07                            jmp    0x00401547
                           .text:00401540 51                               push   %ecx
                           .text:00401541 89 4c 24 14                      mov    %ecx,0x14(%esp)
                           .text:00401545 ff d6                            call   *%esi
                           .text:00401547 83 7c 24 10 00                   cmpl   $0x0,0x10(%esp)
                           .text:0040154c 74 24                            je     0x00401572
                           .text:0040154e 83 c7 14                         add    $0x14,%edi
                           .text:00401551 6a 14                            push   $0x14
                           .text:00401553 57                               push   %edi
                           .text:00401554 ff 15 08 30 40 00                call   *0x403008
                           .text:0040155a 85 c0                            test   %eax,%eax
                           .text:0040155c 0f 84 03 ff ff ff                je     0x00401465
                           .text:00401562 eb 0e                            jmp    0x00401572
                           .text:00401564 50                               push   %eax
                           .text:00401565 89 44 24 14                      mov    %eax,0x14(%esp)
                           .text:00401569 ff d6                            call   *%esi
                           .text:0040156b eb 05                            jmp    0x00401572
                           .text:0040156d 83 64 24 10 00                   andl   $0x0,0x10(%esp)
                           .text:00401572 8b 44 24 10                      mov    0x10(%esp),%eax
                           .text:00401576 5f                               pop    %edi
                           .text:00401577 5e                               pop    %esi
                           .text:00401578 5d                               pop    %ebp
                           .text:00401579 5b                               pop    %ebx
                           .text:0040157a 83 c4 10                         add    $0x10,%esp
                           .text:0040157d c3                               ret    
                           .text:0040157e 55                               push   %ebp
                           .text:0040157f 8b ec                            mov    %esp,%ebp
                           .text:00401581 51                               push   %ecx
                           .text:00401582 51                               push   %ecx
                           .text:00401583 53                               push   %ebx
                           .text:00401584 56                               push   %esi
                           .text:00401585 8b 35 1c 30 40 00                mov    0x40301c,%esi
                           .text:0040158b 57                               push   %edi
                           .text:0040158c 8b 7d 08                         mov    0x8(%ebp),%edi
                           .text:0040158f 33 db                            xor    %ebx,%ebx
                           .text:00401591 53                               push   %ebx
                           .text:00401592 8b 47 04                         mov    0x4(%edi),%eax
                           .text:00401595 89 45 08                         mov    %eax,0x8(%ebp)
                           .text:00401598 ff d6                            call   *%esi
                           .text:0040159a 83 4d f8 ff                      orl    $0xffffffff,-0x8(%ebp)
                           .text:0040159e 53                               push   %ebx
                           .text:0040159f ff d6                            call   *%esi
                           .text:004015a1 53                               push   %ebx
                           .text:004015a2 ff d6                            call   *%esi
                           .text:004015a4 53                               push   %ebx
                           .text:004015a5 ff d6                            call   *%esi
                           .text:004015a7 53                               push   %ebx
                           .text:004015a8 ff d6                            call   *%esi
                           .text:004015aa 8b 07                            mov    (%edi),%eax
                           .text:004015ac 83 c0 78                         add    $0x78,%eax
                           .text:004015af 39 58 04                         cmp    %ebx,0x4(%eax)
                           .text:004015b2 74 7d                            je     0x00401631
                           .text:004015b4 8b 38                            mov    (%eax),%edi
                           .text:004015b6 03 7d 08                         add    0x8(%ebp),%edi
                           .text:004015b9 39 5f 18                         cmp    %ebx,0x18(%edi)
                           .text:004015bc 74 73                            je     0x00401631
                           .text:004015be 39 5f 14                         cmp    %ebx,0x14(%edi)
                           .text:004015c1 74 6e                            je     0x00401631
                           .text:004015c3 e8 37 0e 00 00                   call   0x004023ff
                           .text:004015c8 8b 5f 20                         mov    0x20(%edi),%ebx
                           .text:004015cb 6a 00                            push   $0x0
                           .text:004015cd 03 5d 08                         add    0x8(%ebp),%ebx
                           .text:004015d0 ff d6                            call   *%esi
                           .text:004015d2 8b 77 24                         mov    0x24(%edi),%esi
                           .text:004015d5 83 65 fc 00                      andl   $0x0,-0x4(%ebp)
                           .text:004015d9 03 75 08                         add    0x8(%ebp),%esi
                           .text:004015dc 83 7f 18 00                      cmpl   $0x0,0x18(%edi)
                           .text:004015e0 76 24                            jbe    0x00401606
                           .text:004015e2 8b 03                            mov    (%ebx),%eax
                           .text:004015e4 03 45 08                         add    0x8(%ebp),%eax
                           .text:004015e7 50                               push   %eax
                           .text:004015e8 ff 75 0c                         pushl  0xc(%ebp)
                           .text:004015eb e8 d8 0d 00 00                   call   0x004023c8
                           .text:004015f0 59                               pop    %ecx
                           .text:004015f1 85 c0                            test   %eax,%eax
                           .text:004015f3 59                               pop    %ecx
                           .text:004015f4 74 36                            je     0x0040162c
                           .text:004015f6 ff 45 fc                         incl   -0x4(%ebp)
                           .text:004015f9 83 c3 04                         add    $0x4,%ebx
                           .text:004015fc 8b 45 fc                         mov    -0x4(%ebp),%eax
                           .text:004015ff 46                               inc    %esi
                           .text:00401600 46                               inc    %esi
                           .text:00401601 3b 47 18                         cmp    0x18(%edi),%eax
                           .text:00401604 72 dc                            jb     0x004015e2
                           .text:00401606 8b 45 f8                         mov    -0x8(%ebp),%eax
                           .text:00401609 39 47 14                         cmp    %eax,0x14(%edi)
                           .text:0040160c 1b c9                            sbb    %ecx,%ecx
                           .text:0040160e 33 d2                            xor    %edx,%edx
                           .text:00401610 f7 d9                            neg    %ecx
                           .text:00401612 83 f8 ff                         cmp    $0xffffffff,%eax
                           .text:00401615 0f 94 c2                         sete   %dl
                           .text:00401618 0b ca                            or     %edx,%ecx
                           .text:0040161a 75 15                            jne    0x00401631
                           .text:0040161c 8b 4f 1c                         mov    0x1c(%edi),%ecx
                           .text:0040161f 8d 04 81                         lea    (%ecx,%eax,4),%eax
                           .text:00401622 8b 4d 08                         mov    0x8(%ebp),%ecx
                           .text:00401625 8b 04 08                         mov    (%eax,%ecx,1),%eax
                           .text:00401628 03 c1                            add    %ecx,%eax
                           .text:0040162a eb 07                            jmp    0x00401633
                           .text:0040162c 0f b7 06                         movzwl (%esi),%eax
                           .text:0040162f eb d8                            jmp    0x00401609
                           .text:00401631 33 c0                            xor    %eax,%eax
                           .text:00401633 5f                               pop    %edi
                           .text:00401634 5e                               pop    %esi
                           .text:00401635 5b                               pop    %ebx
                           .text:00401636 c9                               leave  
                           .text:00401637 c3                               ret    
                           .text:00401638 55                               push   %ebp
                           .text:00401639 56                               push   %esi
                           .text:0040163a 8b 74 24 0c                      mov    0xc(%esp),%esi
                           .text:0040163e 33 ed                            xor    %ebp,%ebp
                           .text:00401640 3b f5                            cmp    %ebp,%esi
                           .text:00401642 74 77                            je     0x004016bb
                           .text:00401644 39 6e 10                         cmp    %ebp,0x10(%esi)
                           .text:00401647 57                               push   %edi
                           .text:00401648 74 20                            je     0x0040166a
                           .text:0040164a 8b 06                            mov    (%esi),%eax
                           .text:0040164c 53                               push   %ebx
                           .text:0040164d 8b 1d 1c 30 40 00                mov    0x40301c,%ebx
                           .text:00401653 55                               push   %ebp
                           .text:00401654 8b 78 28                         mov    0x28(%eax),%edi
                           .text:00401657 03 7e 04                         add    0x4(%esi),%edi
                           .text:0040165a ff d3                            call   *%ebx
                           .text:0040165c 55                               push   %ebp
                           .text:0040165d 55                               push   %ebp
                           .text:0040165e ff 76 04                         pushl  0x4(%esi)
                           .text:00401661 ff d7                            call   *%edi
                           .text:00401663 55                               push   %ebp
                           .text:00401664 ff d3                            call   *%ebx
                           .text:00401666 89 6e 10                         mov    %ebp,0x10(%esi)
                           .text:00401669 5b                               pop    %ebx
                           .text:0040166a 39 6e 08                         cmp    %ebp,0x8(%esi)
                           .text:0040166d 74 28                            je     0x00401697
                           .text:0040166f 33 ff                            xor    %edi,%edi
                           .text:00401671 39 6e 0c                         cmp    %ebp,0xc(%esi)
                           .text:00401674 7e 18                            jle    0x0040168e
                           .text:00401676 8b 46 08                         mov    0x8(%esi),%eax
                           .text:00401679 8b 04 b8                         mov    (%eax,%edi,4),%eax
                           .text:0040167c 83 f8 ff                         cmp    $0xffffffff,%eax
                           .text:0040167f 74 07                            je     0x00401688
                           .text:00401681 50                               push   %eax
                           .text:00401682 ff 15 00 30 40 00                call   *0x403000
                           .text:00401688 47                               inc    %edi
                           .text:00401689 3b 7e 0c                         cmp    0xc(%esi),%edi
                           .text:0040168c 7c e8                            jl     0x00401676
                           .text:0040168e ff 76 08                         pushl  0x8(%esi)
                           .text:00401691 e8 6e 0e 00 00                   call   0x00402504
                           .text:00401696 59                               pop    %ecx
                           .text:00401697 8b 46 04                         mov    0x4(%esi),%eax
                           .text:0040169a 5f                               pop    %edi
                           .text:0040169b 3b c5                            cmp    %ebp,%eax
                           .text:0040169d 74 0d                            je     0x004016ac
                           .text:0040169f 68 00 80 00 00                   push   $0x8000
                           .text:004016a4 55                               push   %ebp
                           .text:004016a5 50                               push   %eax
                           .text:004016a6 ff 15 14 30 40 00                call   *0x403014
                           .text:004016ac 56                               push   %esi
                           .text:004016ad 55                               push   %ebp
                           .text:004016ae ff 15 24 30 40 00                call   *0x403024
                           .text:004016b4 50                               push   %eax
                           .text:004016b5 ff 15 04 30 40 00                call   *0x403004
                           .text:004016bb 5e                               pop    %esi
                           .text:004016bc 5d                               pop    %ebp
                           .text:004016bd c3                               ret    
                           .text:004016be 55                               push   %ebp
                           .text:004016bf 8b ec                            mov    %esp,%ebp
                           .text:004016c1 83 ec 0c                         sub    $0xc,%esp
                           .text:004016c4 53                               push   %ebx
                           .text:004016c5 56                               push   %esi
                           .text:004016c6 33 f6                            xor    %esi,%esi
                           .text:004016c8 57                               push   %edi
                           .text:004016c9 8b 3d 1c 30 40 00                mov    0x40301c,%edi
                           .text:004016cf 56                               push   %esi
                           .text:004016d0 ff d7                            call   *%edi
                           .text:004016d2 56                               push   %esi
                           .text:004016d3 ff d7                            call   *%edi
                           .text:004016d5 8b 5d 08                         mov    0x8(%ebp),%ebx
                           .text:004016d8 89 75 fc                         mov    %esi,-0x4(%ebp)
                           .text:004016db 53                               push   %ebx
                           .text:004016dc e8 d0 0c 00 00                   call   0x004023b1
                           .text:004016e1 59                               pop    %ecx
                           .text:004016e2 8b f0                            mov    %eax,%esi
                           .text:004016e4 6a 00                            push   $0x0
                           .text:004016e6 ff d7                            call   *%edi
                           .text:004016e8 46                               inc    %esi
                           .text:004016e9 56                               push   %esi
                           .text:004016ea e8 1b 0e 00 00                   call   0x0040250a
                           .text:004016ef 80 3b 00                         cmpb   $0x0,(%ebx)
                           .text:004016f2 59                               pop    %ecx
                           .text:004016f3 89 45 f4                         mov    %eax,-0xc(%ebp)
                           .text:004016f6 89 45 08                         mov    %eax,0x8(%ebp)
                           .text:004016f9 0f 84 c7 00 00 00                je     0x004017c6
                           .text:004016ff 83 c3 02                         add    $0x2,%ebx
                           .text:00401702 83 7d fc 00                      cmpl   $0x0,-0x4(%ebp)
                           .text:00401706 0f 85 ba 00 00 00                jne    0x004017c6
                           .text:0040170c 8a 43 fe                         mov    -0x2(%ebx),%al
                           .text:0040170f 50                               push   %eax
                           .text:00401710 e8 d7 00 00 00                   call   0x004017ec
                           .text:00401715 85 c0                            test   %eax,%eax
                           .text:00401717 59                               pop    %ecx
                           .text:00401718 0f 8c a8 00 00 00                jl     0x004017c6
                           .text:0040171e c1 e0 06                         shl    $0x6,%eax
                           .text:00401721 8b f0                            mov    %eax,%esi
                           .text:00401723 8a 43 ff                         mov    -0x1(%ebx),%al
                           .text:00401726 50                               push   %eax
                           .text:00401727 e8 c0 00 00 00                   call   0x004017ec
                           .text:0040172c 85 c0                            test   %eax,%eax
                           .text:0040172e 59                               pop    %ecx
                           .text:0040172f 0f 8c b2 00 00 00                jl     0x004017e7
                           .text:00401735 03 f0                            add    %eax,%esi
                           .text:00401737 8a 03                            mov    (%ebx),%al
                           .text:00401739 c1 e6 06                         shl    $0x6,%esi
                           .text:0040173c 3c 3d                            cmp    $0x3d,%al
                           .text:0040173e 75 09                            jne    0x00401749
                           .text:00401740 c7 45 fc 01 00 00 00             movl   $0x1,-0x4(%ebp)
                           .text:00401747 eb 11                            jmp    0x0040175a
                           .text:00401749 50                               push   %eax
                           .text:0040174a e8 9d 00 00 00                   call   0x004017ec
                           .text:0040174f 85 c0                            test   %eax,%eax
                           .text:00401751 59                               pop    %ecx
                           .text:00401752 0f 8c 8f 00 00 00                jl     0x004017e7
                           .text:00401758 03 f0                            add    %eax,%esi
                           .text:0040175a 8a 43 01                         mov    0x1(%ebx),%al
                           .text:0040175d c1 e6 06                         shl    $0x6,%esi
                           .text:00401760 3c 3d                            cmp    $0x3d,%al
                           .text:00401762 89 75 f8                         mov    %esi,-0x8(%ebp)
                           .text:00401765 75 05                            jne    0x0040176c
                           .text:00401767 ff 45 fc                         incl   -0x4(%ebp)
                           .text:0040176a eb 14                            jmp    0x00401780
                           .text:0040176c 83 7d fc 00                      cmpl   $0x0,-0x4(%ebp)
                           .text:00401770 75 75                            jne    0x004017e7
                           .text:00401772 50                               push   %eax
                           .text:00401773 e8 74 00 00 00                   call   0x004017ec
                           .text:00401778 85 c0                            test   %eax,%eax
                           .text:0040177a 59                               pop    %ecx
                           .text:0040177b 7c 6a                            jl     0x004017e7
                           .text:0040177d 01 45 f8                         add    %eax,-0x8(%ebp)
                           .text:00401780 83 7d fc 03                      cmpl   $0x3,-0x4(%ebp)
                           .text:00401784 7d 0e                            jge    0x00401794
                           .text:00401786 8b 45 f8                         mov    -0x8(%ebp),%eax
                           .text:00401789 8b 4d 08                         mov    0x8(%ebp),%ecx
                           .text:0040178c c1 f8 10                         sar    $0x10,%eax
                           .text:0040178f ff 45 08                         incl   0x8(%ebp)
                           .text:00401792 88 01                            mov    %al,(%ecx)
                           .text:00401794 83 7d fc 02                      cmpl   $0x2,-0x4(%ebp)
                           .text:00401798 7d 0e                            jge    0x004017a8
                           .text:0040179a 8b 45 f8                         mov    -0x8(%ebp),%eax
                           .text:0040179d 8b 4d 08                         mov    0x8(%ebp),%ecx
                           .text:004017a0 c1 f8 08                         sar    $0x8,%eax
                           .text:004017a3 ff 45 08                         incl   0x8(%ebp)
                           .text:004017a6 88 01                            mov    %al,(%ecx)
                           .text:004017a8 83 7d fc 01                      cmpl   $0x1,-0x4(%ebp)
                           .text:004017ac 7d 0b                            jge    0x004017b9
                           .text:004017ae 8b 4d 08                         mov    0x8(%ebp),%ecx
                           .text:004017b1 8a 45 f8                         mov    -0x8(%ebp),%al
                           .text:004017b4 ff 45 08                         incl   0x8(%ebp)
                           .text:004017b7 88 01                            mov    %al,(%ecx)
                           .text:004017b9 83 c3 04                         add    $0x4,%ebx
                           .text:004017bc 80 7b fe 00                      cmpb   $0x0,-0x2(%ebx)
                           .text:004017c0 0f 85 3c ff ff ff                jne    0x00401702
                           .text:004017c6 8b 75 08                         mov    0x8(%ebp),%esi
                           .text:004017c9 6a 00                            push   $0x0
                           .text:004017cb 2b 75 f4                         sub    -0xc(%ebp),%esi
                           .text:004017ce ff d7                            call   *%edi
                           .text:004017d0 56                               push   %esi
                           .text:004017d1 ff 75 f4                         pushl  -0xc(%ebp)
                           .text:004017d4 e8 25 0d 00 00                   call   0x004024fe
                           .text:004017d9 59                               pop    %ecx
                           .text:004017da 59                               pop    %ecx
                           .text:004017db 8b 4d 0c                         mov    0xc(%ebp),%ecx
                           .text:004017de 89 01                            mov    %eax,(%ecx)
                           .text:004017e0 8b c6                            mov    %esi,%eax
                           .text:004017e2 5f                               pop    %edi
                           .text:004017e3 5e                               pop    %esi
                           .text:004017e4 5b                               pop    %ebx
                           .text:004017e5 c9                               leave  
                           .text:004017e6 c3                               ret    
                           .text:004017e7 83 c8 ff                         or     $0xffffffff,%eax
                           .text:004017ea eb f6                            jmp    0x004017e2
                           .text:004017ec 55                               push   %ebp
                           .text:004017ed 8b ec                            mov    %esp,%ebp
                           .text:004017ef 83 ec 48                         sub    $0x48,%esp
                           .text:004017f2 80 65 fc 00                      andb   $0x0,-0x4(%ebp)
                           .text:004017f6 8d 45 dc                         lea    -0x24(%ebp),%eax
                           .text:004017f9 56                               push   %esi
                           .text:004017fa 50                               push   %eax
                           .text:004017fb c6 45 dc 41                      movb   $0x41,-0x24(%ebp)
                           .text:004017ff c6 45 dd 42                      movb   $0x42,-0x23(%ebp)
                           .text:00401803 c6 45 de 43                      movb   $0x43,-0x22(%ebp)
                           .text:00401807 c6 45 df 44                      movb   $0x44,-0x21(%ebp)
                           .text:0040180b c6 45 e0 45                      movb   $0x45,-0x20(%ebp)
                           .text:0040180f c6 45 e1 46                      movb   $0x46,-0x1f(%ebp)
                           .text:00401813 c6 45 e2 47                      movb   $0x47,-0x1e(%ebp)
                           .text:00401817 c6 45 e3 48                      movb   $0x48,-0x1d(%ebp)
                           .text:0040181b c6 45 e4 49                      movb   $0x49,-0x1c(%ebp)
                           .text:0040181f c6 45 e5 4a                      movb   $0x4a,-0x1b(%ebp)
                           .text:00401823 c6 45 e6 4b                      movb   $0x4b,-0x1a(%ebp)
                           .text:00401827 c6 45 e7 4c                      movb   $0x4c,-0x19(%ebp)
                           .text:0040182b c6 45 e8 4d                      movb   $0x4d,-0x18(%ebp)
                           .text:0040182f c6 45 e9 4e                      movb   $0x4e,-0x17(%ebp)
                           .text:00401833 c6 45 ea 4f                      movb   $0x4f,-0x16(%ebp)
                           .text:00401837 c6 45 eb 50                      movb   $0x50,-0x15(%ebp)
                           .text:0040183b c6 45 ec 51                      movb   $0x51,-0x14(%ebp)
                           .text:0040183f c6 45 ed 52                      movb   $0x52,-0x13(%ebp)
                           .text:00401843 c6 45 ee 53                      movb   $0x53,-0x12(%ebp)
                           .text:00401847 c6 45 ef 54                      movb   $0x54,-0x11(%ebp)
                           .text:0040184b c6 45 f0 55                      movb   $0x55,-0x10(%ebp)
                           .text:0040184f c6 45 f1 56                      movb   $0x56,-0xf(%ebp)
                           .text:00401853 c6 45 f2 57                      movb   $0x57,-0xe(%ebp)
                           .text:00401857 c6 45 f3 58                      movb   $0x58,-0xd(%ebp)
                           .text:0040185b c6 45 f4 59                      movb   $0x59,-0xc(%ebp)
                           .text:0040185f c6 45 f5 5a                      movb   $0x5a,-0xb(%ebp)
                           .text:00401863 c6 45 f6 61                      movb   $0x61,-0xa(%ebp)
                           .text:00401867 c6 45 f7 62                      movb   $0x62,-0x9(%ebp)
                           .text:0040186b c6 45 f8 63                      movb   $0x63,-0x8(%ebp)
                           .text:0040186f c6 45 f9 64                      movb   $0x64,-0x7(%ebp)
                           .text:00401873 c6 45 fa 65                      movb   $0x65,-0x6(%ebp)
                           .text:00401877 c6 45 fb 66                      movb   $0x66,-0x5(%ebp)
                           .text:0040187b e8 31 0b 00 00                   call   0x004023b1
                           .text:00401880 80 65 d8 00                      andb   $0x0,-0x28(%ebp)
                           .text:00401884 59                               pop    %ecx
                           .text:00401885 6a 00                            push   $0x0
                           .text:00401887 8b f0                            mov    %eax,%esi
                           .text:00401889 c6 45 b8 67                      movb   $0x67,-0x48(%ebp)
                           .text:0040188d c6 45 b9 68                      movb   $0x68,-0x47(%ebp)
                           .text:00401891 c6 45 ba 69                      movb   $0x69,-0x46(%ebp)
                           .text:00401895 c6 45 bb 6a                      movb   $0x6a,-0x45(%ebp)
                           .text:00401899 c6 45 bc 6b                      movb   $0x6b,-0x44(%ebp)
                           .text:0040189d c6 45 bd 6c                      movb   $0x6c,-0x43(%ebp)
                           .text:004018a1 c6 45 be 6d                      movb   $0x6d,-0x42(%ebp)
                           .text:004018a5 c6 45 bf 6e                      movb   $0x6e,-0x41(%ebp)
                           .text:004018a9 c6 45 c0 6f                      movb   $0x6f,-0x40(%ebp)
                           .text:004018ad c6 45 c1 70                      movb   $0x70,-0x3f(%ebp)
                           .text:004018b1 c6 45 c2 71                      movb   $0x71,-0x3e(%ebp)
                           .text:004018b5 c6 45 c3 72                      movb   $0x72,-0x3d(%ebp)
                           .text:004018b9 c6 45 c4 73                      movb   $0x73,-0x3c(%ebp)
                           .text:004018bd c6 45 c5 74                      movb   $0x74,-0x3b(%ebp)
                           .text:004018c1 c6 45 c6 75                      movb   $0x75,-0x3a(%ebp)
                           .text:004018c5 c6 45 c7 76                      movb   $0x76,-0x39(%ebp)
                           .text:004018c9 c6 45 c8 77                      movb   $0x77,-0x38(%ebp)
                           .text:004018cd c6 45 c9 78                      movb   $0x78,-0x37(%ebp)
                           .text:004018d1 c6 45 ca 79                      movb   $0x79,-0x36(%ebp)
                           .text:004018d5 c6 45 cb 7a                      movb   $0x7a,-0x35(%ebp)
                           .text:004018d9 c6 45 cc 30                      movb   $0x30,-0x34(%ebp)
                           .text:004018dd c6 45 cd 31                      movb   $0x31,-0x33(%ebp)
                           .text:004018e1 c6 45 ce 32                      movb   $0x32,-0x32(%ebp)
                           .text:004018e5 c6 45 cf 33                      movb   $0x33,-0x31(%ebp)
                           .text:004018e9 c6 45 d0 34                      movb   $0x34,-0x30(%ebp)
                           .text:004018ed c6 45 d1 35                      movb   $0x35,-0x2f(%ebp)
                           .text:004018f1 c6 45 d2 36                      movb   $0x36,-0x2e(%ebp)
                           .text:004018f5 c6 45 d3 37                      movb   $0x37,-0x2d(%ebp)
                           .text:004018f9 c6 45 d4 38                      movb   $0x38,-0x2c(%ebp)
                           .text:004018fd c6 45 d5 39                      movb   $0x39,-0x2b(%ebp)
                           .text:00401901 c6 45 d6 2b                      movb   $0x2b,-0x2a(%ebp)
                           .text:00401905 c6 45 d7 2f                      movb   $0x2f,-0x29(%ebp)
                           .text:00401909 ff 15 1c 30 40 00                call   *0x40301c
                           .text:0040190f 8d 45 b8                         lea    -0x48(%ebp),%eax
                           .text:00401912 50                               push   %eax
                           .text:00401913 e8 99 0a 00 00                   call   0x004023b1
                           .text:00401918 8d 44 30 01                      lea    0x1(%eax,%esi,1),%eax
                           .text:0040191c 50                               push   %eax
                           .text:0040191d e8 ee 0b 00 00                   call   0x00402510
                           .text:00401922 8b f0                            mov    %eax,%esi
                           .text:00401924 8d 45 dc                         lea    -0x24(%ebp),%eax
                           .text:00401927 50                               push   %eax
                           .text:00401928 56                               push   %esi
                           .text:00401929 e8 43 0a 00 00                   call   0x00402371
                           .text:0040192e 8d 45 b8                         lea    -0x48(%ebp),%eax
                           .text:00401931 50                               push   %eax
                           .text:00401932 56                               push   %esi
                           .text:00401933 e8 57 0a 00 00                   call   0x0040238f
                           .text:00401938 8a 0e                            mov    (%esi),%cl
                           .text:0040193a 83 c4 18                         add    $0x18,%esp
                           .text:0040193d 8b c6                            mov    %esi,%eax
                           .text:0040193f 84 c9                            test   %cl,%cl
                           .text:00401941 74 0f                            je     0x00401952
                           .text:00401943 3a 4d 08                         cmp    0x8(%ebp),%cl
                           .text:00401946 74 06                            je     0x0040194e
                           .text:00401948 8a 48 01                         mov    0x1(%eax),%cl
                           .text:0040194b 40                               inc    %eax
                           .text:0040194c eb f1                            jmp    0x0040193f
                           .text:0040194e 2b c6                            sub    %esi,%eax
                           .text:00401950 eb 03                            jmp    0x00401955
                           .text:00401952 83 c8 ff                         or     $0xffffffff,%eax
                           .text:00401955 5e                               pop    %esi
                           .text:00401956 c9                               leave  
                           .text:00401957 c3                               ret    
                           .text:00401958 55                               push   %ebp
                           .text:00401959 8b ec                            mov    %esp,%ebp
                           .text:0040195b 51                               push   %ecx
                           .text:0040195c 56                               push   %esi
                           .text:0040195d 8b 35 1c 30 40 00                mov    0x40301c,%esi
                           .text:00401963 57                               push   %edi
                           .text:00401964 6a 00                            push   $0x0
                           .text:00401966 ff d6                            call   *%esi
                           .text:00401968 83 65 fc 00                      andl   $0x0,-0x4(%ebp)
                           .text:0040196c 8d 45 fc                         lea    -0x4(%ebp),%eax
                           .text:0040196f 50                               push   %eax
                           .text:00401970 ff 75 08                         pushl  0x8(%ebp)
                           .text:00401973 e8 46 fd ff ff                   call   0x004016be
                           .text:00401978 59                               pop    %ecx
                           .text:00401979 33 ff                            xor    %edi,%edi
                           .text:0040197b 85 c0                            test   %eax,%eax
                           .text:0040197d 59                               pop    %ecx
                           .text:0040197e 89 45 08                         mov    %eax,0x8(%ebp)
                           .text:00401981 7e 20                            jle    0x004019a3
                           .text:00401983 6a 00                            push   $0x0
                           .text:00401985 ff d6                            call   *%esi
                           .text:00401987 8b 45 fc                         mov    -0x4(%ebp),%eax
                           .text:0040198a 80 04 38 7a                      addb   $0x7a,(%eax,%edi,1)
                           .text:0040198e 03 c7                            add    %edi,%eax
                           .text:00401990 6a 00                            push   $0x0
                           .text:00401992 ff d6                            call   *%esi
                           .text:00401994 8b 45 fc                         mov    -0x4(%ebp),%eax
                           .text:00401997 80 34 38 59                      xorb   $0x59,(%eax,%edi,1)
                           .text:0040199b 03 c7                            add    %edi,%eax
                           .text:0040199d 47                               inc    %edi
                           .text:0040199e 3b 7d 08                         cmp    0x8(%ebp),%edi
                           .text:004019a1 7c e0                            jl     0x00401983
                           .text:004019a3 8b 45 fc                         mov    -0x4(%ebp),%eax
                           .text:004019a6 5f                               pop    %edi
                           .text:004019a7 5e                               pop    %esi
                           .text:004019a8 c9                               leave  
                           .text:004019a9 c3                               ret    
                           .text:004019aa 55                               push   %ebp
                           .text:004019ab 8b ec                            mov    %esp,%ebp
                           .text:004019ad 81 ec 30 04 00 00                sub    $0x430,%esp
                           .text:004019b3 53                               push   %ebx
                           .text:004019b4 33 db                            xor    %ebx,%ebx
                           .text:004019b6 56                               push   %esi
                           .text:004019b7 8b 35 1c 30 40 00                mov    0x40301c,%esi
                           .text:004019bd 53                               push   %ebx
                           .text:004019be 89 5d d8                         mov    %ebx,-0x28(%ebp)
                           .text:004019c1 ff d6                            call   *%esi
                           .text:004019c3 53                               push   %ebx
                           .text:004019c4 ff d6                            call   *%esi
                           .text:004019c6 53                               push   %ebx
                           .text:004019c7 ff d6                            call   *%esi
                           .text:004019c9 53                               push   %ebx
                           .text:004019ca ff d6                            call   *%esi
                           .text:004019cc 53                               push   %ebx
                           .text:004019cd 89 5d dc                         mov    %ebx,-0x24(%ebp)
                           .text:004019d0 ff d6                            call   *%esi
                           .text:004019d2 53                               push   %ebx
                           .text:004019d3 89 5d d0                         mov    %ebx,-0x30(%ebp)
                           .text:004019d6 c6 45 e4 4d                      movb   $0x4d,-0x1c(%ebp)
                           .text:004019da c6 45 e5 6f                      movb   $0x6f,-0x1b(%ebp)
                           .text:004019de c6 45 e6 7a                      movb   $0x7a,-0x1a(%ebp)
                           .text:004019e2 c6 45 e7 69                      movb   $0x69,-0x19(%ebp)
                           .text:004019e6 c6 45 e8 6c                      movb   $0x6c,-0x18(%ebp)
                           .text:004019ea c6 45 e9 6c                      movb   $0x6c,-0x17(%ebp)
                           .text:004019ee c6 45 ea 61                      movb   $0x61,-0x16(%ebp)
                           .text:004019f2 c6 45 eb 2f                      movb   $0x2f,-0x15(%ebp)
                           .text:004019f6 c6 45 ec 34                      movb   $0x34,-0x14(%ebp)
                           .text:004019fa c6 45 ed 2e                      movb   $0x2e,-0x13(%ebp)
                           .text:004019fe c6 45 ee 30                      movb   $0x30,-0x12(%ebp)
                           .text:00401a02 c6 45 ef 20                      movb   $0x20,-0x11(%ebp)
                           .text:00401a06 c6 45 f0 28                      movb   $0x28,-0x10(%ebp)
                           .text:00401a0a c6 45 f1 63                      movb   $0x63,-0xf(%ebp)
                           .text:00401a0e c6 45 f2 6f                      movb   $0x6f,-0xe(%ebp)
                           .text:00401a12 c6 45 f3 6d                      movb   $0x6d,-0xd(%ebp)
                           .text:00401a16 c6 45 f4 70                      movb   $0x70,-0xc(%ebp)
                           .text:00401a1a c6 45 f5 61                      movb   $0x61,-0xb(%ebp)
                           .text:00401a1e c6 45 f6 74                      movb   $0x74,-0xa(%ebp)
                           .text:00401a22 c6 45 f7 69                      movb   $0x69,-0x9(%ebp)
                           .text:00401a26 c6 45 f8 62                      movb   $0x62,-0x8(%ebp)
                           .text:00401a2a c6 45 f9 6c                      movb   $0x6c,-0x7(%ebp)
                           .text:00401a2e c6 45 fa 65                      movb   $0x65,-0x6(%ebp)
                           .text:00401a32 c6 45 fb 29                      movb   $0x29,-0x5(%ebp)
                           .text:00401a36 88 5d fc                         mov    %bl,-0x4(%ebp)
                           .text:00401a39 ff d6                            call   *%esi
                           .text:00401a3b 53                               push   %ebx
                           .text:00401a3c 53                               push   %ebx
                           .text:00401a3d 53                               push   %ebx
                           .text:00401a3e 8d 45 e4                         lea    -0x1c(%ebp),%eax
                           .text:00401a41 53                               push   %ebx
                           .text:00401a42 50                               push   %eax
                           .text:00401a43 ff 15 c4 30 40 00                call   *0x4030c4
                           .text:00401a49 53                               push   %ebx
                           .text:00401a4a 89 45 e0                         mov    %eax,-0x20(%ebp)
                           .text:00401a4d ff d6                            call   *%esi
                           .text:00401a4f 39 5d e0                         cmp    %ebx,-0x20(%ebp)
                           .text:00401a52 74 1b                            je     0x00401a6f
                           .text:00401a54 53                               push   %ebx
                           .text:00401a55 68 00 00 00 80                   push   $0x80000000
                           .text:00401a5a 53                               push   %ebx
                           .text:00401a5b 53                               push   %ebx
                           .text:00401a5c ff 75 08                         pushl  0x8(%ebp)
                           .text:00401a5f ff 75 e0                         pushl  -0x20(%ebp)
                           .text:00401a62 ff 15 b8 30 40 00                call   *0x4030b8
                           .text:00401a68 3b c3                            cmp    %ebx,%eax
                           .text:00401a6a 89 45 d4                         mov    %eax,-0x2c(%ebp)
                           .text:00401a6d 75 07                            jne    0x00401a76
                           .text:00401a6f 33 c0                            xor    %eax,%eax
                           .text:00401a71 e9 a8 00 00 00                   jmp    0x00401b1e
                           .text:00401a76 57                               push   %edi
                           .text:00401a77 53                               push   %ebx
                           .text:00401a78 53                               push   %ebx
                           .text:00401a79 6a 02                            push   $0x2
                           .text:00401a7b 53                               push   %ebx
                           .text:00401a7c 53                               push   %ebx
                           .text:00401a7d 68 00 00 00 40                   push   $0x40000000
                           .text:00401a82 ff 75 0c                         pushl  0xc(%ebp)
                           .text:00401a85 ff 15 30 30 40 00                call   *0x403030
                           .text:00401a8b 53                               push   %ebx
                           .text:00401a8c 89 45 08                         mov    %eax,0x8(%ebp)
                           .text:00401a8f ff d6                            call   *%esi
                           .text:00401a91 83 7d 08 ff                      cmpl   $0xffffffff,0x8(%ebp)
                           .text:00401a95 74 6d                            je     0x00401b04
                           .text:00401a97 53                               push   %ebx
                           .text:00401a98 ff d6                            call   *%esi
                           .text:00401a9a bf 00 04 00 00                   mov    $0x400,%edi
                           .text:00401a9f 53                               push   %ebx
                           .text:00401aa0 ff d6                            call   *%esi
                           .text:00401aa2 57                               push   %edi
                           .text:00401aa3 8d 85 d0 fb ff ff                lea    -0x430(%ebp),%eax
                           .text:00401aa9 53                               push   %ebx
                           .text:00401aaa 50                               push   %eax
                           .text:00401aab e8 48 0a 00 00                   call   0x004024f8
                           .text:00401ab0 83 c4 0c                         add    $0xc,%esp
                           .text:00401ab3 53                               push   %ebx
                           .text:00401ab4 ff d6                            call   *%esi
                           .text:00401ab6 8d 45 dc                         lea    -0x24(%ebp),%eax
                           .text:00401ab9 50                               push   %eax
                           .text:00401aba 8d 85 d0 fb ff ff                lea    -0x430(%ebp),%eax
                           .text:00401ac0 57                               push   %edi
                           .text:00401ac1 50                               push   %eax
                           .text:00401ac2 ff 75 d4                         pushl  -0x2c(%ebp)
                           .text:00401ac5 ff 15 bc 30 40 00                call   *0x4030bc
                           .text:00401acb 53                               push   %ebx
                           .text:00401acc ff d6                            call   *%esi
                           .text:00401ace 8d 45 d0                         lea    -0x30(%ebp),%eax
                           .text:00401ad1 53                               push   %ebx
                           .text:00401ad2 50                               push   %eax
                           .text:00401ad3 8d 85 d0 fb ff ff                lea    -0x430(%ebp),%eax
                           .text:00401ad9 ff 75 dc                         pushl  -0x24(%ebp)
                           .text:00401adc 50                               push   %eax
                           .text:00401add ff 75 08                         pushl  0x8(%ebp)
                           .text:00401ae0 ff 15 2c 30 40 00                call   *0x40302c
                           .text:00401ae6 53                               push   %ebx
                           .text:00401ae7 ff d6                            call   *%esi
                           .text:00401ae9 39 5d dc                         cmp    %ebx,-0x24(%ebp)
                           .text:00401aec 77 b1                            ja     0x00401a9f
                           .text:00401aee 53                               push   %ebx
                           .text:00401aef ff d6                            call   *%esi
                           .text:00401af1 ff 75 08                         pushl  0x8(%ebp)
                           .text:00401af4 ff 15 48 30 40 00                call   *0x403048
                           .text:00401afa 53                               push   %ebx
                           .text:00401afb ff d6                            call   *%esi
                           .text:00401afd c7 45 d8 01 00 00 00             movl   $0x1,-0x28(%ebp)
                           .text:00401b04 ff 75 d4                         pushl  -0x2c(%ebp)
                           .text:00401b07 8b 3d c0 30 40 00                mov    0x4030c0,%edi
                           .text:00401b0d ff d7                            call   *%edi
                           .text:00401b0f 53                               push   %ebx
                           .text:00401b10 ff d6                            call   *%esi
                           .text:00401b12 ff 75 e0                         pushl  -0x20(%ebp)
                           .text:00401b15 ff d7                            call   *%edi
                           .text:00401b17 53                               push   %ebx
                           .text:00401b18 ff d6                            call   *%esi
                           .text:00401b1a 8b 45 d8                         mov    -0x28(%ebp),%eax
                           .text:00401b1d 5f                               pop    %edi
                           .text:00401b1e 5e                               pop    %esi
                           .text:00401b1f 5b                               pop    %ebx
                           .text:00401b20 c9                               leave  
                           .text:00401b21 c3                               ret    
                           .text:00401b22 55                               push   %ebp
                           .text:00401b23 8b ec                            mov    %esp,%ebp
                           .text:00401b25 51                               push   %ecx
                           .text:00401b26 53                               push   %ebx
                           .text:00401b27 56                               push   %esi
                           .text:00401b28 8b 35 1c 30 40 00                mov    0x40301c,%esi
                           .text:00401b2e 33 db                            xor    %ebx,%ebx
                           .text:00401b30 57                               push   %edi
                           .text:00401b31 53                               push   %ebx
                           .text:00401b32 ff d6                            call   *%esi
                           .text:00401b34 53                               push   %ebx
                           .text:00401b35 ff d6                            call   *%esi
                           .text:00401b37 8b 45 14                         mov    0x14(%ebp),%eax
                           .text:00401b3a 3b c3                            cmp    %ebx,%eax
                           .text:00401b3c 75 09                            jne    0x00401b47
                           .text:00401b3e ff 75 0c                         pushl  0xc(%ebp)
                           .text:00401b41 e8 6b 08 00 00                   call   0x004023b1
                           .text:00401b46 59                               pop    %ecx
                           .text:00401b47 53                               push   %ebx
                           .text:00401b48 89 45 fc                         mov    %eax,-0x4(%ebp)
                           .text:00401b4b ff d6                            call   *%esi
                           .text:00401b4d 39 5d 10                         cmp    %ebx,0x10(%ebp)
                           .text:00401b50 89 5d 14                         mov    %ebx,0x14(%ebp)
                           .text:00401b53 7e 36                            jle    0x00401b8b
                           .text:00401b55 53                               push   %ebx
                           .text:00401b56 ff d6                            call   *%esi
                           .text:00401b58 33 ff                            xor    %edi,%edi
                           .text:00401b5a 39 5d fc                         cmp    %ebx,-0x4(%ebp)
                           .text:00401b5d 7e 19                            jle    0x00401b78
                           .text:00401b5f 8b 45 08                         mov    0x8(%ebp),%eax
                           .text:00401b62 8b 4d 14                         mov    0x14(%ebp),%ecx
                           .text:00401b65 03 c1                            add    %ecx,%eax
                           .text:00401b67 8b 55 0c                         mov    0xc(%ebp),%edx
                           .text:00401b6a 8a 0c 38                         mov    (%eax,%edi,1),%cl
                           .text:00401b6d 3a 0c 17                         cmp    (%edi,%edx,1),%cl
                           .text:00401b70 75 06                            jne    0x00401b78
                           .text:00401b72 47                               inc    %edi
                           .text:00401b73 3b 7d fc                         cmp    -0x4(%ebp),%edi
                           .text:00401b76 7c ef                            jl     0x00401b67
                           .text:00401b78 53                               push   %ebx
                           .text:00401b79 ff d6                            call   *%esi
                           .text:00401b7b 3b 7d fc                         cmp    -0x4(%ebp),%edi
                           .text:00401b7e 74 13                            je     0x00401b93
                           .text:00401b80 ff 45 14                         incl   0x14(%ebp)
                           .text:00401b83 8b 45 14                         mov    0x14(%ebp),%eax
                           .text:00401b86 3b 45 10                         cmp    0x10(%ebp),%eax
                           .text:00401b89 7c ca                            jl     0x00401b55
                           .text:00401b8b 83 c8 ff                         or     $0xffffffff,%eax
                           .text:00401b8e 5f                               pop    %edi
                           .text:00401b8f 5e                               pop    %esi
                           .text:00401b90 5b                               pop    %ebx
                           .text:00401b91 c9                               leave  
                           .text:00401b92 c3                               ret    
                           .text:00401b93 8b 45 14                         mov    0x14(%ebp),%eax
                           .text:00401b96 eb f6                            jmp    0x00401b8e
                           .text:00401b98 55                               push   %ebp
                           .text:00401b99 8b ec                            mov    %esp,%ebp
                           .text:00401b9b 51                               push   %ecx
                           .text:00401b9c 51                               push   %ecx
                           .text:00401b9d 53                               push   %ebx
                           .text:00401b9e 56                               push   %esi
                           .text:00401b9f 8b 35 1c 30 40 00                mov    0x40301c,%esi
                           .text:00401ba5 57                               push   %edi
                           .text:00401ba6 33 ff                            xor    %edi,%edi
                           .text:00401ba8 57                               push   %edi
                           .text:00401ba9 ff d6                            call   *%esi
                           .text:00401bab 57                               push   %edi
                           .text:00401bac 89 7d f8                         mov    %edi,-0x8(%ebp)
                           .text:00401baf ff d6                            call   *%esi
                           .text:00401bb1 6a 02                            push   $0x2
                           .text:00401bb3 57                               push   %edi
                           .text:00401bb4 68 00 fc ff ff                   push   $0xfffffc00
                           .text:00401bb9 ff 75 08                         pushl  0x8(%ebp)
                           .text:00401bbc ff 15 3c 30 40 00                call   *0x40303c
                           .text:00401bc2 57                               push   %edi
                           .text:00401bc3 ff d6                            call   *%esi
                           .text:00401bc5 57                               push   %edi
                           .text:00401bc6 ff 75 08                         pushl  0x8(%ebp)
                           .text:00401bc9 ff 15 38 30 40 00                call   *0x403038
                           .text:00401bcf 57                               push   %edi
                           .text:00401bd0 8b d8                            mov    %eax,%ebx
                           .text:00401bd2 ff d6                            call   *%esi
                           .text:00401bd4 8d 43 01                         lea    0x1(%ebx),%eax
                           .text:00401bd7 50                               push   %eax
                           .text:00401bd8 e8 33 09 00 00                   call   0x00402510
                           .text:00401bdd 59                               pop    %ecx
                           .text:00401bde 89 45 fc                         mov    %eax,-0x4(%ebp)
                           .text:00401be1 57                               push   %edi
                           .text:00401be2 ff d6                            call   *%esi
                           .text:00401be4 8d 45 f8                         lea    -0x8(%ebp),%eax
                           .text:00401be7 57                               push   %edi
                           .text:00401be8 50                               push   %eax
                           .text:00401be9 53                               push   %ebx
                           .text:00401bea ff 75 fc                         pushl  -0x4(%ebp)
                           .text:00401bed ff 75 08                         pushl  0x8(%ebp)
                           .text:00401bf0 ff 15 34 30 40 00                call   *0x403034
                           .text:00401bf6 57                               push   %edi
                           .text:00401bf7 ff d6                            call   *%esi
                           .text:00401bf9 57                               push   %edi
                           .text:00401bfa 53                               push   %ebx
                           .text:00401bfb ff 75 0c                         pushl  0xc(%ebp)
                           .text:00401bfe ff 75 fc                         pushl  -0x4(%ebp)
                           .text:00401c01 e8 1c ff ff ff                   call   0x00401b22
                           .text:00401c06 83 c4 10                         add    $0x10,%esp
                           .text:00401c09 8b d8                            mov    %eax,%ebx
                           .text:00401c0b 57                               push   %edi
                           .text:00401c0c ff d6                            call   *%esi
                           .text:00401c0e 83 fb ff                         cmp    $0xffffffff,%ebx
                           .text:00401c11 74 07                            je     0x00401c1a
                           .text:00401c13 8b 45 fc                         mov    -0x4(%ebp),%eax
                           .text:00401c16 03 c3                            add    %ebx,%eax
                           .text:00401c18 eb 11                            jmp    0x00401c2b
                           .text:00401c1a 57                               push   %edi
                           .text:00401c1b ff d6                            call   *%esi
                           .text:00401c1d ff 75 fc                         pushl  -0x4(%ebp)
                           .text:00401c20 e8 f1 08 00 00                   call   0x00402516
                           .text:00401c25 59                               pop    %ecx
                           .text:00401c26 57                               push   %edi
                           .text:00401c27 ff d6                            call   *%esi
                           .text:00401c29 33 c0                            xor    %eax,%eax
                           .text:00401c2b 5f                               pop    %edi
                           .text:00401c2c 5e                               pop    %esi
                           .text:00401c2d 5b                               pop    %ebx
                           .text:00401c2e c9                               leave  
                           .text:00401c2f c3                               ret    
                           .text:00401c30 53                               push   %ebx
                           .text:00401c31 55                               push   %ebp
                           .text:00401c32 56                               push   %esi
                           .text:00401c33 8b 35 1c 30 40 00                mov    0x40301c,%esi
                           .text:00401c39 57                               push   %edi
                           .text:00401c3a 33 ff                            xor    %edi,%edi
                           .text:00401c3c 57                               push   %edi
                           .text:00401c3d ff d6                            call   *%esi
                           .text:00401c3f 8a 44 24 14                      mov    0x14(%esp),%al
                           .text:00401c43 57                               push   %edi
                           .text:00401c44 a2 c4 42 40 00                   mov    %al,0x4042c4
                           .text:00401c49 ff d6                            call   *%esi
                           .text:00401c4b 8b 2d 30 30 40 00                mov    0x403030,%ebp
                           .text:00401c51 57                               push   %edi
                           .text:00401c52 57                               push   %edi
                           .text:00401c53 6a 03                            push   $0x3
                           .text:00401c55 57                               push   %edi
                           .text:00401c56 6a 01                            push   $0x1
                           .text:00401c58 bb c4 42 40 00                   mov    $0x4042c4,%ebx
                           .text:00401c5d 68 00 00 00 80                   push   $0x80000000
                           .text:00401c62 53                               push   %ebx
                           .text:00401c63 ff d5                            call   *%ebp
                           .text:00401c65 57                               push   %edi
                           .text:00401c66 89 44 24 18                      mov    %eax,0x18(%esp)
                           .text:00401c6a ff d6                            call   *%esi
                           .text:00401c6c 83 7c 24 14 ff                   cmpl   $0xffffffff,0x14(%esp)
                           .text:00401c71 74 12                            je     0x00401c85
                           .text:00401c73 57                               push   %edi
                           .text:00401c74 ff d6                            call   *%esi
                           .text:00401c76 ff 74 24 14                      pushl  0x14(%esp)
                           .text:00401c7a ff 15 48 30 40 00                call   *0x403048
                           .text:00401c80 57                               push   %edi
                           .text:00401c81 ff d6                            call   *%esi
                           .text:00401c83 eb 2d                            jmp    0x00401cb2
                           .text:00401c85 53                               push   %ebx
                           .text:00401c86 ff 15 cc 30 40 00                call   *0x4030cc
                           .text:00401c8c 57                               push   %edi
                           .text:00401c8d 57                               push   %edi
                           .text:00401c8e 6a 02                            push   $0x2
                           .text:00401c90 57                               push   %edi
                           .text:00401c91 57                               push   %edi
                           .text:00401c92 68 00 00 00 40                   push   $0x40000000
                           .text:00401c97 53                               push   %ebx
                           .text:00401c98 ff d5                            call   *%ebp
                           .text:00401c9a 57                               push   %edi
                           .text:00401c9b 8b d8                            mov    %eax,%ebx
                           .text:00401c9d ff d6                            call   *%esi
                           .text:00401c9f 83 fb ff                         cmp    $0xffffffff,%ebx
                           .text:00401ca2 75 04                            jne    0x00401ca8
                           .text:00401ca4 33 c0                            xor    %eax,%eax
                           .text:00401ca6 eb 0d                            jmp    0x00401cb5
                           .text:00401ca8 57                               push   %edi
                           .text:00401ca9 ff d6                            call   *%esi
                           .text:00401cab 53                               push   %ebx
                           .text:00401cac ff 15 48 30 40 00                call   *0x403048
                           .text:00401cb2 6a 01                            push   $0x1
                           .text:00401cb4 58                               pop    %eax
                           .text:00401cb5 5f                               pop    %edi
                           .text:00401cb6 5e                               pop    %esi
                           .text:00401cb7 5d                               pop    %ebp
                           .text:00401cb8 5b                               pop    %ebx
                           .text:00401cb9 c3                               ret    
                           .text:00401cba 55                               push   %ebp
                           .text:00401cbb 8b ec                            mov    %esp,%ebp
                           .text:00401cbd 83 ec 1c                         sub    $0x1c,%esp
                           .text:00401cc0 53                               push   %ebx
                           .text:00401cc1 56                               push   %esi
                           .text:00401cc2 57                               push   %edi
                           .text:00401cc3 33 db                            xor    %ebx,%ebx
                           .text:00401cc5 68 04 01 00 00                   push   $0x104
                           .text:00401cca be c4 42 40 00                   mov    $0x4042c4,%esi
                           .text:00401ccf 53                               push   %ebx
                           .text:00401cd0 56                               push   %esi
                           .text:00401cd1 c6 45 e4 43                      movb   $0x43,-0x1c(%ebp)
                           .text:00401cd5 c6 45 e5 3a                      movb   $0x3a,-0x1b(%ebp)
                           .text:00401cd9 c6 45 e6 5c                      movb   $0x5c,-0x1a(%ebp)
                           .text:00401cdd c6 45 e7 50                      movb   $0x50,-0x19(%ebp)
                           .text:00401ce1 c6 45 e8 72                      movb   $0x72,-0x18(%ebp)
                           .text:00401ce5 c6 45 e9 6f                      movb   $0x6f,-0x17(%ebp)
                           .text:00401ce9 c6 45 ea 67                      movb   $0x67,-0x16(%ebp)
                           .text:00401ced c6 45 eb 72                      movb   $0x72,-0x15(%ebp)
                           .text:00401cf1 c6 45 ec 61                      movb   $0x61,-0x14(%ebp)
                           .text:00401cf5 c6 45 ed 6d                      movb   $0x6d,-0x13(%ebp)
                           .text:00401cf9 c6 45 ee 20                      movb   $0x20,-0x12(%ebp)
                           .text:00401cfd c6 45 ef 46                      movb   $0x46,-0x11(%ebp)
                           .text:00401d01 c6 45 f0 69                      movb   $0x69,-0x10(%ebp)
                           .text:00401d05 c6 45 f1 6c                      movb   $0x6c,-0xf(%ebp)
                           .text:00401d09 c6 45 f2 65                      movb   $0x65,-0xe(%ebp)
                           .text:00401d0d c6 45 f3 73                      movb   $0x73,-0xd(%ebp)
                           .text:00401d11 c6 45 f4 5c                      movb   $0x5c,-0xc(%ebp)
                           .text:00401d15 c6 45 f5 41                      movb   $0x41,-0xb(%ebp)
                           .text:00401d19 c6 45 f6 70                      movb   $0x70,-0xa(%ebp)
                           .text:00401d1d c6 45 f7 70                      movb   $0x70,-0x9(%ebp)
                           .text:00401d21 c6 45 f8 50                      movb   $0x50,-0x8(%ebp)
                           .text:00401d25 c6 45 f9 61                      movb   $0x61,-0x7(%ebp)
                           .text:00401d29 c6 45 fa 74                      movb   $0x74,-0x6(%ebp)
                           .text:00401d2d c6 45 fb 63                      movb   $0x63,-0x5(%ebp)
                           .text:00401d31 c6 45 fc 68                      movb   $0x68,-0x4(%ebp)
                           .text:00401d35 c6 45 fd 5c                      movb   $0x5c,-0x3(%ebp)
                           .text:00401d39 88 5d fe                         mov    %bl,-0x2(%ebp)
                           .text:00401d3c e8 b7 07 00 00                   call   0x004024f8
                           .text:00401d41 8b 3d 1c 30 40 00                mov    0x40301c,%edi
                           .text:00401d47 83 c4 0c                         add    $0xc,%esp
                           .text:00401d4a 53                               push   %ebx
                           .text:00401d4b ff d7                            call   *%edi
                           .text:00401d4d 90                               nop
                           .text:00401d4e 90                               nop
                           .text:00401d4f 90                               nop
                           .text:00401d50 90                               nop
                           .text:00401d51 90                               nop
                           .text:00401d52 90                               nop
                           .text:00401d53 90                               nop
                           .text:00401d54 90                               nop
                           .text:00401d55 90                               nop
                           .text:00401d56 90                               nop
                           .text:00401d57 8d 45 e4                         lea    -0x1c(%ebp),%eax
                           .text:00401d5a 50                               push   %eax
                           .text:00401d5b 56                               push   %esi
                           .text:00401d5c e8 2e 06 00 00                   call   0x0040238f
                           .text:00401d61 59                               pop    %ecx
                           .text:00401d62 59                               pop    %ecx
                           .text:00401d63 53                               push   %ebx
                           .text:00401d64 ff d7                            call   *%edi
                           .text:00401d66 90                               nop
                           .text:00401d67 90                               nop
                           .text:00401d68 90                               nop
                           .text:00401d69 90                               nop
                           .text:00401d6a 90                               nop
                           .text:00401d6b 90                               nop
                           .text:00401d6c 90                               nop
                           .text:00401d6d 90                               nop
                           .text:00401d6e 90                               nop
                           .text:00401d6f 90                               nop
                           .text:00401d70 ff 75 08                         pushl  0x8(%ebp)
                           .text:00401d73 56                               push   %esi
                           .text:00401d74 e8 16 06 00 00                   call   0x0040238f
                           .text:00401d79 59                               pop    %ecx
                           .text:00401d7a 59                               pop    %ecx
                           .text:00401d7b 8a c3                            mov    %bl,%al
                           .text:00401d7d 04 43                            add    $0x43,%al
                           .text:00401d7f 50                               push   %eax
                           .text:00401d80 e8 ab fe ff ff                   call   0x00401c30
                           .text:00401d85 85 c0                            test   %eax,%eax
                           .text:00401d87 59                               pop    %ecx
                           .text:00401d88 75 0c                            jne    0x00401d96
                           .text:00401d8a fe c3                            inc    %bl
                           .text:00401d8c 80 fb 04                         cmp    $0x4,%bl
                           .text:00401d8f 7c ea                            jl     0x00401d7b
                           .text:00401d91 5f                               pop    %edi
                           .text:00401d92 5e                               pop    %esi
                           .text:00401d93 5b                               pop    %ebx
                           .text:00401d94 c9                               leave  
                           .text:00401d95 c3                               ret    
                           .text:00401d96 6a 01                            push   $0x1
                           .text:00401d98 58                               pop    %eax
                           .text:00401d99 eb f6                            jmp    0x00401d91
                           .text:00401d9b 55                               push   %ebp
                           .text:00401d9c 8b ec                            mov    %esp,%ebp
                           .text:00401d9e 81 ec 08 04 00 00                sub    $0x408,%esp
                           .text:00401da4 53                               push   %ebx
                           .text:00401da5 56                               push   %esi
                           .text:00401da6 57                               push   %edi
                           .text:00401da7 33 db                            xor    %ebx,%ebx
                           .text:00401da9 b9 ff 00 00 00                   mov    $0xff,%ecx
                           .text:00401dae 33 c0                            xor    %eax,%eax
                           .text:00401db0 8d bd fc fb ff ff                lea    -0x404(%ebp),%edi
                           .text:00401db6 89 9d f8 fb ff ff                mov    %ebx,-0x408(%ebp)
                           .text:00401dbc f3 ab                            rep stos %eax,%es:(%edi)
                           .text:00401dbe 53                               push   %ebx
                           .text:00401dbf 89 5d f8                         mov    %ebx,-0x8(%ebp)
                           .text:00401dc2 ff 15 1c 30 40 00                call   *0x40301c
                           .text:00401dc8 8b 7d 08                         mov    0x8(%ebp),%edi
                           .text:00401dcb 8d 85 f8 fb ff ff                lea    -0x408(%ebp),%eax
                           .text:00401dd1 89 45 fc                         mov    %eax,-0x4(%ebp)
                           .text:00401dd4 be 00 01 00 00                   mov    $0x100,%esi
                           .text:00401dd9 6a 00                            push   $0x0
                           .text:00401ddb 88 1c 3b                         mov    %bl,(%ebx,%edi,1)
                           .text:00401dde ff 15 1c 30 40 00                call   *0x40301c
                           .text:00401de4 8b c3                            mov    %ebx,%eax
                           .text:00401de6 33 d2                            xor    %edx,%edx
                           .text:00401de8 f7 75 10                         divl   0x10(%ebp)
                           .text:00401deb 8b 45 0c                         mov    0xc(%ebp),%eax
                           .text:00401dee 8b 4d fc                         mov    -0x4(%ebp),%ecx
                           .text:00401df1 83 45 fc 04                      addl   $0x4,-0x4(%ebp)
                           .text:00401df5 43                               inc    %ebx
                           .text:00401df6 3b de                            cmp    %esi,%ebx
                           .text:00401df8 0f b6 04 02                      movzbl (%edx,%eax,1),%eax
                           .text:00401dfc 89 01                            mov    %eax,(%ecx)
                           .text:00401dfe 7c d9                            jl     0x00401dd9
                           .text:00401e00 83 65 08 00                      andl   $0x0,0x8(%ebp)
                           .text:00401e04 8d 85 f8 fb ff ff                lea    -0x408(%ebp),%eax
                           .text:00401e0a 89 45 10                         mov    %eax,0x10(%ebp)
                           .text:00401e0d 8b 45 08                         mov    0x8(%ebp),%eax
                           .text:00401e10 8b 55 10                         mov    0x10(%ebp),%edx
                           .text:00401e13 8b de                            mov    %esi,%ebx
                           .text:00401e15 83 45 10 04                      addl   $0x4,0x10(%ebp)
                           .text:00401e19 8a 0c 38                         mov    (%eax,%edi,1),%cl
                           .text:00401e1c 0f b6 c1                         movzbl %cl,%eax
                           .text:00401e1f 03 02                            add    (%edx),%eax
                           .text:00401e21 03 45 f8                         add    -0x8(%ebp),%eax
                           .text:00401e24 99                               cltd   
                           .text:00401e25 f7 fb                            idiv   %ebx
                           .text:00401e27 8b 5d 08                         mov    0x8(%ebp),%ebx
                           .text:00401e2a ff 45 08                         incl   0x8(%ebp)
                           .text:00401e2d 39 75 08                         cmp    %esi,0x8(%ebp)
                           .text:00401e30 89 55 f8                         mov    %edx,-0x8(%ebp)
                           .text:00401e33 8d 04 3a                         lea    (%edx,%edi,1),%eax
                           .text:00401e36 8a 14 3a                         mov    (%edx,%edi,1),%dl
                           .text:00401e39 88 14 3b                         mov    %dl,(%ebx,%edi,1)
                           .text:00401e3c 88 08                            mov    %cl,(%eax)
                           .text:00401e3e 7c cd                            jl     0x00401e0d
                           .text:00401e40 5f                               pop    %edi
                           .text:00401e41 5e                               pop    %esi
                           .text:00401e42 5b                               pop    %ebx
                           .text:00401e43 c9                               leave  
                           .text:00401e44 c3                               ret    
                           .text:00401e45 55                               push   %ebp
                           .text:00401e46 8b ec                            mov    %esp,%ebp
                           .text:00401e48 83 ec 0c                         sub    $0xc,%esp
                           .text:00401e4b 33 c0                            xor    %eax,%eax
                           .text:00401e4d 39 45 10                         cmp    %eax,0x10(%ebp)
                           .text:00401e50 89 45 f8                         mov    %eax,-0x8(%ebp)
                           .text:00401e53 89 45 fc                         mov    %eax,-0x4(%ebp)
                           .text:00401e56 76 63                            jbe    0x00401ebb
                           .text:00401e58 53                               push   %ebx
                           .text:00401e59 56                               push   %esi
                           .text:00401e5a 8b 75 08                         mov    0x8(%ebp),%esi
                           .text:00401e5d 57                               push   %edi
                           .text:00401e5e bf 00 01 00 00                   mov    $0x100,%edi
                           .text:00401e63 eb 03                            jmp    0x00401e68
                           .text:00401e65 8b 45 08                         mov    0x8(%ebp),%eax
                           .text:00401e68 40                               inc    %eax
                           .text:00401e69 8b cf                            mov    %edi,%ecx
                           .text:00401e6b 99                               cltd   
                           .text:00401e6c f7 f9                            idiv   %ecx
                           .text:00401e6e 8a 1c 32                         mov    (%edx,%esi,1),%bl
                           .text:00401e71 89 55 08                         mov    %edx,0x8(%ebp)
                           .text:00401e74 8d 04 32                         lea    (%edx,%esi,1),%eax
                           .text:00401e77 89 45 f4                         mov    %eax,-0xc(%ebp)
                           .text:00401e7a 0f b6 c3                         movzbl %bl,%eax
                           .text:00401e7d 03 45 f8                         add    -0x8(%ebp),%eax
                           .text:00401e80 99                               cltd   
                           .text:00401e81 f7 f9                            idiv   %ecx
                           .text:00401e83 8b 45 f4                         mov    -0xc(%ebp),%eax
                           .text:00401e86 89 55 f8                         mov    %edx,-0x8(%ebp)
                           .text:00401e89 8d 0c 32                         lea    (%edx,%esi,1),%ecx
                           .text:00401e8c 8a 14 32                         mov    (%edx,%esi,1),%dl
                           .text:00401e8f 88 10                            mov    %dl,(%eax)
                           .text:00401e91 8b 55 fc                         mov    -0x4(%ebp),%edx
                           .text:00401e94 88 19                            mov    %bl,(%ecx)
                           .text:00401e96 8b 4d 0c                         mov    0xc(%ebp),%ecx
                           .text:00401e99 0f b6 00                         movzbl (%eax),%eax
                           .text:00401e9c 03 ca                            add    %edx,%ecx
                           .text:00401e9e 0f b6 d3                         movzbl %bl,%edx
                           .text:00401ea1 03 c2                            add    %edx,%eax
                           .text:00401ea3 8b df                            mov    %edi,%ebx
                           .text:00401ea5 99                               cltd   
                           .text:00401ea6 f7 fb                            idiv   %ebx
                           .text:00401ea8 8a 04 32                         mov    (%edx,%esi,1),%al
                           .text:00401eab 30 01                            xor    %al,(%ecx)
                           .text:00401ead ff 45 fc                         incl   -0x4(%ebp)
                           .text:00401eb0 8b 45 fc                         mov    -0x4(%ebp),%eax
                           .text:00401eb3 3b 45 10                         cmp    0x10(%ebp),%eax
                           .text:00401eb6 72 ad                            jb     0x00401e65
                           .text:00401eb8 5f                               pop    %edi
                           .text:00401eb9 5e                               pop    %esi
                           .text:00401eba 5b                               pop    %ebx
                           .text:00401ebb c9                               leave  
                           .text:00401ebc c3                               ret    
                           .text:00401ebd 55                               push   %ebp
                           .text:00401ebe 8b ec                            mov    %esp,%ebp
                           .text:00401ec0 81 ec 0c 01 00 00                sub    $0x10c,%esp
                           .text:00401ec6 80 65 fd 00                      andb   $0x0,-0x3(%ebp)
                           .text:00401eca 56                               push   %esi
                           .text:00401ecb 8b 35 1c 30 40 00                mov    0x40301c,%esi
                           .text:00401ed1 6a 00                            push   $0x0
                           .text:00401ed3 c6 45 f4 4b                      movb   $0x4b,-0xc(%ebp)
                           .text:00401ed7 c6 45 f5 6f                      movb   $0x6f,-0xb(%ebp)
                           .text:00401edb c6 45 f6 74                      movb   $0x74,-0xa(%ebp)
                           .text:00401edf c6 45 f7 68                      movb   $0x68,-0x9(%ebp)
                           .text:00401ee3 c6 45 f8 65                      movb   $0x65,-0x8(%ebp)
                           .text:00401ee7 c6 45 f9 72                      movb   $0x72,-0x7(%ebp)
                           .text:00401eeb c6 45 fa 35                      movb   $0x35,-0x6(%ebp)
                           .text:00401eef c6 45 fb 39                      movb   $0x39,-0x5(%ebp)
                           .text:00401ef3 c6 45 fc 39                      movb   $0x39,-0x4(%ebp)
                           .text:00401ef7 ff d6                            call   *%esi
                           .text:00401ef9 8d 45 f4                         lea    -0xc(%ebp),%eax
                           .text:00401efc 6a 0a                            push   $0xa
                           .text:00401efe 50                               push   %eax
                           .text:00401eff 8d 85 f4 fe ff ff                lea    -0x10c(%ebp),%eax
                           .text:00401f05 50                               push   %eax
                           .text:00401f06 e8 90 fe ff ff                   call   0x00401d9b
                           .text:00401f0b 83 c4 0c                         add    $0xc,%esp
                           .text:00401f0e 6a 00                            push   $0x0
                           .text:00401f10 ff d6                            call   *%esi
                           .text:00401f12 ff 75 0c                         pushl  0xc(%ebp)
                           .text:00401f15 8d 85 f4 fe ff ff                lea    -0x10c(%ebp),%eax
                           .text:00401f1b ff 75 08                         pushl  0x8(%ebp)
                           .text:00401f1e 50                               push   %eax
                           .text:00401f1f e8 21 ff ff ff                   call   0x00401e45
                           .text:00401f24 83 c4 0c                         add    $0xc,%esp
                           .text:00401f27 5e                               pop    %esi
                           .text:00401f28 c9                               leave  
                           .text:00401f29 c3                               ret    
                           .text:00401f2a 55                               push   %ebp
                           .text:00401f2b 8b ec                            mov    %esp,%ebp
                           .text:00401f2d 83 ec 44                         sub    $0x44,%esp
                           .text:00401f30 53                               push   %ebx
                           .text:00401f31 56                               push   %esi
                           .text:00401f32 8b 35 1c 30 40 00                mov    0x40301c,%esi
                           .text:00401f38 33 db                            xor    %ebx,%ebx
                           .text:00401f3a 57                               push   %edi
                           .text:00401f3b 53                               push   %ebx
                           .text:00401f3c ff d6                            call   *%esi
                           .text:00401f3e 53                               push   %ebx
                           .text:00401f3f ff d6                            call   *%esi
                           .text:00401f41 ff 75 08                         pushl  0x8(%ebp)
                           .text:00401f44 c7 45 f0 e8 03 00 00             movl   $0x3e8,-0x10(%ebp)
                           .text:00401f4b e8 6a fd ff ff                   call   0x00401cba
                           .text:00401f50 85 c0                            test   %eax,%eax
                           .text:00401f52 59                               pop    %ecx
                           .text:00401f53 0f 84 d4 01 00 00                je     0x0040212d
                           .text:00401f59 53                               push   %ebx
                           .text:00401f5a ff d6                            call   *%esi
                           .text:00401f5c 8b 3d 30 30 40 00                mov    0x403030,%edi
                           .text:00401f62 53                               push   %ebx
                           .text:00401f63 53                               push   %ebx
                           .text:00401f64 6a 03                            push   $0x3
                           .text:00401f66 53                               push   %ebx
                           .text:00401f67 6a 01                            push   $0x1
                           .text:00401f69 68 00 00 00 80                   push   $0x80000000
                           .text:00401f6e 68 c4 42 40 00                   push   $0x4042c4
                           .text:00401f73 ff d7                            call   *%edi
                           .text:00401f75 83 f8 ff                         cmp    $0xffffffff,%eax
                           .text:00401f78 89 45 f8                         mov    %eax,-0x8(%ebp)
                           .text:00401f7b 0f 84 ac 01 00 00                je     0x0040212d
                           .text:00401f81 53                               push   %ebx
                           .text:00401f82 ff d6                            call   *%esi
                           .text:00401f84 53                               push   %ebx
                           .text:00401f85 c6 45 e8 53                      movb   $0x53,-0x18(%ebp)
                           .text:00401f89 c6 45 e9 53                      movb   $0x53,-0x17(%ebp)
                           .text:00401f8d c6 45 ea 53                      movb   $0x53,-0x16(%ebp)
                           .text:00401f91 c6 45 eb 53                      movb   $0x53,-0x15(%ebp)
                           .text:00401f95 c6 45 ec 53                      movb   $0x53,-0x14(%ebp)
                           .text:00401f99 c6 45 ed 53                      movb   $0x53,-0x13(%ebp)
                           .text:00401f9d 88 5d ee                         mov    %bl,-0x12(%ebp)
                           .text:00401fa0 ff d6                            call   *%esi
                           .text:00401fa2 53                               push   %ebx
                           .text:00401fa3 c6 45 cc 56                      movb   $0x56,-0x34(%ebp)
                           .text:00401fa7 c6 45 cd 49                      movb   $0x49,-0x33(%ebp)
                           .text:00401fab c6 45 ce 44                      movb   $0x44,-0x32(%ebp)
                           .text:00401faf c6 45 cf 3a                      movb   $0x3a,-0x31(%ebp)
                           .text:00401fb3 c6 45 d0 32                      movb   $0x32,-0x30(%ebp)
                           .text:00401fb7 c6 45 d1 30                      movb   $0x30,-0x2f(%ebp)
                           .text:00401fbb c6 45 d2 31                      movb   $0x31,-0x2e(%ebp)
                           .text:00401fbf c6 45 d3 34                      movb   $0x34,-0x2d(%ebp)
                           .text:00401fc3 c6 45 d4 2d                      movb   $0x2d,-0x2c(%ebp)
                           .text:00401fc7 c6 45 d5 53                      movb   $0x53,-0x2b(%ebp)
                           .text:00401fcb c6 45 d6 56                      movb   $0x56,-0x2a(%ebp)
                           .text:00401fcf c6 45 d7 38                      movb   $0x38,-0x29(%ebp)
                           .text:00401fd3 88 5d d8                         mov    %bl,-0x28(%ebp)
                           .text:00401fd6 ff d6                            call   *%esi
                           .text:00401fd8 90                               nop
                           .text:00401fd9 90                               nop
                           .text:00401fda 90                               nop
                           .text:00401fdb 90                               nop
                           .text:00401fdc 90                               nop
                           .text:00401fdd 90                               nop
                           .text:00401fde 90                               nop
                           .text:00401fdf 90                               nop
                           .text:00401fe0 90                               nop
                           .text:00401fe1 90                               nop
                           .text:00401fe2 8d 45 e8                         lea    -0x18(%ebp),%eax
                           .text:00401fe5 50                               push   %eax
                           .text:00401fe6 ff 75 f8                         pushl  -0x8(%ebp)
                           .text:00401fe9 e8 aa fb ff ff                   call   0x00401b98
                           .text:00401fee 59                               pop    %ecx
                           .text:00401fef 89 45 f4                         mov    %eax,-0xc(%ebp)
                           .text:00401ff2 59                               pop    %ecx
                           .text:00401ff3 53                               push   %ebx
                           .text:00401ff4 ff d6                            call   *%esi
                           .text:00401ff6 ff 75 f8                         pushl  -0x8(%ebp)
                           .text:00401ff9 ff 15 48 30 40 00                call   *0x403048
                           .text:00401fff 53                               push   %ebx
                           .text:00402000 ff d6                            call   *%esi
                           .text:00402002 39 5d f4                         cmp    %ebx,-0xc(%ebp)
                           .text:00402005 0f 84 22 01 00 00                je     0x0040212d
                           .text:0040200b 53                               push   %ebx
                           .text:0040200c ff d6                            call   *%esi
                           .text:0040200e 53                               push   %ebx
                           .text:0040200f ff d6                            call   *%esi
                           .text:00402011 8d 45 cc                         lea    -0x34(%ebp),%eax
                           .text:00402014 50                               push   %eax
                           .text:00402015 8b 45 f4                         mov    -0xc(%ebp),%eax
                           .text:00402018 83 c0 06                         add    $0x6,%eax
                           .text:0040201b 50                               push   %eax
                           .text:0040201c e8 fb 04 00 00                   call   0x0040251c
                           .text:00402021 59                               pop    %ecx
                           .text:00402022 85 c0                            test   %eax,%eax
                           .text:00402024 59                               pop    %ecx
                           .text:00402025 0f 85 02 01 00 00                jne    0x0040212d
                           .text:0040202b 90                               nop
                           .text:0040202c 90                               nop
                           .text:0040202d 90                               nop
                           .text:0040202e 90                               nop
                           .text:0040202f 90                               nop
                           .text:00402030 90                               nop
                           .text:00402031 90                               nop
                           .text:00402032 90                               nop
                           .text:00402033 90                               nop
                           .text:00402034 90                               nop
                           .text:00402035 53                               push   %ebx
                           .text:00402036 ff d6                            call   *%esi
                           .text:00402038 53                               push   %ebx
                           .text:00402039 68 80 00 00 00                   push   $0x80
                           .text:0040203e 6a 03                            push   $0x3
                           .text:00402040 53                               push   %ebx
                           .text:00402041 53                               push   %ebx
                           .text:00402042 68 00 00 00 80                   push   $0x80000000
                           .text:00402047 68 c4 42 40 00                   push   $0x4042c4
                           .text:0040204c ff d7                            call   *%edi
                           .text:0040204e 53                               push   %ebx
                           .text:0040204f 8b f8                            mov    %eax,%edi
                           .text:00402051 ff d6                            call   *%esi
                           .text:00402053 3b fb                            cmp    %ebx,%edi
                           .text:00402055 0f 84 d2 00 00 00                je     0x0040212d
                           .text:0040205b 53                               push   %ebx
                           .text:0040205c ff d6                            call   *%esi
                           .text:0040205e 53                               push   %ebx
                           .text:0040205f 57                               push   %edi
                           .text:00402060 ff 15 38 30 40 00                call   *0x403038
                           .text:00402066 6a 04                            push   $0x4
                           .text:00402068 68 00 30 00 00                   push   $0x3000
                           .text:0040206d 50                               push   %eax
                           .text:0040206e 53                               push   %ebx
                           .text:0040206f 89 45 f4                         mov    %eax,-0xc(%ebp)
                           .text:00402072 ff 15 20 30 40 00                call   *0x403020
                           .text:00402078 53                               push   %ebx
                           .text:00402079 89 45 f8                         mov    %eax,-0x8(%ebp)
                           .text:0040207c ff d6                            call   *%esi
                           .text:0040207e 8d 45 fc                         lea    -0x4(%ebp),%eax
                           .text:00402081 53                               push   %ebx
                           .text:00402082 50                               push   %eax
                           .text:00402083 ff 75 f4                         pushl  -0xc(%ebp)
                           .text:00402086 ff 75 f8                         pushl  -0x8(%ebp)
                           .text:00402089 57                               push   %edi
                           .text:0040208a ff 15 34 30 40 00                call   *0x403034
                           .text:00402090 57                               push   %edi
                           .text:00402091 ff 15 48 30 40 00                call   *0x403048
                           .text:00402097 53                               push   %ebx
                           .text:00402098 ff d6                            call   *%esi
                           .text:0040209a ff 75 f4                         pushl  -0xc(%ebp)
                           .text:0040209d ff 75 f8                         pushl  -0x8(%ebp)
                           .text:004020a0 e8 18 fe ff ff                   call   0x00401ebd
                           .text:004020a5 59                               pop    %ecx
                           .text:004020a6 59                               pop    %ecx
                           .text:004020a7 53                               push   %ebx
                           .text:004020a8 ff d6                            call   *%esi
                           .text:004020aa ff 75 f8                         pushl  -0x8(%ebp)
                           .text:004020ad e8 4e ef ff ff                   call   0x00401000
                           .text:004020b2 59                               pop    %ecx
                           .text:004020b3 8b f8                            mov    %eax,%edi
                           .text:004020b5 53                               push   %ebx
                           .text:004020b6 ff d6                            call   *%esi
                           .text:004020b8 3b fb                            cmp    %ebx,%edi
                           .text:004020ba 74 71                            je     0x0040212d
                           .text:004020bc 8d 45 bc                         lea    -0x44(%ebp),%eax
                           .text:004020bf c6 45 dc 43                      movb   $0x43,-0x24(%ebp)
                           .text:004020c3 50                               push   %eax
                           .text:004020c4 57                               push   %edi
                           .text:004020c5 c6 45 dd 61                      movb   $0x61,-0x23(%ebp)
                           .text:004020c9 c6 45 de 6f                      movb   $0x6f,-0x22(%ebp)
                           .text:004020cd c6 45 df 33                      movb   $0x33,-0x21(%ebp)
                           .text:004020d1 c6 45 e0 36                      movb   $0x36,-0x20(%ebp)
                           .text:004020d5 c6 45 e1 30                      movb   $0x30,-0x1f(%ebp)
                           .text:004020d9 c6 45 e2 79                      movb   $0x79,-0x1e(%ebp)
                           .text:004020dd c6 45 e3 6e                      movb   $0x6e,-0x1d(%ebp)
                           .text:004020e1 c6 45 e4 69                      movb   $0x69,-0x1c(%ebp)
                           .text:004020e5 88 5d e5                         mov    %bl,-0x1b(%ebp)
                           .text:004020e8 c6 45 bc 44                      movb   $0x44,-0x44(%ebp)
                           .text:004020ec c6 45 bd 6c                      movb   $0x6c,-0x43(%ebp)
                           .text:004020f0 c6 45 be 6c                      movb   $0x6c,-0x42(%ebp)
                           .text:004020f4 c6 45 bf 46                      movb   $0x46,-0x41(%ebp)
                           .text:004020f8 c6 45 c0 75                      movb   $0x75,-0x40(%ebp)
                           .text:004020fc c6 45 c1 55                      movb   $0x55,-0x3f(%ebp)
                           .text:00402100 c6 45 c2 70                      movb   $0x70,-0x3e(%ebp)
                           .text:00402104 c6 45 c3 67                      movb   $0x67,-0x3d(%ebp)
                           .text:00402108 c6 45 c4 72                      movb   $0x72,-0x3c(%ebp)
                           .text:0040210c c6 45 c5 61                      movb   $0x61,-0x3b(%ebp)
                           .text:00402110 c6 45 c6 64                      movb   $0x64,-0x3a(%ebp)
                           .text:00402114 c6 45 c7 72                      movb   $0x72,-0x39(%ebp)
                           .text:00402118 c6 45 c8 73                      movb   $0x73,-0x38(%ebp)
                           .text:0040211c 88 5d c9                         mov    %bl,-0x37(%ebp)
                           .text:0040211f e8 5a f4 ff ff                   call   0x0040157e
                           .text:00402124 59                               pop    %ecx
                           .text:00402125 3b c3                            cmp    %ebx,%eax
                           .text:00402127 59                               pop    %ecx
                           .text:00402128 89 45 f4                         mov    %eax,-0xc(%ebp)
                           .text:0040212b 75 31                            jne    0x0040215e
                           .text:0040212d 68 c4 42 40 00                   push   $0x4042c4
                           .text:00402132 68 30 40 40 00                   push   $0x404030
                           .text:00402137 e8 6e f8 ff ff                   call   0x004019aa
                           .text:0040213c 59                               pop    %ecx
                           .text:0040213d 85 c0                            test   %eax,%eax
                           .text:0040213f 59                               pop    %ecx
                           .text:00402140 74 07                            je     0x00402149
                           .text:00402142 c7 45 f0 14 00 00 00             movl   $0x14,-0x10(%ebp)
                           .text:00402149 53                               push   %ebx
                           .text:0040214a ff d6                            call   *%esi
                           .text:0040214c 90                               nop
                           .text:0040214d 90                               nop
                           .text:0040214e 90                               nop
                           .text:0040214f 90                               nop
                           .text:00402150 90                               nop
                           .text:00402151 90                               nop
                           .text:00402152 90                               nop
                           .text:00402153 90                               nop
                           .text:00402154 90                               nop
                           .text:00402155 90                               nop
                           .text:00402156 ff 75 f0                         pushl  -0x10(%ebp)
                           .text:00402159 e9 de fd ff ff                   jmp    0x00401f3c
                           .text:0040215e 90                               nop
                           .text:0040215f 90                               nop
                           .text:00402160 90                               nop
                           .text:00402161 90                               nop
                           .text:00402162 90                               nop
                           .text:00402163 90                               nop
                           .text:00402164 90                               nop
                           .text:00402165 90                               nop
                           .text:00402166 90                               nop
                           .text:00402167 90                               nop
                           .text:00402168 53                               push   %ebx
                           .text:00402169 ff d6                            call   *%esi
                           .text:0040216b 8d 45 dc                         lea    -0x24(%ebp),%eax
                           .text:0040216e 50                               push   %eax
                           .text:0040216f 68 b0 40 40 00                   push   $0x4040b0
                           .text:00402174 ff 55 f4                         call   *-0xc(%ebp)
                           .text:00402177 57                               push   %edi
                           .text:00402178 e8 bb f4 ff ff                   call   0x00401638
                           .text:0040217d 83 c4 0c                         add    $0xc,%esp
                           .text:00402180 90                               nop
                           .text:00402181 90                               nop
                           .text:00402182 90                               nop
                           .text:00402183 90                               nop
                           .text:00402184 90                               nop
                           .text:00402185 90                               nop
                           .text:00402186 90                               nop
                           .text:00402187 90                               nop
                           .text:00402188 90                               nop
                           .text:00402189 90                               nop
                           .text:0040218a 53                               push   %ebx
                           .text:0040218b ff d6                            call   *%esi
                           .text:0040218d 90                               nop
                           .text:0040218e 90                               nop
                           .text:0040218f 90                               nop
                           .text:00402190 90                               nop
                           .text:00402191 90                               nop
                           .text:00402192 90                               nop
                           .text:00402193 90                               nop
                           .text:00402194 90                               nop
                           .text:00402195 90                               nop
                           .text:00402196 90                               nop
                           .text:00402197 5f                               pop    %edi
                           .text:00402198 5e                               pop    %esi
                           .text:00402199 5b                               pop    %ebx
                           .text:0040219a c9                               leave  
                           .text:0040219b c3                               ret    
                           .text:0040219c 55                               push   %ebp
                           .text:0040219d 8b ec                            mov    %esp,%ebp
                           .text:0040219f 81 ec 0c 01 00 00                sub    $0x10c,%esp
                           .text:004021a5 53                               push   %ebx
                           .text:004021a6 56                               push   %esi
                           .text:004021a7 8b 35 1c 30 40 00                mov    0x40301c,%esi
                           .text:004021ad 33 db                            xor    %ebx,%ebx
                           .text:004021af 57                               push   %edi
                           .text:004021b0 53                               push   %ebx
                           .text:004021b1 ff d6                            call   *%esi
                           .text:004021b3 90                               nop
                           .text:004021b4 90                               nop
                           .text:004021b5 90                               nop
                           .text:004021b6 90                               nop
                           .text:004021b7 90                               nop
                           .text:004021b8 90                               nop
                           .text:004021b9 90                               nop
                           .text:004021ba 90                               nop
                           .text:004021bb 90                               nop
                           .text:004021bc 90                               nop
                           .text:004021bd 6a 40                            push   $0x40
                           .text:004021bf 33 c0                            xor    %eax,%eax
                           .text:004021c1 59                               pop    %ecx
                           .text:004021c2 8d bd f5 fe ff ff                lea    -0x10b(%ebp),%edi
                           .text:004021c8 88 9d f4 fe ff ff                mov    %bl,-0x10c(%ebp)
                           .text:004021ce 53                               push   %ebx
                           .text:004021cf f3 ab                            rep stos %eax,%es:(%edi)
                           .text:004021d1 66 ab                            stos   %ax,%es:(%edi)
                           .text:004021d3 aa                               stos   %al,%es:(%edi)
                           .text:004021d4 ff d6                            call   *%esi
                           .text:004021d6 68 30 40 40 00                   push   $0x404030
                           .text:004021db e8 d1 01 00 00                   call   0x004023b1
                           .text:004021e0 59                               pop    %ecx
                           .text:004021e1 8b f8                            mov    %eax,%edi
                           .text:004021e3 53                               push   %ebx
                           .text:004021e4 ff d6                            call   *%esi
                           .text:004021e6 53                               push   %ebx
                           .text:004021e7 ff d6                            call   *%esi
                           .text:004021e9 3b fb                            cmp    %ebx,%edi
                           .text:004021eb 7e 36                            jle    0x00402223
                           .text:004021ed 53                               push   %ebx
                           .text:004021ee ff d6                            call   *%esi
                           .text:004021f0 80 bf 30 40 40 00 2f             cmpb   $0x2f,0x404030(%edi)
                           .text:004021f7 74 03                            je     0x004021fc
                           .text:004021f9 4f                               dec    %edi
                           .text:004021fa eb ed                            jmp    0x004021e9
                           .text:004021fc 53                               push   %ebx
                           .text:004021fd ff d6                            call   *%esi
                           .text:004021ff 47                               inc    %edi
                           .text:00402200 89 5d f8                         mov    %ebx,-0x8(%ebp)
                           .text:00402203 3b fb                            cmp    %ebx,%edi
                           .text:00402205 7e 1c                            jle    0x00402223
                           .text:00402207 53                               push   %ebx
                           .text:00402208 ff d6                            call   *%esi
                           .text:0040220a 8b 45 f8                         mov    -0x8(%ebp),%eax
                           .text:0040220d 8a 8c 07 30 40 40 00             mov    0x404030(%edi,%eax,1),%cl
                           .text:00402214 88 8c 05 f4 fe ff ff             mov    %cl,-0x10c(%ebp,%eax,1)
                           .text:0040221b 40                               inc    %eax
                           .text:0040221c 3b c7                            cmp    %edi,%eax
                           .text:0040221e 89 45 f8                         mov    %eax,-0x8(%ebp)
                           .text:00402221 7c e4                            jl     0x00402207
                           .text:00402223 8d 85 f4 fe ff ff                lea    -0x10c(%ebp),%eax
                           .text:00402229 50                               push   %eax
                           .text:0040222a e8 82 01 00 00                   call   0x004023b1
                           .text:0040222f 59                               pop    %ecx
                           .text:00402230 8b f8                            mov    %eax,%edi
                           .text:00402232 53                               push   %ebx
                           .text:00402233 ff d6                            call   *%esi
                           .text:00402235 3b fb                            cmp    %ebx,%edi
                           .text:00402237 7e 4f                            jle    0x00402288
                           .text:00402239 90                               nop
                           .text:0040223a 90                               nop
                           .text:0040223b 90                               nop
                           .text:0040223c 90                               nop
                           .text:0040223d 90                               nop
                           .text:0040223e 90                               nop
                           .text:0040223f 90                               nop
                           .text:00402240 90                               nop
                           .text:00402241 90                               nop
                           .text:00402242 90                               nop
                           .text:00402243 53                               push   %ebx
                           .text:00402244 ff d6                            call   *%esi
                           .text:00402246 80 bc 3d f4 fe ff ff 2e          cmpb   $0x2e,-0x10c(%ebp,%edi,1)
                           .text:0040224e 74 03                            je     0x00402253
                           .text:00402250 4f                               dec    %edi
                           .text:00402251 eb e2                            jmp    0x00402235
                           .text:00402253 53                               push   %ebx
                           .text:00402254 ff d6                            call   *%esi
                           .text:00402256 53                               push   %ebx
                           .text:00402257 88 9c 3d f4 fe ff ff             mov    %bl,-0x10c(%ebp,%edi,1)
                           .text:0040225e ff d6                            call   *%esi
                           .text:00402260 53                               push   %ebx
                           .text:00402261 c6 45 f8 2e                      movb   $0x2e,-0x8(%ebp)
                           .text:00402265 c6 45 f9 64                      movb   $0x64,-0x7(%ebp)
                           .text:00402269 c6 45 fa 6c                      movb   $0x6c,-0x6(%ebp)
                           .text:0040226d c6 45 fb 6c                      movb   $0x6c,-0x5(%ebp)
                           .text:00402271 88 5d fc                         mov    %bl,-0x4(%ebp)
                           .text:00402274 ff d6                            call   *%esi
                           .text:00402276 8d 45 f8                         lea    -0x8(%ebp),%eax
                           .text:00402279 50                               push   %eax
                           .text:0040227a 8d 85 f4 fe ff ff                lea    -0x10c(%ebp),%eax
                           .text:00402280 50                               push   %eax
                           .text:00402281 e8 09 01 00 00                   call   0x0040238f
                           .text:00402286 59                               pop    %ecx
                           .text:00402287 59                               pop    %ecx
                           .text:00402288 8d 85 f4 fe ff ff                lea    -0x10c(%ebp),%eax
                           .text:0040228e 50                               push   %eax
                           .text:0040228f e8 96 fc ff ff                   call   0x00401f2a
                           .text:00402294 59                               pop    %ecx
                           .text:00402295 5f                               pop    %edi
                           .text:00402296 5e                               pop    %esi
                           .text:00402297 5b                               pop    %ebx
                           .text:00402298 c9                               leave  
                           .text:00402299 c3                               ret    
                           .text:0040229a 55                               push   %ebp
                           .text:0040229b 8b ec                            mov    %esp,%ebp
                           .text:0040229d 53                               push   %ebx
                           .text:0040229e 56                               push   %esi
                           .text:0040229f ff 75 10                         pushl  0x10(%ebp)
                           .text:004022a2 6a 00                            push   $0x0
                           .text:004022a4 ff 75 08                         pushl  0x8(%ebp)
                           .text:004022a7 e8 4c 02 00 00                   call   0x004024f8
                           .text:004022ac 8b 35 1c 30 40 00                mov    0x40301c,%esi
                           .text:004022b2 83 c4 0c                         add    $0xc,%esp
                           .text:004022b5 6a 00                            push   $0x0
                           .text:004022b7 ff d6                            call   *%esi
                           .text:004022b9 ff 75 0c                         pushl  0xc(%ebp)
                           .text:004022bc e8 f0 00 00 00                   call   0x004023b1
                           .text:004022c1 59                               pop    %ecx
                           .text:004022c2 8b d8                            mov    %eax,%ebx
                           .text:004022c4 6a 00                            push   $0x0
                           .text:004022c6 ff d6                            call   *%esi
                           .text:004022c8 53                               push   %ebx
                           .text:004022c9 ff 75 0c                         pushl  0xc(%ebp)
                           .text:004022cc ff 75 08                         pushl  0x8(%ebp)
                           .text:004022cf e8 1e 02 00 00                   call   0x004024f2
                           .text:004022d4 83 c4 0c                         add    $0xc,%esp
                           .text:004022d7 5e                               pop    %esi
                           .text:004022d8 5b                               pop    %ebx
                           .text:004022d9 5d                               pop    %ebp
                           .text:004022da c3                               ret    
                           .text:004022db 55                               push   %ebp
                           .text:004022dc 8b ec                            mov    %esp,%ebp
                           .text:004022de 53                               push   %ebx
                           .text:004022df 56                               push   %esi
                           .text:004022e0 8b 35 1c 30 40 00                mov    0x40301c,%esi
                           .text:004022e6 6a 00                            push   $0x0
                           .text:004022e8 ff d6                            call   *%esi
                           .text:004022ea ff 75 08                         pushl  0x8(%ebp)
                           .text:004022ed e8 30 02 00 00                   call   0x00402522
                           .text:004022f2 59                               pop    %ecx
                           .text:004022f3 8b d8                            mov    %eax,%ebx
                           .text:004022f5 6a 00                            push   $0x0
                           .text:004022f7 ff d6                            call   *%esi
                           .text:004022f9 83 fb 10                         cmp    $0x10,%ebx
                           .text:004022fc 73 04                            jae    0x00402302
                           .text:004022fe 33 c0                            xor    %eax,%eax
                           .text:00402300 eb 33                            jmp    0x00402335
                           .text:00402302 57                               push   %edi
                           .text:00402303 90                               nop
                           .text:00402304 90                               nop
                           .text:00402305 90                               nop
                           .text:00402306 90                               nop
                           .text:00402307 90                               nop
                           .text:00402308 90                               nop
                           .text:00402309 90                               nop
                           .text:0040230a 90                               nop
                           .text:0040230b 90                               nop
                           .text:0040230c 90                               nop
                           .text:0040230d ff 75 08                         pushl  0x8(%ebp)
                           .text:00402310 e8 43 f6 ff ff                   call   0x00401958
                           .text:00402315 59                               pop    %ecx
                           .text:00402316 8b f8                            mov    %eax,%edi
                           .text:00402318 6a 00                            push   $0x0
                           .text:0040231a ff d6                            call   *%esi
                           .text:0040231c 53                               push   %ebx
                           .text:0040231d 57                               push   %edi
                           .text:0040231e 68 30 40 40 00                   push   $0x404030
                           .text:00402323 e8 72 ff ff ff                   call   0x0040229a
                           .text:00402328 57                               push   %edi
                           .text:00402329 e8 d6 01 00 00                   call   0x00402504
                           .text:0040232e 83 c4 10                         add    $0x10,%esp
                           .text:00402331 6a 01                            push   $0x1
                           .text:00402333 58                               pop    %eax
                           .text:00402334 5f                               pop    %edi
                           .text:00402335 5e                               pop    %esi
                           .text:00402336 5b                               pop    %ebx
                           .text:00402337 5d                               pop    %ebp
                           .text:00402338 c3                               ret    
                           .text:00402339 68 30 40 40 00                   push   $0x404030
                           .text:0040233e e8 98 ff ff ff                   call   0x004022db
                           .text:00402343 85 c0                            test   %eax,%eax
                           .text:00402345 59                               pop    %ecx
                           .text:00402346 74 26                            je     0x0040236e
                           .text:00402348 56                               push   %esi
                           .text:00402349 8b 35 1c 30 40 00                mov    0x40301c,%esi
                           .text:0040234f 6a 00                            push   $0x0
                           .text:00402351 ff d6                            call   *%esi
                           .text:00402353 e8 a7 00 00 00                   call   0x004023ff
                           .text:00402358 90                               nop
                           .text:00402359 90                               nop
                           .text:0040235a 90                               nop
                           .text:0040235b 90                               nop
                           .text:0040235c 90                               nop
                           .text:0040235d 90                               nop
                           .text:0040235e 90                               nop
                           .text:0040235f 90                               nop
                           .text:00402360 90                               nop
                           .text:00402361 90                               nop
                           .text:00402362 e8 35 fe ff ff                   call   0x0040219c
                           .text:00402367 6a 00                            push   $0x0
                           .text:00402369 ff d6                            call   *%esi
                           .text:0040236b 33 c0                            xor    %eax,%eax
                           .text:0040236d 5e                               pop    %esi
                           .text:0040236e c2 10 00                         ret    $0x10
                           .text:00402371 8b 4c 24 08                      mov    0x8(%esp),%ecx
                           .text:00402375 8b 44 24 04                      mov    0x4(%esp),%eax
                           .text:00402379 56                               push   %esi
                           .text:0040237a 8a 11                            mov    (%ecx),%dl
                           .text:0040237c 8d 70 01                         lea    0x1(%eax),%esi
                           .text:0040237f 88 10                            mov    %dl,(%eax)
                           .text:00402381 41                               inc    %ecx
                           .text:00402382 84 d2                            test   %dl,%dl
                           .text:00402384 74 07                            je     0x0040238d
                           .text:00402386 8a 11                            mov    (%ecx),%dl
                           .text:00402388 88 16                            mov    %dl,(%esi)
                           .text:0040238a 46                               inc    %esi
                           .text:0040238b eb f4                            jmp    0x00402381
                           .text:0040238d 5e                               pop    %esi
                           .text:0040238e c3                               ret    
                           .text:0040238f 8b 44 24 04                      mov    0x4(%esp),%eax
                           .text:00402393 8b c8                            mov    %eax,%ecx
                           .text:00402395 80 38 00                         cmpb   $0x0,(%eax)
                           .text:00402398 74 06                            je     0x004023a0
                           .text:0040239a 41                               inc    %ecx
                           .text:0040239b 80 39 00                         cmpb   $0x0,(%ecx)
                           .text:0040239e 75 fa                            jne    0x0040239a
                           .text:004023a0 8b 54 24 08                      mov    0x8(%esp),%edx
                           .text:004023a4 53                               push   %ebx
                           .text:004023a5 8a 1a                            mov    (%edx),%bl
                           .text:004023a7 88 19                            mov    %bl,(%ecx)
                           .text:004023a9 41                               inc    %ecx
                           .text:004023aa 42                               inc    %edx
                           .text:004023ab 84 db                            test   %bl,%bl
                           .text:004023ad 75 f6                            jne    0x004023a5
                           .text:004023af 5b                               pop    %ebx
                           .text:004023b0 c3                               ret    
                           .text:004023b1 8b 4c 24 04                      mov    0x4(%esp),%ecx
                           .text:004023b5 85 c9                            test   %ecx,%ecx
                           .text:004023b7 75 03                            jne    0x004023bc
                           .text:004023b9 33 c0                            xor    %eax,%eax
                           .text:004023bb c3                               ret    
                           .text:004023bc 33 c0                            xor    %eax,%eax
                           .text:004023be 8a 11                            mov    (%ecx),%dl
                           .text:004023c0 41                               inc    %ecx
                           .text:004023c1 84 d2                            test   %dl,%dl
                           .text:004023c3 74 f6                            je     0x004023bb
                           .text:004023c5 40                               inc    %eax
                           .text:004023c6 eb f6                            jmp    0x004023be
                           .text:004023c8 8b 54 24 08                      mov    0x8(%esp),%edx
                           .text:004023cc 56                               push   %esi
                           .text:004023cd 8b 74 24 08                      mov    0x8(%esp),%esi
                           .text:004023d1 0f b6 06                         movzbl (%esi),%eax
                           .text:004023d4 46                               inc    %esi
                           .text:004023d5 83 f8 41                         cmp    $0x41,%eax
                           .text:004023d8 7c 08                            jl     0x004023e2
                           .text:004023da 83 f8 5a                         cmp    $0x5a,%eax
                           .text:004023dd 7f 03                            jg     0x004023e2
                           .text:004023df 83 c0 20                         add    $0x20,%eax
                           .text:004023e2 0f b6 0a                         movzbl (%edx),%ecx
                           .text:004023e5 42                               inc    %edx
                           .text:004023e6 83 f9 41                         cmp    $0x41,%ecx
                           .text:004023e9 7c 08                            jl     0x004023f3
                           .text:004023eb 83 f9 5a                         cmp    $0x5a,%ecx
                           .text:004023ee 7f 03                            jg     0x004023f3
                           .text:004023f0 83 c1 20                         add    $0x20,%ecx
                           .text:004023f3 85 c0                            test   %eax,%eax
                           .text:004023f5 74 04                            je     0x004023fb
                           .text:004023f7 3b c1                            cmp    %ecx,%eax
                           .text:004023f9 74 d6                            je     0x004023d1
                           .text:004023fb 2b c1                            sub    %ecx,%eax
                           .text:004023fd 5e                               pop    %esi
                           .text:004023fe c3                               ret    
                           .text:004023ff 55                               push   %ebp
                           .text:00402400 8b ec                            mov    %esp,%ebp
                           .text:00402402 51                               push   %ecx
                           .text:00402403 51                               push   %ecx
                           .text:00402404 d9 e8                            fld1   
                           .text:00402406 53                               push   %ebx
                           .text:00402407 56                               push   %esi
                           .text:00402408 dd 5d f8                         fstpl  -0x8(%ebp)
                           .text:0040240b 57                               push   %edi
                           .text:0040240c dd 45 f8                         fldl   -0x8(%ebp)
                           .text:0040240f 51                               push   %ecx
                           .text:00402410 51                               push   %ecx
                           .text:00402411 dd 1c 24                         fstpl  (%esp)
                           .text:00402414 e8 15 01 00 00                   call   0x0040252e
                           .text:00402419 59                               pop    %ecx
                           .text:0040241a 59                               pop    %ecx
                           .text:0040241b e8 20 01 00 00                   call   0x00402540
                           .text:00402420 dd 45 f8                         fldl   -0x8(%ebp)
                           .text:00402423 dc 0d f0 30 40 00                fmull  0x4030f0
                           .text:00402429 8d 34 80                         lea    (%eax,%eax,4),%esi
                           .text:0040242c d1 e6                            shl    %esi
                           .text:0040242e e8 0d 01 00 00                   call   0x00402540
                           .text:00402433 dd 45 f8                         fldl   -0x8(%ebp)
                           .text:00402436 dc 1d e8 30 40 00                fcompl 0x4030e8
                           .text:0040243c 8b f8                            mov    %eax,%edi
                           .text:0040243e 6a 01                            push   $0x1
                           .text:00402440 5b                               pop    %ebx
                           .text:00402441 df e0                            fnstsw %ax
                           .text:00402443 9e                               sahf   
                           .text:00402444 76 41                            jbe    0x00402487
                           .text:00402446 8d 46 1f                         lea    0x1f(%esi),%eax
                           .text:00402449 3b c3                            cmp    %ebx,%eax
                           .text:0040244b 7e 14                            jle    0x00402461
                           .text:0040244d 8d 70 ff                         lea    -0x1(%eax),%esi
                           .text:00402450 8d 5e 01                         lea    0x1(%esi),%ebx
                           .text:00402453 68 b8 42 40 00                   push   $0x4042b8
                           .text:00402458 e8 cb 00 00 00                   call   0x00402528
                           .text:0040245d 4e                               dec    %esi
                           .text:0040245e 59                               pop    %ecx
                           .text:0040245f 75 f2                            jne    0x00402453
                           .text:00402461 68 b4 42 40 00                   push   $0x4042b4
                           .text:00402466 e8 bd 00 00 00                   call   0x00402528
                           .text:0040246b 8d 47 1f                         lea    0x1f(%edi),%eax
                           .text:0040246e 59                               pop    %ecx
                           .text:0040246f 3b d8                            cmp    %eax,%ebx
                           .text:00402471 7d 53                            jge    0x004024c6
                           .text:00402473 2b c3                            sub    %ebx,%eax
                           .text:00402475 8b f0                            mov    %eax,%esi
                           .text:00402477 68 b8 42 40 00                   push   $0x4042b8
                           .text:0040247c e8 a7 00 00 00                   call   0x00402528
                           .text:00402481 4e                               dec    %esi
                           .text:00402482 59                               pop    %ecx
                           .text:00402483 75 f2                            jne    0x00402477
                           .text:00402485 eb 3f                            jmp    0x004024c6
                           .text:00402487 8d 47 1f                         lea    0x1f(%edi),%eax
                           .text:0040248a 3b c3                            cmp    %ebx,%eax
                           .text:0040248c 7e 14                            jle    0x004024a2
                           .text:0040248e 8d 78 ff                         lea    -0x1(%eax),%edi
                           .text:00402491 8d 5f 01                         lea    0x1(%edi),%ebx
                           .text:00402494 68 b8 42 40 00                   push   $0x4042b8
                           .text:00402499 e8 8a 00 00 00                   call   0x00402528
                           .text:0040249e 4f                               dec    %edi
                           .text:0040249f 59                               pop    %ecx
                           .text:004024a0 75 f2                            jne    0x00402494
                           .text:004024a2 68 b4 42 40 00                   push   $0x4042b4
                           .text:004024a7 e8 7c 00 00 00                   call   0x00402528
                           .text:004024ac 8d 46 1f                         lea    0x1f(%esi),%eax
                           .text:004024af 59                               pop    %ecx
                           .text:004024b0 3b d8                            cmp    %eax,%ebx
                           .text:004024b2 7d 12                            jge    0x004024c6
                           .text:004024b4 2b c3                            sub    %ebx,%eax
                           .text:004024b6 8b f0                            mov    %eax,%esi
                           .text:004024b8 68 b8 42 40 00                   push   $0x4042b8
                           .text:004024bd e8 66 00 00 00                   call   0x00402528
                           .text:004024c2 4e                               dec    %esi
                           .text:004024c3 59                               pop    %ecx
                           .text:004024c4 75 f2                            jne    0x004024b8
                           .text:004024c6 68 b0 42 40 00                   push   $0x4042b0
                           .text:004024cb e8 58 00 00 00                   call   0x00402528
                           .text:004024d0 dd 45 f8                         fldl   -0x8(%ebp)
                           .text:004024d3 dc 25 e0 30 40 00                fsubl  0x4030e0
                           .text:004024d9 59                               pop    %ecx
                           .text:004024da dd 55 f8                         fstl   -0x8(%ebp)
                           .text:004024dd dc 1d d8 30 40 00                fcompl 0x4030d8
                           .text:004024e3 df e0                            fnstsw %ax
                           .text:004024e5 9e                               sahf   
                           .text:004024e6 0f 83 20 ff ff ff                jae    0x0040240c
                           .text:004024ec 5f                               pop    %edi
                           .text:004024ed 5e                               pop    %esi
                           .text:004024ee 5b                               pop    %ebx
                           .text:004024ef c9                               leave  
                           .text:004024f0 c3                               ret    
                           .text:004024f1 cc                               int3   
                           .text:004024f2 ff 25 b0 30 40 00                jmp    *0x4030b0
                           .text:004024f8 ff 25 a8 30 40 00                jmp    *0x4030a8
                           .text:004024fe ff 25 a4 30 40 00                jmp    *0x4030a4
                           .text:00402504 ff 25 a0 30 40 00                jmp    *0x4030a0
                           .text:0040250a ff 25 9c 30 40 00                jmp    *0x40309c
                           .text:00402510 ff 25 98 30 40 00                jmp    *0x403098
                           .text:00402516 ff 25 94 30 40 00                jmp    *0x403094
                           .text:0040251c ff 25 90 30 40 00                jmp    *0x403090
                           .text:00402522 ff 25 8c 30 40 00                jmp    *0x40308c
                           .text:00402528 ff 25 88 30 40 00                jmp    *0x403088
                           .text:0040252e ff 25 84 30 40 00                jmp    *0x403084
                           .text:00402534 cc                               int3   
                           .text:00402535 cc                               int3   
                           .text:00402536 cc                               int3   
                           .text:00402537 cc                               int3   
                           .text:00402538 cc                               int3   
                           .text:00402539 cc                               int3   
                           .text:0040253a cc                               int3   
                           .text:0040253b cc                               int3   
                           .text:0040253c cc                               int3   
                           .text:0040253d cc                               int3   
                           .text:0040253e cc                               int3   
                           .text:0040253f cc                               int3   
                           .text:00402540 ff 25 80 30 40 00                jmp    *0x403080
                           .text:00402546 55                               push   %ebp
                           .text:00402547 8b ec                            mov    %esp,%ebp
                           .text:00402549 6a ff                            push   $0xffffffff
                           .text:0040254b 68 f8 30 40 00                   push   $0x4030f8
                           .text:00402550 68 c6 26 40 00                   push   $0x4026c6
                           .text:00402555 64 a1 00 00 00 00                mov    %fs:0x0,%eax
                           .text:0040255b 50                               push   %eax
                           .text:0040255c 64 89 25 00 00 00 00             mov    %esp,%fs:0x0
                           .text:00402563 83 ec 68                         sub    $0x68,%esp
                           .text:00402566 53                               push   %ebx
                           .text:00402567 56                               push   %esi
                           .text:00402568 57                               push   %edi
                           .text:00402569 89 65 e8                         mov    %esp,-0x18(%ebp)
                           .text:0040256c 33 db                            xor    %ebx,%ebx
                           .text:0040256e 89 5d fc                         mov    %ebx,-0x4(%ebp)
                           .text:00402571 6a 02                            push   $0x2
                           .text:00402573 ff 15 5c 30 40 00                call   *0x40305c
                           .text:00402579 59                               pop    %ecx
                           .text:0040257a 83 0d d8 43 40 00 ff             orl    $0xffffffff,0x4043d8
                           .text:00402581 83 0d dc 43 40 00 ff             orl    $0xffffffff,0x4043dc
                           .text:00402588 ff 15 58 30 40 00                call   *0x403058
                           .text:0040258e 8b 0d d4 43 40 00                mov    0x4043d4,%ecx
                           .text:00402594 89 08                            mov    %ecx,(%eax)
                           .text:00402596 ff 15 54 30 40 00                call   *0x403054
                           .text:0040259c 8b 0d d0 43 40 00                mov    0x4043d0,%ecx
                           .text:004025a2 89 08                            mov    %ecx,(%eax)
                           .text:004025a4 a1 50 30 40 00                   mov    0x403050,%eax
                           .text:004025a9 8b 00                            mov    (%eax),%eax
                           .text:004025ab a3 e0 43 40 00                   mov    %eax,0x4043e0
                           .text:004025b0 e8 10 01 00 00                   call   0x004026c5
                           .text:004025b5 39 1d c0 42 40 00                cmp    %ebx,0x4042c0
                           .text:004025bb 75 0c                            jne    0x004025c9
                           .text:004025bd 68 c2 26 40 00                   push   $0x4026c2
                           .text:004025c2 ff 15 60 30 40 00                call   *0x403060
                           .text:004025c8 59                               pop    %ecx
                           .text:004025c9 e8 e2 00 00 00                   call   0x004026b0
                           .text:004025ce 68 0c 40 40 00                   push   $0x40400c
                           .text:004025d3 68 08 40 40 00                   push   $0x404008
                           .text:004025d8 e8 cd 00 00 00                   call   0x004026aa
                           .text:004025dd a1 cc 43 40 00                   mov    0x4043cc,%eax
                           .text:004025e2 89 45 94                         mov    %eax,-0x6c(%ebp)
                           .text:004025e5 8d 45 94                         lea    -0x6c(%ebp),%eax
                           .text:004025e8 50                               push   %eax
                           .text:004025e9 ff 35 c8 43 40 00                pushl  0x4043c8
                           .text:004025ef 8d 45 9c                         lea    -0x64(%ebp),%eax
                           .text:004025f2 50                               push   %eax
                           .text:004025f3 8d 45 90                         lea    -0x70(%ebp),%eax
                           .text:004025f6 50                               push   %eax
                           .text:004025f7 8d 45 a0                         lea    -0x60(%ebp),%eax
                           .text:004025fa 50                               push   %eax
                           .text:004025fb ff 15 6c 30 40 00                call   *0x40306c
                           .text:00402601 68 04 40 40 00                   push   $0x404004
                           .text:00402606 68 00 40 40 00                   push   $0x404000
                           .text:0040260b e8 9a 00 00 00                   call   0x004026aa
                           .text:00402610 83 c4 24                         add    $0x24,%esp
                           .text:00402613 a1 70 30 40 00                   mov    0x403070,%eax
                           .text:00402618 8b 30                            mov    (%eax),%esi
                           .text:0040261a 89 75 8c                         mov    %esi,-0x74(%ebp)
                           .text:0040261d 80 3e 22                         cmpb   $0x22,(%esi)
                           .text:00402620 75 3a                            jne    0x0040265c
                           .text:00402622 46                               inc    %esi
                           .text:00402623 89 75 8c                         mov    %esi,-0x74(%ebp)
                           .text:00402626 8a 06                            mov    (%esi),%al
                           .text:00402628 3a c3                            cmp    %bl,%al
                           .text:0040262a 74 04                            je     0x00402630
                           .text:0040262c 3c 22                            cmp    $0x22,%al
                           .text:0040262e 75 f2                            jne    0x00402622
                           .text:00402630 80 3e 22                         cmpb   $0x22,(%esi)
                           .text:00402633 75 04                            jne    0x00402639
                           .text:00402635 46                               inc    %esi
                           .text:00402636 89 75 8c                         mov    %esi,-0x74(%ebp)
                           .text:00402639 8a 06                            mov    (%esi),%al
                           .text:0040263b 3a c3                            cmp    %bl,%al
                           .text:0040263d 74 04                            je     0x00402643
                           .text:0040263f 3c 20                            cmp    $0x20,%al
                           .text:00402641 76 f2                            jbe    0x00402635
                           .text:00402643 89 5d d0                         mov    %ebx,-0x30(%ebp)
                           .text:00402646 8d 45 a4                         lea    -0x5c(%ebp),%eax
                           .text:00402649 50                               push   %eax
                           .text:0040264a ff 15 44 30 40 00                call   *0x403044
                           .text:00402650 f6 45 d0 01                      testb  $0x1,-0x30(%ebp)
                           .text:00402654 74 11                            je     0x00402667
                           .text:00402656 0f b7 45 d4                      movzwl -0x2c(%ebp),%eax
                           .text:0040265a eb 0e                            jmp    0x0040266a
                           .text:0040265c 80 3e 20                         cmpb   $0x20,(%esi)
                           .text:0040265f 76 d8                            jbe    0x00402639
                           .text:00402661 46                               inc    %esi
                           .text:00402662 89 75 8c                         mov    %esi,-0x74(%ebp)
                           .text:00402665 eb f5                            jmp    0x0040265c
                           .text:00402667 6a 0a                            push   $0xa
                           .text:00402669 58                               pop    %eax
                           .text:0040266a 50                               push   %eax
                           .text:0040266b 56                               push   %esi
                           .text:0040266c 53                               push   %ebx
                           .text:0040266d 53                               push   %ebx
                           .text:0040266e ff 15 40 30 40 00                call   *0x403040
                           .text:00402674 50                               push   %eax
                           .text:00402675 e8 bf fc ff ff                   call   0x00402339
                           .text:0040267a 89 45 98                         mov    %eax,-0x68(%ebp)
                           .text:0040267d 50                               push   %eax
                           .text:0040267e ff 15 74 30 40 00                call   *0x403074
                           .text:00402684 8b 45 ec                         mov    -0x14(%ebp),%eax
                           .text:00402687 8b 08                            mov    (%eax),%ecx
                           .text:00402689 8b 09                            mov    (%ecx),%ecx
                           .text:0040268b 89 4d 88                         mov    %ecx,-0x78(%ebp)
                           .text:0040268e 50                               push   %eax
                           .text:0040268f 51                               push   %ecx
                           .text:00402690 e8 0f 00 00 00                   call   0x004026a4
                           .text:00402695 59                               pop    %ecx
                           .text:00402696 59                               pop    %ecx
                           .text:00402697 c3                               ret    
                           .text:00402698 8b 65 e8                         mov    -0x18(%ebp),%esp
                           .text:0040269b ff 75 88                         pushl  -0x78(%ebp)
                           .text:0040269e ff 15 7c 30 40 00                call   *0x40307c
                           .text:004026a4 ff 25 78 30 40 00                jmp    *0x403078
                           .text:004026aa ff 25 68 30 40 00                jmp    *0x403068
                           .text:004026b0 68 00 00 03 00                   push   $0x30000
                           .text:004026b5 68 00 00 01 00                   push   $0x10000
                           .text:004026ba e8 0d 00 00 00                   call   0x004026cc
                           .text:004026bf 59                               pop    %ecx
                           .text:004026c0 59                               pop    %ecx
                           .text:004026c1 c3                               ret    
                           .text:004026c2 33 c0                            xor    %eax,%eax
                           .text:004026c4 c3                               ret    
                           .text:004026c5 c3                               ret    
                           .text:004026c6 ff 25 ac 30 40 00                jmp    *0x4030ac
                           .text:004026cc ff 25 64 30 40 00                jmp    *0x403064
                          .rdata:00403000 9a                               0x9a 
                          .rdata:00403001 34                               0x34 '4'
                          .rdata:00403002 00                               0x00 
                          .rdata:00403003 00                               0x00 
                          .rdata:00403004 8e                               0x8e 
                          .rdata:00403005 34                               0x34 '4'
                          .rdata:00403006 00                               0x00 
                          .rdata:00403007 00                               0x00 
                          .rdata:00403008 7e                               0x7e '~'
                          .rdata:00403009 34                               0x34 '4'
                          .rdata:0040300a 00                               0x00 
                          .rdata:0040300b 00                               0x00 
                          .rdata:0040300c 6e                               0x6e 'n'
                          .rdata:0040300d 34                               0x34 '4'
                          .rdata:0040300e 00                               0x00 
                          .rdata:0040300f 00                               0x00 
                          .rdata:00403010 5c                               0x5c '\'
                          .rdata:00403011 34                               0x34 '4'
                          .rdata:00403012 00                               0x00 
                          .rdata:00403013 00                               0x00 
                          .rdata:00403014 4e                               0x4e 'N'
                          .rdata:00403015 34                               0x34 '4'
                          .rdata:00403016 00                               0x00 
                          .rdata:00403017 00                               0x00 
                          .rdata:00403018 3c                               0x3c '<'
                          .rdata:00403019 34                               0x34 '4'
                          .rdata:0040301a 00                               0x00 
                          .rdata:0040301b 00                               0x00 
                          .rdata:0040301c 34                               0x34 '4'
                          .rdata:0040301d 34                               0x34 '4'
                          .rdata:0040301e 00                               0x00 
                          .rdata:0040301f 00                               0x00 
                          .rdata:00403020 24                               0x24 '$'
                          .rdata:00403021 34                               0x34 '4'
                          .rdata:00403022 00                               0x00 
                          .rdata:00403023 00                               0x00 
                          .rdata:00403024 12                               0x12 
                          .rdata:00403025 34                               0x34 '4'
                          .rdata:00403026 00                               0x00 
                          .rdata:00403027 00                               0x00 
                          .rdata:00403028 06                               0x06 
                          .rdata:00403029 34                               0x34 '4'
                          .rdata:0040302a 00                               0x00 
                          .rdata:0040302b 00                               0x00 
                          .rdata:0040302c b6                               0xb6 
                          .rdata:0040302d 34                               0x34 '4'
                          .rdata:0040302e 00                               0x00 
                          .rdata:0040302f 00                               0x00 
                          .rdata:00403030 c2                               0xc2 
                          .rdata:00403031 34                               0x34 '4'
                          .rdata:00403032 00                               0x00 
                          .rdata:00403033 00                               0x00 
                          .rdata:00403034 d0                               0xd0 
                          .rdata:00403035 34                               0x34 '4'
                          .rdata:00403036 00                               0x00 
                          .rdata:00403037 00                               0x00 
                          .rdata:00403038 dc                               0xdc 
                          .rdata:00403039 34                               0x34 '4'
                          .rdata:0040303a 00                               0x00 
                          .rdata:0040303b 00                               0x00 
                          .rdata:0040303c ea                               0xea 
                          .rdata:0040303d 34                               0x34 '4'
                          .rdata:0040303e 00                               0x00 
                          .rdata:0040303f 00                               0x00 
                          .rdata:00403040 fc                               0xfc 
                          .rdata:00403041 34                               0x34 '4'
                          .rdata:00403042 00                               0x00 
                          .rdata:00403043 00                               0x00 
                          .rdata:00403044 10                               0x10 
                          .rdata:00403045 35                               0x35 '5'
                          .rdata:00403046 00                               0x00 
                          .rdata:00403047 00                               0x00 
                          .rdata:00403048 a8                               0xa8 
                          .rdata:00403049 34                               0x34 '4'
                          .rdata:0040304a 00                               0x00 
                          .rdata:0040304b 00                               0x00 
                          .rdata:0040304c 00                               0x00 
                          .rdata:0040304d 00                               0x00 
                          .rdata:0040304e 00                               0x00 
                          .rdata:0040304f 00                               0x00 
                          .rdata:00403050 1e                               0x1e 
                          .rdata:00403051 33                               0x33 '3'
                          .rdata:00403052 00                               0x00 
                          .rdata:00403053 00                               0x00 
                          .rdata:00403054 2e                               0x2e '.'
                          .rdata:00403055 33                               0x33 '3'
                          .rdata:00403056 00                               0x00 
                          .rdata:00403057 00                               0x00 
                          .rdata:00403058 3e                               0x3e '>'
                          .rdata:00403059 33                               0x33 '3'
                          .rdata:0040305a 00                               0x00 
                          .rdata:0040305b 00                               0x00 
                          .rdata:0040305c 4c                               0x4c 'L'
                          .rdata:0040305d 33                               0x33 '3'
                          .rdata:0040305e 00                               0x00 
                          .rdata:0040305f 00                               0x00 
                          .rdata:00403060 0a                               0x0a '
'
                          .rdata:00403061 33                               0x33 '3'
                          .rdata:00403062 00                               0x00 
                          .rdata:00403063 00                               0x00 
                          .rdata:00403064 72                               0x72 'r'
                          .rdata:00403065 33                               0x33 '3'
                          .rdata:00403066 00                               0x00 
                          .rdata:00403067 00                               0x00 
                          .rdata:00403068 fe                               0xfe 
                          .rdata:00403069 32                               0x32 '2'
                          .rdata:0040306a 00                               0x00 
                          .rdata:0040306b 00                               0x00 
                          .rdata:0040306c ee                               0xee 
                          .rdata:0040306d 32                               0x32 '2'
                          .rdata:0040306e 00                               0x00 
                          .rdata:0040306f 00                               0x00 
                          .rdata:00403070 e4                               0xe4 
                          .rdata:00403071 32                               0x32 '2'
                          .rdata:00403072 00                               0x00 
                          .rdata:00403073 00                               0x00 
                          .rdata:00403074 dc                               0xdc 
                          .rdata:00403075 32                               0x32 '2'
                          .rdata:00403076 00                               0x00 
                          .rdata:00403077 00                               0x00 
                          .rdata:00403078 ce                               0xce 
                          .rdata:00403079 32                               0x32 '2'
                          .rdata:0040307a 00                               0x00 
                          .rdata:0040307b 00                               0x00 
                          .rdata:0040307c c6                               0xc6 
                          .rdata:0040307d 32                               0x32 '2'
                          .rdata:0040307e 00                               0x00 
                          .rdata:0040307f 00                               0x00 
                          .rdata:00403080 b2                               0xb2 
                          .rdata:00403081 32                               0x32 '2'
                          .rdata:00403082 00                               0x00 
                          .rdata:00403083 00                               0x00 
                          .rdata:00403084 aa                               0xaa 
                          .rdata:00403085 32                               0x32 '2'
                          .rdata:00403086 00                               0x00 
                          .rdata:00403087 00                               0x00 
                          .rdata:00403088 a0                               0xa0 
                          .rdata:00403089 32                               0x32 '2'
                          .rdata:0040308a 00                               0x00 
                          .rdata:0040308b 00                               0x00 
                          .rdata:0040308c 96                               0x96 
                          .rdata:0040308d 32                               0x32 '2'
                          .rdata:0040308e 00                               0x00 
                          .rdata:0040308f 00                               0x00 
                          .rdata:00403090 8c                               0x8c 
                          .rdata:00403091 32                               0x32 '2'
                          .rdata:00403092 00                               0x00 
                          .rdata:00403093 00                               0x00 
                          .rdata:00403094 7c                               0x7c '|'
                          .rdata:00403095 32                               0x32 '2'
                          .rdata:00403096 00                               0x00 
                          .rdata:00403097 00                               0x00 
                          .rdata:00403098 6c                               0x6c 'l'
                          .rdata:00403099 32                               0x32 '2'
                          .rdata:0040309a 00                               0x00 
                          .rdata:0040309b 00                               0x00 
                          .rdata:0040309c 62                               0x62 'b'
                          .rdata:0040309d 32                               0x32 '2'
                          .rdata:0040309e 00                               0x00 
                          .rdata:0040309f 00                               0x00 
                          .rdata:004030a0 5a                               0x5a 'Z'
                          .rdata:004030a1 32                               0x32 '2'
                          .rdata:004030a2 00                               0x00 
                          .rdata:004030a3 00                               0x00 
                          .rdata:004030a4 50                               0x50 'P'
                          .rdata:004030a5 32                               0x32 '2'
                          .rdata:004030a6 00                               0x00 
                          .rdata:004030a7 00                               0x00 
                          .rdata:004030a8 46                               0x46 'F'
                          .rdata:004030a9 32                               0x32 '2'
                          .rdata:004030aa 00                               0x00 
                          .rdata:004030ab 00                               0x00 
                          .rdata:004030ac 5e                               0x5e '^'
                          .rdata:004030ad 33                               0x33 '3'
                          .rdata:004030ae 00                               0x00 
                          .rdata:004030af 00                               0x00 
                          .rdata:004030b0 3c                               0x3c '<'
                          .rdata:004030b1 32                               0x32 '2'
                          .rdata:004030b2 00                               0x00 
                          .rdata:004030b3 00                               0x00 
                          .rdata:004030b4 00                               0x00 
                          .rdata:004030b5 00                               0x00 
                          .rdata:004030b6 00                               0x00 
                          .rdata:004030b7 00                               0x00 
                          .rdata:004030b8 d6                               0xd6 
                          .rdata:004030b9 33                               0x33 '3'
                          .rdata:004030ba 00                               0x00 
                          .rdata:004030bb 00                               0x00 
                          .rdata:004030bc c2                               0xc2 
                          .rdata:004030bd 33                               0x33 '3'
                          .rdata:004030be 00                               0x00 
                          .rdata:004030bf 00                               0x00 
                          .rdata:004030c0 ac                               0xac 
                          .rdata:004030c1 33                               0x33 '3'
                          .rdata:004030c2 00                               0x00 
                          .rdata:004030c3 00                               0x00 
                          .rdata:004030c4 ea                               0xea 
                          .rdata:004030c5 33                               0x33 '3'
                          .rdata:004030c6 00                               0x00 
                          .rdata:004030c7 00                               0x00 
                          .rdata:004030c8 00                               0x00 
                          .rdata:004030c9 00                               0x00 
                          .rdata:004030ca 00                               0x00 
                          .rdata:004030cb 00                               0x00 
                          .rdata:004030cc 80                               0x80 
                          .rdata:004030cd 33                               0x33 '3'
                          .rdata:004030ce 00                               0x00 
                          .rdata:004030cf 00                               0x00 
                          .rdata:004030d0 00                               0x00 
                          .rdata:004030d1 00                               0x00 
                          .rdata:004030d2 00                               0x00 
                          .rdata:004030d3 00                               0x00 
                          .rdata:004030d4 00                               0x00 
                          .rdata:004030d5 00                               0x00 
                          .rdata:004030d6 00                               0x00 
                          .rdata:004030d7 00                               0x00 
                          .rdata:004030d8 00                               0x00 
                          .rdata:004030d9 00                               0x00 
                          .rdata:004030da 00                               0x00 
                          .rdata:004030db 00                               0x00 
                          .rdata:004030dc 00                               0x00 
                          .rdata:004030dd 00                               0x00 
                          .rdata:004030de f0                               0xf0 
                          .rdata:004030df bf                               0xbf 
                          .rdata:004030e0 9a                               0x9a 
                          .rdata:004030e1 99                               0x99 
                          .rdata:004030e2 99                               0x99 
                          .rdata:004030e3 99                               0x99 
                          .rdata:004030e4 99                               0x99 
                          .rdata:004030e5 99                               0x99 
                          .rdata:004030e6 b9                               0xb9 
                          .rdata:004030e7 3f                               0x3f '?'
                          .rdata:004030e8 00                               0x00 
                          .rdata:004030e9 00                               0x00 
                          .rdata:004030ea 00                               0x00 
                          .rdata:004030eb 00                               0x00 
                          .rdata:004030ec 00                               0x00 
                          .rdata:004030ed 00                               0x00 
                          .rdata:004030ee 00                               0x00 
                          .rdata:004030ef 00                               0x00 
                          .rdata:004030f0 00                               0x00 
                          .rdata:004030f1 00                               0x00 
                          .rdata:004030f2 00                               0x00 
                          .rdata:004030f3 00                               0x00 
                          .rdata:004030f4 00                               0x00 
                          .rdata:004030f5 00                               0x00 
                          .rdata:004030f6 3e                               0x3e '>'
                          .rdata:004030f7 40                               0x40 '@'
                          .rdata:004030f8 ff                               0xff 
                          .rdata:004030f9 ff                               0xff 
                          .rdata:004030fa ff                               0xff 
                          .rdata:004030fb ff                               0xff 
                          .rdata:004030fc 84                               0x84 
                          .rdata:004030fd 26                               0x26 '&'
                          .rdata:004030fe 40                               0x40 '@'
                          .rdata:004030ff 00                               0x00 
                          .rdata:00403100 98                               0x98 
                          .rdata:00403101 26                               0x26 '&'
                          .rdata:00403102 40                               0x40 '@'
                          .rdata:00403103 00                               0x00 
                          .rdata:00403104 b8                               0xb8 
                          .rdata:00403105 31                               0x31 '1'
                          .rdata:00403106 00                               0x00 
                          .rdata:00403107 00                               0x00 
                          .rdata:00403108 00                               0x00 
                          .rdata:00403109 00                               0x00 
                          .rdata:0040310a 00                               0x00 
                          .rdata:0040310b 00                               0x00 
                          .rdata:0040310c 00                               0x00 
                          .rdata:0040310d 00                               0x00 
                          .rdata:0040310e 00                               0x00 
                          .rdata:0040310f 00                               0x00 
                          .rdata:00403110 ba                               0xba 
                          .rdata:00403111 32                               0x32 '2'
                          .rdata:00403112 00                               0x00 
                          .rdata:00403113 00                               0x00 
                          .rdata:00403114 50                               0x50 'P'
                          .rdata:00403115 30                               0x30 '0'
                          .rdata:00403116 00                               0x00 
                          .rdata:00403117 00                               0x00 
                          .rdata:00403118 34                               0x34 '4'
                          .rdata:00403119 32                               0x32 '2'
                          .rdata:0040311a 00                               0x00 
                          .rdata:0040311b 00                               0x00 
                          .rdata:0040311c 00                               0x00 
                          .rdata:0040311d 00                               0x00 
                          .rdata:0040311e 00                               0x00 
                          .rdata:0040311f 00                               0x00 
                          .rdata:00403120 00                               0x00 
                          .rdata:00403121 00                               0x00 
                          .rdata:00403122 00                               0x00 
                          .rdata:00403123 00                               0x00 
                          .rdata:00403124 9e                               0x9e 
                          .rdata:00403125 33                               0x33 '3'
                          .rdata:00403126 00                               0x00 
                          .rdata:00403127 00                               0x00 
                          .rdata:00403128 cc                               0xcc 
                          .rdata:00403129 30                               0x30 '0'
                          .rdata:0040312a 00                               0x00 
                          .rdata:0040312b 00                               0x00 
                          .rdata:0040312c 20                               0x20 ' '
                          .rdata:0040312d 32                               0x32 '2'
                          .rdata:0040312e 00                               0x00 
                          .rdata:0040312f 00                               0x00 
                          .rdata:00403130 00                               0x00 
                          .rdata:00403131 00                               0x00 
                          .rdata:00403132 00                               0x00 
                          .rdata:00403133 00                               0x00 
                          .rdata:00403134 00                               0x00 
                          .rdata:00403135 00                               0x00 
                          .rdata:00403136 00                               0x00 
                          .rdata:00403137 00                               0x00 
                          .rdata:00403138 fa                               0xfa 
                          .rdata:00403139 33                               0x33 '3'
                          .rdata:0040313a 00                               0x00 
                          .rdata:0040313b 00                               0x00 
                          .rdata:0040313c b8                               0xb8 
                          .rdata:0040313d 30                               0x30 '0'
                          .rdata:0040313e 00                               0x00 
                          .rdata:0040313f 00                               0x00 
                          .rdata:00403140 68                               0x68 'h'
                          .rdata:00403141 31                               0x31 '1'
                          .rdata:00403142 00                               0x00 
                          .rdata:00403143 00                               0x00 
                          .rdata:00403144 00                               0x00 
                          .rdata:00403145 00                               0x00 
                          .rdata:00403146 00                               0x00 
                          .rdata:00403147 00                               0x00 
                          .rdata:00403148 00                               0x00 
                          .rdata:00403149 00                               0x00 
                          .rdata:0040314a 00                               0x00 
                          .rdata:0040314b 00                               0x00 
                          .rdata:0040314c 22                               0x22 '"'
                          .rdata:0040314d 35                               0x35 '5'
                          .rdata:0040314e 00                               0x00 
                          .rdata:0040314f 00                               0x00 
                          .rdata:00403150 00                               0x00 
                          .rdata:00403151 30                               0x30 '0'
                          .rdata:00403152 00                               0x00 
                          .rdata:00403153 00                               0x00 
                          .rdata:00403154 00                               0x00 
                          .rdata:00403155 00                               0x00 
                          .rdata:00403156 00                               0x00 
                          .rdata:00403157 00                               0x00 
                          .rdata:00403158 00                               0x00 
                          .rdata:00403159 00                               0x00 
                          .rdata:0040315a 00                               0x00 
                          .rdata:0040315b 00                               0x00 
                          .rdata:0040315c 00                               0x00 
                          .rdata:0040315d 00                               0x00 
                          .rdata:0040315e 00                               0x00 
                          .rdata:0040315f 00                               0x00 
                          .rdata:00403160 00                               0x00 
                          .rdata:00403161 00                               0x00 
                          .rdata:00403162 00                               0x00 
                          .rdata:00403163 00                               0x00 
                          .rdata:00403164 00                               0x00 
                          .rdata:00403165 00                               0x00 
                          .rdata:00403166 00                               0x00 
                          .rdata:00403167 00                               0x00 
                          .rdata:00403168 9a                               0x9a 
                          .rdata:00403169 34                               0x34 '4'
                          .rdata:0040316a 00                               0x00 
                          .rdata:0040316b 00                               0x00 
                          .rdata:0040316c 8e                               0x8e 
                          .rdata:0040316d 34                               0x34 '4'
                          .rdata:0040316e 00                               0x00 
                          .rdata:0040316f 00                               0x00 
                          .rdata:00403170 7e                               0x7e '~'
                          .rdata:00403171 34                               0x34 '4'
                          .rdata:00403172 00                               0x00 
                          .rdata:00403173 00                               0x00 
                          .rdata:00403174 6e                               0x6e 'n'
                          .rdata:00403175 34                               0x34 '4'
                          .rdata:00403176 00                               0x00 
                          .rdata:00403177 00                               0x00 
                          .rdata:00403178 5c                               0x5c '\'
                          .rdata:00403179 34                               0x34 '4'
                          .rdata:0040317a 00                               0x00 
                          .rdata:0040317b 00                               0x00 
                          .rdata:0040317c 4e                               0x4e 'N'
                          .rdata:0040317d 34                               0x34 '4'
                          .rdata:0040317e 00                               0x00 
                          .rdata:0040317f 00                               0x00 
                          .rdata:00403180 3c                               0x3c '<'
                          .rdata:00403181 34                               0x34 '4'
                          .rdata:00403182 00                               0x00 
                          .rdata:00403183 00                               0x00 
                          .rdata:00403184 34                               0x34 '4'
                          .rdata:00403185 34                               0x34 '4'
                          .rdata:00403186 00                               0x00 
                          .rdata:00403187 00                               0x00 
                          .rdata:00403188 24                               0x24 '$'
                          .rdata:00403189 34                               0x34 '4'
                          .rdata:0040318a 00                               0x00 
                          .rdata:0040318b 00                               0x00 
                          .rdata:0040318c 12                               0x12 
                          .rdata:0040318d 34                               0x34 '4'
                          .rdata:0040318e 00                               0x00 
                          .rdata:0040318f 00                               0x00 
                          .rdata:00403190 06                               0x06 
                          .rdata:00403191 34                               0x34 '4'
                          .rdata:00403192 00                               0x00 
                          .rdata:00403193 00                               0x00 
                          .rdata:00403194 b6                               0xb6 
                          .rdata:00403195 34                               0x34 '4'
                          .rdata:00403196 00                               0x00 
                          .rdata:00403197 00                               0x00 
                          .rdata:00403198 c2                               0xc2 
                          .rdata:00403199 34                               0x34 '4'
                          .rdata:0040319a 00                               0x00 
                          .rdata:0040319b 00                               0x00 
                          .rdata:0040319c d0                               0xd0 
                          .rdata:0040319d 34                               0x34 '4'
                          .rdata:0040319e 00                               0x00 
                          .rdata:0040319f 00                               0x00 
                          .rdata:004031a0 dc                               0xdc 
                          .rdata:004031a1 34                               0x34 '4'
                          .rdata:004031a2 00                               0x00 
                          .rdata:004031a3 00                               0x00 
                          .rdata:004031a4 ea                               0xea 
                          .rdata:004031a5 34                               0x34 '4'
                          .rdata:004031a6 00                               0x00 
                          .rdata:004031a7 00                               0x00 
                          .rdata:004031a8 fc                               0xfc 
                          .rdata:004031a9 34                               0x34 '4'
                          .rdata:004031aa 00                               0x00 
                          .rdata:004031ab 00                               0x00 
                          .rdata:004031ac 10                               0x10 
                          .rdata:004031ad 35                               0x35 '5'
                          .rdata:004031ae 00                               0x00 
                          .rdata:004031af 00                               0x00 
                          .rdata:004031b0 a8                               0xa8 
                          .rdata:004031b1 34                               0x34 '4'
                          .rdata:004031b2 00                               0x00 
                          .rdata:004031b3 00                               0x00 
                          .rdata:004031b4 00                               0x00 
                          .rdata:004031b5 00                               0x00 
                          .rdata:004031b6 00                               0x00 
                          .rdata:004031b7 00                               0x00 
                          .rdata:004031b8 1e                               0x1e 
                          .rdata:004031b9 33                               0x33 '3'
                          .rdata:004031ba 00                               0x00 
                          .rdata:004031bb 00                               0x00 
                          .rdata:004031bc 2e                               0x2e '.'
                          .rdata:004031bd 33                               0x33 '3'
                          .rdata:004031be 00                               0x00 
                          .rdata:004031bf 00                               0x00 
                          .rdata:004031c0 3e                               0x3e '>'
                          .rdata:004031c1 33                               0x33 '3'
                          .rdata:004031c2 00                               0x00 
                          .rdata:004031c3 00                               0x00 
                          .rdata:004031c4 4c                               0x4c 'L'
                          .rdata:004031c5 33                               0x33 '3'
                          .rdata:004031c6 00                               0x00 
                          .rdata:004031c7 00                               0x00 
                          .rdata:004031c8 0a                               0x0a '
'
                          .rdata:004031c9 33                               0x33 '3'
                          .rdata:004031ca 00                               0x00 
                          .rdata:004031cb 00                               0x00 
                          .rdata:004031cc 72                               0x72 'r'
                          .rdata:004031cd 33                               0x33 '3'
                          .rdata:004031ce 00                               0x00 
                          .rdata:004031cf 00                               0x00 
                          .rdata:004031d0 fe                               0xfe 
                          .rdata:004031d1 32                               0x32 '2'
                          .rdata:004031d2 00                               0x00 
                          .rdata:004031d3 00                               0x00 
                          .rdata:004031d4 ee                               0xee 
                          .rdata:004031d5 32                               0x32 '2'
                          .rdata:004031d6 00                               0x00 
                          .rdata:004031d7 00                               0x00 
                          .rdata:004031d8 e4                               0xe4 
                          .rdata:004031d9 32                               0x32 '2'
                          .rdata:004031da 00                               0x00 
                          .rdata:004031db 00                               0x00 
                          .rdata:004031dc dc                               0xdc 
                          .rdata:004031dd 32                               0x32 '2'
                          .rdata:004031de 00                               0x00 
                          .rdata:004031df 00                               0x00 
                          .rdata:004031e0 ce                               0xce 
                          .rdata:004031e1 32                               0x32 '2'
                          .rdata:004031e2 00                               0x00 
                          .rdata:004031e3 00                               0x00 
                          .rdata:004031e4 c6                               0xc6 
                          .rdata:004031e5 32                               0x32 '2'
                          .rdata:004031e6 00                               0x00 
                          .rdata:004031e7 00                               0x00 
                          .rdata:004031e8 b2                               0xb2 
                          .rdata:004031e9 32                               0x32 '2'
                          .rdata:004031ea 00                               0x00 
                          .rdata:004031eb 00                               0x00 
                          .rdata:004031ec aa                               0xaa 
                          .rdata:004031ed 32                               0x32 '2'
                          .rdata:004031ee 00                               0x00 
                          .rdata:004031ef 00                               0x00 
                          .rdata:004031f0 a0                               0xa0 
                          .rdata:004031f1 32                               0x32 '2'
                          .rdata:004031f2 00                               0x00 
                          .rdata:004031f3 00                               0x00 
                          .rdata:004031f4 96                               0x96 
                          .rdata:004031f5 32                               0x32 '2'
                          .rdata:004031f6 00                               0x00 
                          .rdata:004031f7 00                               0x00 
                          .rdata:004031f8 8c                               0x8c 
                          .rdata:004031f9 32                               0x32 '2'
                          .rdata:004031fa 00                               0x00 
                          .rdata:004031fb 00                               0x00 
                          .rdata:004031fc 7c                               0x7c '|'
                          .rdata:004031fd 32                               0x32 '2'
                          .rdata:004031fe 00                               0x00 
                          .rdata:004031ff 00                               0x00 
                          .rdata:00403200 6c                               0x6c 'l'
                          .rdata:00403201 32                               0x32 '2'
                          .rdata:00403202 00                               0x00 
                          .rdata:00403203 00                               0x00 
                          .rdata:00403204 62                               0x62 'b'
                          .rdata:00403205 32                               0x32 '2'
                          .rdata:00403206 00                               0x00 
                          .rdata:00403207 00                               0x00 
                          .rdata:00403208 5a                               0x5a 'Z'
                          .rdata:00403209 32                               0x32 '2'
                          .rdata:0040320a 00                               0x00 
                          .rdata:0040320b 00                               0x00 
                          .rdata:0040320c 50                               0x50 'P'
                          .rdata:0040320d 32                               0x32 '2'
                          .rdata:0040320e 00                               0x00 
                          .rdata:0040320f 00                               0x00 
                          .rdata:00403210 46                               0x46 'F'
                          .rdata:00403211 32                               0x32 '2'
                          .rdata:00403212 00                               0x00 
                          .rdata:00403213 00                               0x00 
                          .rdata:00403214 5e                               0x5e '^'
                          .rdata:00403215 33                               0x33 '3'
                          .rdata:00403216 00                               0x00 
                          .rdata:00403217 00                               0x00 
                          .rdata:00403218 3c                               0x3c '<'
                          .rdata:00403219 32                               0x32 '2'
                          .rdata:0040321a 00                               0x00 
                          .rdata:0040321b 00                               0x00 
                          .rdata:0040321c 00                               0x00 
                          .rdata:0040321d 00                               0x00 
                          .rdata:0040321e 00                               0x00 
                          .rdata:0040321f 00                               0x00 
                          .rdata:00403220 d6                               0xd6 
                          .rdata:00403221 33                               0x33 '3'
                          .rdata:00403222 00                               0x00 
                          .rdata:00403223 00                               0x00 
                          .rdata:00403224 c2                               0xc2 
                          .rdata:00403225 33                               0x33 '3'
                          .rdata:00403226 00                               0x00 
                          .rdata:00403227 00                               0x00 
                          .rdata:00403228 ac                               0xac 
                          .rdata:00403229 33                               0x33 '3'
                          .rdata:0040322a 00                               0x00 
                          .rdata:0040322b 00                               0x00 
                          .rdata:0040322c ea                               0xea 
                          .rdata:0040322d 33                               0x33 '3'
                          .rdata:0040322e 00                               0x00 
                          .rdata:0040322f 00                               0x00 
                          .rdata:00403230 00                               0x00 
                          .rdata:00403231 00                               0x00 
                          .rdata:00403232 00                               0x00 
                          .rdata:00403233 00                               0x00 
                          .rdata:00403234 80                               0x80 
                          .rdata:00403235 33                               0x33 '3'
                          .rdata:00403236 00                               0x00 
                          .rdata:00403237 00                               0x00 
                          .rdata:00403238 00                               0x00 
                          .rdata:00403239 00                               0x00 
                          .rdata:0040323a 00                               0x00 
                          .rdata:0040323b 00                               0x00 
                          .rdata:0040323c 97                               0x97 
                          .rdata:0040323d 02                               0x02 
                          .rdata:0040323e 6d                               0x6d 'm'
                          .rdata:0040323f 65                               0x65 'e'
                          .rdata:00403240 6d                               0x6d 'm'
                          .rdata:00403241 63                               0x63 'c'
                          .rdata:00403242 70                               0x70 'p'
                          .rdata:00403243 79                               0x79 'y'
                          .rdata:00403244 00                               0x00 
                          .rdata:00403245 00                               0x00 
                          .rdata:00403246 99                               0x99 
                          .rdata:00403247 02                               0x02 
                          .rdata:00403248 6d                               0x6d 'm'
                          .rdata:00403249 65                               0x65 'e'
                          .rdata:0040324a 6d                               0x6d 'm'
                          .rdata:0040324b 73                               0x73 's'
                          .rdata:0040324c 65                               0x65 'e'
                          .rdata:0040324d 74                               0x74 't'
                          .rdata:0040324e 00                               0x00 
                          .rdata:0040324f 00                               0x00 
                          .rdata:00403250 a7                               0xa7 
                          .rdata:00403251 02                               0x02 
                          .rdata:00403252 72                               0x72 'r'
                          .rdata:00403253 65                               0x65 'e'
                          .rdata:00403254 61                               0x61 'a'
                          .rdata:00403255 6c                               0x6c 'l'
                          .rdata:00403256 6c                               0x6c 'l'
                          .rdata:00403257 6f                               0x6f 'o'
                          .rdata:00403258 63                               0x63 'c'
                          .rdata:00403259 00                               0x00 
                          .rdata:0040325a 5e                               0x5e '^'
                          .rdata:0040325b 02                               0x02 
                          .rdata:0040325c 66                               0x66 'f'
                          .rdata:0040325d 72                               0x72 'r'
                          .rdata:0040325e 65                               0x65 'e'
                          .rdata:0040325f 65                               0x65 'e'
                          .rdata:00403260 00                               0x00 
                          .rdata:00403261 00                               0x00 
                          .rdata:00403262 91                               0x91 
                          .rdata:00403263 02                               0x02 
                          .rdata:00403264 6d                               0x6d 'm'
                          .rdata:00403265 61                               0x61 'a'
                          .rdata:00403266 6c                               0x6c 'l'
                          .rdata:00403267 6c                               0x6c 'l'
                          .rdata:00403268 6f                               0x6f 'o'
                          .rdata:00403269 63                               0x63 'c'
                          .rdata:0040326a 00                               0x00 
                          .rdata:0040326b 00                               0x00 
                          .rdata:0040326c 0f                               0x0f 
                          .rdata:0040326d 00                               0x00 
                          .rdata:0040326e 3f                               0x3f '?'
                          .rdata:0040326f 3f                               0x3f '?'
                          .rdata:00403270 32                               0x32 '2'
                          .rdata:00403271 40                               0x40 '@'
                          .rdata:00403272 59                               0x59 'Y'
                          .rdata:00403273 41                               0x41 'A'
                          .rdata:00403274 50                               0x50 'P'
                          .rdata:00403275 41                               0x41 'A'
                          .rdata:00403276 58                               0x58 'X'
                          .rdata:00403277 49                               0x49 'I'
                          .rdata:00403278 40                               0x40 '@'
                          .rdata:00403279 5a                               0x5a 'Z'
                          .rdata:0040327a 00                               0x00 
                          .rdata:0040327b 00                               0x00 
                          .rdata:0040327c 10                               0x10 
                          .rdata:0040327d 00                               0x00 
                          .rdata:0040327e 3f                               0x3f '?'
                          .rdata:0040327f 3f                               0x3f '?'
                          .rdata:00403280 33                               0x33 '3'
                          .rdata:00403281 40                               0x40 '@'
                          .rdata:00403282 59                               0x59 'Y'
                          .rdata:00403283 41                               0x41 'A'
                          .rdata:00403284 58                               0x58 'X'
                          .rdata:00403285 50                               0x50 'P'
                          .rdata:00403286 41                               0x41 'A'
                          .rdata:00403287 58                               0x58 'X'
                          .rdata:00403288 40                               0x40 '@'
                          .rdata:00403289 5a                               0x5a 'Z'
                          .rdata:0040328a 00                               0x00 
                          .rdata:0040328b 00                               0x00 
                          .rdata:0040328c b8                               0xb8 
                          .rdata:0040328d 02                               0x02 
                          .rdata:0040328e 73                               0x73 's'
                          .rdata:0040328f 74                               0x74 't'
                          .rdata:00403290 72                               0x72 'r'
                          .rdata:00403291 63                               0x63 'c'
                          .rdata:00403292 6d                               0x6d 'm'
                          .rdata:00403293 70                               0x70 'p'
                          .rdata:00403294 00                               0x00 
                          .rdata:00403295 00                               0x00 
                          .rdata:00403296 be                               0xbe 
                          .rdata:00403297 02                               0x02 
                          .rdata:00403298 73                               0x73 's'
                          .rdata:00403299 74                               0x74 't'
                          .rdata:0040329a 72                               0x72 'r'
                          .rdata:0040329b 6c                               0x6c 'l'
                          .rdata:0040329c 65                               0x65 'e'
                          .rdata:0040329d 6e                               0x6e 'n'
                          .rdata:0040329e 00                               0x00 
                          .rdata:0040329f 00                               0x00 
                          .rdata:004032a0 9e                               0x9e 
                          .rdata:004032a1 02                               0x02 
                          .rdata:004032a2 70                               0x70 'p'
                          .rdata:004032a3 72                               0x72 'r'
                          .rdata:004032a4 69                               0x69 'i'
                          .rdata:004032a5 6e                               0x6e 'n'
                          .rdata:004032a6 74                               0x74 't'
                          .rdata:004032a7 66                               0x66 'f'
                          .rdata:004032a8 00                               0x00 
                          .rdata:004032a9 00                               0x00 
                          .rdata:004032aa 38                               0x38 '8'
                          .rdata:004032ab 02                               0x02 
                          .rdata:004032ac 61                               0x61 'a'
                          .rdata:004032ad 73                               0x73 's'
                          .rdata:004032ae 69                               0x69 'i'
                          .rdata:004032af 6e                               0x6e 'n'
                          .rdata:004032b0 00                               0x00 
                          .rdata:004032b1 00                               0x00 
                          .rdata:004032b2 f1                               0xf1 
                          .rdata:004032b3 00                               0x00 
                          .rdata:004032b4 5f                               0x5f '_'
                          .rdata:004032b5 66                               0x66 'f'
                          .rdata:004032b6 74                               0x74 't'
                          .rdata:004032b7 6f                               0x6f 'o'
                          .rdata:004032b8 6c                               0x6c 'l'
                          .rdata:004032b9 00                               0x00 
                          .rdata:004032ba 4d                               0x4d 'M'
                          .rdata:004032bb 53                               0x53 'S'
                          .rdata:004032bc 56                               0x56 'V'
                          .rdata:004032bd 43                               0x43 'C'
                          .rdata:004032be 52                               0x52 'R'
                          .rdata:004032bf 54                               0x54 'T'
                          .rdata:004032c0 2e                               0x2e '.'
                          .rdata:004032c1 64                               0x64 'd'
                          .rdata:004032c2 6c                               0x6c 'l'
                          .rdata:004032c3 6c                               0x6c 'l'
                          .rdata:004032c4 00                               0x00 
                          .rdata:004032c5 00                               0x00 
                          .rdata:004032c6 d3                               0xd3 
                          .rdata:004032c7 00                               0x00 
                          .rdata:004032c8 5f                               0x5f '_'
                          .rdata:004032c9 65                               0x65 'e'
                          .rdata:004032ca 78                               0x78 'x'
                          .rdata:004032cb 69                               0x69 'i'
                          .rdata:004032cc 74                               0x74 't'
                          .rdata:004032cd 00                               0x00 
                          .rdata:004032ce 48                               0x48 'H'
                          .rdata:004032cf 00                               0x00 
                          .rdata:004032d0 5f                               0x5f '_'
                          .rdata:004032d1 58                               0x58 'X'
                          .rdata:004032d2 63                               0x63 'c'
                          .rdata:004032d3 70                               0x70 'p'
                          .rdata:004032d4 74                               0x74 't'
                          .rdata:004032d5 46                               0x46 'F'
                          .rdata:004032d6 69                               0x69 'i'
                          .rdata:004032d7 6c                               0x6c 'l'
                          .rdata:004032d8 74                               0x74 't'
                          .rdata:004032d9 65                               0x65 'e'
                          .rdata:004032da 72                               0x72 'r'
                          .rdata:004032db 00                               0x00 
                          .rdata:004032dc 49                               0x49 'I'
                          .rdata:004032dd 02                               0x02 
                          .rdata:004032de 65                               0x65 'e'
                          .rdata:004032df 78                               0x78 'x'
                          .rdata:004032e0 69                               0x69 'i'
                          .rdata:004032e1 74                               0x74 't'
                          .rdata:004032e2 00                               0x00 
                          .rdata:004032e3 00                               0x00 
                          .rdata:004032e4 8f                               0x8f 
                          .rdata:004032e5 00                               0x00 
                          .rdata:004032e6 5f                               0x5f '_'
                          .rdata:004032e7 61                               0x61 'a'
                          .rdata:004032e8 63                               0x63 'c'
                          .rdata:004032e9 6d                               0x6d 'm'
                          .rdata:004032ea 64                               0x64 'd'
                          .rdata:004032eb 6c                               0x6c 'l'
                          .rdata:004032ec 6e                               0x6e 'n'
                          .rdata:004032ed 00                               0x00 
                          .rdata:004032ee 58                               0x58 'X'
                          .rdata:004032ef 00                               0x00 
                          .rdata:004032f0 5f                               0x5f '_'
                          .rdata:004032f1 5f                               0x5f '_'
                          .rdata:004032f2 67                               0x67 'g'
                          .rdata:004032f3 65                               0x65 'e'
                          .rdata:004032f4 74                               0x74 't'
                          .rdata:004032f5 6d                               0x6d 'm'
                          .rdata:004032f6 61                               0x61 'a'
                          .rdata:004032f7 69                               0x69 'i'
                          .rdata:004032f8 6e                               0x6e 'n'
                          .rdata:004032f9 61                               0x61 'a'
                          .rdata:004032fa 72                               0x72 'r'
                          .rdata:004032fb 67                               0x67 'g'
                          .rdata:004032fc 73                               0x73 's'
                          .rdata:004032fd 00                               0x00 
                          .rdata:004032fe 0f                               0x0f 
                          .rdata:004032ff 01                               0x01 
                          .rdata:00403300 5f                               0x5f '_'
                          .rdata:00403301 69                               0x69 'i'
                          .rdata:00403302 6e                               0x6e 'n'
                          .rdata:00403303 69                               0x69 'i'
                          .rdata:00403304 74                               0x74 't'
                          .rdata:00403305 74                               0x74 't'
                          .rdata:00403306 65                               0x65 'e'
                          .rdata:00403307 72                               0x72 'r'
                          .rdata:00403308 6d                               0x6d 'm'
                          .rdata:00403309 00                               0x00 
                          .rdata:0040330a 83                               0x83 
                          .rdata:0040330b 00                               0x00 
                          .rdata:0040330c 5f                               0x5f '_'
                          .rdata:0040330d 5f                               0x5f '_'
                          .rdata:0040330e 73                               0x73 's'
                          .rdata:0040330f 65                               0x65 'e'
                          .rdata:00403310 74                               0x74 't'
                          .rdata:00403311 75                               0x75 'u'
                          .rdata:00403312 73                               0x73 's'
                          .rdata:00403313 65                               0x65 'e'
                          .rdata:00403314 72                               0x72 'r'
                          .rdata:00403315 6d                               0x6d 'm'
                          .rdata:00403316 61                               0x61 'a'
                          .rdata:00403317 74                               0x74 't'
                          .rdata:00403318 68                               0x68 'h'
                          .rdata:00403319 65                               0x65 'e'
                          .rdata:0040331a 72                               0x72 'r'
                          .rdata:0040331b 72                               0x72 'r'
                          .rdata:0040331c 00                               0x00 
                          .rdata:0040331d 00                               0x00 
                          .rdata:0040331e 9d                               0x9d 
                          .rdata:0040331f 00                               0x00 
                          .rdata:00403320 5f                               0x5f '_'
                          .rdata:00403321 61                               0x61 'a'
                          .rdata:00403322 64                               0x64 'd'
                          .rdata:00403323 6a                               0x6a 'j'
                          .rdata:00403324 75                               0x75 'u'
                          .rdata:00403325 73                               0x73 's'
                          .rdata:00403326 74                               0x74 't'
                          .rdata:00403327 5f                               0x5f '_'
                          .rdata:00403328 66                               0x66 'f'
                          .rdata:00403329 64                               0x64 'd'
                          .rdata:0040332a 69                               0x69 'i'
                          .rdata:0040332b 76                               0x76 'v'
                          .rdata:0040332c 00                               0x00 
                          .rdata:0040332d 00                               0x00 
                          .rdata:0040332e 6a                               0x6a 'j'
                          .rdata:0040332f 00                               0x00 
                          .rdata:00403330 5f                               0x5f '_'
                          .rdata:00403331 5f                               0x5f '_'
                          .rdata:00403332 70                               0x70 'p'
                          .rdata:00403333 5f                               0x5f '_'
                          .rdata:00403334 5f                               0x5f '_'
                          .rdata:00403335 63                               0x63 'c'
                          .rdata:00403336 6f                               0x6f 'o'
                          .rdata:00403337 6d                               0x6d 'm'
                          .rdata:00403338 6d                               0x6d 'm'
                          .rdata:00403339 6f                               0x6f 'o'
                          .rdata:0040333a 64                               0x64 'd'
                          .rdata:0040333b 65                               0x65 'e'
                          .rdata:0040333c 00                               0x00 
                          .rdata:0040333d 00                               0x00 
                          .rdata:0040333e 6f                               0x6f 'o'
                          .rdata:0040333f 00                               0x00 
                          .rdata:00403340 5f                               0x5f '_'
                          .rdata:00403341 5f                               0x5f '_'
                          .rdata:00403342 70                               0x70 'p'
                          .rdata:00403343 5f                               0x5f '_'
                          .rdata:00403344 5f                               0x5f '_'
                          .rdata:00403345 66                               0x66 'f'
                          .rdata:00403346 6d                               0x6d 'm'
                          .rdata:00403347 6f                               0x6f 'o'
                          .rdata:00403348 64                               0x64 'd'
                          .rdata:00403349 65                               0x65 'e'
                          .rdata:0040334a 00                               0x00 
                          .rdata:0040334b 00                               0x00 
                          .rdata:0040334c 81                               0x81 
                          .rdata:0040334d 00                               0x00 
                          .rdata:0040334e 5f                               0x5f '_'
                          .rdata:0040334f 5f                               0x5f '_'
                          .rdata:00403350 73                               0x73 's'
                          .rdata:00403351 65                               0x65 'e'
                          .rdata:00403352 74                               0x74 't'
                          .rdata:00403353 5f                               0x5f '_'
                          .rdata:00403354 61                               0x61 'a'
                          .rdata:00403355 70                               0x70 'p'
                          .rdata:00403356 70                               0x70 'p'
                          .rdata:00403357 5f                               0x5f '_'
                          .rdata:00403358 74                               0x74 't'
                          .rdata:00403359 79                               0x79 'y'
                          .rdata:0040335a 70                               0x70 'p'
                          .rdata:0040335b 65                               0x65 'e'
                          .rdata:0040335c 00                               0x00 
                          .rdata:0040335d 00                               0x00 
                          .rdata:0040335e ca                               0xca 
                          .rdata:0040335f 00                               0x00 
                          .rdata:00403360 5f                               0x5f '_'
                          .rdata:00403361 65                               0x65 'e'
                          .rdata:00403362 78                               0x78 'x'
                          .rdata:00403363 63                               0x63 'c'
                          .rdata:00403364 65                               0x65 'e'
                          .rdata:00403365 70                               0x70 'p'
                          .rdata:00403366 74                               0x74 't'
                          .rdata:00403367 5f                               0x5f '_'
                          .rdata:00403368 68                               0x68 'h'
                          .rdata:00403369 61                               0x61 'a'
                          .rdata:0040336a 6e                               0x6e 'n'
                          .rdata:0040336b 64                               0x64 'd'
                          .rdata:0040336c 6c                               0x6c 'l'
                          .rdata:0040336d 65                               0x65 'e'
                          .rdata:0040336e 72                               0x72 'r'
                          .rdata:0040336f 33                               0x33 '3'
                          .rdata:00403370 00                               0x00 
                          .rdata:00403371 00                               0x00 
                          .rdata:00403372 b7                               0xb7 
                          .rdata:00403373 00                               0x00 
                          .rdata:00403374 5f                               0x5f '_'
                          .rdata:00403375 63                               0x63 'c'
                          .rdata:00403376 6f                               0x6f 'o'
                          .rdata:00403377 6e                               0x6e 'n'
                          .rdata:00403378 74                               0x74 't'
                          .rdata:00403379 72                               0x72 'r'
                          .rdata:0040337a 6f                               0x6f 'o'
                          .rdata:0040337b 6c                               0x6c 'l'
                          .rdata:0040337c 66                               0x66 'f'
                          .rdata:0040337d 70                               0x70 'p'
                          .rdata:0040337e 00                               0x00 
                          .rdata:0040337f 00                               0x00 
                          .rdata:00403380 1e                               0x1e 
                          .rdata:00403381 00                               0x00 
                          .rdata:00403382 4d                               0x4d 'M'
                          .rdata:00403383 61                               0x61 'a'
                          .rdata:00403384 6b                               0x6b 'k'
                          .rdata:00403385 65                               0x65 'e'
                          .rdata:00403386 53                               0x53 'S'
                          .rdata:00403387 75                               0x75 'u'
                          .rdata:00403388 72                               0x72 'r'
                          .rdata:00403389 65                               0x65 'e'
                          .rdata:0040338a 44                               0x44 'D'
                          .rdata:0040338b 69                               0x69 'i'
                          .rdata:0040338c 72                               0x72 'r'
                          .rdata:0040338d 65                               0x65 'e'
                          .rdata:0040338e 63                               0x63 'c'
                          .rdata:0040338f 74                               0x74 't'
                          .rdata:00403390 6f                               0x6f 'o'
                          .rdata:00403391 72                               0x72 'r'
                          .rdata:00403392 79                               0x79 'y'
                          .rdata:00403393 50                               0x50 'P'
                          .rdata:00403394 61                               0x61 'a'
                          .rdata:00403395 74                               0x74 't'
                          .rdata:00403396 68                               0x68 'h'
                          .rdata:00403397 45                               0x45 'E'
                          .rdata:00403398 78                               0x78 'x'
                          .rdata:00403399 69                               0x69 'i'
                          .rdata:0040339a 73                               0x73 's'
                          .rdata:0040339b 74                               0x74 't'
                          .rdata:0040339c 73                               0x73 's'
                          .rdata:0040339d 00                               0x00 
                          .rdata:0040339e 69                               0x69 'i'
                          .rdata:0040339f 6d                               0x6d 'm'
                          .rdata:004033a0 61                               0x61 'a'
                          .rdata:004033a1 67                               0x67 'g'
                          .rdata:004033a2 65                               0x65 'e'
                          .rdata:004033a3 68                               0x68 'h'
                          .rdata:004033a4 6c                               0x6c 'l'
                          .rdata:004033a5 70                               0x70 'p'
                          .rdata:004033a6 2e                               0x2e '.'
                          .rdata:004033a7 64                               0x64 'd'
                          .rdata:004033a8 6c                               0x6c 'l'
                          .rdata:004033a9 6c                               0x6c 'l'
                          .rdata:004033aa 00                               0x00 
                          .rdata:004033ab 00                               0x00 
                          .rdata:004033ac 69                               0x69 'i'
                          .rdata:004033ad 00                               0x00 
                          .rdata:004033ae 49                               0x49 'I'
                          .rdata:004033af 6e                               0x6e 'n'
                          .rdata:004033b0 74                               0x74 't'
                          .rdata:004033b1 65                               0x65 'e'
                          .rdata:004033b2 72                               0x72 'r'
                          .rdata:004033b3 6e                               0x6e 'n'
                          .rdata:004033b4 65                               0x65 'e'
                          .rdata:004033b5 74                               0x74 't'
                          .rdata:004033b6 43                               0x43 'C'
                          .rdata:004033b7 6c                               0x6c 'l'
                          .rdata:004033b8 6f                               0x6f 'o'
                          .rdata:004033b9 73                               0x73 's'
                          .rdata:004033ba 65                               0x65 'e'
                          .rdata:004033bb 48                               0x48 'H'
                          .rdata:004033bc 61                               0x61 'a'
                          .rdata:004033bd 6e                               0x6e 'n'
                          .rdata:004033be 64                               0x64 'd'
                          .rdata:004033bf 6c                               0x6c 'l'
                          .rdata:004033c0 65                               0x65 'e'
                          .rdata:004033c1 00                               0x00 
                          .rdata:004033c2 9a                               0x9a 
                          .rdata:004033c3 00                               0x00 
                          .rdata:004033c4 49                               0x49 'I'
                          .rdata:004033c5 6e                               0x6e 'n'
                          .rdata:004033c6 74                               0x74 't'
                          .rdata:004033c7 65                               0x65 'e'
                          .rdata:004033c8 72                               0x72 'r'
                          .rdata:004033c9 6e                               0x6e 'n'
                          .rdata:004033ca 65                               0x65 'e'
                          .rdata:004033cb 74                               0x74 't'
                          .rdata:004033cc 52                               0x52 'R'
                          .rdata:004033cd 65                               0x65 'e'
                          .rdata:004033ce 61                               0x61 'a'
                          .rdata:004033cf 64                               0x64 'd'
                          .rdata:004033d0 46                               0x46 'F'
                          .rdata:004033d1 69                               0x69 'i'
                          .rdata:004033d2 6c                               0x6c 'l'
                          .rdata:004033d3 65                               0x65 'e'
                          .rdata:004033d4 00                               0x00 
                          .rdata:004033d5 00                               0x00 
                          .rdata:004033d6 93                               0x93 
                          .rdata:004033d7 00                               0x00 
                          .rdata:004033d8 49                               0x49 'I'
                          .rdata:004033d9 6e                               0x6e 'n'
                          .rdata:004033da 74                               0x74 't'
                          .rdata:004033db 65                               0x65 'e'
                          .rdata:004033dc 72                               0x72 'r'
                          .rdata:004033dd 6e                               0x6e 'n'
                          .rdata:004033de 65                               0x65 'e'
                          .rdata:004033df 74                               0x74 't'
                          .rdata:004033e0 4f                               0x4f 'O'
                          .rdata:004033e1 70                               0x70 'p'
                          .rdata:004033e2 65                               0x65 'e'
                          .rdata:004033e3 6e                               0x6e 'n'
                          .rdata:004033e4 55                               0x55 'U'
                          .rdata:004033e5 72                               0x72 'r'
                          .rdata:004033e6 6c                               0x6c 'l'
                          .rdata:004033e7 41                               0x41 'A'
                          .rdata:004033e8 00                               0x00 
                          .rdata:004033e9 00                               0x00 
                          .rdata:004033ea 92                               0x92 
                          .rdata:004033eb 00                               0x00 
                          .rdata:004033ec 49                               0x49 'I'
                          .rdata:004033ed 6e                               0x6e 'n'
                          .rdata:004033ee 74                               0x74 't'
                          .rdata:004033ef 65                               0x65 'e'
                          .rdata:004033f0 72                               0x72 'r'
                          .rdata:004033f1 6e                               0x6e 'n'
                          .rdata:004033f2 65                               0x65 'e'
                          .rdata:004033f3 74                               0x74 't'
                          .rdata:004033f4 4f                               0x4f 'O'
                          .rdata:004033f5 70                               0x70 'p'
                          .rdata:004033f6 65                               0x65 'e'
                          .rdata:004033f7 6e                               0x6e 'n'
                          .rdata:004033f8 41                               0x41 'A'
                          .rdata:004033f9 00                               0x00 
                          .rdata:004033fa 57                               0x57 'W'
                          .rdata:004033fb 49                               0x49 'I'
                          .rdata:004033fc 4e                               0x4e 'N'
                          .rdata:004033fd 49                               0x49 'I'
                          .rdata:004033fe 4e                               0x4e 'N'
                          .rdata:004033ff 45                               0x45 'E'
                          .rdata:00403400 54                               0x54 'T'
                          .rdata:00403401 2e                               0x2e '.'
                          .rdata:00403402 64                               0x64 'd'
                          .rdata:00403403 6c                               0x6c 'l'
                          .rdata:00403404 6c                               0x6c 'l'
                          .rdata:00403405 00                               0x00 
                          .rdata:00403406 10                               0x10 
                          .rdata:00403407 02                               0x02 
                          .rdata:00403408 48                               0x48 'H'
                          .rdata:00403409 65                               0x65 'e'
                          .rdata:0040340a 61                               0x61 'a'
                          .rdata:0040340b 70                               0x70 'p'
                          .rdata:0040340c 41                               0x41 'A'
                          .rdata:0040340d 6c                               0x6c 'l'
                          .rdata:0040340e 6c                               0x6c 'l'
                          .rdata:0040340f 6f                               0x6f 'o'
                          .rdata:00403410 63                               0x63 'c'
                          .rdata:00403411 00                               0x00 
                          .rdata:00403412 a3                               0xa3 
                          .rdata:00403413 01                               0x01 
                          .rdata:00403414 47                               0x47 'G'
                          .rdata:00403415 65                               0x65 'e'
                          .rdata:00403416 74                               0x74 't'
                          .rdata:00403417 50                               0x50 'P'
                          .rdata:00403418 72                               0x72 'r'
                          .rdata:00403419 6f                               0x6f 'o'
                          .rdata:0040341a 63                               0x63 'c'
                          .rdata:0040341b 65                               0x65 'e'
                          .rdata:0040341c 73                               0x73 's'
                          .rdata:0040341d 73                               0x73 's'
                          .rdata:0040341e 48                               0x48 'H'
                          .rdata:0040341f 65                               0x65 'e'
                          .rdata:00403420 61                               0x61 'a'
                          .rdata:00403421 70                               0x70 'p'
                          .rdata:00403422 00                               0x00 
                          .rdata:00403423 00                               0x00 
                          .rdata:00403424 81                               0x81 
                          .rdata:00403425 03                               0x03 
                          .rdata:00403426 56                               0x56 'V'
                          .rdata:00403427 69                               0x69 'i'
                          .rdata:00403428 72                               0x72 'r'
                          .rdata:00403429 74                               0x74 't'
                          .rdata:0040342a 75                               0x75 'u'
                          .rdata:0040342b 61                               0x61 'a'
                          .rdata:0040342c 6c                               0x6c 'l'
                          .rdata:0040342d 41                               0x41 'A'
                          .rdata:0040342e 6c                               0x6c 'l'
                          .rdata:0040342f 6c                               0x6c 'l'
                          .rdata:00403430 6f                               0x6f 'o'
                          .rdata:00403431 63                               0x63 'c'
                          .rdata:00403432 00                               0x00 
                          .rdata:00403433 00                               0x00 
                          .rdata:00403434 56                               0x56 'V'
                          .rdata:00403435 03                               0x03 
                          .rdata:00403436 53                               0x53 'S'
                          .rdata:00403437 6c                               0x6c 'l'
                          .rdata:00403438 65                               0x65 'e'
                          .rdata:00403439 65                               0x65 'e'
                          .rdata:0040343a 70                               0x70 'p'
                          .rdata:0040343b 00                               0x00 
                          .rdata:0040343c 86                               0x86 
                          .rdata:0040343d 03                               0x03 
                          .rdata:0040343e 56                               0x56 'V'
                          .rdata:0040343f 69                               0x69 'i'
                          .rdata:00403440 72                               0x72 'r'
                          .rdata:00403441 74                               0x74 't'
                          .rdata:00403442 75                               0x75 'u'
                          .rdata:00403443 61                               0x61 'a'
                          .rdata:00403444 6c                               0x6c 'l'
                          .rdata:00403445 50                               0x50 'P'
                          .rdata:00403446 72                               0x72 'r'
                          .rdata:00403447 6f                               0x6f 'o'
                          .rdata:00403448 74                               0x74 't'
                          .rdata:00403449 65                               0x65 'e'
                          .rdata:0040344a 63                               0x63 'c'
                          .rdata:0040344b 74                               0x74 't'
                          .rdata:0040344c 00                               0x00 
                          .rdata:0040344d 00                               0x00 
                          .rdata:0040344e 83                               0x83 
                          .rdata:0040344f 03                               0x03 
                          .rdata:00403450 56                               0x56 'V'
                          .rdata:00403451 69                               0x69 'i'
                          .rdata:00403452 72                               0x72 'r'
                          .rdata:00403453 74                               0x74 't'
                          .rdata:00403454 75                               0x75 'u'
                          .rdata:00403455 61                               0x61 'a'
                          .rdata:00403456 6c                               0x6c 'l'
                          .rdata:00403457 46                               0x46 'F'
                          .rdata:00403458 72                               0x72 'r'
                          .rdata:00403459 65                               0x65 'e'
                          .rdata:0040345a 65                               0x65 'e'
                          .rdata:0040345b 00                               0x00 
                          .rdata:0040345c a0                               0xa0 
                          .rdata:0040345d 01                               0x01 
                          .rdata:0040345e 47                               0x47 'G'
                          .rdata:0040345f 65                               0x65 'e'
                          .rdata:00403460 74                               0x74 't'
                          .rdata:00403461 50                               0x50 'P'
                          .rdata:00403462 72                               0x72 'r'
                          .rdata:00403463 6f                               0x6f 'o'
                          .rdata:00403464 63                               0x63 'c'
                          .rdata:00403465 41                               0x41 'A'
                          .rdata:00403466 64                               0x64 'd'
                          .rdata:00403467 64                               0x64 'd'
                          .rdata:00403468 72                               0x72 'r'
                          .rdata:00403469 65                               0x65 'e'
                          .rdata:0040346a 73                               0x73 's'
                          .rdata:0040346b 73                               0x73 's'
                          .rdata:0040346c 00                               0x00 
                          .rdata:0040346d 00                               0x00 
                          .rdata:0040346e 52                               0x52 'R'
                          .rdata:0040346f 02                               0x02 
                          .rdata:00403470 4c                               0x4c 'L'
                          .rdata:00403471 6f                               0x6f 'o'
                          .rdata:00403472 61                               0x61 'a'
                          .rdata:00403473 64                               0x64 'd'
                          .rdata:00403474 4c                               0x4c 'L'
                          .rdata:00403475 69                               0x69 'i'
                          .rdata:00403476 62                               0x62 'b'
                          .rdata:00403477 72                               0x72 'r'
                          .rdata:00403478 61                               0x61 'a'
                          .rdata:00403479 72                               0x72 'r'
                          .rdata:0040347a 79                               0x79 'y'
                          .rdata:0040347b 41                               0x41 'A'
                          .rdata:0040347c 00                               0x00 
                          .rdata:0040347d 00                               0x00 
                          .rdata:0040347e 33                               0x33 '3'
                          .rdata:0040347f 02                               0x02 
                          .rdata:00403480 49                               0x49 'I'
                          .rdata:00403481 73                               0x73 's'
                          .rdata:00403482 42                               0x42 'B'
                          .rdata:00403483 61                               0x61 'a'
                          .rdata:00403484 64                               0x64 'd'
                          .rdata:00403485 52                               0x52 'R'
                          .rdata:00403486 65                               0x65 'e'
                          .rdata:00403487 61                               0x61 'a'
                          .rdata:00403488 64                               0x64 'd'
                          .rdata:00403489 50                               0x50 'P'
                          .rdata:0040348a 74                               0x74 't'
                          .rdata:0040348b 72                               0x72 'r'
                          .rdata:0040348c 00                               0x00 
                          .rdata:0040348d 00                               0x00 
                          .rdata:0040348e 16                               0x16 
                          .rdata:0040348f 02                               0x02 
                          .rdata:00403490 48                               0x48 'H'
                          .rdata:00403491 65                               0x65 'e'
                          .rdata:00403492 61                               0x61 'a'
                          .rdata:00403493 70                               0x70 'p'
                          .rdata:00403494 46                               0x46 'F'
                          .rdata:00403495 72                               0x72 'r'
                          .rdata:00403496 65                               0x65 'e'
                          .rdata:00403497 65                               0x65 'e'
                          .rdata:00403498 00                               0x00 
                          .rdata:00403499 00                               0x00 
                          .rdata:0040349a f8                               0xf8 
                          .rdata:0040349b 00                               0x00 
                          .rdata:0040349c 46                               0x46 'F'
                          .rdata:0040349d 72                               0x72 'r'
                          .rdata:0040349e 65                               0x65 'e'
                          .rdata:0040349f 65                               0x65 'e'
                          .rdata:004034a0 4c                               0x4c 'L'
                          .rdata:004034a1 69                               0x69 'i'
                          .rdata:004034a2 62                               0x62 'b'
                          .rdata:004034a3 72                               0x72 'r'
                          .rdata:004034a4 61                               0x61 'a'
                          .rdata:004034a5 72                               0x72 'r'
                          .rdata:004034a6 79                               0x79 'y'
                          .rdata:004034a7 00                               0x00 
                          .rdata:004034a8 34                               0x34 '4'
                          .rdata:004034a9 00                               0x00 
                          .rdata:004034aa 43                               0x43 'C'
                          .rdata:004034ab 6c                               0x6c 'l'
                          .rdata:004034ac 6f                               0x6f 'o'
                          .rdata:004034ad 73                               0x73 's'
                          .rdata:004034ae 65                               0x65 'e'
                          .rdata:004034af 48                               0x48 'H'
                          .rdata:004034b0 61                               0x61 'a'
                          .rdata:004034b1 6e                               0x6e 'n'
                          .rdata:004034b2 64                               0x64 'd'
                          .rdata:004034b3 6c                               0x6c 'l'
                          .rdata:004034b4 65                               0x65 'e'
                          .rdata:004034b5 00                               0x00 
                          .rdata:004034b6 a4                               0xa4 
                          .rdata:004034b7 03                               0x03 
                          .rdata:004034b8 57                               0x57 'W'
                          .rdata:004034b9 72                               0x72 'r'
                          .rdata:004034ba 69                               0x69 'i'
                          .rdata:004034bb 74                               0x74 't'
                          .rdata:004034bc 65                               0x65 'e'
                          .rdata:004034bd 46                               0x46 'F'
                          .rdata:004034be 69                               0x69 'i'
                          .rdata:004034bf 6c                               0x6c 'l'
                          .rdata:004034c0 65                               0x65 'e'
                          .rdata:004034c1 00                               0x00 
                          .rdata:004034c2 53                               0x53 'S'
                          .rdata:004034c3 00                               0x00 
                          .rdata:004034c4 43                               0x43 'C'
                          .rdata:004034c5 72                               0x72 'r'
                          .rdata:004034c6 65                               0x65 'e'
                          .rdata:004034c7 61                               0x61 'a'
                          .rdata:004034c8 74                               0x74 't'
                          .rdata:004034c9 65                               0x65 'e'
                          .rdata:004034ca 46                               0x46 'F'
                          .rdata:004034cb 69                               0x69 'i'
                          .rdata:004034cc 6c                               0x6c 'l'
                          .rdata:004034cd 65                               0x65 'e'
                          .rdata:004034ce 41                               0x41 'A'
                          .rdata:004034cf 00                               0x00 
                          .rdata:004034d0 b5                               0xb5 
                          .rdata:004034d1 02                               0x02 
                          .rdata:004034d2 52                               0x52 'R'
                          .rdata:004034d3 65                               0x65 'e'
                          .rdata:004034d4 61                               0x61 'a'
                          .rdata:004034d5 64                               0x64 'd'
                          .rdata:004034d6 46                               0x46 'F'
                          .rdata:004034d7 69                               0x69 'i'
                          .rdata:004034d8 6c                               0x6c 'l'
                          .rdata:004034d9 65                               0x65 'e'
                          .rdata:004034da 00                               0x00 
                          .rdata:004034db 00                               0x00 
                          .rdata:004034dc 63                               0x63 'c'
                          .rdata:004034dd 01                               0x01 
                          .rdata:004034de 47                               0x47 'G'
                          .rdata:004034df 65                               0x65 'e'
                          .rdata:004034e0 74                               0x74 't'
                          .rdata:004034e1 46                               0x46 'F'
                          .rdata:004034e2 69                               0x69 'i'
                          .rdata:004034e3 6c                               0x6c 'l'
                          .rdata:004034e4 65                               0x65 'e'
                          .rdata:004034e5 53                               0x53 'S'
                          .rdata:004034e6 69                               0x69 'i'
                          .rdata:004034e7 7a                               0x7a 'z'
                          .rdata:004034e8 65                               0x65 'e'
                          .rdata:004034e9 00                               0x00 
                          .rdata:004034ea 1b                               0x1b 
                          .rdata:004034eb 03                               0x03 
                          .rdata:004034ec 53                               0x53 'S'
                          .rdata:004034ed 65                               0x65 'e'
                          .rdata:004034ee 74                               0x74 't'
                          .rdata:004034ef 46                               0x46 'F'
                          .rdata:004034f0 69                               0x69 'i'
                          .rdata:004034f1 6c                               0x6c 'l'
                          .rdata:004034f2 65                               0x65 'e'
                          .rdata:004034f3 50                               0x50 'P'
                          .rdata:004034f4 6f                               0x6f 'o'
                          .rdata:004034f5 69                               0x69 'i'
                          .rdata:004034f6 6e                               0x6e 'n'
                          .rdata:004034f7 74                               0x74 't'
                          .rdata:004034f8 65                               0x65 'e'
                          .rdata:004034f9 72                               0x72 'r'
                          .rdata:004034fa 00                               0x00 
                          .rdata:004034fb 00                               0x00 
                          .rdata:004034fc 7f                               0x7f 
                          .rdata:004034fd 01                               0x01 
                          .rdata:004034fe 47                               0x47 'G'
                          .rdata:004034ff 65                               0x65 'e'
                          .rdata:00403500 74                               0x74 't'
                          .rdata:00403501 4d                               0x4d 'M'
                          .rdata:00403502 6f                               0x6f 'o'
                          .rdata:00403503 64                               0x64 'd'
                          .rdata:00403504 75                               0x75 'u'
                          .rdata:00403505 6c                               0x6c 'l'
                          .rdata:00403506 65                               0x65 'e'
                          .rdata:00403507 48                               0x48 'H'
                          .rdata:00403508 61                               0x61 'a'
                          .rdata:00403509 6e                               0x6e 'n'
                          .rdata:0040350a 64                               0x64 'd'
                          .rdata:0040350b 6c                               0x6c 'l'
                          .rdata:0040350c 65                               0x65 'e'
                          .rdata:0040350d 41                               0x41 'A'
                          .rdata:0040350e 00                               0x00 
                          .rdata:0040350f 00                               0x00 
                          .rdata:00403510 b7                               0xb7 
                          .rdata:00403511 01                               0x01 
                          .rdata:00403512 47                               0x47 'G'
                          .rdata:00403513 65                               0x65 'e'
                          .rdata:00403514 74                               0x74 't'
                          .rdata:00403515 53                               0x53 'S'
                          .rdata:00403516 74                               0x74 't'
                          .rdata:00403517 61                               0x61 'a'
                          .rdata:00403518 72                               0x72 'r'
                          .rdata:00403519 74                               0x74 't'
                          .rdata:0040351a 75                               0x75 'u'
                          .rdata:0040351b 70                               0x70 'p'
                          .rdata:0040351c 49                               0x49 'I'
                          .rdata:0040351d 6e                               0x6e 'n'
                          .rdata:0040351e 66                               0x66 'f'
                          .rdata:0040351f 6f                               0x6f 'o'
                          .rdata:00403520 41                               0x41 'A'
                          .rdata:00403521 00                               0x00 
                          .rdata:00403522 4b                               0x4b 'K'
                          .rdata:00403523 45                               0x45 'E'
                          .rdata:00403524 52                               0x52 'R'
                          .rdata:00403525 4e                               0x4e 'N'
                          .rdata:00403526 45                               0x45 'E'
                          .rdata:00403527 4c                               0x4c 'L'
                          .rdata:00403528 33                               0x33 '3'
                          .rdata:00403529 32                               0x32 '2'
                          .rdata:0040352a 2e                               0x2e '.'
                          .rdata:0040352b 64                               0x64 'd'
                          .rdata:0040352c 6c                               0x6c 'l'
                          .rdata:0040352d 6c                               0x6c 'l'
                          .rdata:0040352e 00                               0x00 
                          .rdata:0040352f 00                               0x00 
                           .data:00404000 00                               0x00 
                           .data:00404001 00                               0x00 
                           .data:00404002 00                               0x00 
                           .data:00404003 00                               0x00 
                           .data:00404004 00                               0x00 
                           .data:00404005 00                               0x00 
                           .data:00404006 00                               0x00 
                           .data:00404007 00                               0x00 
                           .data:00404008 00                               0x00 
                           .data:00404009 00                               0x00 
                           .data:0040400a 00                               0x00 
                           .data:0040400b 00                               0x00 
                           .data:0040400c 00                               0x00 
                           .data:0040400d 00                               0x00 
                           .data:0040400e 00                               0x00 
                           .data:0040400f 00                               0x00 
                           .data:00404010 01                               0x01 
                           .data:00404011 00                               0x00 
                           .data:00404012 00                               0x00 
                           .data:00404013 00                               0x00 
                           .data:00404014 08                               0x08 
                           .data:00404015 00                               0x00 
                           .data:00404016 00                               0x00 
                           .data:00404017 00                               0x00 
                           .data:00404018 02                               0x02 
                           .data:00404019 00                               0x00 
                           .data:0040401a 00                               0x00 
                           .data:0040401b 00                               0x00 
                           .data:0040401c 04                               0x04 
                           .data:0040401d 00                               0x00 
                           .data:0040401e 00                               0x00 
                           .data:0040401f 00                               0x00 
                           .data:00404020 10                               0x10 
                           .data:00404021 00                               0x00 
                           .data:00404022 00                               0x00 
                           .data:00404023 00                               0x00 
                           .data:00404024 80                               0x80 
                           .data:00404025 00                               0x00 
                           .data:00404026 00                               0x00 
                           .data:00404027 00                               0x00 
                           .data:00404028 20                               0x20 ' '
                           .data:00404029 00                               0x00 
                           .data:0040402a 00                               0x00 
                           .data:0040402b 00                               0x00 
                           .data:0040402c 40                               0x40 '@'
                           .data:0040402d 00                               0x00 
                           .data:0040402e 00                               0x00 
                           .data:0040402f 00                               0x00 
                           .data:00404030 74                               0x74 't'
                           .data:00404031 37                               0x37 '7'
                           .data:00404032 4f                               0x4f 'O'
                           .data:00404033 7a                               0x7a 'z'
                           .data:00404034 72                               0x72 'r'
                           .data:00404035 2b                               0x2b '+'
                           .data:00404036 6e                               0x6e 'n'
                           .data:00404037 38                               0x38 '8'
                           .data:00404038 2f                               0x2f '/'
                           .data:00404039 4f                               0x4f 'O'
                           .data:0040403a 37                               0x37 '7'
                           .data:0040403b 76                               0x76 'v'
                           .data:0040403c 38                               0x38 '8'
                           .data:0040403d 2f                               0x2f '/'
                           .data:0040403e 33                               0x33 '3'
                           .data:0040403f 75                               0x75 'u'
                           .data:00404040 38                               0x38 '8'
                           .data:00404041 2b                               0x2b '+'
                           .data:00404042 62                               0x62 'b'
                           .data:00404043 39                               0x39 '9'
                           .data:00404044 35                               0x35 '5'
                           .data:00404045 2b                               0x2b '+'
                           .data:00404046 66                               0x66 'f'
                           .data:00404047 39                               0x39 '9'
                           .data:00404048 37                               0x37 '7'
                           .data:00404049 75                               0x75 'u'
                           .data:0040404a 62                               0x62 'b'
                           .data:0040404b 6e                               0x6e 'n'
                           .data:0040404c 36                               0x36 '6'
                           .data:0040404d 65                               0x65 'e'
                           .data:0040404e 66                               0x66 'f'
                           .data:0040404f 76                               0x76 'v'
                           .data:00404050 35                               0x35 '5'
                           .data:00404051 2b                               0x2b '+'
                           .data:00404052 2f                               0x2f '/'
                           .data:00404053 38                               0x38 '8'
                           .data:00404054 6e                               0x6e 'n'
                           .data:00404055 63                               0x63 'c'
                           .data:00404056 4b                               0x4b 'K'
                           .data:00404057 7a                               0x7a 'z'
                           .data:00404058 6b                               0x6b 'k'
                           .data:00404059 4b                               0x4b 'K'
                           .data:0040405a 61                               0x61 'a'
                           .data:0040405b 77                               0x77 'w'
                           .data:0040405c 73                               0x73 's'
                           .data:0040405d 2f                               0x2f '/'
                           .data:0040405e 54                               0x54 'T'
                           .data:0040405f 31                               0x31 '1'
                           .data:00404060 2f                               0x2f '/'
                           .data:00404061 63                               0x63 'c'
                           .data:00404062 4f                               0x4f 'O'
                           .data:00404063 37                               0x37 '7'
                           .data:00404064 75                               0x75 'u'
                           .data:00404065 39                               0x39 '9'
                           .data:00404066 38                               0x38 '8'
                           .data:00404067 3d                               0x3d '='
                           .data:00404068 00                               0x00 
                           .data:00404069 00                               0x00 
                           .data:0040406a 00                               0x00 
                           .data:0040406b 00                               0x00 
                           .data:0040406c 00                               0x00 
                           .data:0040406d 00                               0x00 
                           .data:0040406e 00                               0x00 
                           .data:0040406f 00                               0x00 
                           .data:00404070 00                               0x00 
                           .data:00404071 00                               0x00 
                           .data:00404072 00                               0x00 
                           .data:00404073 00                               0x00 
                           .data:00404074 00                               0x00 
                           .data:00404075 00                               0x00 
                           .data:00404076 00                               0x00 
                           .data:00404077 00                               0x00 
                           .data:00404078 00                               0x00 
                           .data:00404079 00                               0x00 
                           .data:0040407a 00                               0x00 
                           .data:0040407b 00                               0x00 
                           .data:0040407c 00                               0x00 
                           .data:0040407d 00                               0x00 
                           .data:0040407e 00                               0x00 
                           .data:0040407f 00                               0x00 
                           .data:00404080 00                               0x00 
                           .data:00404081 00                               0x00 
                           .data:00404082 00                               0x00 
                           .data:00404083 00                               0x00 
                           .data:00404084 00                               0x00 
                           .data:00404085 00                               0x00 
                           .data:00404086 00                               0x00 
                           .data:00404087 00                               0x00 
                           .data:00404088 00                               0x00 
                           .data:00404089 00                               0x00 
                           .data:0040408a 00                               0x00 
                           .data:0040408b 00                               0x00 
                           .data:0040408c 00                               0x00 
                           .data:0040408d 00                               0x00 
                           .data:0040408e 00                               0x00 
                           .data:0040408f 00                               0x00 
                           .data:00404090 00                               0x00 
                           .data:00404091 00                               0x00 
                           .data:00404092 00                               0x00 
                           .data:00404093 00                               0x00 
                           .data:00404094 00                               0x00 
                           .data:00404095 00                               0x00 
                           .data:00404096 00                               0x00 
                           .data:00404097 00                               0x00 
                           .data:00404098 00                               0x00 
                           .data:00404099 00                               0x00 
                           .data:0040409a 00                               0x00 
                           .data:0040409b 00                               0x00 
                           .data:0040409c 00                               0x00 
                           .data:0040409d 00                               0x00 
                           .data:0040409e 00                               0x00 
                           .data:0040409f 00                               0x00 
                           .data:004040a0 00                               0x00 
                           .data:004040a1 00                               0x00 
                           .data:004040a2 00                               0x00 
                           .data:004040a3 00                               0x00 
                           .data:004040a4 00                               0x00 
                           .data:004040a5 00                               0x00 
                           .data:004040a6 00                               0x00 
                           .data:004040a7 00                               0x00 
                           .data:004040a8 00                               0x00 
                           .data:004040a9 00                               0x00 
                           .data:004040aa 00                               0x00 
                           .data:004040ab 00                               0x00 
                           .data:004040ac 00                               0x00 
                           .data:004040ad 00                               0x00 
                           .data:004040ae 00                               0x00 
                           .data:004040af 00                               0x00 
                           .data:004040b0 33                               0x33 '3'
                           .data:004040b1 2f                               0x2f '/'
                           .data:004040b2 44                               0x44 'D'
                           .data:004040b3 76                               0x76 'v'
                           .data:004040b4 36                               0x36 '6'
                           .data:004040b5 2b                               0x2b '+'
                           .data:004040b6 7a                               0x7a 'z'
                           .data:004040b7 70                               0x70 'p'
                           .data:004040b8 36                               0x36 '6'
                           .data:004040b9 75                               0x75 'u'
                           .data:004040ba 76                               0x76 'v'
                           .data:004040bb 75                               0x75 'u'
                           .data:004040bc 37                               0x37 '7'
                           .data:004040bd 66                               0x66 'f'
                           .data:004040be 44                               0x44 'D'
                           .data:004040bf 66                               0x66 'f'
                           .data:004040c0 2b                               0x2b '+'
                           .data:004040c1 4f                               0x4f 'O'
                           .data:004040c2 2f                               0x2f '/'
                           .data:004040c3 34                               0x34 '4'
                           .data:004040c4 38                               0x38 '8'
                           .data:004040c5 4e                               0x4e 'N'
                           .data:004040c6 2f                               0x2f '/'
                           .data:004040c7 75                               0x75 'u'
                           .data:004040c8 37                               0x37 '7'
                           .data:004040c9 76                               0x76 'v'
                           .data:004040ca 6a                               0x6a 'j'
                           .data:004040cb 34                               0x34 '4'
                           .data:004040cc 37                               0x37 '7'
                           .data:004040cd 39                               0x39 '9'
                           .data:004040ce 2f                               0x2f '/'
                           .data:004040cf 77                               0x77 'w'
                           .data:004040d0 37                               0x37 '7'
                           .data:004040d1 65                               0x65 'e'
                           .data:004040d2 37                               0x37 '7'
                           .data:004040d3 72                               0x72 'r'
                           .data:004040d4 37                               0x37 '7'
                           .data:004040d5 4f                               0x4f 'O'
                           .data:004040d6 6e                               0x6e 'n'
                           .data:004040d7 71                               0x71 'q'
                           .data:004040d8 39                               0x39 '9'
                           .data:004040d9 38                               0x38 '8'
                           .data:004040da 43                               0x43 'C'
                           .data:004040db 37                               0x37 '7'
                           .data:004040dc 78                               0x78 'x'
                           .data:004040dd 4d                               0x4d 'M'
                           .data:004040de 6a                               0x6a 'j'
                           .data:004040df 42                               0x42 'B'
                           .data:004040e0 33                               0x33 '3'
                           .data:004040e1 34                               0x34 '4'
                           .data:004040e2 76                               0x76 'v'
                           .data:004040e3 77                               0x77 'w'
                           .data:004040e4 37                               0x37 '7'
                           .data:004040e5 4f                               0x4f 'O'
                           .data:004040e6 2f                               0x2f '/'
                           .data:004040e7 73                               0x73 's'
                           .data:004040e8 37                               0x37 '7'
                           .data:004040e9 65                               0x65 'e'
                           .data:004040ea 2f                               0x2f '/'
                           .data:004040eb 66                               0x66 'f'
                           .data:004040ec 69                               0x69 'i'
                           .data:004040ed 71                               0x71 'q'
                           .data:004040ee 36                               0x36 '6'
                           .data:004040ef 38                               0x38 '8'
                           .data:004040f0 72                               0x72 'r'
                           .data:004040f1 72                               0x72 'r'
                           .data:004040f2 43                               0x43 'C'
                           .data:004040f3 36                               0x36 '6'
                           .data:004040f4 2f                               0x2f '/'
                           .data:004040f5 37                               0x37 '7'
                           .data:004040f6 79                               0x79 'y'
                           .data:004040f7 75                               0x75 'u'
                           .data:004040f8 71                               0x71 'q'
                           .data:004040f9 71                               0x71 'q'
                           .data:004040fa 36                               0x36 '6'
                           .data:004040fb 2b                               0x2b '+'
                           .data:004040fc 71                               0x71 'q'
                           .data:004040fd 72                               0x72 'r'
                           .data:004040fe 71                               0x71 'q'
                           .data:004040ff 34                               0x34 '4'
                           .data:00404100 75                               0x75 'u'
                           .data:00404101 64                               0x64 'd'
                           .data:00404102 2b                               0x2b '+'
                           .data:00404103 51                               0x51 'Q'
                           .data:00404104 75                               0x75 'u'
                           .data:00404105 62                               0x62 'b'
                           .data:00404106 71                               0x71 'q'
                           .data:00404107 2b                               0x2b '+'
                           .data:00404108 76                               0x76 'v'
                           .data:00404109 4d                               0x4d 'M'
                           .data:0040410a 62                               0x62 'b'
                           .data:0040410b 2f                               0x2f '/'
                           .data:0040410c 72                               0x72 'r'
                           .data:0040410d 4c                               0x4c 'L'
                           .data:0040410e 32                               0x32 '2'
                           .data:0040410f 2b                               0x2b '+'
                           .data:00404110 75                               0x75 'u'
                           .data:00404111 63                               0x63 'c'
                           .data:00404112 4b                               0x4b 'K'
                           .data:00404113 35                               0x35 '5'
                           .data:00404114 75                               0x75 'u'
                           .data:00404115 72                               0x72 'r'
                           .data:00404116 75                               0x75 'u'
                           .data:00404117 39                               0x39 '9'
                           .data:00404118 72                               0x72 'r'
                           .data:00404119 38                               0x38 '8'
                           .data:0040411a 4f                               0x4f 'O'
                           .data:0040411b 33                               0x33 '3'
                           .data:0040411c 79                               0x79 'y'
                           .data:0040411d 4d                               0x4d 'M'
                           .data:0040411e 43                               0x43 'C'
                           .data:0040411f 76                               0x76 'v'
                           .data:00404120 79                               0x79 'y'
                           .data:00404121 4b                               0x4b 'K'
                           .data:00404122 37                               0x37 '7'
                           .data:00404123 49                               0x49 'I'
                           .data:00404124 75                               0x75 'u'
                           .data:00404125 64                               0x64 'd'
                           .data:00404126 39                               0x39 '9'
                           .data:00404127 7a                               0x7a 'z'
                           .data:00404128 50                               0x50 'P'
                           .data:00404129 32                               0x32 '2'
                           .data:0040412a 30                               0x30 '0'
                           .data:0040412b 39                               0x39 '9'
                           .data:0040412c 64                               0x64 'd'
                           .data:0040412d 53                               0x53 'S'
                           .data:0040412e 52                               0x52 'R'
                           .data:0040412f 7a                               0x7a 'z'
                           .data:00404130 50                               0x50 'P'
                           .data:00404131 79                               0x79 'y'
                           .data:00404132 55                               0x55 'U'
                           .data:00404133 4f                               0x4f 'O'
                           .data:00404134 44                               0x44 'D'
                           .data:00404135 78                               0x78 'x'
                           .data:00404136 30                               0x30 '0'
                           .data:00404137 4f                               0x4f 'O'
                           .data:00404138 62                               0x62 'b'
                           .data:00404139 58                               0x58 'X'
                           .data:0040413a 4d                               0x4d 'M'
                           .data:0040413b 78                               0x78 'x'
                           .data:0040413c 4b                               0x4b 'K'
                           .data:0040413d 45                               0x45 'E'
                           .data:0040413e 64                               0x64 'd'
                           .data:0040413f 77                               0x77 'w'
                           .data:00404140 64                               0x64 'd'
                           .data:00404141 32                               0x32 '2'
                           .data:00404142 31                               0x31 '1'
                           .data:00404143 39                               0x39 '9'
                           .data:00404144 43                               0x43 'C'
                           .data:00404145 67                               0x67 'g'
                           .data:00404146 74                               0x74 't'
                           .data:00404147 70                               0x70 'p'
                           .data:00404148 67                               0x67 'g'
                           .data:00404149 6e                               0x6e 'n'
                           .data:0040414a 63                               0x63 'c'
                           .data:0040414b 7a                               0x7a 'z'
                           .data:0040414c 44                               0x44 'D'
                           .data:0040414d 78                               0x78 'x'
                           .data:0040414e 30                               0x30 '0'
                           .data:0040414f 6f                               0x6f 'o'
                           .data:00404150 52                               0x52 'R'
                           .data:00404151 33                               0x33 '3'
                           .data:00404152 42                               0x42 'B'
                           .data:00404153 33                               0x33 '3'
                           .data:00404154 47                               0x47 'G'
                           .data:00404155 6a                               0x6a 'j'
                           .data:00404156 52                               0x52 'R'
                           .data:00404157 70                               0x70 'p'
                           .data:00404158 67                               0x67 'g'
                           .data:00404159 6f                               0x6f 'o'
                           .data:0040415a 42                               0x42 'B'
                           .data:0040415b 2b                               0x2b '+'
                           .data:0040415c 33                               0x33 '3'
                           .data:0040415d 2f                               0x2f '/'
                           .data:0040415e 79                               0x79 'y'
                           .data:0040415f 50                               0x50 'P'
                           .data:00404160 72                               0x72 'r'
                           .data:00404161 63                               0x63 'c'
                           .data:00404162 4b                               0x4b 'K'
                           .data:00404163 36                               0x36 '6'
                           .data:00404164 72                               0x72 'r'
                           .data:00404165 63                               0x63 'c'
                           .data:00404166 44                               0x44 'D'
                           .data:00404167 45                               0x45 'E'
                           .data:00404168 6d                               0x6d 'm'
                           .data:00404169 63                               0x63 'c'
                           .data:0040416a 6a                               0x6a 'j'
                           .data:0040416b 44                               0x44 'D'
                           .data:0040416c 76                               0x76 'v'
                           .data:0040416d 4b                               0x4b 'K'
                           .data:0040416e 37                               0x37 '7'
                           .data:0040416f 38                               0x38 '8'
                           .data:00404170 6b                               0x6b 'k'
                           .data:00404171 36                               0x36 '6'
                           .data:00404172 54                               0x54 'T'
                           .data:00404173 49                               0x49 'I'
                           .data:00404174 76                               0x76 'v'
                           .data:00404175 71                               0x71 'q'
                           .data:00404176 33                               0x33 '3'
                           .data:00404177 43                               0x43 'C'
                           .data:00404178 72                               0x72 'r'
                           .data:00404179 73                               0x73 's'
                           .data:0040417a 4b                               0x4b 'K'
                           .data:0040417b 35                               0x35 '5'
                           .data:0040417c 71                               0x71 'q'
                           .data:0040417d 2f                               0x2f '/'
                           .data:0040417e 2b                               0x2b '+'
                           .data:0040417f 50                               0x50 'P'
                           .data:00404180 72                               0x72 'r'
                           .data:00404181 71                               0x71 'q'
                           .data:00404182 36                               0x36 '6'
                           .data:00404183 37                               0x37 '7'
                           .data:00404184 75                               0x75 'u'
                           .data:00404185 37                               0x37 '7'
                           .data:00404186 71                               0x71 'q'
                           .data:00404187 36                               0x36 '6'
                           .data:00404188 6b                               0x6b 'k'
                           .data:00404189 39                               0x39 '9'
                           .data:0040418a 2b                               0x2b '+'
                           .data:0040418b 58                               0x58 'X'
                           .data:0040418c 76                               0x76 'v'
                           .data:0040418d 61                               0x61 'a'
                           .data:0040418e 2f                               0x2f '/'
                           .data:0040418f 44                               0x44 'D'
                           .data:00404190 71                               0x71 'q'
                           .data:00404191 61                               0x61 'a'
                           .data:00404192 36                               0x36 '6'
                           .data:00404193 73                               0x73 's'
                           .data:00404194 41                               0x41 'A'
                           .data:00404195 62                               0x62 'b'
                           .data:00404196 79                               0x79 'y'
                           .data:00404197 33                               0x33 '3'
                           .data:00404198 76                               0x76 'v'
                           .data:00404199 4e                               0x4e 'N'
                           .data:0040419a 2b                               0x2b '+'
                           .data:0040419b 51                               0x51 'Q'
                           .data:0040419c 76                               0x76 'v'
                           .data:0040419d 4b                               0x4b 'K'
                           .data:0040419e 36                               0x36 '6'
                           .data:0040419f 38                               0x38 '8'
                           .data:004041a0 72                               0x72 'r'
                           .data:004041a1 4b                               0x4b 'K'
                           .data:004041a2 72                               0x72 'r'
                           .data:004041a3 2f                               0x2f '/'
                           .data:004041a4 76                               0x76 'v'
                           .data:004041a5 4d                               0x4d 'M'
                           .data:004041a6 4b                               0x4b 'K'
                           .data:004041a7 38                               0x38 '8'
                           .data:004041a8 78                               0x78 'x'
                           .data:004041a9 73                               0x73 's'
                           .data:004041aa 53                               0x53 'S'
                           .data:004041ab 73                               0x73 's'
                           .data:004041ac 78                               0x78 'x'
                           .data:004041ad 4c                               0x4c 'L'
                           .data:004041ae 69                               0x69 'i'
                           .data:004041af 34                               0x34 '4'
                           .data:004041b0 33                               0x33 '3'
                           .data:004041b1 2b                               0x2b '+'
                           .data:004041b2 7a                               0x7a 'z'
                           .data:004041b3 74                               0x74 't'
                           .data:004041b4 37                               0x37 '7'
                           .data:004041b5 39                               0x39 '9'
                           .data:004041b6 2f                               0x2f '/'
                           .data:004041b7 66                               0x66 'f'
                           .data:004041b8 38                               0x38 '8'
                           .data:004041b9 4e                               0x4e 'N'
                           .data:004041ba 2f                               0x2f '/'
                           .data:004041bb 74                               0x74 't'
                           .data:004041bc 33                               0x33 '3'
                           .data:004041bd 2b                               0x2b '+'
                           .data:004041be 2f                               0x2f '/'
                           .data:004041bf 66                               0x66 'f'
                           .data:004041c0 38                               0x38 '8'
                           .data:004041c1 4e                               0x4e 'N'
                           .data:004041c2 2f                               0x2f '/'
                           .data:004041c3 76                               0x76 'v'
                           .data:004041c4 33                               0x33 '3'
                           .data:004041c5 38                               0x38 '8'
                           .data:004041c6 65                               0x65 'e'
                           .data:004041c7 72                               0x72 'r'
                           .data:004041c8 71                               0x71 'q'
                           .data:004041c9 36                               0x36 '6'
                           .data:004041ca 2f                               0x2f '/'
                           .data:004041cb 31                               0x31 '1'
                           .data:004041cc 41                               0x41 'A'
                           .data:004041cd 67                               0x67 'g'
                           .data:004041ce 4b                               0x4b 'K'
                           .data:004041cf 71                               0x71 'q'
                           .data:004041d0 71                               0x71 'q'
                           .data:004041d1 71                               0x71 'q'
                           .data:004041d2 6f                               0x6f 'o'
                           .data:004041d3 42                               0x42 'B'
                           .data:004041d4 79                               0x79 'y'
                           .data:004041d5 4b                               0x4b 'K'
                           .data:004041d6 2f                               0x2f '/'
                           .data:004041d7 77                               0x77 'w'
                           .data:004041d8 37                               0x37 '7'
                           .data:004041d9 76                               0x76 'v'
                           .data:004041da 63                               0x63 'c'
                           .data:004041db 42                               0x42 'B'
                           .data:004041dc 76                               0x76 'v'
                           .data:004041dd 73                               0x73 's'
                           .data:004041de 4c                               0x4c 'L'
                           .data:004041df 45                               0x45 'E'
                           .data:004041e0 41                               0x41 'A'
                           .data:004041e1 73                               0x73 's'
                           .data:004041e2 69                               0x69 'i'
                           .data:004041e3 76                               0x76 'v'
                           .data:004041e4 72                               0x72 'r'
                           .data:004041e5 76                               0x76 'v'
                           .data:004041e6 44                               0x44 'D'
                           .data:004041e7 75                               0x75 'u'
                           .data:004041e8 39                               0x39 '9'
                           .data:004041e9 77                               0x77 'w'
                           .data:004041ea 48                               0x48 'H'
                           .data:004041eb 41                               0x41 'A'
                           .data:004041ec 72                               0x72 'r'
                           .data:004041ed 71                               0x71 'q'
                           .data:004041ee 2f                               0x2f '/'
                           .data:004041ef 79                               0x79 'y'
                           .data:004041f0 79                               0x79 'y'
                           .data:004041f1 4b                               0x4b 'K'
                           .data:004041f2 2f                               0x2f '/'
                           .data:004041f3 30                               0x30 '0'
                           .data:004041f4 2f                               0x2f '/'
                           .data:004041f5 4b                               0x4b 'K'
                           .data:004041f6 37                               0x37 '7'
                           .data:004041f7 35                               0x35 '5'
                           .data:004041f8 77                               0x77 'w'
                           .data:004041f9 4c                               0x4c 'L'
                           .data:004041fa 36                               0x36 '6'
                           .data:004041fb 72                               0x72 'r'
                           .data:004041fc 79                               0x79 'y'
                           .data:004041fd 4d                               0x4d 'M'
                           .data:004041fe 4c                               0x4c 'L'
                           .data:004041ff 42                               0x42 'B'
                           .data:00404200 39                               0x39 '9'
                           .data:00404201 4f                               0x4f 'O'
                           .data:00404202 33                               0x33 '3'
                           .data:00404203 66                               0x66 'f'
                           .data:00404204 38                               0x38 '8'
                           .data:00404205 66                               0x66 'f'
                           .data:00404206 48                               0x48 'H'
                           .data:00404207 2f                               0x2f '/'
                           .data:00404208 33                               0x33 '3'
                           .data:00404209 2f                               0x2f '/'
                           .data:0040420a 4d                               0x4d 'M'
                           .data:0040420b 43                               0x43 'C'
                           .data:0040420c 33                               0x33 '3'
                           .data:0040420d 38                               0x38 '8'
                           .data:0040420e 65                               0x65 'e'
                           .data:0040420f 72                               0x72 'r'
                           .data:00404210 71                               0x71 'q'
                           .data:00404211 36                               0x36 '6'
                           .data:00404212 2f                               0x2f '/'
                           .data:00404213 31                               0x31 '1'
                           .data:00404214 41                               0x41 'A'
                           .data:00404215 67                               0x67 'g'
                           .data:00404216 4b                               0x4b 'K'
                           .data:00404217 37                               0x37 '7'
                           .data:00404218 77                               0x77 'w'
                           .data:00404219 61                               0x61 'a'
                           .data:0040421a 34                               0x34 '4'
                           .data:0040421b 42                               0x42 'B'
                           .data:0040421c 77                               0x77 'w'
                           .data:0040421d 4d                               0x4d 'M'
                           .data:0040421e 69                               0x69 'i'
                           .data:0040421f 31                               0x31 '1'
                           .data:00404220 78                               0x78 'x'
                           .data:00404221 38                               0x38 '8'
                           .data:00404222 44                               0x44 'D'
                           .data:00404223 42                               0x42 'B'
                           .data:00404224 41                               0x41 'A'
                           .data:00404225 62                               0x62 'b'
                           .data:00404226 37                               0x37 '7'
                           .data:00404227 43                               0x43 'C'
                           .data:00404228 78                               0x78 'x'
                           .data:00404229 41                               0x41 'A'
                           .data:0040422a 4c                               0x4c 'L'
                           .data:0040422b 79                               0x79 'y'
                           .data:0040422c 73                               0x73 's'
                           .data:0040422d 50                               0x50 'P'
                           .data:0040422e 54                               0x54 'T'
                           .data:0040422f 38                               0x38 '8'
                           .data:00404230 72                               0x72 'r'
                           .data:00404231 74                               0x74 't'
                           .data:00404232 2f                               0x2f '/'
                           .data:00404233 39                               0x39 '9'
                           .data:00404234 41                               0x41 'A'
                           .data:00404235 2f                               0x2f '/'
                           .data:00404236 33                               0x33 '3'
                           .data:00404237 66                               0x66 'f'
                           .data:00404238 2f                               0x2f '/'
                           .data:00404239 51                               0x51 'Q'
                           .data:0040423a 50                               0x50 'P'
                           .data:0040423b 66                               0x66 'f'
                           .data:0040423c 78                               0x78 'x'
                           .data:0040423d 36                               0x36 '6'
                           .data:0040423e 75                               0x75 'u'
                           .data:0040423f 72                               0x72 'r'
                           .data:00404240 72                               0x72 'r'
                           .data:00404241 2f                               0x2f '/'
                           .data:00404242 55                               0x55 'U'
                           .data:00404243 43                               0x43 'C'
                           .data:00404244 41                               0x41 'A'
                           .data:00404245 71                               0x71 'q'
                           .data:00404246 79                               0x79 'y'
                           .data:00404247 75                               0x75 'u'
                           .data:00404248 76                               0x76 'v'
                           .data:00404249 4b                               0x4b 'K'
                           .data:0040424a 30                               0x30 '0'
                           .data:0040424b 42                               0x42 'B'
                           .data:0040424c 73                               0x73 's'
                           .data:0040424d 4c                               0x4c 'L'
                           .data:0040424e 58                               0x58 'X'
                           .data:0040424f 43                               0x43 'C'
                           .data:00404250 77                               0x77 'w'
                           .data:00404251 62                               0x62 'b'
                           .data:00404252 77                               0x77 'w'
                           .data:00404253 42                               0x42 'B'
                           .data:00404254 73                               0x73 's'
                           .data:00404255 4c                               0x4c 'L'
                           .data:00404256 41                               0x41 'A'
                           .data:00404257 42                               0x42 'B'
                           .data:00404258 76                               0x76 'v'
                           .data:00404259 73                               0x73 's'
                           .data:0040425a 4c                               0x4c 'L'
                           .data:0040425b 45                               0x45 'E'
                           .data:0040425c 41                               0x41 'A'
                           .data:0040425d 76                               0x76 'v'
                           .data:0040425e 79                               0x79 'y'
                           .data:0040425f 75                               0x75 'u'
                           .data:00404260 33                               0x33 '3'
                           .data:00404261 77                               0x77 'w'
                           .data:00404262 3d                               0x3d '='
                           .data:00404263 3d                               0x3d '='
                           .data:00404264 00                               0x00 
                           .data:00404265 00                               0x00 
                           .data:00404266 00                               0x00 
                           .data:00404267 00                               0x00 
                           .data:00404268 00                               0x00 
                           .data:00404269 00                               0x00 
                           .data:0040426a 00                               0x00 
                           .data:0040426b 00                               0x00 
                           .data:0040426c 00                               0x00 
                           .data:0040426d 00                               0x00 
                           .data:0040426e 00                               0x00 
                           .data:0040426f 00                               0x00 
                           .data:00404270 00                               0x00 
                           .data:00404271 00                               0x00 
                           .data:00404272 00                               0x00 
                           .data:00404273 00                               0x00 
                           .data:00404274 00                               0x00 
                           .data:00404275 00                               0x00 
                           .data:00404276 00                               0x00 
                           .data:00404277 00                               0x00 
                           .data:00404278 00                               0x00 
                           .data:00404279 00                               0x00 
                           .data:0040427a 00                               0x00 
                           .data:0040427b 00                               0x00 
                           .data:0040427c 00                               0x00 
                           .data:0040427d 00                               0x00 
                           .data:0040427e 00                               0x00 
                           .data:0040427f 00                               0x00 
                           .data:00404280 00                               0x00 
                           .data:00404281 00                               0x00 
                           .data:00404282 00                               0x00 
                           .data:00404283 00                               0x00 
                           .data:00404284 00                               0x00 
                           .data:00404285 00                               0x00 
                           .data:00404286 00                               0x00 
                           .data:00404287 00                               0x00 
                           .data:00404288 00                               0x00 
                           .data:00404289 00                               0x00 
                           .data:0040428a 00                               0x00 
                           .data:0040428b 00                               0x00 
                           .data:0040428c 00                               0x00 
                           .data:0040428d 00                               0x00 
                           .data:0040428e 00                               0x00 
                           .data:0040428f 00                               0x00 
                           .data:00404290 00                               0x00 
                           .data:00404291 00                               0x00 
                           .data:00404292 00                               0x00 
                           .data:00404293 00                               0x00 
                           .data:00404294 00                               0x00 
                           .data:00404295 00                               0x00 
                           .data:00404296 00                               0x00 
                           .data:00404297 00                               0x00 
                           .data:00404298 00                               0x00 
                           .data:00404299 00                               0x00 
                           .data:0040429a 00                               0x00 
                           .data:0040429b 00                               0x00 
                           .data:0040429c 00                               0x00 
                           .data:0040429d 00                               0x00 
                           .data:0040429e 00                               0x00 
                           .data:0040429f 00                               0x00 
                           .data:004042a0 00                               0x00 
                           .data:004042a1 00                               0x00 
                           .data:004042a2 00                               0x00 
                           .data:004042a3 00                               0x00 
                           .data:004042a4 00                               0x00 
                           .data:004042a5 00                               0x00 
                           .data:004042a6 00                               0x00 
                           .data:004042a7 00                               0x00 
                           .data:004042a8 00                               0x00 
                           .data:004042a9 00                               0x00 
                           .data:004042aa 00                               0x00 
                           .data:004042ab 00                               0x00 
                           .data:004042ac 00                               0x00 
                           .data:004042ad 00                               0x00 
                           .data:004042ae 00                               0x00 
                           .data:004042af 00                               0x00 
                           .data:004042b0 2a                               0x2a '*'
                           .data:004042b1 0a                               0x0a '
'
                           .data:004042b2 00                               0x00 
                           .data:004042b3 00                               0x00 
                           .data:004042b4 2a                               0x2a '*'
                           .data:004042b5 00                               0x00 
                           .data:004042b6 00                               0x00 
                           .data:004042b7 00                               0x00 
                           .data:004042b8 20                               0x20 ' '
                           .data:004042b9 00                               0x00 
                           .data:004042ba 00                               0x00 
                           .data:004042bb 00                               0x00 
                           .data:004042bc 00                               0x00 
                           .data:004042bd 00                               0x00 
                           .data:004042be 00                               0x00 
                           .data:004042bf 00                               0x00 
                           .data:004042c0 01                               0x01 
                           .data:004042c1 00                               0x00 
                           .data:004042c2 00                               0x00 
                           .data:004042c3 00                               0x00 
                           .data:004042c4 00                               0x00 
                           .data:004042c5 00                               0x00 
                           .data:004042c6 00                               0x00 
                           .data:004042c7 00                               0x00 
                           .data:004042c8 00                               0x00 
                           .data:004042c9 00                               0x00 
                           .data:004042ca 00                               0x00 
                           .data:004042cb 00                               0x00 
                           .data:004042cc 00                               0x00 
                           .data:004042cd 00                               0x00 
                           .data:004042ce 00                               0x00 
                           .data:004042cf 00                               0x00 
                           .data:004042d0 00                               0x00 
                           .data:004042d1 00                               0x00 
                           .data:004042d2 00                               0x00 
                           .data:004042d3 00                               0x00 
                           .data:004042d4 00                               0x00 
                           .data:004042d5 00                               0x00 
                           .data:004042d6 00                               0x00 
                           .data:004042d7 00                               0x00 
                           .data:004042d8 00                               0x00 
                           .data:004042d9 00                               0x00 
                           .data:004042da 00                               0x00 
                           .data:004042db 00                               0x00 
                           .data:004042dc 00                               0x00 
                           .data:004042dd 00                               0x00 
                           .data:004042de 00                               0x00 
                           .data:004042df 00                               0x00 
                           .data:004042e0 00                               0x00 
                           .data:004042e1 00                               0x00 
                           .data:004042e2 00                               0x00 
                           .data:004042e3 00                               0x00 
                           .data:004042e4 00                               0x00 
                           .data:004042e5 00                               0x00 
                           .data:004042e6 00                               0x00 
                           .data:004042e7 00                               0x00 
                           .data:004042e8 00                               0x00 
                           .data:004042e9 00                               0x00 
                           .data:004042ea 00                               0x00 
                           .data:004042eb 00                               0x00 
                           .data:004042ec 00                               0x00 
                           .data:004042ed 00                               0x00 
                           .data:004042ee 00                               0x00 
                           .data:004042ef 00                               0x00 
                           .data:004042f0 00                               0x00 
                           .data:004042f1 00                               0x00 
                           .data:004042f2 00                               0x00 
                           .data:004042f3 00                               0x00 
                           .data:004042f4 00                               0x00 
                           .data:004042f5 00                               0x00 
                           .data:004042f6 00                               0x00 
                           .data:004042f7 00                               0x00 
                           .data:004042f8 00                               0x00 
                           .data:004042f9 00                               0x00 
                           .data:004042fa 00                               0x00 
                           .data:004042fb 00                               0x00 
                           .data:004042fc 00                               0x00 
                           .data:004042fd 00                               0x00 
                           .data:004042fe 00                               0x00 
                           .data:004042ff 00                               0x00 
                           .data:00404300 00                               0x00 
                           .data:00404301 00                               0x00 
                           .data:00404302 00                               0x00 
                           .data:00404303 00                               0x00 
                           .data:00404304 00                               0x00 
                           .data:00404305 00                               0x00 
                           .data:00404306 00                               0x00 
                           .data:00404307 00                               0x00 
                           .data:00404308 00                               0x00 
                           .data:00404309 00                               0x00 
                           .data:0040430a 00                               0x00 
                           .data:0040430b 00                               0x00 
                           .data:0040430c 00                               0x00 
                           .data:0040430d 00                               0x00 
                           .data:0040430e 00                               0x00 
                           .data:0040430f 00                               0x00 
                           .data:00404310 00                               0x00 
                           .data:00404311 00                               0x00 
                           .data:00404312 00                               0x00 
                           .data:00404313 00                               0x00 
                           .data:00404314 00                               0x00 
                           .data:00404315 00                               0x00 
                           .data:00404316 00                               0x00 
                           .data:00404317 00                               0x00 
                           .data:00404318 00                               0x00 
                           .data:00404319 00                               0x00 
                           .data:0040431a 00                               0x00 
                           .data:0040431b 00                               0x00 
                           .data:0040431c 00                               0x00 
                           .data:0040431d 00                               0x00 
                           .data:0040431e 00                               0x00 
                           .data:0040431f 00                               0x00 
                           .data:00404320 00                               0x00 
                           .data:00404321 00                               0x00 
                           .data:00404322 00                               0x00 
                           .data:00404323 00                               0x00 
                           .data:00404324 00                               0x00 
                           .data:00404325 00                               0x00 
                           .data:00404326 00                               0x00 
                           .data:00404327 00                               0x00 
                           .data:00404328 00                               0x00 
                           .data:00404329 00                               0x00 
                           .data:0040432a 00                               0x00 
                           .data:0040432b 00                               0x00 
                           .data:0040432c 00                               0x00 
                           .data:0040432d 00                               0x00 
                           .data:0040432e 00                               0x00 
                           .data:0040432f 00                               0x00 
                           .data:00404330 00                               0x00 
                           .data:00404331 00                               0x00 
                           .data:00404332 00                               0x00 
                           .data:00404333 00                               0x00 
                           .data:00404334 00                               0x00 
                           .data:00404335 00                               0x00 
                           .data:00404336 00                               0x00 
                           .data:00404337 00                               0x00 
                           .data:00404338 00                               0x00 
                           .data:00404339 00                               0x00 
                           .data:0040433a 00                               0x00 
                           .data:0040433b 00                               0x00 
                           .data:0040433c 00                               0x00 
                           .data:0040433d 00                               0x00 
                           .data:0040433e 00                               0x00 
                           .data:0040433f 00                               0x00 
                           .data:00404340 00                               0x00 
                           .data:00404341 00                               0x00 
                           .data:00404342 00                               0x00 
                           .data:00404343 00                               0x00 
                           .data:00404344 00                               0x00 
                           .data:00404345 00                               0x00 
                           .data:00404346 00                               0x00 
                           .data:00404347 00                               0x00 
                           .data:00404348 00                               0x00 
                           .data:00404349 00                               0x00 
                           .data:0040434a 00                               0x00 
                           .data:0040434b 00                               0x00 
                           .data:0040434c 00                               0x00 
                           .data:0040434d 00                               0x00 
                           .data:0040434e 00                               0x00 
                           .data:0040434f 00                               0x00 
                           .data:00404350 00                               0x00 
                           .data:00404351 00                               0x00 
                           .data:00404352 00                               0x00 
                           .data:00404353 00                               0x00 
                           .data:00404354 00                               0x00 
                           .data:00404355 00                               0x00 
                           .data:00404356 00                               0x00 
                           .data:00404357 00                               0x00 
                           .data:00404358 00                               0x00 
                           .data:00404359 00                               0x00 
                           .data:0040435a 00                               0x00 
                           .data:0040435b 00                               0x00 
                           .data:0040435c 00                               0x00 
                           .data:0040435d 00                               0x00 
                           .data:0040435e 00                               0x00 
                           .data:0040435f 00                               0x00 
                           .data:00404360 00                               0x00 
                           .data:00404361 00                               0x00 
                           .data:00404362 00                               0x00 
                           .data:00404363 00                               0x00 
                           .data:00404364 00                               0x00 
                           .data:00404365 00                               0x00 
                           .data:00404366 00                               0x00 
                           .data:00404367 00                               0x00 
                           .data:00404368 00                               0x00 
                           .data:00404369 00                               0x00 
                           .data:0040436a 00                               0x00 
                           .data:0040436b 00                               0x00 
                           .data:0040436c 00                               0x00 
                           .data:0040436d 00                               0x00 
                           .data:0040436e 00                               0x00 
                           .data:0040436f 00                               0x00 
                           .data:00404370 00                               0x00 
                           .data:00404371 00                               0x00 
                           .data:00404372 00                               0x00 
                           .data:00404373 00                               0x00 
                           .data:00404374 00                               0x00 
                           .data:00404375 00                               0x00 
                           .data:00404376 00                               0x00 
                           .data:00404377 00                               0x00 
                           .data:00404378 00                               0x00 
                           .data:00404379 00                               0x00 
                           .data:0040437a 00                               0x00 
                           .data:0040437b 00                               0x00 
                           .data:0040437c 00                               0x00 
                           .data:0040437d 00                               0x00 
                           .data:0040437e 00                               0x00 
                           .data:0040437f 00                               0x00 
                           .data:00404380 00                               0x00 
                           .data:00404381 00                               0x00 
                           .data:00404382 00                               0x00 
                           .data:00404383 00                               0x00 
                           .data:00404384 00                               0x00 
                           .data:00404385 00                               0x00 
                           .data:00404386 00                               0x00 
                           .data:00404387 00                               0x00 
                           .data:00404388 00                               0x00 
                           .data:00404389 00                               0x00 
                           .data:0040438a 00                               0x00 
                           .data:0040438b 00                               0x00 
                           .data:0040438c 00                               0x00 
                           .data:0040438d 00                               0x00 
                           .data:0040438e 00                               0x00 
                           .data:0040438f 00                               0x00 
                           .data:00404390 00                               0x00 
                           .data:00404391 00                               0x00 
                           .data:00404392 00                               0x00 
                           .data:00404393 00                               0x00 
                           .data:00404394 00                               0x00 
                           .data:00404395 00                               0x00 
                           .data:00404396 00                               0x00 
                           .data:00404397 00                               0x00 
                           .data:00404398 00                               0x00 
                           .data:00404399 00                               0x00 
                           .data:0040439a 00                               0x00 
                           .data:0040439b 00                               0x00 
                           .data:0040439c 00                               0x00 
                           .data:0040439d 00                               0x00 
                           .data:0040439e 00                               0x00 
                           .data:0040439f 00                               0x00 
                           .data:004043a0 00                               0x00 
                           .data:004043a1 00                               0x00 
                           .data:004043a2 00                               0x00 
                           .data:004043a3 00                               0x00 
                           .data:004043a4 00                               0x00 
                           .data:004043a5 00                               0x00 
                           .data:004043a6 00                               0x00 
                           .data:004043a7 00                               0x00 
                           .data:004043a8 00                               0x00 
                           .data:004043a9 00                               0x00 
                           .data:004043aa 00                               0x00 
                           .data:004043ab 00                               0x00 
                           .data:004043ac 00                               0x00 
                           .data:004043ad 00                               0x00 
                           .data:004043ae 00                               0x00 
                           .data:004043af 00                               0x00 
                           .data:004043b0 00                               0x00 
                           .data:004043b1 00                               0x00 
                           .data:004043b2 00                               0x00 
                           .data:004043b3 00                               0x00 
                           .data:004043b4 00                               0x00 
                           .data:004043b5 00                               0x00 
                           .data:004043b6 00                               0x00 
                           .data:004043b7 00                               0x00 
                           .data:004043b8 00                               0x00 
                           .data:004043b9 00                               0x00 
                           .data:004043ba 00                               0x00 
                           .data:004043bb 00                               0x00 
                           .data:004043bc 00                               0x00 
                           .data:004043bd 00                               0x00 
                           .data:004043be 00                               0x00 
                           .data:004043bf 00                               0x00 
                           .data:004043c0 00                               0x00 
                           .data:004043c1 00                               0x00 
                           .data:004043c2 00                               0x00 
                           .data:004043c3 00                               0x00 
                           .data:004043c4 00                               0x00 
                           .data:004043c5 00                               0x00 
                           .data:004043c6 00                               0x00 
                           .data:004043c7 00                               0x00 
                           .data:004043c8 00                               0x00 
                           .data:004043c9 00                               0x00 
                           .data:004043ca 00                               0x00 
                           .data:004043cb 00                               0x00 
                           .data:004043cc 00                               0x00 
                           .data:004043cd 00                               0x00 
                           .data:004043ce 00                               0x00 
                           .data:004043cf 00                               0x00 
                           .data:004043d0 00                               0x00 
                           .data:004043d1 00                               0x00 
                           .data:004043d2 00                               0x00 
                           .data:004043d3 00                               0x00 
                           .data:004043d4 00                               0x00 
                           .data:004043d5 00                               0x00 
                           .data:004043d6 00                               0x00 
                           .data:004043d7 00                               0x00 
                           .data:004043d8 00                               0x00 
                           .data:004043d9 00                               0x00 
                           .data:004043da 00                               0x00 
                           .data:004043db 00                               0x00 
                           .data:004043dc 00                               0x00 
                           .data:004043dd 00                               0x00 
                           .data:004043de 00                               0x00 
                           .data:004043df 00                               0x00 
                           .data:004043e0 00                               0x00 
                           .data:004043e1 00                               0x00 
                           .data:004043e2 00                               0x00 
                           .data:004043e3 00                               0x00 
                           .rsrc:00405000 00                               0x00 
                           .rsrc:00405001 00                               0x00 
                           .rsrc:00405002 00                               0x00 
                           .rsrc:00405003 00                               0x00 
                           .rsrc:00405004 00                               0x00 
                           .rsrc:00405005 00                               0x00 
                           .rsrc:00405006 00                               0x00 
                           .rsrc:00405007 00                               0x00 
                           .rsrc:00405008 00                               0x00 
                           .rsrc:00405009 00                               0x00 
                           .rsrc:0040500a 00                               0x00 
                           .rsrc:0040500b 00                               0x00 
                           .rsrc:0040500c 00                               0x00 
                           .rsrc:0040500d 00                               0x00 
                           .rsrc:0040500e 06                               0x06 
                           .rsrc:0040500f 00                               0x00 
                           .rsrc:00405010 02                               0x02 
                           .rsrc:00405011 00                               0x00 
                           .rsrc:00405012 00                               0x00 
                           .rsrc:00405013 00                               0x00 
                           .rsrc:00405014 40                               0x40 '@'
                           .rsrc:00405015 00                               0x00 
                           .rsrc:00405016 00                               0x00 
                           .rsrc:00405017 80                               0x80 
                           .rsrc:00405018 03                               0x03 
                           .rsrc:00405019 00                               0x00 
                           .rsrc:0040501a 00                               0x00 
                           .rsrc:0040501b 00                               0x00 
                           .rsrc:0040501c 58                               0x58 'X'
                           .rsrc:0040501d 00                               0x00 
                           .rsrc:0040501e 00                               0x00 
                           .rsrc:0040501f 80                               0x80 
                           .rsrc:00405020 05                               0x05 
                           .rsrc:00405021 00                               0x00 
                           .rsrc:00405022 00                               0x00 
                           .rsrc:00405023 00                               0x00 
                           .rsrc:00405024 70                               0x70 'p'
                           .rsrc:00405025 00                               0x00 
                           .rsrc:00405026 00                               0x00 
                           .rsrc:00405027 80                               0x80 
                           .rsrc:00405028 0e                               0x0e 
                           .rsrc:00405029 00                               0x00 
                           .rsrc:0040502a 00                               0x00 
                           .rsrc:0040502b 00                               0x00 
                           .rsrc:0040502c 88                               0x88 
                           .rsrc:0040502d 00                               0x00 
                           .rsrc:0040502e 00                               0x00 
                           .rsrc:0040502f 80                               0x80 
                           .rsrc:00405030 10                               0x10 
                           .rsrc:00405031 00                               0x00 
                           .rsrc:00405032 00                               0x00 
                           .rsrc:00405033 00                               0x00 
                           .rsrc:00405034 a0                               0xa0 
                           .rsrc:00405035 00                               0x00 
                           .rsrc:00405036 00                               0x00 
                           .rsrc:00405037 80                               0x80 
                           .rsrc:00405038 f0                               0xf0 
                           .rsrc:00405039 00                               0x00 
                           .rsrc:0040503a 00                               0x00 
                           .rsrc:0040503b 00                               0x00 
                           .rsrc:0040503c b8                               0xb8 
                           .rsrc:0040503d 00                               0x00 
                           .rsrc:0040503e 00                               0x00 
                           .rsrc:0040503f 80                               0x80 
                           .rsrc:00405040 00                               0x00 
                           .rsrc:00405041 00                               0x00 
                           .rsrc:00405042 00                               0x00 
                           .rsrc:00405043 00                               0x00 
                           .rsrc:00405044 00                               0x00 
                           .rsrc:00405045 00                               0x00 
                           .rsrc:00405046 00                               0x00 
                           .rsrc:00405047 00                               0x00 
                           .rsrc:00405048 00                               0x00 
                           .rsrc:00405049 00                               0x00 
                           .rsrc:0040504a 00                               0x00 
                           .rsrc:0040504b 00                               0x00 
                           .rsrc:0040504c 00                               0x00 
                           .rsrc:0040504d 00                               0x00 
                           .rsrc:0040504e 01                               0x01 
                           .rsrc:0040504f 00                               0x00 
                           .rsrc:00405050 70                               0x70 'p'
                           .rsrc:00405051 00                               0x00 
                           .rsrc:00405052 00                               0x00 
                           .rsrc:00405053 00                               0x00 
                           .rsrc:00405054 d0                               0xd0 
                           .rsrc:00405055 00                               0x00 
                           .rsrc:00405056 00                               0x00 
                           .rsrc:00405057 80                               0x80 
                           .rsrc:00405058 00                               0x00 
                           .rsrc:00405059 00                               0x00 
                           .rsrc:0040505a 00                               0x00 
                           .rsrc:0040505b 00                               0x00 
                           .rsrc:0040505c 00                               0x00 
                           .rsrc:0040505d 00                               0x00 
                           .rsrc:0040505e 00                               0x00 
                           .rsrc:0040505f 00                               0x00 
                           .rsrc:00405060 00                               0x00 
                           .rsrc:00405061 00                               0x00 
                           .rsrc:00405062 00                               0x00 
                           .rsrc:00405063 00                               0x00 
                           .rsrc:00405064 00                               0x00 
                           .rsrc:00405065 00                               0x00 
                           .rsrc:00405066 01                               0x01 
                           .rsrc:00405067 00                               0x00 
                           .rsrc:00405068 01                               0x01 
                           .rsrc:00405069 00                               0x00 
                           .rsrc:0040506a 00                               0x00 
                           .rsrc:0040506b 00                               0x00 
                           .rsrc:0040506c e8                               0xe8 
                           .rsrc:0040506d 00                               0x00 
                           .rsrc:0040506e 00                               0x00 
                           .rsrc:0040506f 80                               0x80 
                           .rsrc:00405070 00                               0x00 
                           .rsrc:00405071 00                               0x00 
                           .rsrc:00405072 00                               0x00 
                           .rsrc:00405073 00                               0x00 
                           .rsrc:00405074 00                               0x00 
                           .rsrc:00405075 00                               0x00 
                           .rsrc:00405076 00                               0x00 
                           .rsrc:00405077 00                               0x00 
                           .rsrc:00405078 00                               0x00 
                           .rsrc:00405079 00                               0x00 
                           .rsrc:0040507a 00                               0x00 
                           .rsrc:0040507b 00                               0x00 
                           .rsrc:0040507c 00                               0x00 
                           .rsrc:0040507d 00                               0x00 
                           .rsrc:0040507e 01                               0x01 
                           .rsrc:0040507f 00                               0x00 
                           .rsrc:00405080 71                               0x71 'q'
                           .rsrc:00405081 00                               0x00 
                           .rsrc:00405082 00                               0x00 
                           .rsrc:00405083 00                               0x00 
                           .rsrc:00405084 00                               0x00 
                           .rsrc:00405085 01                               0x01 
                           .rsrc:00405086 00                               0x00 
                           .rsrc:00405087 80                               0x80 
                           .rsrc:00405088 00                               0x00 
                           .rsrc:00405089 00                               0x00 
                           .rsrc:0040508a 00                               0x00 
                           .rsrc:0040508b 00                               0x00 
                           .rsrc:0040508c 00                               0x00 
                           .rsrc:0040508d 00                               0x00 
                           .rsrc:0040508e 00                               0x00 
                           .rsrc:0040508f 00                               0x00 
                           .rsrc:00405090 00                               0x00 
                           .rsrc:00405091 00                               0x00 
                           .rsrc:00405092 00                               0x00 
                           .rsrc:00405093 00                               0x00 
                           .rsrc:00405094 00                               0x00 
                           .rsrc:00405095 00                               0x00 
                           .rsrc:00405096 01                               0x01 
                           .rsrc:00405097 00                               0x00 
                           .rsrc:00405098 6f                               0x6f 'o'
                           .rsrc:00405099 00                               0x00 
                           .rsrc:0040509a 00                               0x00 
                           .rsrc:0040509b 00                               0x00 
                           .rsrc:0040509c 18                               0x18 
                           .rsrc:0040509d 01                               0x01 
                           .rsrc:0040509e 00                               0x00 
                           .rsrc:0040509f 80                               0x80 
                           .rsrc:004050a0 00                               0x00 
                           .rsrc:004050a1 00                               0x00 
                           .rsrc:004050a2 00                               0x00 
                           .rsrc:004050a3 00                               0x00 
                           .rsrc:004050a4 00                               0x00 
                           .rsrc:004050a5 00                               0x00 
                           .rsrc:004050a6 00                               0x00 
                           .rsrc:004050a7 00                               0x00 
                           .rsrc:004050a8 00                               0x00 
                           .rsrc:004050a9 00                               0x00 
                           .rsrc:004050aa 00                               0x00 
                           .rsrc:004050ab 00                               0x00 
                           .rsrc:004050ac 00                               0x00 
                           .rsrc:004050ad 00                               0x00 
                           .rsrc:004050ae 01                               0x01 
                           .rsrc:004050af 00                               0x00 
                           .rsrc:004050b0 01                               0x01 
                           .rsrc:004050b1 00                               0x00 
                           .rsrc:004050b2 00                               0x00 
                           .rsrc:004050b3 00                               0x00 
                           .rsrc:004050b4 30                               0x30 '0'
                           .rsrc:004050b5 01                               0x01 
                           .rsrc:004050b6 00                               0x00 
                           .rsrc:004050b7 80                               0x80 
                           .rsrc:004050b8 00                               0x00 
                           .rsrc:004050b9 00                               0x00 
                           .rsrc:004050ba 00                               0x00 
                           .rsrc:004050bb 00                               0x00 
                           .rsrc:004050bc 00                               0x00 
                           .rsrc:004050bd 00                               0x00 
                           .rsrc:004050be 00                               0x00 
                           .rsrc:004050bf 00                               0x00 
                           .rsrc:004050c0 00                               0x00 
                           .rsrc:004050c1 00                               0x00 
                           .rsrc:004050c2 00                               0x00 
                           .rsrc:004050c3 00                               0x00 
                           .rsrc:004050c4 00                               0x00 
                           .rsrc:004050c5 00                               0x00 
                           .rsrc:004050c6 01                               0x01 
                           .rsrc:004050c7 00                               0x00 
                           .rsrc:004050c8 71                               0x71 'q'
                           .rsrc:004050c9 00                               0x00 
                           .rsrc:004050ca 00                               0x00 
                           .rsrc:004050cb 00                               0x00 
                           .rsrc:004050cc 48                               0x48 'H'
                           .rsrc:004050cd 01                               0x01 
                           .rsrc:004050ce 00                               0x00 
                           .rsrc:004050cf 80                               0x80 
                           .rsrc:004050d0 00                               0x00 
                           .rsrc:004050d1 00                               0x00 
                           .rsrc:004050d2 00                               0x00 
                           .rsrc:004050d3 00                               0x00 
                           .rsrc:004050d4 00                               0x00 
                           .rsrc:004050d5 00                               0x00 
                           .rsrc:004050d6 00                               0x00 
                           .rsrc:004050d7 00                               0x00 
                           .rsrc:004050d8 00                               0x00 
                           .rsrc:004050d9 00                               0x00 
                           .rsrc:004050da 00                               0x00 
                           .rsrc:004050db 00                               0x00 
                           .rsrc:004050dc 00                               0x00 
                           .rsrc:004050dd 00                               0x00 
                           .rsrc:004050de 01                               0x01 
                           .rsrc:004050df 00                               0x00 
                           .rsrc:004050e0 04                               0x04 
                           .rsrc:004050e1 08                               0x08 
                           .rsrc:004050e2 00                               0x00 
                           .rsrc:004050e3 00                               0x00 
                           .rsrc:004050e4 60                               0x60 '`'
                           .rsrc:004050e5 01                               0x01 
                           .rsrc:004050e6 00                               0x00 
                           .rsrc:004050e7 00                               0x00 
                           .rsrc:004050e8 00                               0x00 
                           .rsrc:004050e9 00                               0x00 
                           .rsrc:004050ea 00                               0x00 
                           .rsrc:004050eb 00                               0x00 
                           .rsrc:004050ec 00                               0x00 
                           .rsrc:004050ed 00                               0x00 
                           .rsrc:004050ee 00                               0x00 
                           .rsrc:004050ef 00                               0x00 
                           .rsrc:004050f0 00                               0x00 
                           .rsrc:004050f1 00                               0x00 
                           .rsrc:004050f2 00                               0x00 
                           .rsrc:004050f3 00                               0x00 
                           .rsrc:004050f4 00                               0x00 
                           .rsrc:004050f5 00                               0x00 
                           .rsrc:004050f6 01                               0x01 
                           .rsrc:004050f7 00                               0x00 
                           .rsrc:004050f8 04                               0x04 
                           .rsrc:004050f9 08                               0x08 
                           .rsrc:004050fa 00                               0x00 
                           .rsrc:004050fb 00                               0x00 
                           .rsrc:004050fc 70                               0x70 'p'
                           .rsrc:004050fd 01                               0x01 
                           .rsrc:004050fe 00                               0x00 
                           .rsrc:004050ff 00                               0x00 
                           .rsrc:00405100 00                               0x00 
                           .rsrc:00405101 00                               0x00 
                           .rsrc:00405102 00                               0x00 
                           .rsrc:00405103 00                               0x00 
                           .rsrc:00405104 00                               0x00 
                           .rsrc:00405105 00                               0x00 
                           .rsrc:00405106 00                               0x00 
                           .rsrc:00405107 00                               0x00 
                           .rsrc:00405108 00                               0x00 
                           .rsrc:00405109 00                               0x00 
                           .rsrc:0040510a 00                               0x00 
                           .rsrc:0040510b 00                               0x00 
                           .rsrc:0040510c 00                               0x00 
                           .rsrc:0040510d 00                               0x00 
                           .rsrc:0040510e 01                               0x01 
                           .rsrc:0040510f 00                               0x00 
                           .rsrc:00405110 04                               0x04 
                           .rsrc:00405111 08                               0x08 
                           .rsrc:00405112 00                               0x00 
                           .rsrc:00405113 00                               0x00 
                           .rsrc:00405114 80                               0x80 
                           .rsrc:00405115 01                               0x01 
                           .rsrc:00405116 00                               0x00 
                           .rsrc:00405117 00                               0x00 
                           .rsrc:00405118 00                               0x00 
                           .rsrc:00405119 00                               0x00 
                           .rsrc:0040511a 00                               0x00 
                           .rsrc:0040511b 00                               0x00 
                           .rsrc:0040511c 00                               0x00 
                           .rsrc:0040511d 00                               0x00 
                           .rsrc:0040511e 00                               0x00 
                           .rsrc:0040511f 00                               0x00 
                           .rsrc:00405120 00                               0x00 
                           .rsrc:00405121 00                               0x00 
                           .rsrc:00405122 00                               0x00 
                           .rsrc:00405123 00                               0x00 
                           .rsrc:00405124 00                               0x00 
                           .rsrc:00405125 00                               0x00 
                           .rsrc:00405126 01                               0x01 
                           .rsrc:00405127 00                               0x00 
                           .rsrc:00405128 04                               0x04 
                           .rsrc:00405129 08                               0x08 
                           .rsrc:0040512a 00                               0x00 
                           .rsrc:0040512b 00                               0x00 
                           .rsrc:0040512c 90                               0x90 
                           .rsrc:0040512d 01                               0x01 
                           .rsrc:0040512e 00                               0x00 
                           .rsrc:0040512f 00                               0x00 
                           .rsrc:00405130 00                               0x00 
                           .rsrc:00405131 00                               0x00 
                           .rsrc:00405132 00                               0x00 
                           .rsrc:00405133 00                               0x00 
                           .rsrc:00405134 00                               0x00 
                           .rsrc:00405135 00                               0x00 
                           .rsrc:00405136 00                               0x00 
                           .rsrc:00405137 00                               0x00 
                           .rsrc:00405138 00                               0x00 
                           .rsrc:00405139 00                               0x00 
                           .rsrc:0040513a 00                               0x00 
                           .rsrc:0040513b 00                               0x00 
                           .rsrc:0040513c 00                               0x00 
                           .rsrc:0040513d 00                               0x00 
                           .rsrc:0040513e 01                               0x01 
                           .rsrc:0040513f 00                               0x00 
                           .rsrc:00405140 04                               0x04 
                           .rsrc:00405141 08                               0x08 
                           .rsrc:00405142 00                               0x00 
                           .rsrc:00405143 00                               0x00 
                           .rsrc:00405144 a0                               0xa0 
                           .rsrc:00405145 01                               0x01 
                           .rsrc:00405146 00                               0x00 
                           .rsrc:00405147 00                               0x00 
                           .rsrc:00405148 00                               0x00 
                           .rsrc:00405149 00                               0x00 
                           .rsrc:0040514a 00                               0x00 
                           .rsrc:0040514b 00                               0x00 
                           .rsrc:0040514c 00                               0x00 
                           .rsrc:0040514d 00                               0x00 
                           .rsrc:0040514e 00                               0x00 
                           .rsrc:0040514f 00                               0x00 
                           .rsrc:00405150 00                               0x00 
                           .rsrc:00405151 00                               0x00 
                           .rsrc:00405152 00                               0x00 
                           .rsrc:00405153 00                               0x00 
                           .rsrc:00405154 00                               0x00 
                           .rsrc:00405155 00                               0x00 
                           .rsrc:00405156 01                               0x01 
                           .rsrc:00405157 00                               0x00 
                           .rsrc:00405158 04                               0x04 
                           .rsrc:00405159 08                               0x08 
                           .rsrc:0040515a 00                               0x00 
                           .rsrc:0040515b 00                               0x00 
                           .rsrc:0040515c b0                               0xb0 
                           .rsrc:0040515d 01                               0x01 
                           .rsrc:0040515e 00                               0x00 
                           .rsrc:0040515f 00                               0x00 
                           .rsrc:00405160 d0                               0xd0 
                           .rsrc:00405161 57                               0x57 'W'
                           .rsrc:00405162 00                               0x00 
                           .rsrc:00405163 00                               0x00 
                           .rsrc:00405164 e8                               0xe8 
                           .rsrc:00405165 04                               0x04 
                           .rsrc:00405166 00                               0x00 
                           .rsrc:00405167 00                               0x00 
                           .rsrc:00405168 00                               0x00 
                           .rsrc:00405169 00                               0x00 
                           .rsrc:0040516a 00                               0x00 
                           .rsrc:0040516b 00                               0x00 
                           .rsrc:0040516c 00                               0x00 
                           .rsrc:0040516d 00                               0x00 
                           .rsrc:0040516e 00                               0x00 
                           .rsrc:0040516f 00                               0x00 
                           .rsrc:00405170 d0                               0xd0 
                           .rsrc:00405171 54                               0x54 'T'
                           .rsrc:00405172 00                               0x00 
                           .rsrc:00405173 00                               0x00 
                           .rsrc:00405174 e8                               0xe8 
                           .rsrc:00405175 02                               0x02 
                           .rsrc:00405176 00                               0x00 
                           .rsrc:00405177 00                               0x00 
                           .rsrc:00405178 00                               0x00 
                           .rsrc:00405179 00                               0x00 
                           .rsrc:0040517a 00                               0x00 
                           .rsrc:0040517b 00                               0x00 
                           .rsrc:0040517c 00                               0x00 
                           .rsrc:0040517d 00                               0x00 
                           .rsrc:0040517e 00                               0x00 
                           .rsrc:0040517f 00                               0x00 
                           .rsrc:00405180 b8                               0xb8 
                           .rsrc:00405181 5c                               0x5c '\'
                           .rsrc:00405182 00                               0x00 
                           .rsrc:00405183 00                               0x00 
                           .rsrc:00405184 d0                               0xd0 
                           .rsrc:00405185 00                               0x00 
                           .rsrc:00405186 00                               0x00 
                           .rsrc:00405187 00                               0x00 
                           .rsrc:00405188 00                               0x00 
                           .rsrc:00405189 00                               0x00 
                           .rsrc:0040518a 00                               0x00 
                           .rsrc:0040518b 00                               0x00 
                           .rsrc:0040518c 00                               0x00 
                           .rsrc:0040518d 00                               0x00 
                           .rsrc:0040518e 00                               0x00 
                           .rsrc:0040518f 00                               0x00 
                           .rsrc:00405190 b8                               0xb8 
                           .rsrc:00405191 57                               0x57 'W'
                           .rsrc:00405192 00                               0x00 
                           .rsrc:00405193 00                               0x00 
                           .rsrc:00405194 14                               0x14 
                           .rsrc:00405195 00                               0x00 
                           .rsrc:00405196 00                               0x00 
                           .rsrc:00405197 00                               0x00 
                           .rsrc:00405198 00                               0x00 
                           .rsrc:00405199 00                               0x00 
                           .rsrc:0040519a 00                               0x00 
                           .rsrc:0040519b 00                               0x00 
                           .rsrc:0040519c 00                               0x00 
                           .rsrc:0040519d 00                               0x00 
                           .rsrc:0040519e 00                               0x00 
                           .rsrc:0040519f 00                               0x00 
                           .rsrc:004051a0 c0                               0xc0 
                           .rsrc:004051a1 51                               0x51 'Q'
                           .rsrc:004051a2 00                               0x00 
                           .rsrc:004051a3 00                               0x00 
                           .rsrc:004051a4 10                               0x10 
                           .rsrc:004051a5 03                               0x03 
                           .rsrc:004051a6 00                               0x00 
                           .rsrc:004051a7 00                               0x00 
                           .rsrc:004051a8 00                               0x00 
                           .rsrc:004051a9 00                               0x00 
                           .rsrc:004051aa 00                               0x00 
                           .rsrc:004051ab 00                               0x00 
                           .rsrc:004051ac 00                               0x00 
                           .rsrc:004051ad 00                               0x00 
                           .rsrc:004051ae 00                               0x00 
                           .rsrc:004051af 00                               0x00 
                           .rsrc:004051b0 88                               0x88 
                           .rsrc:004051b1 5d                               0x5d ']'
                           .rsrc:004051b2 00                               0x00 
                           .rsrc:004051b3 00                               0x00 
                           .rsrc:004051b4 a8                               0xa8 
                           .rsrc:004051b5 01                               0x01 
                           .rsrc:004051b6 00                               0x00 
                           .rsrc:004051b7 00                               0x00 
                           .rsrc:004051b8 00                               0x00 
                           .rsrc:004051b9 00                               0x00 
                           .rsrc:004051ba 00                               0x00 
                           .rsrc:004051bb 00                               0x00 
                           .rsrc:004051bc 00                               0x00 
                           .rsrc:004051bd 00                               0x00 
                           .rsrc:004051be 00                               0x00 
                           .rsrc:004051bf 00                               0x00 
                           .rsrc:004051c0 10                               0x10 
                           .rsrc:004051c1 03                               0x03 
                           .rsrc:004051c2 34                               0x34 '4'
                           .rsrc:004051c3 00                               0x00 
                           .rsrc:004051c4 00                               0x00 
                           .rsrc:004051c5 00                               0x00 
                           .rsrc:004051c6 56                               0x56 'V'
                           .rsrc:004051c7 00                               0x00 
                           .rsrc:004051c8 53                               0x53 'S'
                           .rsrc:004051c9 00                               0x00 
                           .rsrc:004051ca 5f                               0x5f '_'
                           .rsrc:004051cb 00                               0x00 
                           .rsrc:004051cc 56                               0x56 'V'
                           .rsrc:004051cd 00                               0x00 
                           .rsrc:004051ce 45                               0x45 'E'
                           .rsrc:004051cf 00                               0x00 
                           .rsrc:004051d0 52                               0x52 'R'
                           .rsrc:004051d1 00                               0x00 
                           .rsrc:004051d2 53                               0x53 'S'
                           .rsrc:004051d3 00                               0x00 
                           .rsrc:004051d4 49                               0x49 'I'
                           .rsrc:004051d5 00                               0x00 
                           .rsrc:004051d6 4f                               0x4f 'O'
                           .rsrc:004051d7 00                               0x00 
                           .rsrc:004051d8 4e                               0x4e 'N'
                           .rsrc:004051d9 00                               0x00 
                           .rsrc:004051da 5f                               0x5f '_'
                           .rsrc:004051db 00                               0x00 
                           .rsrc:004051dc 49                               0x49 'I'
                           .rsrc:004051dd 00                               0x00 
                           .rsrc:004051de 4e                               0x4e 'N'
                           .rsrc:004051df 00                               0x00 
                           .rsrc:004051e0 46                               0x46 'F'
                           .rsrc:004051e1 00                               0x00 
                           .rsrc:004051e2 4f                               0x4f 'O'
                           .rsrc:004051e3 00                               0x00 
                           .rsrc:004051e4 00                               0x00 
                           .rsrc:004051e5 00                               0x00 
                           .rsrc:004051e6 00                               0x00 
                           .rsrc:004051e7 00                               0x00 
                           .rsrc:004051e8 bd                               0xbd 
                           .rsrc:004051e9 04                               0x04 
                           .rsrc:004051ea ef                               0xef 
                           .rsrc:004051eb fe                               0xfe 
                           .rsrc:004051ec 00                               0x00 
                           .rsrc:004051ed 00                               0x00 
                           .rsrc:004051ee 01                               0x01 
                           .rsrc:004051ef 00                               0x00 
                           .rsrc:004051f0 00                               0x00 
                           .rsrc:004051f1 00                               0x00 
                           .rsrc:004051f2 01                               0x01 
                           .rsrc:004051f3 00                               0x00 
                           .rsrc:004051f4 01                               0x01 
                           .rsrc:004051f5 00                               0x00 
                           .rsrc:004051f6 00                               0x00 
                           .rsrc:004051f7 00                               0x00 
                           .rsrc:004051f8 00                               0x00 
                           .rsrc:004051f9 00                               0x00 
                           .rsrc:004051fa 01                               0x01 
                           .rsrc:004051fb 00                               0x00 
                           .rsrc:004051fc 01                               0x01 
                           .rsrc:004051fd 00                               0x00 
                           .rsrc:004051fe 00                               0x00 
                           .rsrc:004051ff 00                               0x00 
                           .rsrc:00405200 3f                               0x3f '?'
                           .rsrc:00405201 00                               0x00 
                           .rsrc:00405202 00                               0x00 
                           .rsrc:00405203 00                               0x00 
                           .rsrc:00405204 00                               0x00 
                           .rsrc:00405205 00                               0x00 
                           .rsrc:00405206 00                               0x00 
                           .rsrc:00405207 00                               0x00 
                           .rsrc:00405208 04                               0x04 
                           .rsrc:00405209 00                               0x00 
                           .rsrc:0040520a 04                               0x04 
                           .rsrc:0040520b 00                               0x00 
                           .rsrc:0040520c 01                               0x01 
                           .rsrc:0040520d 00                               0x00 
                           .rsrc:0040520e 00                               0x00 
                           .rsrc:0040520f 00                               0x00 
                           .rsrc:00405210 00                               0x00 
                           .rsrc:00405211 00                               0x00 
                           .rsrc:00405212 00                               0x00 
                           .rsrc:00405213 00                               0x00 
                           .rsrc:00405214 00                               0x00 
                           .rsrc:00405215 00                               0x00 
                           .rsrc:00405216 00                               0x00 
                           .rsrc:00405217 00                               0x00 
                           .rsrc:00405218 00                               0x00 
                           .rsrc:00405219 00                               0x00 
                           .rsrc:0040521a 00                               0x00 
                           .rsrc:0040521b 00                               0x00 
                           .rsrc:0040521c 70                               0x70 'p'
                           .rsrc:0040521d 02                               0x02 
                           .rsrc:0040521e 00                               0x00 
                           .rsrc:0040521f 00                               0x00 
                           .rsrc:00405220 01                               0x01 
                           .rsrc:00405221 00                               0x00 
                           .rsrc:00405222 53                               0x53 'S'
                           .rsrc:00405223 00                               0x00 
                           .rsrc:00405224 74                               0x74 't'
                           .rsrc:00405225 00                               0x00 
                           .rsrc:00405226 72                               0x72 'r'
                           .rsrc:00405227 00                               0x00 
                           .rsrc:00405228 69                               0x69 'i'
                           .rsrc:00405229 00                               0x00 
                           .rsrc:0040522a 6e                               0x6e 'n'
                           .rsrc:0040522b 00                               0x00 
                           .rsrc:0040522c 67                               0x67 'g'
                           .rsrc:0040522d 00                               0x00 
                           .rsrc:0040522e 46                               0x46 'F'
                           .rsrc:0040522f 00                               0x00 
                           .rsrc:00405230 69                               0x69 'i'
                           .rsrc:00405231 00                               0x00 
                           .rsrc:00405232 6c                               0x6c 'l'
                           .rsrc:00405233 00                               0x00 
                           .rsrc:00405234 65                               0x65 'e'
                           .rsrc:00405235 00                               0x00 
                           .rsrc:00405236 49                               0x49 'I'
                           .rsrc:00405237 00                               0x00 
                           .rsrc:00405238 6e                               0x6e 'n'
                           .rsrc:00405239 00                               0x00 
                           .rsrc:0040523a 66                               0x66 'f'
                           .rsrc:0040523b 00                               0x00 
                           .rsrc:0040523c 6f                               0x6f 'o'
                           .rsrc:0040523d 00                               0x00 
                           .rsrc:0040523e 00                               0x00 
                           .rsrc:0040523f 00                               0x00 
                           .rsrc:00405240 4c                               0x4c 'L'
                           .rsrc:00405241 02                               0x02 
                           .rsrc:00405242 00                               0x00 
                           .rsrc:00405243 00                               0x00 
                           .rsrc:00405244 01                               0x01 
                           .rsrc:00405245 00                               0x00 
                           .rsrc:00405246 30                               0x30 '0'
                           .rsrc:00405247 00                               0x00 
                           .rsrc:00405248 38                               0x38 '8'
                           .rsrc:00405249 00                               0x00 
                           .rsrc:0040524a 30                               0x30 '0'
                           .rsrc:0040524b 00                               0x00 
                           .rsrc:0040524c 34                               0x34 '4'
                           .rsrc:0040524d 00                               0x00 
                           .rsrc:0040524e 30                               0x30 '0'
                           .rsrc:0040524f 00                               0x00 
                           .rsrc:00405250 34                               0x34 '4'
                           .rsrc:00405251 00                               0x00 
                           .rsrc:00405252 62                               0x62 'b'
                           .rsrc:00405253 00                               0x00 
                           .rsrc:00405254 30                               0x30 '0'
                           .rsrc:00405255 00                               0x00 
                           .rsrc:00405256 00                               0x00 
                           .rsrc:00405257 00                               0x00 
                           .rsrc:00405258 18                               0x18 
                           .rsrc:00405259 00                               0x00 
                           .rsrc:0040525a 00                               0x00 
                           .rsrc:0040525b 00                               0x00 
                           .rsrc:0040525c 01                               0x01 
                           .rsrc:0040525d 00                               0x00 
                           .rsrc:0040525e 43                               0x43 'C'
                           .rsrc:0040525f 00                               0x00 
                           .rsrc:00405260 6f                               0x6f 'o'
                           .rsrc:00405261 00                               0x00 
                           .rsrc:00405262 6d                               0x6d 'm'
                           .rsrc:00405263 00                               0x00 
                           .rsrc:00405264 6d                               0x6d 'm'
                           .rsrc:00405265 00                               0x00 
                           .rsrc:00405266 65                               0x65 'e'
                           .rsrc:00405267 00                               0x00 
                           .rsrc:00405268 6e                               0x6e 'n'
                           .rsrc:00405269 00                               0x00 
                           .rsrc:0040526a 74                               0x74 't'
                           .rsrc:0040526b 00                               0x00 
                           .rsrc:0040526c 73                               0x73 's'
                           .rsrc:0040526d 00                               0x00 
                           .rsrc:0040526e 00                               0x00 
                           .rsrc:0040526f 00                               0x00 
                           .rsrc:00405270 24                               0x24 '$'
                           .rsrc:00405271 00                               0x00 
                           .rsrc:00405272 02                               0x02 
                           .rsrc:00405273 00                               0x00 
                           .rsrc:00405274 01                               0x01 
                           .rsrc:00405275 00                               0x00 
                           .rsrc:00405276 43                               0x43 'C'
                           .rsrc:00405277 00                               0x00 
                           .rsrc:00405278 6f                               0x6f 'o'
                           .rsrc:00405279 00                               0x00 
                           .rsrc:0040527a 6d                               0x6d 'm'
                           .rsrc:0040527b 00                               0x00 
                           .rsrc:0040527c 70                               0x70 'p'
                           .rsrc:0040527d 00                               0x00 
                           .rsrc:0040527e 61                               0x61 'a'
                           .rsrc:0040527f 00                               0x00 
                           .rsrc:00405280 6e                               0x6e 'n'
                           .rsrc:00405281 00                               0x00 
                           .rsrc:00405282 79                               0x79 'y'
                           .rsrc:00405283 00                               0x00 
                           .rsrc:00405284 4e                               0x4e 'N'
                           .rsrc:00405285 00                               0x00 
                           .rsrc:00405286 61                               0x61 'a'
                           .rsrc:00405287 00                               0x00 
                           .rsrc:00405288 6d                               0x6d 'm'
                           .rsrc:00405289 00                               0x00 
                           .rsrc:0040528a 65                               0x65 'e'
                           .rsrc:0040528b 00                               0x00 
                           .rsrc:0040528c 00                               0x00 
                           .rsrc:0040528d 00                               0x00 
                           .rsrc:0040528e 00                               0x00 
                           .rsrc:0040528f 00                               0x00 
                           .rsrc:00405290 20                               0x20 ' '
                           .rsrc:00405291 00                               0x00 
                           .rsrc:00405292 00                               0x00 
                           .rsrc:00405293 00                               0x00 
                           .rsrc:00405294 36                               0x36 '6'
                           .rsrc:00405295 00                               0x00 
                           .rsrc:00405296 07                               0x07 
                           .rsrc:00405297 00                               0x00 
                           .rsrc:00405298 01                               0x01 
                           .rsrc:00405299 00                               0x00 
                           .rsrc:0040529a 46                               0x46 'F'
                           .rsrc:0040529b 00                               0x00 
                           .rsrc:0040529c 69                               0x69 'i'
                           .rsrc:0040529d 00                               0x00 
                           .rsrc:0040529e 6c                               0x6c 'l'
                           .rsrc:0040529f 00                               0x00 
                           .rsrc:004052a0 65                               0x65 'e'
                           .rsrc:004052a1 00                               0x00 
                           .rsrc:004052a2 44                               0x44 'D'
                           .rsrc:004052a3 00                               0x00 
                           .rsrc:004052a4 65                               0x65 'e'
                           .rsrc:004052a5 00                               0x00 
                           .rsrc:004052a6 73                               0x73 's'
                           .rsrc:004052a7 00                               0x00 
                           .rsrc:004052a8 63                               0x63 'c'
                           .rsrc:004052a9 00                               0x00 
                           .rsrc:004052aa 72                               0x72 'r'
                           .rsrc:004052ab 00                               0x00 
                           .rsrc:004052ac 69                               0x69 'i'
                           .rsrc:004052ad 00                               0x00 
                           .rsrc:004052ae 70                               0x70 'p'
                           .rsrc:004052af 00                               0x00 
                           .rsrc:004052b0 74                               0x74 't'
                           .rsrc:004052b1 00                               0x00 
                           .rsrc:004052b2 69                               0x69 'i'
                           .rsrc:004052b3 00                               0x00 
                           .rsrc:004052b4 6f                               0x6f 'o'
                           .rsrc:004052b5 00                               0x00 
                           .rsrc:004052b6 6e                               0x6e 'n'
                           .rsrc:004052b7 00                               0x00 
                           .rsrc:004052b8 00                               0x00 
                           .rsrc:004052b9 00                               0x00 
                           .rsrc:004052ba 00                               0x00 
                           .rsrc:004052bb 00                               0x00 
                           .rsrc:004052bc 44                               0x44 'D'
                           .rsrc:004052bd 00                               0x00 
                           .rsrc:004052be 48                               0x48 'H'
                           .rsrc:004052bf 00                               0x00 
                           .rsrc:004052c0 4c                               0x4c 'L'
                           .rsrc:004052c1 00                               0x00 
                           .rsrc:004052c2 44                               0x44 'D'
                           .rsrc:004052c3 00                               0x00 
                           .rsrc:004052c4 41                               0x41 'A'
                           .rsrc:004052c5 00                               0x00 
                           .rsrc:004052c6 54                               0x54 'T'
                           .rsrc:004052c7 00                               0x00 
                           .rsrc:004052c8 00                               0x00 
                           .rsrc:004052c9 00                               0x00 
                           .rsrc:004052ca 00                               0x00 
                           .rsrc:004052cb 00                               0x00 
                           .rsrc:004052cc 36                               0x36 '6'
                           .rsrc:004052cd 00                               0x00 
                           .rsrc:004052ce 0b                               0x0b ''
                           .rsrc:004052cf 00                               0x00 
                           .rsrc:004052d0 01                               0x01 
                           .rsrc:004052d1 00                               0x00 
                           .rsrc:004052d2 46                               0x46 'F'
                           .rsrc:004052d3 00                               0x00 
                           .rsrc:004052d4 69                               0x69 'i'
                           .rsrc:004052d5 00                               0x00 
                           .rsrc:004052d6 6c                               0x6c 'l'
                           .rsrc:004052d7 00                               0x00 
                           .rsrc:004052d8 65                               0x65 'e'
                           .rsrc:004052d9 00                               0x00 
                           .rsrc:004052da 56                               0x56 'V'
                           .rsrc:004052db 00                               0x00 
                           .rsrc:004052dc 65                               0x65 'e'
                           .rsrc:004052dd 00                               0x00 
                           .rsrc:004052de 72                               0x72 'r'
                           .rsrc:004052df 00                               0x00 
                           .rsrc:004052e0 73                               0x73 's'
                           .rsrc:004052e1 00                               0x00 
                           .rsrc:004052e2 69                               0x69 'i'
                           .rsrc:004052e3 00                               0x00 
                           .rsrc:004052e4 6f                               0x6f 'o'
                           .rsrc:004052e5 00                               0x00 
                           .rsrc:004052e6 6e                               0x6e 'n'
                           .rsrc:004052e7 00                               0x00 
                           .rsrc:004052e8 00                               0x00 
                           .rsrc:004052e9 00                               0x00 
                           .rsrc:004052ea 00                               0x00 
                           .rsrc:004052eb 00                               0x00 
                           .rsrc:004052ec 31                               0x31 '1'
                           .rsrc:004052ed 00                               0x00 
                           .rsrc:004052ee 2c                               0x2c ','
                           .rsrc:004052ef 00                               0x00 
                           .rsrc:004052f0 20                               0x20 ' '
                           .rsrc:004052f1 00                               0x00 
                           .rsrc:004052f2 30                               0x30 '0'
                           .rsrc:004052f3 00                               0x00 
                           .rsrc:004052f4 2c                               0x2c ','
                           .rsrc:004052f5 00                               0x00 
                           .rsrc:004052f6 20                               0x20 ' '
                           .rsrc:004052f7 00                               0x00 
                           .rsrc:004052f8 30                               0x30 '0'
                           .rsrc:004052f9 00                               0x00 
                           .rsrc:004052fa 2c                               0x2c ','
                           .rsrc:004052fb 00                               0x00 
                           .rsrc:004052fc 20                               0x20 ' '
                           .rsrc:004052fd 00                               0x00 
                           .rsrc:004052fe 31                               0x31 '1'
                           .rsrc:004052ff 00                               0x00 
                           .rsrc:00405300 00                               0x00 
                           .rsrc:00405301 00                               0x00 
                           .rsrc:00405302 00                               0x00 
                           .rsrc:00405303 00                               0x00 
                           .rsrc:00405304 2e                               0x2e '.'
                           .rsrc:00405305 00                               0x00 
                           .rsrc:00405306 07                               0x07 
                           .rsrc:00405307 00                               0x00 
                           .rsrc:00405308 01                               0x01 
                           .rsrc:00405309 00                               0x00 
                           .rsrc:0040530a 49                               0x49 'I'
                           .rsrc:0040530b 00                               0x00 
                           .rsrc:0040530c 6e                               0x6e 'n'
                           .rsrc:0040530d 00                               0x00 
                           .rsrc:0040530e 74                               0x74 't'
                           .rsrc:0040530f 00                               0x00 
                           .rsrc:00405310 65                               0x65 'e'
                           .rsrc:00405311 00                               0x00 
                           .rsrc:00405312 72                               0x72 'r'
                           .rsrc:00405313 00                               0x00 
                           .rsrc:00405314 6e                               0x6e 'n'
                           .rsrc:00405315 00                               0x00 
                           .rsrc:00405316 61                               0x61 'a'
                           .rsrc:00405317 00                               0x00 
                           .rsrc:00405318 6c                               0x6c 'l'
                           .rsrc:00405319 00                               0x00 
                           .rsrc:0040531a 4e                               0x4e 'N'
                           .rsrc:0040531b 00                               0x00 
                           .rsrc:0040531c 61                               0x61 'a'
                           .rsrc:0040531d 00                               0x00 
                           .rsrc:0040531e 6d                               0x6d 'm'
                           .rsrc:0040531f 00                               0x00 
                           .rsrc:00405320 65                               0x65 'e'
                           .rsrc:00405321 00                               0x00 
                           .rsrc:00405322 00                               0x00 
                           .rsrc:00405323 00                               0x00 
                           .rsrc:00405324 44                               0x44 'D'
                           .rsrc:00405325 00                               0x00 
                           .rsrc:00405326 48                               0x48 'H'
                           .rsrc:00405327 00                               0x00 
                           .rsrc:00405328 4c                               0x4c 'L'
                           .rsrc:00405329 00                               0x00 
                           .rsrc:0040532a 44                               0x44 'D'
                           .rsrc:0040532b 00                               0x00 
                           .rsrc:0040532c 41                               0x41 'A'
                           .rsrc:0040532d 00                               0x00 
                           .rsrc:0040532e 54                               0x54 'T'
                           .rsrc:0040532f 00                               0x00 
                           .rsrc:00405330 00                               0x00 
                           .rsrc:00405331 00                               0x00 
                           .rsrc:00405332 00                               0x00 
                           .rsrc:00405333 00                               0x00 
                           .rsrc:00405334 3e                               0x3e '>'
                           .rsrc:00405335 00                               0x00 
                           .rsrc:00405336 0d                               0x0d ''
                           .rsrc:00405337 00                               0x00 
                           .rsrc:00405338 01                               0x01 
                           .rsrc:00405339 00                               0x00 
                           .rsrc:0040533a 4c                               0x4c 'L'
                           .rsrc:0040533b 00                               0x00 
                           .rsrc:0040533c 65                               0x65 'e'
                           .rsrc:0040533d 00                               0x00 
                           .rsrc:0040533e 67                               0x67 'g'
                           .rsrc:0040533f 00                               0x00 
                           .rsrc:00405340 61                               0x61 'a'
                           .rsrc:00405341 00                               0x00 
                           .rsrc:00405342 6c                               0x6c 'l'
                           .rsrc:00405343 00                               0x00 
                           .rsrc:00405344 43                               0x43 'C'
                           .rsrc:00405345 00                               0x00 
                           .rsrc:00405346 6f                               0x6f 'o'
                           .rsrc:00405347 00                               0x00 
                           .rsrc:00405348 70                               0x70 'p'
                           .rsrc:00405349 00                               0x00 
                           .rsrc:0040534a 79                               0x79 'y'
                           .rsrc:0040534b 00                               0x00 
                           .rsrc:0040534c 72                               0x72 'r'
                           .rsrc:0040534d 00                               0x00 
                           .rsrc:0040534e 69                               0x69 'i'
                           .rsrc:0040534f 00                               0x00 
                           .rsrc:00405350 67                               0x67 'g'
                           .rsrc:00405351 00                               0x00 
                           .rsrc:00405352 68                               0x68 'h'
                           .rsrc:00405353 00                               0x00 
                           .rsrc:00405354 74                               0x74 't'
                           .rsrc:00405355 00                               0x00 
                           .rsrc:00405356 00                               0x00 
                           .rsrc:00405357 00                               0x00 
                           .rsrc:00405358 48                               0x48 'H'
                           .rsrc:00405359 72                               0x72 'r'
                           .rsrc:0040535a 43                               0x43 'C'
                           .rsrc:0040535b 67                               0x67 'g'
                           .rsrc:0040535c 40                               0x40 '@'
                           .rsrc:0040535d 62                               0x62 'b'
                           .rsrc:0040535e 09                               0x09 '	'
                           .rsrc:0040535f 67                               0x67 'g'
                           .rsrc:00405360 28                               0x28 '('
                           .rsrc:00405361 00                               0x00 
                           .rsrc:00405362 43                               0x43 'C'
                           .rsrc:00405363 00                               0x00 
                           .rsrc:00405364 29                               0x29 ')'
                           .rsrc:00405365 00                               0x00 
                           .rsrc:00405366 20                               0x20 ' '
                           .rsrc:00405367 00                               0x00 
                           .rsrc:00405368 32                               0x32 '2'
                           .rsrc:00405369 00                               0x00 
                           .rsrc:0040536a 30                               0x30 '0'
                           .rsrc:0040536b 00                               0x00 
                           .rsrc:0040536c 31                               0x31 '1'
                           .rsrc:0040536d 00                               0x00 
                           .rsrc:0040536e 35                               0x35 '5'
                           .rsrc:0040536f 00                               0x00 
                           .rsrc:00405370 00                               0x00 
                           .rsrc:00405371 00                               0x00 
                           .rsrc:00405372 00                               0x00 
                           .rsrc:00405373 00                               0x00 
                           .rsrc:00405374 28                               0x28 '('
                           .rsrc:00405375 00                               0x00 
                           .rsrc:00405376 00                               0x00 
                           .rsrc:00405377 00                               0x00 
                           .rsrc:00405378 01                               0x01 
                           .rsrc:00405379 00                               0x00 
                           .rsrc:0040537a 4c                               0x4c 'L'
                           .rsrc:0040537b 00                               0x00 
                           .rsrc:0040537c 65                               0x65 'e'
                           .rsrc:0040537d 00                               0x00 
                           .rsrc:0040537e 67                               0x67 'g'
                           .rsrc:0040537f 00                               0x00 
                           .rsrc:00405380 61                               0x61 'a'
                           .rsrc:00405381 00                               0x00 
                           .rsrc:00405382 6c                               0x6c 'l'
                           .rsrc:00405383 00                               0x00 
                           .rsrc:00405384 54                               0x54 'T'
                           .rsrc:00405385 00                               0x00 
                           .rsrc:00405386 72                               0x72 'r'
                           .rsrc:00405387 00                               0x00 
                           .rsrc:00405388 61                               0x61 'a'
                           .rsrc:00405389 00                               0x00 
                           .rsrc:0040538a 64                               0x64 'd'
                           .rsrc:0040538b 00                               0x00 
                           .rsrc:0040538c 65                               0x65 'e'
                           .rsrc:0040538d 00                               0x00 
                           .rsrc:0040538e 6d                               0x6d 'm'
                           .rsrc:0040538f 00                               0x00 
                           .rsrc:00405390 61                               0x61 'a'
                           .rsrc:00405391 00                               0x00 
                           .rsrc:00405392 72                               0x72 'r'
                           .rsrc:00405393 00                               0x00 
                           .rsrc:00405394 6b                               0x6b 'k'
                           .rsrc:00405395 00                               0x00 
                           .rsrc:00405396 73                               0x73 's'
                           .rsrc:00405397 00                               0x00 
                           .rsrc:00405398 00                               0x00 
                           .rsrc:00405399 00                               0x00 
                           .rsrc:0040539a 00                               0x00 
                           .rsrc:0040539b 00                               0x00 
                           .rsrc:0040539c 3e                               0x3e '>'
                           .rsrc:0040539d 00                               0x00 
                           .rsrc:0040539e 0b                               0x0b ''
                           .rsrc:0040539f 00                               0x00 
                           .rsrc:004053a0 01                               0x01 
                           .rsrc:004053a1 00                               0x00 
                           .rsrc:004053a2 4f                               0x4f 'O'
                           .rsrc:004053a3 00                               0x00 
                           .rsrc:004053a4 72                               0x72 'r'
                           .rsrc:004053a5 00                               0x00 
                           .rsrc:004053a6 69                               0x69 'i'
                           .rsrc:004053a7 00                               0x00 
                           .rsrc:004053a8 67                               0x67 'g'
                           .rsrc:004053a9 00                               0x00 
                           .rsrc:004053aa 69                               0x69 'i'
                           .rsrc:004053ab 00                               0x00 
                           .rsrc:004053ac 6e                               0x6e 'n'
                           .rsrc:004053ad 00                               0x00 
                           .rsrc:004053ae 61                               0x61 'a'
                           .rsrc:004053af 00                               0x00 
                           .rsrc:004053b0 6c                               0x6c 'l'
                           .rsrc:004053b1 00                               0x00 
                           .rsrc:004053b2 46                               0x46 'F'
                           .rsrc:004053b3 00                               0x00 
                           .rsrc:004053b4 69                               0x69 'i'
                           .rsrc:004053b5 00                               0x00 
                           .rsrc:004053b6 6c                               0x6c 'l'
                           .rsrc:004053b7 00                               0x00 
                           .rsrc:004053b8 65                               0x65 'e'
                           .rsrc:004053b9 00                               0x00 
                           .rsrc:004053ba 6e                               0x6e 'n'
                           .rsrc:004053bb 00                               0x00 
                           .rsrc:004053bc 61                               0x61 'a'
                           .rsrc:004053bd 00                               0x00 
                           .rsrc:004053be 6d                               0x6d 'm'
                           .rsrc:004053bf 00                               0x00 
                           .rsrc:004053c0 65                               0x65 'e'
                           .rsrc:004053c1 00                               0x00 
                           .rsrc:004053c2 00                               0x00 
                           .rsrc:004053c3 00                               0x00 
                           .rsrc:004053c4 44                               0x44 'D'
                           .rsrc:004053c5 00                               0x00 
                           .rsrc:004053c6 48                               0x48 'H'
                           .rsrc:004053c7 00                               0x00 
                           .rsrc:004053c8 4c                               0x4c 'L'
                           .rsrc:004053c9 00                               0x00 
                           .rsrc:004053ca 44                               0x44 'D'
                           .rsrc:004053cb 00                               0x00 
                           .rsrc:004053cc 41                               0x41 'A'
                           .rsrc:004053cd 00                               0x00 
                           .rsrc:004053ce 54                               0x54 'T'
                           .rsrc:004053cf 00                               0x00 
                           .rsrc:004053d0 2e                               0x2e '.'
                           .rsrc:004053d1 00                               0x00 
                           .rsrc:004053d2 64                               0x64 'd'
                           .rsrc:004053d3 00                               0x00 
                           .rsrc:004053d4 61                               0x61 'a'
                           .rsrc:004053d5 00                               0x00 
                           .rsrc:004053d6 74                               0x74 't'
                           .rsrc:004053d7 00                               0x00 
                           .rsrc:004053d8 00                               0x00 
                           .rsrc:004053d9 00                               0x00 
                           .rsrc:004053da 00                               0x00 
                           .rsrc:004053db 00                               0x00 
                           .rsrc:004053dc 20                               0x20 ' '
                           .rsrc:004053dd 00                               0x00 
                           .rsrc:004053de 00                               0x00 
                           .rsrc:004053df 00                               0x00 
                           .rsrc:004053e0 01                               0x01 
                           .rsrc:004053e1 00                               0x00 
                           .rsrc:004053e2 50                               0x50 'P'
                           .rsrc:004053e3 00                               0x00 
                           .rsrc:004053e4 72                               0x72 'r'
                           .rsrc:004053e5 00                               0x00 
                           .rsrc:004053e6 69                               0x69 'i'
                           .rsrc:004053e7 00                               0x00 
                           .rsrc:004053e8 76                               0x76 'v'
                           .rsrc:004053e9 00                               0x00 
                           .rsrc:004053ea 61                               0x61 'a'
                           .rsrc:004053eb 00                               0x00 
                           .rsrc:004053ec 74                               0x74 't'
                           .rsrc:004053ed 00                               0x00 
                           .rsrc:004053ee 65                               0x65 'e'
                           .rsrc:004053ef 00                               0x00 
                           .rsrc:004053f0 42                               0x42 'B'
                           .rsrc:004053f1 00                               0x00 
                           .rsrc:004053f2 75                               0x75 'u'
                           .rsrc:004053f3 00                               0x00 
                           .rsrc:004053f4 69                               0x69 'i'
                           .rsrc:004053f5 00                               0x00 
                           .rsrc:004053f6 6c                               0x6c 'l'
                           .rsrc:004053f7 00                               0x00 
                           .rsrc:004053f8 64                               0x64 'd'
                           .rsrc:004053f9 00                               0x00 
                           .rsrc:004053fa 00                               0x00 
                           .rsrc:004053fb 00                               0x00 
                           .rsrc:004053fc 32                               0x32 '2'
                           .rsrc:004053fd 00                               0x00 
                           .rsrc:004053fe 09                               0x09 '	'
                           .rsrc:004053ff 00                               0x00 
                           .rsrc:00405400 01                               0x01 
                           .rsrc:00405401 00                               0x00 
                           .rsrc:00405402 50                               0x50 'P'
                           .rsrc:00405403 00                               0x00 
                           .rsrc:00405404 72                               0x72 'r'
                           .rsrc:00405405 00                               0x00 
                           .rsrc:00405406 6f                               0x6f 'o'
                           .rsrc:00405407 00                               0x00 
                           .rsrc:00405408 64                               0x64 'd'
                           .rsrc:00405409 00                               0x00 
                           .rsrc:0040540a 75                               0x75 'u'
                           .rsrc:0040540b 00                               0x00 
                           .rsrc:0040540c 63                               0x63 'c'
                           .rsrc:0040540d 00                               0x00 
                           .rsrc:0040540e 74                               0x74 't'
                           .rsrc:0040540f 00                               0x00 
                           .rsrc:00405410 4e                               0x4e 'N'
                           .rsrc:00405411 00                               0x00 
                           .rsrc:00405412 61                               0x61 'a'
                           .rsrc:00405413 00                               0x00 
                           .rsrc:00405414 6d                               0x6d 'm'
                           .rsrc:00405415 00                               0x00 
                           .rsrc:00405416 65                               0x65 'e'
                           .rsrc:00405417 00                               0x00 
                           .rsrc:00405418 00                               0x00 
                           .rsrc:00405419 00                               0x00 
                           .rsrc:0040541a 00                               0x00 
                           .rsrc:0040541b 00                               0x00 
                           .rsrc:0040541c 20                               0x20 ' '
                           .rsrc:0040541d 00                               0x00 
                           .rsrc:0040541e 20                               0x20 ' '
                           .rsrc:0040541f 00                               0x00 
                           .rsrc:00405420 44                               0x44 'D'
                           .rsrc:00405421 00                               0x00 
                           .rsrc:00405422 48                               0x48 'H'
                           .rsrc:00405423 00                               0x00 
                           .rsrc:00405424 4c                               0x4c 'L'
                           .rsrc:00405425 00                               0x00 
                           .rsrc:00405426 44                               0x44 'D'
                           .rsrc:00405427 00                               0x00 
                           .rsrc:00405428 41                               0x41 'A'
                           .rsrc:00405429 00                               0x00 
                           .rsrc:0040542a 54                               0x54 'T'
                           .rsrc:0040542b 00                               0x00 
                           .rsrc:0040542c 00                               0x00 
                           .rsrc:0040542d 00                               0x00 
                           .rsrc:0040542e 00                               0x00 
                           .rsrc:0040542f 00                               0x00 
                           .rsrc:00405430 3a                               0x3a ':'
                           .rsrc:00405431 00                               0x00 
                           .rsrc:00405432 0b                               0x0b ''
                           .rsrc:00405433 00                               0x00 
                           .rsrc:00405434 01                               0x01 
                           .rsrc:00405435 00                               0x00 
                           .rsrc:00405436 50                               0x50 'P'
                           .rsrc:00405437 00                               0x00 
                           .rsrc:00405438 72                               0x72 'r'
                           .rsrc:00405439 00                               0x00 
                           .rsrc:0040543a 6f                               0x6f 'o'
                           .rsrc:0040543b 00                               0x00 
                           .rsrc:0040543c 64                               0x64 'd'
                           .rsrc:0040543d 00                               0x00 
                           .rsrc:0040543e 75                               0x75 'u'
                           .rsrc:0040543f 00                               0x00 
                           .rsrc:00405440 63                               0x63 'c'
                           .rsrc:00405441 00                               0x00 
                           .rsrc:00405442 74                               0x74 't'
                           .rsrc:00405443 00                               0x00 
                           .rsrc:00405444 56                               0x56 'V'
                           .rsrc:00405445 00                               0x00 
                           .rsrc:00405446 65                               0x65 'e'
                           .rsrc:00405447 00                               0x00 
                           .rsrc:00405448 72                               0x72 'r'
                           .rsrc:00405449 00                               0x00 
                           .rsrc:0040544a 73                               0x73 's'
                           .rsrc:0040544b 00                               0x00 
                           .rsrc:0040544c 69                               0x69 'i'
                           .rsrc:0040544d 00                               0x00 
                           .rsrc:0040544e 6f                               0x6f 'o'
                           .rsrc:0040544f 00                               0x00 
                           .rsrc:00405450 6e                               0x6e 'n'
                           .rsrc:00405451 00                               0x00 
                           .rsrc:00405452 00                               0x00 
                           .rsrc:00405453 00                               0x00 
                           .rsrc:00405454 31                               0x31 '1'
                           .rsrc:00405455 00                               0x00 
                           .rsrc:00405456 2c                               0x2c ','
                           .rsrc:00405457 00                               0x00 
                           .rsrc:00405458 20                               0x20 ' '
                           .rsrc:00405459 00                               0x00 
                           .rsrc:0040545a 30                               0x30 '0'
                           .rsrc:0040545b 00                               0x00 
                           .rsrc:0040545c 2c                               0x2c ','
                           .rsrc:0040545d 00                               0x00 
                           .rsrc:0040545e 20                               0x20 ' '
                           .rsrc:0040545f 00                               0x00 
                           .rsrc:00405460 30                               0x30 '0'
                           .rsrc:00405461 00                               0x00 
                           .rsrc:00405462 2c                               0x2c ','
                           .rsrc:00405463 00                               0x00 
                           .rsrc:00405464 20                               0x20 ' '
                           .rsrc:00405465 00                               0x00 
                           .rsrc:00405466 31                               0x31 '1'
                           .rsrc:00405467 00                               0x00 
                           .rsrc:00405468 00                               0x00 
                           .rsrc:00405469 00                               0x00 
                           .rsrc:0040546a 00                               0x00 
                           .rsrc:0040546b 00                               0x00 
                           .rsrc:0040546c 20                               0x20 ' '
                           .rsrc:0040546d 00                               0x00 
                           .rsrc:0040546e 00                               0x00 
                           .rsrc:0040546f 00                               0x00 
                           .rsrc:00405470 01                               0x01 
                           .rsrc:00405471 00                               0x00 
                           .rsrc:00405472 53                               0x53 'S'
                           .rsrc:00405473 00                               0x00 
                           .rsrc:00405474 70                               0x70 'p'
                           .rsrc:00405475 00                               0x00 
                           .rsrc:00405476 65                               0x65 'e'
                           .rsrc:00405477 00                               0x00 
                           .rsrc:00405478 63                               0x63 'c'
                           .rsrc:00405479 00                               0x00 
                           .rsrc:0040547a 69                               0x69 'i'
                           .rsrc:0040547b 00                               0x00 
                           .rsrc:0040547c 61                               0x61 'a'
                           .rsrc:0040547d 00                               0x00 
                           .rsrc:0040547e 6c                               0x6c 'l'
                           .rsrc:0040547f 00                               0x00 
                           .rsrc:00405480 42                               0x42 'B'
                           .rsrc:00405481 00                               0x00 
                           .rsrc:00405482 75                               0x75 'u'
                           .rsrc:00405483 00                               0x00 
                           .rsrc:00405484 69                               0x69 'i'
                           .rsrc:00405485 00                               0x00 
                           .rsrc:00405486 6c                               0x6c 'l'
                           .rsrc:00405487 00                               0x00 
                           .rsrc:00405488 64                               0x64 'd'
                           .rsrc:00405489 00                               0x00 
                           .rsrc:0040548a 00                               0x00 
                           .rsrc:0040548b 00                               0x00 
                           .rsrc:0040548c 44                               0x44 'D'
                           .rsrc:0040548d 00                               0x00 
                           .rsrc:0040548e 00                               0x00 
                           .rsrc:0040548f 00                               0x00 
                           .rsrc:00405490 01                               0x01 
                           .rsrc:00405491 00                               0x00 
                           .rsrc:00405492 56                               0x56 'V'
                           .rsrc:00405493 00                               0x00 
                           .rsrc:00405494 61                               0x61 'a'
                           .rsrc:00405495 00                               0x00 
                           .rsrc:00405496 72                               0x72 'r'
                           .rsrc:00405497 00                               0x00 
                           .rsrc:00405498 46                               0x46 'F'
                           .rsrc:00405499 00                               0x00 
                           .rsrc:0040549a 69                               0x69 'i'
                           .rsrc:0040549b 00                               0x00 
                           .rsrc:0040549c 6c                               0x6c 'l'
                           .rsrc:0040549d 00                               0x00 
                           .rsrc:0040549e 65                               0x65 'e'
                           .rsrc:0040549f 00                               0x00 
                           .rsrc:004054a0 49                               0x49 'I'
                           .rsrc:004054a1 00                               0x00 
                           .rsrc:004054a2 6e                               0x6e 'n'
                           .rsrc:004054a3 00                               0x00 
                           .rsrc:004054a4 66                               0x66 'f'
                           .rsrc:004054a5 00                               0x00 
                           .rsrc:004054a6 6f                               0x6f 'o'
                           .rsrc:004054a7 00                               0x00 
                           .rsrc:004054a8 00                               0x00 
                           .rsrc:004054a9 00                               0x00 
                           .rsrc:004054aa 00                               0x00 
                           .rsrc:004054ab 00                               0x00 
                           .rsrc:004054ac 24                               0x24 '$'
                           .rsrc:004054ad 00                               0x00 
                           .rsrc:004054ae 04                               0x04 
                           .rsrc:004054af 00                               0x00 
                           .rsrc:004054b0 00                               0x00 
                           .rsrc:004054b1 00                               0x00 
                           .rsrc:004054b2 54                               0x54 'T'
                           .rsrc:004054b3 00                               0x00 
                           .rsrc:004054b4 72                               0x72 'r'
                           .rsrc:004054b5 00                               0x00 
                           .rsrc:004054b6 61                               0x61 'a'
                           .rsrc:004054b7 00                               0x00 
                           .rsrc:004054b8 6e                               0x6e 'n'
                           .rsrc:004054b9 00                               0x00 
                           .rsrc:004054ba 73                               0x73 's'
                           .rsrc:004054bb 00                               0x00 
                           .rsrc:004054bc 6c                               0x6c 'l'
                           .rsrc:004054bd 00                               0x00 
                           .rsrc:004054be 61                               0x61 'a'
                           .rsrc:004054bf 00                               0x00 
                           .rsrc:004054c0 74                               0x74 't'
                           .rsrc:004054c1 00                               0x00 
                           .rsrc:004054c2 69                               0x69 'i'
                           .rsrc:004054c3 00                               0x00 
                           .rsrc:004054c4 6f                               0x6f 'o'
                           .rsrc:004054c5 00                               0x00 
                           .rsrc:004054c6 6e                               0x6e 'n'
                           .rsrc:004054c7 00                               0x00 
                           .rsrc:004054c8 00                               0x00 
                           .rsrc:004054c9 00                               0x00 
                           .rsrc:004054ca 00                               0x00 
                           .rsrc:004054cb 00                               0x00 
                           .rsrc:004054cc 04                               0x04 
                           .rsrc:004054cd 08                               0x08 
                           .rsrc:004054ce b0                               0xb0 
                           .rsrc:004054cf 04                               0x04 
                           .rsrc:004054d0 28                               0x28 '('
                           .rsrc:004054d1 00                               0x00 
                           .rsrc:004054d2 00                               0x00 
                           .rsrc:004054d3 00                               0x00 
                           .rsrc:004054d4 20                               0x20 ' '
                           .rsrc:004054d5 00                               0x00 
                           .rsrc:004054d6 00                               0x00 
                           .rsrc:004054d7 00                               0x00 
                           .rsrc:004054d8 40                               0x40 '@'
                           .rsrc:004054d9 00                               0x00 
                           .rsrc:004054da 00                               0x00 
                           .rsrc:004054db 00                               0x00 
                           .rsrc:004054dc 01                               0x01 
                           .rsrc:004054dd 00                               0x00 
                           .rsrc:004054de 04                               0x04 
                           .rsrc:004054df 00                               0x00 
                           .rsrc:004054e0 00                               0x00 
                           .rsrc:004054e1 00                               0x00 
                           .rsrc:004054e2 00                               0x00 
                           .rsrc:004054e3 00                               0x00 
                           .rsrc:004054e4 80                               0x80 
                           .rsrc:004054e5 02                               0x02 
                           .rsrc:004054e6 00                               0x00 
                           .rsrc:004054e7 00                               0x00 
                           .rsrc:004054e8 00                               0x00 
                           .rsrc:004054e9 00                               0x00 
                           .rsrc:004054ea 00                               0x00 
                           .rsrc:004054eb 00                               0x00 
                           .rsrc:004054ec 00                               0x00 
                           .rsrc:004054ed 00                               0x00 
                           .rsrc:004054ee 00                               0x00 
                           .rsrc:004054ef 00                               0x00 
                           .rsrc:004054f0 00                               0x00 
                           .rsrc:004054f1 00                               0x00 
                           .rsrc:004054f2 00                               0x00 
                           .rsrc:004054f3 00                               0x00 
                           .rsrc:004054f4 00                               0x00 
                           .rsrc:004054f5 00                               0x00 
                           .rsrc:004054f6 00                               0x00 
                           .rsrc:004054f7 00                               0x00 
                           .rsrc:004054f8 00                               0x00 
                           .rsrc:004054f9 00                               0x00 
                           .rsrc:004054fa 00                               0x00 
                           .rsrc:004054fb 00                               0x00 
                           .rsrc:004054fc 00                               0x00 
                           .rsrc:004054fd 00                               0x00 
                           .rsrc:004054fe 80                               0x80 
                           .rsrc:004054ff 00                               0x00 
                           .rsrc:00405500 00                               0x00 
                           .rsrc:00405501 80                               0x80 
                           .rsrc:00405502 00                               0x00 
                           .rsrc:00405503 00                               0x00 
                           .rsrc:00405504 00                               0x00 
                           .rsrc:00405505 80                               0x80 
                           .rsrc:00405506 80                               0x80 
                           .rsrc:00405507 00                               0x00 
                           .rsrc:00405508 80                               0x80 
                           .rsrc:00405509 00                               0x00 
                           .rsrc:0040550a 00                               0x00 
                           .rsrc:0040550b 00                               0x00 
                           .rsrc:0040550c 80                               0x80 
                           .rsrc:0040550d 00                               0x00 
                           .rsrc:0040550e 80                               0x80 
                           .rsrc:0040550f 00                               0x00 
                           .rsrc:00405510 80                               0x80 
                           .rsrc:00405511 80                               0x80 
                           .rsrc:00405512 00                               0x00 
                           .rsrc:00405513 00                               0x00 
                           .rsrc:00405514 c0                               0xc0 
                           .rsrc:00405515 c0                               0xc0 
                           .rsrc:00405516 c0                               0xc0 
                           .rsrc:00405517 00                               0x00 
                           .rsrc:00405518 80                               0x80 
                           .rsrc:00405519 80                               0x80 
                           .rsrc:0040551a 80                               0x80 
                           .rsrc:0040551b 00                               0x00 
                           .rsrc:0040551c 00                               0x00 
                           .rsrc:0040551d 00                               0x00 
                           .rsrc:0040551e ff                               0xff 
                           .rsrc:0040551f 00                               0x00 
                           .rsrc:00405520 00                               0x00 
                           .rsrc:00405521 ff                               0xff 
                           .rsrc:00405522 00                               0x00 
                           .rsrc:00405523 00                               0x00 
                           .rsrc:00405524 00                               0x00 
                           .rsrc:00405525 ff                               0xff 
                           .rsrc:00405526 ff                               0xff 
                           .rsrc:00405527 00                               0x00 
                           .rsrc:00405528 ff                               0xff 
                           .rsrc:00405529 00                               0x00 
                           .rsrc:0040552a 00                               0x00 
                           .rsrc:0040552b 00                               0x00 
                           .rsrc:0040552c ff                               0xff 
                           .rsrc:0040552d 00                               0x00 
                           .rsrc:0040552e ff                               0xff 
                           .rsrc:0040552f 00                               0x00 
                           .rsrc:00405530 ff                               0xff 
                           .rsrc:00405531 ff                               0xff 
                           .rsrc:00405532 00                               0x00 
                           .rsrc:00405533 00                               0x00 
                           .rsrc:00405534 ff                               0xff 
                           .rsrc:00405535 ff                               0xff 
                           .rsrc:00405536 ff                               0xff 
                           .rsrc:00405537 00                               0x00 
                           .rsrc:00405538 00                               0x00 
                           .rsrc:00405539 00                               0x00 
                           .rsrc:0040553a 00                               0x00 
                           .rsrc:0040553b 00                               0x00 
                           .rsrc:0040553c 00                               0x00 
                           .rsrc:0040553d 00                               0x00 
                           .rsrc:0040553e 00                               0x00 
                           .rsrc:0040553f 00                               0x00 
                           .rsrc:00405540 00                               0x00 
                           .rsrc:00405541 00                               0x00 
                           .rsrc:00405542 00                               0x00 
                           .rsrc:00405543 00                               0x00 
                           .rsrc:00405544 00                               0x00 
                           .rsrc:00405545 00                               0x00 
                           .rsrc:00405546 00                               0x00 
                           .rsrc:00405547 00                               0x00 
                           .rsrc:00405548 00                               0x00 
                           .rsrc:00405549 00                               0x00 
                           .rsrc:0040554a 00                               0x00 
                           .rsrc:0040554b 00                               0x00 
                           .rsrc:0040554c 00                               0x00 
                           .rsrc:0040554d 00                               0x00 
                           .rsrc:0040554e 00                               0x00 
                           .rsrc:0040554f 00                               0x00 
                           .rsrc:00405550 00                               0x00 
                           .rsrc:00405551 00                               0x00 
                           .rsrc:00405552 00                               0x00 
                           .rsrc:00405553 00                               0x00 
                           .rsrc:00405554 00                               0x00 
                           .rsrc:00405555 00                               0x00 
                           .rsrc:00405556 00                               0x00 
                           .rsrc:00405557 00                               0x00 
                           .rsrc:00405558 00                               0x00 
                           .rsrc:00405559 00                               0x00 
                           .rsrc:0040555a 00                               0x00 
                           .rsrc:0040555b 00                               0x00 
                           .rsrc:0040555c 00                               0x00 
                           .rsrc:0040555d 00                               0x00 
                           .rsrc:0040555e 00                               0x00 
                           .rsrc:0040555f 00                               0x00 
                           .rsrc:00405560 00                               0x00 
                           .rsrc:00405561 00                               0x00 
                           .rsrc:00405562 00                               0x00 
                           .rsrc:00405563 00                               0x00 
                           .rsrc:00405564 00                               0x00 
                           .rsrc:00405565 00                               0x00 
                           .rsrc:00405566 00                               0x00 
                           .rsrc:00405567 00                               0x00 
                           .rsrc:00405568 00                               0x00 
                           .rsrc:00405569 00                               0x00 
                           .rsrc:0040556a 00                               0x00 
                           .rsrc:0040556b 00                               0x00 
                           .rsrc:0040556c 00                               0x00 
                           .rsrc:0040556d 00                               0x00 
                           .rsrc:0040556e 00                               0x00 
                           .rsrc:0040556f 00                               0x00 
                           .rsrc:00405570 00                               0x00 
                           .rsrc:00405571 00                               0x00 
                           .rsrc:00405572 00                               0x00 
                           .rsrc:00405573 00                               0x00 
                           .rsrc:00405574 00                               0x00 
                           .rsrc:00405575 00                               0x00 
                           .rsrc:00405576 00                               0x00 
                           .rsrc:00405577 00                               0x00 
                           .rsrc:00405578 00                               0x00 
                           .rsrc:00405579 00                               0x00 
                           .rsrc:0040557a 00                               0x00 
                           .rsrc:0040557b 00                               0x00 
                           .rsrc:0040557c 00                               0x00 
                           .rsrc:0040557d 00                               0x00 
                           .rsrc:0040557e 00                               0x00 
                           .rsrc:0040557f 00                               0x00 
                           .rsrc:00405580 00                               0x00 
                           .rsrc:00405581 00                               0x00 
                           .rsrc:00405582 00                               0x00 
                           .rsrc:00405583 00                               0x00 
                           .rsrc:00405584 00                               0x00 
                           .rsrc:00405585 00                               0x00 
                           .rsrc:00405586 00                               0x00 
                           .rsrc:00405587 00                               0x00 
                           .rsrc:00405588 00                               0x00 
                           .rsrc:00405589 00                               0x00 
                           .rsrc:0040558a 00                               0x00 
                           .rsrc:0040558b 00                               0x00 
                           .rsrc:0040558c 00                               0x00 
                           .rsrc:0040558d 00                               0x00 
                           .rsrc:0040558e 00                               0x00 
                           .rsrc:0040558f 00                               0x00 
                           .rsrc:00405590 00                               0x00 
                           .rsrc:00405591 00                               0x00 
                           .rsrc:00405592 00                               0x00 
                           .rsrc:00405593 00                               0x00 
                           .rsrc:00405594 00                               0x00 
                           .rsrc:00405595 00                               0x00 
                           .rsrc:00405596 00                               0x00 
                           .rsrc:00405597 00                               0x00 
                           .rsrc:00405598 00                               0x00 
                           .rsrc:00405599 00                               0x00 
                           .rsrc:0040559a 00                               0x00 
                           .rsrc:0040559b 00                               0x00 
                           .rsrc:0040559c 00                               0x00 
                           .rsrc:0040559d 00                               0x00 
                           .rsrc:0040559e 00                               0x00 
                           .rsrc:0040559f 00                               0x00 
                           .rsrc:004055a0 00                               0x00 
                           .rsrc:004055a1 00                               0x00 
                           .rsrc:004055a2 00                               0x00 
                           .rsrc:004055a3 00                               0x00 
                           .rsrc:004055a4 00                               0x00 
                           .rsrc:004055a5 00                               0x00 
                           .rsrc:004055a6 00                               0x00 
                           .rsrc:004055a7 00                               0x00 
                           .rsrc:004055a8 00                               0x00 
                           .rsrc:004055a9 00                               0x00 
                           .rsrc:004055aa 00                               0x00 
                           .rsrc:004055ab 00                               0x00 
                           .rsrc:004055ac 00                               0x00 
                           .rsrc:004055ad 00                               0x00 
                           .rsrc:004055ae 00                               0x00 
                           .rsrc:004055af 00                               0x00 
                           .rsrc:004055b0 00                               0x00 
                           .rsrc:004055b1 00                               0x00 
                           .rsrc:004055b2 00                               0x00 
                           .rsrc:004055b3 00                               0x00 
                           .rsrc:004055b4 00                               0x00 
                           .rsrc:004055b5 00                               0x00 
                           .rsrc:004055b6 00                               0x00 
                           .rsrc:004055b7 00                               0x00 
                           .rsrc:004055b8 00                               0x00 
                           .rsrc:004055b9 00                               0x00 
                           .rsrc:004055ba 00                               0x00 
                           .rsrc:004055bb 00                               0x00 
                           .rsrc:004055bc 00                               0x00 
                           .rsrc:004055bd 00                               0x00 
                           .rsrc:004055be 00                               0x00 
                           .rsrc:004055bf 00                               0x00 
                           .rsrc:004055c0 00                               0x00 
                           .rsrc:004055c1 00                               0x00 
                           .rsrc:004055c2 00                               0x00 
                           .rsrc:004055c3 00                               0x00 
                           .rsrc:004055c4 00                               0x00 
                           .rsrc:004055c5 00                               0x00 
                           .rsrc:004055c6 00                               0x00 
                           .rsrc:004055c7 00                               0x00 
                           .rsrc:004055c8 00                               0x00 
                           .rsrc:004055c9 00                               0x00 
                           .rsrc:004055ca 00                               0x00 
                           .rsrc:004055cb 00                               0x00 
                           .rsrc:004055cc 00                               0x00 
                           .rsrc:004055cd 00                               0x00 
                           .rsrc:004055ce 00                               0x00 
                           .rsrc:004055cf 00                               0x00 
                           .rsrc:004055d0 00                               0x00 
                           .rsrc:004055d1 00                               0x00 
                           .rsrc:004055d2 00                               0x00 
                           .rsrc:004055d3 00                               0x00 
                           .rsrc:004055d4 00                               0x00 
                           .rsrc:004055d5 00                               0x00 
                           .rsrc:004055d6 00                               0x00 
                           .rsrc:004055d7 00                               0x00 
                           .rsrc:004055d8 00                               0x00 
                           .rsrc:004055d9 00                               0x00 
                           .rsrc:004055da 00                               0x00 
                           .rsrc:004055db 00                               0x00 
                           .rsrc:004055dc 00                               0x00 
                           .rsrc:004055dd 00                               0x00 
                           .rsrc:004055de 00                               0x00 
                           .rsrc:004055df 00                               0x00 
                           .rsrc:004055e0 00                               0x00 
                           .rsrc:004055e1 00                               0x00 
                           .rsrc:004055e2 00                               0x00 
                           .rsrc:004055e3 00                               0x00 
                           .rsrc:004055e4 00                               0x00 
                           .rsrc:004055e5 00                               0x00 
                           .rsrc:004055e6 00                               0x00 
                           .rsrc:004055e7 00                               0x00 
                           .rsrc:004055e8 00                               0x00 
                           .rsrc:004055e9 00                               0x00 
                           .rsrc:004055ea 00                               0x00 
                           .rsrc:004055eb 00                               0x00 
                           .rsrc:004055ec 00                               0x00 
                           .rsrc:004055ed 00                               0x00 
                           .rsrc:004055ee 00                               0x00 
                           .rsrc:004055ef 00                               0x00 
                           .rsrc:004055f0 00                               0x00 
                           .rsrc:004055f1 00                               0x00 
                           .rsrc:004055f2 00                               0x00 
                           .rsrc:004055f3 00                               0x00 
                           .rsrc:004055f4 00                               0x00 
                           .rsrc:004055f5 00                               0x00 
                           .rsrc:004055f6 00                               0x00 
                           .rsrc:004055f7 00                               0x00 
                           .rsrc:004055f8 00                               0x00 
                           .rsrc:004055f9 00                               0x00 
                           .rsrc:004055fa 00                               0x00 
                           .rsrc:004055fb 00                               0x00 
                           .rsrc:004055fc 00                               0x00 
                           .rsrc:004055fd 00                               0x00 
                           .rsrc:004055fe 00                               0x00 
                           .rsrc:004055ff 00                               0x00 
                           .rsrc:00405600 00                               0x00 
                           .rsrc:00405601 00                               0x00 
                           .rsrc:00405602 00                               0x00 
                           .rsrc:00405603 00                               0x00 
                           .rsrc:00405604 00                               0x00 
                           .rsrc:00405605 00                               0x00 
                           .rsrc:00405606 00                               0x00 
                           .rsrc:00405607 00                               0x00 
                           .rsrc:00405608 00                               0x00 
                           .rsrc:00405609 00                               0x00 
                           .rsrc:0040560a 00                               0x00 
                           .rsrc:0040560b 00                               0x00 
                           .rsrc:0040560c 00                               0x00 
                           .rsrc:0040560d 00                               0x00 
                           .rsrc:0040560e 00                               0x00 
                           .rsrc:0040560f 00                               0x00 
                           .rsrc:00405610 00                               0x00 
                           .rsrc:00405611 00                               0x00 
                           .rsrc:00405612 00                               0x00 
                           .rsrc:00405613 00                               0x00 
                           .rsrc:00405614 00                               0x00 
                           .rsrc:00405615 00                               0x00 
                           .rsrc:00405616 00                               0x00 
                           .rsrc:00405617 00                               0x00 
                           .rsrc:00405618 00                               0x00 
                           .rsrc:00405619 00                               0x00 
                           .rsrc:0040561a 00                               0x00 
                           .rsrc:0040561b 00                               0x00 
                           .rsrc:0040561c 00                               0x00 
                           .rsrc:0040561d 00                               0x00 
                           .rsrc:0040561e 00                               0x00 
                           .rsrc:0040561f 00                               0x00 
                           .rsrc:00405620 00                               0x00 
                           .rsrc:00405621 00                               0x00 
                           .rsrc:00405622 00                               0x00 
                           .rsrc:00405623 00                               0x00 
                           .rsrc:00405624 00                               0x00 
                           .rsrc:00405625 00                               0x00 
                           .rsrc:00405626 00                               0x00 
                           .rsrc:00405627 00                               0x00 
                           .rsrc:00405628 00                               0x00 
                           .rsrc:00405629 00                               0x00 
                           .rsrc:0040562a 00                               0x00 
                           .rsrc:0040562b 00                               0x00 
                           .rsrc:0040562c 00                               0x00 
                           .rsrc:0040562d 00                               0x00 
                           .rsrc:0040562e 00                               0x00 
                           .rsrc:0040562f 00                               0x00 
                           .rsrc:00405630 00                               0x00 
                           .rsrc:00405631 00                               0x00 
                           .rsrc:00405632 00                               0x00 
                           .rsrc:00405633 00                               0x00 
                           .rsrc:00405634 00                               0x00 
                           .rsrc:00405635 00                               0x00 
                           .rsrc:00405636 00                               0x00 
                           .rsrc:00405637 00                               0x00 
                           .rsrc:00405638 00                               0x00 
                           .rsrc:00405639 00                               0x00 
                           .rsrc:0040563a 00                               0x00 
                           .rsrc:0040563b 00                               0x00 
                           .rsrc:0040563c 00                               0x00 
                           .rsrc:0040563d 00                               0x00 
                           .rsrc:0040563e 00                               0x00 
                           .rsrc:0040563f 00                               0x00 
                           .rsrc:00405640 00                               0x00 
                           .rsrc:00405641 00                               0x00 
                           .rsrc:00405642 00                               0x00 
                           .rsrc:00405643 00                               0x00 
                           .rsrc:00405644 00                               0x00 
                           .rsrc:00405645 00                               0x00 
                           .rsrc:00405646 00                               0x00 
                           .rsrc:00405647 00                               0x00 
                           .rsrc:00405648 00                               0x00 
                           .rsrc:00405649 00                               0x00 
                           .rsrc:0040564a 00                               0x00 
                           .rsrc:0040564b 00                               0x00 
                           .rsrc:0040564c 00                               0x00 
                           .rsrc:0040564d 00                               0x00 
                           .rsrc:0040564e 00                               0x00 
                           .rsrc:0040564f 00                               0x00 
                           .rsrc:00405650 00                               0x00 
                           .rsrc:00405651 00                               0x00 
                           .rsrc:00405652 00                               0x00 
                           .rsrc:00405653 00                               0x00 
                           .rsrc:00405654 00                               0x00 
                           .rsrc:00405655 00                               0x00 
                           .rsrc:00405656 00                               0x00 
                           .rsrc:00405657 00                               0x00 
                           .rsrc:00405658 00                               0x00 
                           .rsrc:00405659 00                               0x00 
                           .rsrc:0040565a 00                               0x00 
                           .rsrc:0040565b 00                               0x00 
                           .rsrc:0040565c 00                               0x00 
                           .rsrc:0040565d 00                               0x00 
                           .rsrc:0040565e 00                               0x00 
                           .rsrc:0040565f 00                               0x00 
                           .rsrc:00405660 00                               0x00 
                           .rsrc:00405661 00                               0x00 
                           .rsrc:00405662 00                               0x00 
                           .rsrc:00405663 00                               0x00 
                           .rsrc:00405664 00                               0x00 
                           .rsrc:00405665 00                               0x00 
                           .rsrc:00405666 00                               0x00 
                           .rsrc:00405667 00                               0x00 
                           .rsrc:00405668 00                               0x00 
                           .rsrc:00405669 00                               0x00 
                           .rsrc:0040566a 00                               0x00 
                           .rsrc:0040566b 00                               0x00 
                           .rsrc:0040566c 00                               0x00 
                           .rsrc:0040566d 00                               0x00 
                           .rsrc:0040566e 00                               0x00 
                           .rsrc:0040566f 00                               0x00 
                           .rsrc:00405670 00                               0x00 
                           .rsrc:00405671 00                               0x00 
                           .rsrc:00405672 00                               0x00 
                           .rsrc:00405673 00                               0x00 
                           .rsrc:00405674 00                               0x00 
                           .rsrc:00405675 00                               0x00 
                           .rsrc:00405676 00                               0x00 
                           .rsrc:00405677 00                               0x00 
                           .rsrc:00405678 00                               0x00 
                           .rsrc:00405679 00                               0x00 
                           .rsrc:0040567a 00                               0x00 
                           .rsrc:0040567b 00                               0x00 
                           .rsrc:0040567c 00                               0x00 
                           .rsrc:0040567d 00                               0x00 
                           .rsrc:0040567e 00                               0x00 
                           .rsrc:0040567f 00                               0x00 
                           .rsrc:00405680 00                               0x00 
                           .rsrc:00405681 00                               0x00 
                           .rsrc:00405682 00                               0x00 
                           .rsrc:00405683 00                               0x00 
                           .rsrc:00405684 00                               0x00 
                           .rsrc:00405685 00                               0x00 
                           .rsrc:00405686 00                               0x00 
                           .rsrc:00405687 00                               0x00 
                           .rsrc:00405688 00                               0x00 
                           .rsrc:00405689 00                               0x00 
                           .rsrc:0040568a 00                               0x00 
                           .rsrc:0040568b 00                               0x00 
                           .rsrc:0040568c 00                               0x00 
                           .rsrc:0040568d 00                               0x00 
                           .rsrc:0040568e 00                               0x00 
                           .rsrc:0040568f 00                               0x00 
                           .rsrc:00405690 00                               0x00 
                           .rsrc:00405691 00                               0x00 
                           .rsrc:00405692 00                               0x00 
                           .rsrc:00405693 00                               0x00 
                           .rsrc:00405694 00                               0x00 
                           .rsrc:00405695 00                               0x00 
                           .rsrc:00405696 00                               0x00 
                           .rsrc:00405697 00                               0x00 
                           .rsrc:00405698 00                               0x00 
                           .rsrc:00405699 00                               0x00 
                           .rsrc:0040569a 00                               0x00 
                           .rsrc:0040569b 00                               0x00 
                           .rsrc:0040569c 00                               0x00 
                           .rsrc:0040569d 00                               0x00 
                           .rsrc:0040569e 00                               0x00 
                           .rsrc:0040569f 00                               0x00 
                           .rsrc:004056a0 00                               0x00 
                           .rsrc:004056a1 00                               0x00 
                           .rsrc:004056a2 00                               0x00 
                           .rsrc:004056a3 00                               0x00 
                           .rsrc:004056a4 00                               0x00 
                           .rsrc:004056a5 00                               0x00 
                           .rsrc:004056a6 00                               0x00 
                           .rsrc:004056a7 00                               0x00 
                           .rsrc:004056a8 00                               0x00 
                           .rsrc:004056a9 00                               0x00 
                           .rsrc:004056aa 00                               0x00 
                           .rsrc:004056ab 00                               0x00 
                           .rsrc:004056ac 00                               0x00 
                           .rsrc:004056ad 00                               0x00 
                           .rsrc:004056ae 00                               0x00 
                           .rsrc:004056af 00                               0x00 
                           .rsrc:004056b0 00                               0x00 
                           .rsrc:004056b1 00                               0x00 
                           .rsrc:004056b2 00                               0x00 
                           .rsrc:004056b3 00                               0x00 
                           .rsrc:004056b4 00                               0x00 
                           .rsrc:004056b5 00                               0x00 
                           .rsrc:004056b6 00                               0x00 
                           .rsrc:004056b7 00                               0x00 
                           .rsrc:004056b8 00                               0x00 
                           .rsrc:004056b9 00                               0x00 
                           .rsrc:004056ba 00                               0x00 
                           .rsrc:004056bb 00                               0x00 
                           .rsrc:004056bc 00                               0x00 
                           .rsrc:004056bd 00                               0x00 
                           .rsrc:004056be 00                               0x00 
                           .rsrc:004056bf 00                               0x00 
                           .rsrc:004056c0 00                               0x00 
                           .rsrc:004056c1 00                               0x00 
                           .rsrc:004056c2 00                               0x00 
                           .rsrc:004056c3 00                               0x00 
                           .rsrc:004056c4 00                               0x00 
                           .rsrc:004056c5 00                               0x00 
                           .rsrc:004056c6 00                               0x00 
                           .rsrc:004056c7 00                               0x00 
                           .rsrc:004056c8 00                               0x00 
                           .rsrc:004056c9 00                               0x00 
                           .rsrc:004056ca 00                               0x00 
                           .rsrc:004056cb 00                               0x00 
                           .rsrc:004056cc 00                               0x00 
                           .rsrc:004056cd 00                               0x00 
                           .rsrc:004056ce 00                               0x00 
                           .rsrc:004056cf 00                               0x00 
                           .rsrc:004056d0 00                               0x00 
                           .rsrc:004056d1 00                               0x00 
                           .rsrc:004056d2 00                               0x00 
                           .rsrc:004056d3 00                               0x00 
                           .rsrc:004056d4 00                               0x00 
                           .rsrc:004056d5 00                               0x00 
                           .rsrc:004056d6 00                               0x00 
                           .rsrc:004056d7 00                               0x00 
                           .rsrc:004056d8 00                               0x00 
                           .rsrc:004056d9 00                               0x00 
                           .rsrc:004056da 00                               0x00 
                           .rsrc:004056db 00                               0x00 
                           .rsrc:004056dc 00                               0x00 
                           .rsrc:004056dd 00                               0x00 
                           .rsrc:004056de 00                               0x00 
                           .rsrc:004056df 00                               0x00 
                           .rsrc:004056e0 00                               0x00 
                           .rsrc:004056e1 00                               0x00 
                           .rsrc:004056e2 00                               0x00 
                           .rsrc:004056e3 00                               0x00 
                           .rsrc:004056e4 00                               0x00 
                           .rsrc:004056e5 00                               0x00 
                           .rsrc:004056e6 00                               0x00 
                           .rsrc:004056e7 00                               0x00 
                           .rsrc:004056e8 00                               0x00 
                           .rsrc:004056e9 00                               0x00 
                           .rsrc:004056ea 00                               0x00 
                           .rsrc:004056eb 00                               0x00 
                           .rsrc:004056ec 00                               0x00 
                           .rsrc:004056ed 00                               0x00 
                           .rsrc:004056ee 00                               0x00 
                           .rsrc:004056ef 00                               0x00 
                           .rsrc:004056f0 00                               0x00 
                           .rsrc:004056f1 00                               0x00 
                           .rsrc:004056f2 00                               0x00 
                           .rsrc:004056f3 00                               0x00 
                           .rsrc:004056f4 00                               0x00 
                           .rsrc:004056f5 00                               0x00 
                           .rsrc:004056f6 00                               0x00 
                           .rsrc:004056f7 00                               0x00 
                           .rsrc:004056f8 00                               0x00 
                           .rsrc:004056f9 00                               0x00 
                           .rsrc:004056fa 00                               0x00 
                           .rsrc:004056fb 00                               0x00 
                           .rsrc:004056fc 00                               0x00 
                           .rsrc:004056fd 00                               0x00 
                           .rsrc:004056fe 00                               0x00 
                           .rsrc:004056ff 00                               0x00 
                           .rsrc:00405700 00                               0x00 
                           .rsrc:00405701 00                               0x00 
                           .rsrc:00405702 00                               0x00 
                           .rsrc:00405703 00                               0x00 
                           .rsrc:00405704 00                               0x00 
                           .rsrc:00405705 00                               0x00 
                           .rsrc:00405706 00                               0x00 
                           .rsrc:00405707 00                               0x00 
                           .rsrc:00405708 00                               0x00 
                           .rsrc:00405709 00                               0x00 
                           .rsrc:0040570a 00                               0x00 
                           .rsrc:0040570b 00                               0x00 
                           .rsrc:0040570c 00                               0x00 
                           .rsrc:0040570d 00                               0x00 
                           .rsrc:0040570e 00                               0x00 
                           .rsrc:0040570f 00                               0x00 
                           .rsrc:00405710 00                               0x00 
                           .rsrc:00405711 00                               0x00 
                           .rsrc:00405712 00                               0x00 
                           .rsrc:00405713 00                               0x00 
                           .rsrc:00405714 00                               0x00 
                           .rsrc:00405715 00                               0x00 
                           .rsrc:00405716 00                               0x00 
                           .rsrc:00405717 00                               0x00 
                           .rsrc:00405718 00                               0x00 
                           .rsrc:00405719 00                               0x00 
                           .rsrc:0040571a 00                               0x00 
                           .rsrc:0040571b 00                               0x00 
                           .rsrc:0040571c 00                               0x00 
                           .rsrc:0040571d 00                               0x00 
                           .rsrc:0040571e 00                               0x00 
                           .rsrc:0040571f 00                               0x00 
                           .rsrc:00405720 00                               0x00 
                           .rsrc:00405721 00                               0x00 
                           .rsrc:00405722 00                               0x00 
                           .rsrc:00405723 00                               0x00 
                           .rsrc:00405724 00                               0x00 
                           .rsrc:00405725 00                               0x00 
                           .rsrc:00405726 00                               0x00 
                           .rsrc:00405727 00                               0x00 
                           .rsrc:00405728 00                               0x00 
                           .rsrc:00405729 00                               0x00 
                           .rsrc:0040572a 00                               0x00 
                           .rsrc:0040572b 00                               0x00 
                           .rsrc:0040572c 00                               0x00 
                           .rsrc:0040572d 00                               0x00 
                           .rsrc:0040572e 00                               0x00 
                           .rsrc:0040572f 00                               0x00 
                           .rsrc:00405730 00                               0x00 
                           .rsrc:00405731 00                               0x00 
                           .rsrc:00405732 00                               0x00 
                           .rsrc:00405733 00                               0x00 
                           .rsrc:00405734 00                               0x00 
                           .rsrc:00405735 00                               0x00 
                           .rsrc:00405736 00                               0x00 
                           .rsrc:00405737 00                               0x00 
                           .rsrc:00405738 ff                               0xff 
                           .rsrc:00405739 ff                               0xff 
                           .rsrc:0040573a ff                               0xff 
                           .rsrc:0040573b ff                               0xff 
                           .rsrc:0040573c ff                               0xff 
                           .rsrc:0040573d ff                               0xff 
                           .rsrc:0040573e ff                               0xff 
                           .rsrc:0040573f ff                               0xff 
                           .rsrc:00405740 ff                               0xff 
                           .rsrc:00405741 ff                               0xff 
                           .rsrc:00405742 ff                               0xff 
                           .rsrc:00405743 ff                               0xff 
                           .rsrc:00405744 ff                               0xff 
                           .rsrc:00405745 ff                               0xff 
                           .rsrc:00405746 ff                               0xff 
                           .rsrc:00405747 ff                               0xff 
                           .rsrc:00405748 ff                               0xff 
                           .rsrc:00405749 ff                               0xff 
                           .rsrc:0040574a ff                               0xff 
                           .rsrc:0040574b ff                               0xff 
                           .rsrc:0040574c ff                               0xff 
                           .rsrc:0040574d ff                               0xff 
                           .rsrc:0040574e ff                               0xff 
                           .rsrc:0040574f ff                               0xff 
                           .rsrc:00405750 ff                               0xff 
                           .rsrc:00405751 ff                               0xff 
                           .rsrc:00405752 ff                               0xff 
                           .rsrc:00405753 ff                               0xff 
                           .rsrc:00405754 ff                               0xff 
                           .rsrc:00405755 ff                               0xff 
                           .rsrc:00405756 ff                               0xff 
                           .rsrc:00405757 ff                               0xff 
                           .rsrc:00405758 ff                               0xff 
                           .rsrc:00405759 ff                               0xff 
                           .rsrc:0040575a ff                               0xff 
                           .rsrc:0040575b ff                               0xff 
                           .rsrc:0040575c ff                               0xff 
                           .rsrc:0040575d ff                               0xff 
                           .rsrc:0040575e ff                               0xff 
                           .rsrc:0040575f ff                               0xff 
                           .rsrc:00405760 ff                               0xff 
                           .rsrc:00405761 ff                               0xff 
                           .rsrc:00405762 ff                               0xff 
                           .rsrc:00405763 ff                               0xff 
                           .rsrc:00405764 ff                               0xff 
                           .rsrc:00405765 ff                               0xff 
                           .rsrc:00405766 ff                               0xff 
                           .rsrc:00405767 ff                               0xff 
                           .rsrc:00405768 ff                               0xff 
                           .rsrc:00405769 ff                               0xff 
                           .rsrc:0040576a ff                               0xff 
                           .rsrc:0040576b ff                               0xff 
                           .rsrc:0040576c ff                               0xff 
                           .rsrc:0040576d ff                               0xff 
                           .rsrc:0040576e ff                               0xff 
                           .rsrc:0040576f ff                               0xff 
                           .rsrc:00405770 ff                               0xff 
                           .rsrc:00405771 ff                               0xff 
                           .rsrc:00405772 ff                               0xff 
                           .rsrc:00405773 ff                               0xff 
                           .rsrc:00405774 ff                               0xff 
                           .rsrc:00405775 ff                               0xff 
                           .rsrc:00405776 ff                               0xff 
                           .rsrc:00405777 ff                               0xff 
                           .rsrc:00405778 ff                               0xff 
                           .rsrc:00405779 ff                               0xff 
                           .rsrc:0040577a ff                               0xff 
                           .rsrc:0040577b ff                               0xff 
                           .rsrc:0040577c ff                               0xff 
                           .rsrc:0040577d ff                               0xff 
                           .rsrc:0040577e ff                               0xff 
                           .rsrc:0040577f ff                               0xff 
                           .rsrc:00405780 ff                               0xff 
                           .rsrc:00405781 ff                               0xff 
                           .rsrc:00405782 ff                               0xff 
                           .rsrc:00405783 ff                               0xff 
                           .rsrc:00405784 ff                               0xff 
                           .rsrc:00405785 ff                               0xff 
                           .rsrc:00405786 ff                               0xff 
                           .rsrc:00405787 ff                               0xff 
                           .rsrc:00405788 ff                               0xff 
                           .rsrc:00405789 ff                               0xff 
                           .rsrc:0040578a ff                               0xff 
                           .rsrc:0040578b ff                               0xff 
                           .rsrc:0040578c ff                               0xff 
                           .rsrc:0040578d ff                               0xff 
                           .rsrc:0040578e ff                               0xff 
                           .rsrc:0040578f ff                               0xff 
                           .rsrc:00405790 ff                               0xff 
                           .rsrc:00405791 ff                               0xff 
                           .rsrc:00405792 ff                               0xff 
                           .rsrc:00405793 ff                               0xff 
                           .rsrc:00405794 ff                               0xff 
                           .rsrc:00405795 ff                               0xff 
                           .rsrc:00405796 ff                               0xff 
                           .rsrc:00405797 ff                               0xff 
                           .rsrc:00405798 ff                               0xff 
                           .rsrc:00405799 ff                               0xff 
                           .rsrc:0040579a ff                               0xff 
                           .rsrc:0040579b ff                               0xff 
                           .rsrc:0040579c ff                               0xff 
                           .rsrc:0040579d ff                               0xff 
                           .rsrc:0040579e ff                               0xff 
                           .rsrc:0040579f ff                               0xff 
                           .rsrc:004057a0 ff                               0xff 
                           .rsrc:004057a1 ff                               0xff 
                           .rsrc:004057a2 ff                               0xff 
                           .rsrc:004057a3 ff                               0xff 
                           .rsrc:004057a4 ff                               0xff 
                           .rsrc:004057a5 ff                               0xff 
                           .rsrc:004057a6 ff                               0xff 
                           .rsrc:004057a7 ff                               0xff 
                           .rsrc:004057a8 ff                               0xff 
                           .rsrc:004057a9 ff                               0xff 
                           .rsrc:004057aa ff                               0xff 
                           .rsrc:004057ab ff                               0xff 
                           .rsrc:004057ac ff                               0xff 
                           .rsrc:004057ad ff                               0xff 
                           .rsrc:004057ae ff                               0xff 
                           .rsrc:004057af ff                               0xff 
                           .rsrc:004057b0 ff                               0xff 
                           .rsrc:004057b1 ff                               0xff 
                           .rsrc:004057b2 ff                               0xff 
                           .rsrc:004057b3 ff                               0xff 
                           .rsrc:004057b4 ff                               0xff 
                           .rsrc:004057b5 ff                               0xff 
                           .rsrc:004057b6 ff                               0xff 
                           .rsrc:004057b7 ff                               0xff 
                           .rsrc:004057b8 00                               0x00 
                           .rsrc:004057b9 00                               0x00 
                           .rsrc:004057ba 01                               0x01 
                           .rsrc:004057bb 00                               0x00 
                           .rsrc:004057bc 01                               0x01 
                           .rsrc:004057bd 00                               0x00 
                           .rsrc:004057be 20                               0x20 ' '
                           .rsrc:004057bf 20                               0x20 ' '
                           .rsrc:004057c0 10                               0x10 
                           .rsrc:004057c1 00                               0x00 
                           .rsrc:004057c2 01                               0x01 
                           .rsrc:004057c3 00                               0x00 
                           .rsrc:004057c4 04                               0x04 
                           .rsrc:004057c5 00                               0x00 
                           .rsrc:004057c6 e8                               0xe8 
                           .rsrc:004057c7 02                               0x02 
                           .rsrc:004057c8 00                               0x00 
                           .rsrc:004057c9 00                               0x00 
                           .rsrc:004057ca 01                               0x01 
                           .rsrc:004057cb 00                               0x00 
                           .rsrc:004057cc 00                               0x00 
                           .rsrc:004057cd 00                               0x00 
                           .rsrc:004057ce 00                               0x00 
                           .rsrc:004057cf 00                               0x00 
                           .rsrc:004057d0 28                               0x28 '('
                           .rsrc:004057d1 00                               0x00 
                           .rsrc:004057d2 00                               0x00 
                           .rsrc:004057d3 00                               0x00 
                           .rsrc:004057d4 30                               0x30 '0'
                           .rsrc:004057d5 00                               0x00 
                           .rsrc:004057d6 00                               0x00 
                           .rsrc:004057d7 00                               0x00 
                           .rsrc:004057d8 30                               0x30 '0'
                           .rsrc:004057d9 00                               0x00 
                           .rsrc:004057da 00                               0x00 
                           .rsrc:004057db 00                               0x00 
                           .rsrc:004057dc 01                               0x01 
                           .rsrc:004057dd 00                               0x00 
                           .rsrc:004057de 04                               0x04 
                           .rsrc:004057df 00                               0x00 
                           .rsrc:004057e0 00                               0x00 
                           .rsrc:004057e1 00                               0x00 
                           .rsrc:004057e2 00                               0x00 
                           .rsrc:004057e3 00                               0x00 
                           .rsrc:004057e4 80                               0x80 
                           .rsrc:004057e5 04                               0x04 
                           .rsrc:004057e6 00                               0x00 
                           .rsrc:004057e7 00                               0x00 
                           .rsrc:004057e8 00                               0x00 
                           .rsrc:004057e9 00                               0x00 
                           .rsrc:004057ea 00                               0x00 
                           .rsrc:004057eb 00                               0x00 
                           .rsrc:004057ec 00                               0x00 
                           .rsrc:004057ed 00                               0x00 
                           .rsrc:004057ee 00                               0x00 
                           .rsrc:004057ef 00                               0x00 
                           .rsrc:004057f0 00                               0x00 
                           .rsrc:004057f1 00                               0x00 
                           .rsrc:004057f2 00                               0x00 
                           .rsrc:004057f3 00                               0x00 
                           .rsrc:004057f4 00                               0x00 
                           .rsrc:004057f5 00                               0x00 
                           .rsrc:004057f6 00                               0x00 
                           .rsrc:004057f7 00                               0x00 
                           .rsrc:004057f8 00                               0x00 
                           .rsrc:004057f9 00                               0x00 
                           .rsrc:004057fa 00                               0x00 
                           .rsrc:004057fb 00                               0x00 
                           .rsrc:004057fc 00                               0x00 
                           .rsrc:004057fd 00                               0x00 
                           .rsrc:004057fe 80                               0x80 
                           .rsrc:004057ff 00                               0x00 
                           .rsrc:00405800 00                               0x00 
                           .rsrc:00405801 80                               0x80 
                           .rsrc:00405802 00                               0x00 
                           .rsrc:00405803 00                               0x00 
                           .rsrc:00405804 00                               0x00 
                           .rsrc:00405805 80                               0x80 
                           .rsrc:00405806 80                               0x80 
                           .rsrc:00405807 00                               0x00 
                           .rsrc:00405808 80                               0x80 
                           .rsrc:00405809 00                               0x00 
                           .rsrc:0040580a 00                               0x00 
                           .rsrc:0040580b 00                               0x00 
                           .rsrc:0040580c 80                               0x80 
                           .rsrc:0040580d 00                               0x00 
                           .rsrc:0040580e 80                               0x80 
                           .rsrc:0040580f 00                               0x00 
                           .rsrc:00405810 80                               0x80 
                           .rsrc:00405811 80                               0x80 
                           .rsrc:00405812 00                               0x00 
                           .rsrc:00405813 00                               0x00 
                           .rsrc:00405814 c0                               0xc0 
                           .rsrc:00405815 c0                               0xc0 
                           .rsrc:00405816 c0                               0xc0 
                           .rsrc:00405817 00                               0x00 
                           .rsrc:00405818 80                               0x80 
                           .rsrc:00405819 80                               0x80 
                           .rsrc:0040581a 80                               0x80 
                           .rsrc:0040581b 00                               0x00 
                           .rsrc:0040581c 00                               0x00 
                           .rsrc:0040581d 00                               0x00 
                           .rsrc:0040581e ff                               0xff 
                           .rsrc:0040581f 00                               0x00 
                           .rsrc:00405820 00                               0x00 
                           .rsrc:00405821 ff                               0xff 
                           .rsrc:00405822 00                               0x00 
                           .rsrc:00405823 00                               0x00 
                           .rsrc:00405824 00                               0x00 
                           .rsrc:00405825 ff                               0xff 
                           .rsrc:00405826 ff                               0xff 
                           .rsrc:00405827 00                               0x00 
                           .rsrc:00405828 ff                               0xff 
                           .rsrc:00405829 00                               0x00 
                           .rsrc:0040582a 00                               0x00 
                           .rsrc:0040582b 00                               0x00 
                           .rsrc:0040582c ff                               0xff 
                           .rsrc:0040582d 00                               0x00 
                           .rsrc:0040582e ff                               0xff 
                           .rsrc:0040582f 00                               0x00 
                           .rsrc:00405830 ff                               0xff 
                           .rsrc:00405831 ff                               0xff 
                           .rsrc:00405832 00                               0x00 
                           .rsrc:00405833 00                               0x00 
                           .rsrc:00405834 ff                               0xff 
                           .rsrc:00405835 ff                               0xff 
                           .rsrc:00405836 ff                               0xff 
                           .rsrc:00405837 00                               0x00 
                           .rsrc:00405838 ff                               0xff 
                           .rsrc:00405839 ff                               0xff 
                           .rsrc:0040583a ff                               0xff 
                           .rsrc:0040583b ff                               0xff 
                           .rsrc:0040583c ff                               0xff 
                           .rsrc:0040583d ff                               0xff 
                           .rsrc:0040583e ff                               0xff 
                           .rsrc:0040583f ff                               0xff 
                           .rsrc:00405840 ff                               0xff 
                           .rsrc:00405841 ff                               0xff 
                           .rsrc:00405842 ff                               0xff 
                           .rsrc:00405843 ff                               0xff 
                           .rsrc:00405844 ff                               0xff 
                           .rsrc:00405845 ff                               0xff 
                           .rsrc:00405846 ff                               0xff 
                           .rsrc:00405847 f0                               0xf0 
                           .rsrc:00405848 0f                               0x0f 
                           .rsrc:00405849 ff                               0xff 
                           .rsrc:0040584a ff                               0xff 
                           .rsrc:0040584b ff                               0xff 
                           .rsrc:0040584c ff                               0xff 
                           .rsrc:0040584d ff                               0xff 
                           .rsrc:0040584e ff                               0xff 
                           .rsrc:0040584f ff                               0xff 
                           .rsrc:00405850 ff                               0xff 
                           .rsrc:00405851 ff                               0xff 
                           .rsrc:00405852 ff                               0xff 
                           .rsrc:00405853 ff                               0xff 
                           .rsrc:00405854 ff                               0xff 
                           .rsrc:00405855 ff                               0xff 
                           .rsrc:00405856 ff                               0xff 
                           .rsrc:00405857 ff                               0xff 
                           .rsrc:00405858 ff                               0xff 
                           .rsrc:00405859 ff                               0xff 
                           .rsrc:0040585a ff                               0xff 
                           .rsrc:0040585b ff                               0xff 
                           .rsrc:0040585c ff                               0xff 
                           .rsrc:0040585d ff                               0xff 
                           .rsrc:0040585e ff                               0xff 
                           .rsrc:0040585f 00                               0x00 
                           .rsrc:00405860 00                               0x00 
                           .rsrc:00405861 ff                               0xff 
                           .rsrc:00405862 ff                               0xff 
                           .rsrc:00405863 ff                               0xff 
                           .rsrc:00405864 ff                               0xff 
                           .rsrc:00405865 ff                               0xff 
                           .rsrc:00405866 ff                               0xff 
                           .rsrc:00405867 ff                               0xff 
                           .rsrc:00405868 ff                               0xff 
                           .rsrc:00405869 ff                               0xff 
                           .rsrc:0040586a ff                               0xff 
                           .rsrc:0040586b ff                               0xff 
                           .rsrc:0040586c ff                               0xff 
                           .rsrc:0040586d ff                               0xff 
                           .rsrc:0040586e ff                               0xff 
                           .rsrc:0040586f ff                               0xff 
                           .rsrc:00405870 ff                               0xff 
                           .rsrc:00405871 ff                               0xff 
                           .rsrc:00405872 ff                               0xff 
                           .rsrc:00405873 ff                               0xff 
                           .rsrc:00405874 ff                               0xff 
                           .rsrc:00405875 ff                               0xff 
                           .rsrc:00405876 ff                               0xff 
                           .rsrc:00405877 00                               0x00 
                           .rsrc:00405878 00                               0x00 
                           .rsrc:00405879 ff                               0xff 
                           .rsrc:0040587a ff                               0xff 
                           .rsrc:0040587b ff                               0xff 
                           .rsrc:0040587c 00                               0x00 
                           .rsrc:0040587d ff                               0xff 
                           .rsrc:0040587e ff                               0xff 
                           .rsrc:0040587f ff                               0xff 
                           .rsrc:00405880 ff                               0xff 
                           .rsrc:00405881 ff                               0xff 
                           .rsrc:00405882 ff                               0xff 
                           .rsrc:00405883 ff                               0xff 
                           .rsrc:00405884 ff                               0xff 
                           .rsrc:00405885 ff                               0xff 
                           .rsrc:00405886 ff                               0xff 
                           .rsrc:00405887 ff                               0xff 
                           .rsrc:00405888 ff                               0xff 
                           .rsrc:00405889 ff                               0xff 
                           .rsrc:0040588a ff                               0xff 
                           .rsrc:0040588b ff                               0xff 
                           .rsrc:0040588c ff                               0xff 
                           .rsrc:0040588d ff                               0xff 
                           .rsrc:0040588e ff                               0xff 
                           .rsrc:0040588f f0                               0xf0 
                           .rsrc:00405890 0f                               0x0f 
                           .rsrc:00405891 ff                               0xff 
                           .rsrc:00405892 ff                               0xff 
                           .rsrc:00405893 f0                               0xf0 
                           .rsrc:00405894 00                               0x00 
                           .rsrc:00405895 0f                               0x0f 
                           .rsrc:00405896 00                               0x00 
                           .rsrc:00405897 0f                               0x0f 
                           .rsrc:00405898 ff                               0xff 
                           .rsrc:00405899 ff                               0xff 
                           .rsrc:0040589a ff                               0xff 
                           .rsrc:0040589b ff                               0xff 
                           .rsrc:0040589c 00                               0x00 
                           .rsrc:0040589d 0f                               0x0f 
                           .rsrc:0040589e ff                               0xff 
                           .rsrc:0040589f ff                               0xff 
                           .rsrc:004058a0 ff                               0xff 
                           .rsrc:004058a1 ff                               0xff 
                           .rsrc:004058a2 ff                               0xff 
                           .rsrc:004058a3 ff                               0xff 
                           .rsrc:004058a4 ff                               0xff 
                           .rsrc:004058a5 ff                               0xff 
                           .rsrc:004058a6 ff                               0xff 
                           .rsrc:004058a7 ff                               0xff 
                           .rsrc:004058a8 ff                               0xff 
                           .rsrc:004058a9 ff                               0xff 
                           .rsrc:004058aa ff                               0xff 
                           .rsrc:004058ab f0                               0xf0 
                           .rsrc:004058ac 00                               0x00 
                           .rsrc:004058ad 00                               0x00 
                           .rsrc:004058ae 00                               0x00 
                           .rsrc:004058af 00                               0x00 
                           .rsrc:004058b0 ff                               0xff 
                           .rsrc:004058b1 ff                               0xff 
                           .rsrc:004058b2 ff                               0xff 
                           .rsrc:004058b3 f0                               0xf0 
                           .rsrc:004058b4 00                               0x00 
                           .rsrc:004058b5 00                               0x00 
                           .rsrc:004058b6 ff                               0xff 
                           .rsrc:004058b7 ff                               0xff 
                           .rsrc:004058b8 00                               0x00 
                           .rsrc:004058b9 ff                               0xff 
                           .rsrc:004058ba ff                               0xff 
                           .rsrc:004058bb ff                               0xff 
                           .rsrc:004058bc ff                               0xff 
                           .rsrc:004058bd ff                               0xff 
                           .rsrc:004058be ff                               0xff 
                           .rsrc:004058bf ff                               0xff 
                           .rsrc:004058c0 ff                               0xff 
                           .rsrc:004058c1 ff                               0xff 
                           .rsrc:004058c2 ff                               0xff 
                           .rsrc:004058c3 ff                               0xff 
                           .rsrc:004058c4 00                               0x00 
                           .rsrc:004058c5 f0                               0xf0 
                           .rsrc:004058c6 00                               0x00 
                           .rsrc:004058c7 00                               0x00 
                           .rsrc:004058c8 ff                               0xff 
                           .rsrc:004058c9 ff                               0xff 
                           .rsrc:004058ca ff                               0xff 
                           .rsrc:004058cb f0                               0xf0 
                           .rsrc:004058cc 00                               0x00 
                           .rsrc:004058cd 00                               0x00 
                           .rsrc:004058ce ff                               0xff 
                           .rsrc:004058cf f0                               0xf0 
                           .rsrc:004058d0 00                               0x00 
                           .rsrc:004058d1 0f                               0x0f 
                           .rsrc:004058d2 ff                               0xff 
                           .rsrc:004058d3 ff                               0xff 
                           .rsrc:004058d4 ff                               0xff 
                           .rsrc:004058d5 ff                               0xff 
                           .rsrc:004058d6 ff                               0xff 
                           .rsrc:004058d7 ff                               0xff 
                           .rsrc:004058d8 ff                               0xff 
                           .rsrc:004058d9 ff                               0xff 
                           .rsrc:004058da ff                               0xff 
                           .rsrc:004058db ff                               0xff 
                           .rsrc:004058dc ff                               0xff 
                           .rsrc:004058dd ff                               0xff 
                           .rsrc:004058de 00                               0x00 
                           .rsrc:004058df 0f                               0x0f 
                           .rsrc:004058e0 ff                               0xff 
                           .rsrc:004058e1 ff                               0xff 
                           .rsrc:004058e2 ff                               0xff 
                           .rsrc:004058e3 ff                               0xff 
                           .rsrc:004058e4 00                               0x00 
                           .rsrc:004058e5 0f                               0x0f 
                           .rsrc:004058e6 ff                               0xff 
                           .rsrc:004058e7 f0                               0xf0 
                           .rsrc:004058e8 00                               0x00 
                           .rsrc:004058e9 0f                               0x0f 
                           .rsrc:004058ea ff                               0xff 
                           .rsrc:004058eb ff                               0xff 
                           .rsrc:004058ec 00                               0x00 
                           .rsrc:004058ed 00                               0x00 
                           .rsrc:004058ee ff                               0xff 
                           .rsrc:004058ef ff                               0xff 
                           .rsrc:004058f0 f0                               0xf0 
                           .rsrc:004058f1 0f                               0x0f 
                           .rsrc:004058f2 ff                               0xff 
                           .rsrc:004058f3 ff                               0xff 
                           .rsrc:004058f4 ff                               0xff 
                           .rsrc:004058f5 ff                               0xff 
                           .rsrc:004058f6 ff                               0xff 
                           .rsrc:004058f7 ff                               0xff 
                           .rsrc:004058f8 ff                               0xff 
                           .rsrc:004058f9 ff                               0xff 
                           .rsrc:004058fa ff                               0xff 
                           .rsrc:004058fb ff                               0xff 
                           .rsrc:004058fc ff                               0xff 
                           .rsrc:004058fd ff                               0xff 
                           .rsrc:004058fe ff                               0xff 
                           .rsrc:004058ff ff                               0xff 
                           .rsrc:00405900 00                               0x00 
                           .rsrc:00405901 ff                               0xff 
                           .rsrc:00405902 ff                               0xff 
                           .rsrc:00405903 00                               0x00 
                           .rsrc:00405904 00                               0x00 
                           .rsrc:00405905 00                               0x00 
                           .rsrc:00405906 0f                               0x0f 
                           .rsrc:00405907 ff                               0xff 
                           .rsrc:00405908 00                               0x00 
                           .rsrc:00405909 00                               0x00 
                           .rsrc:0040590a ff                               0xff 
                           .rsrc:0040590b ff                               0xff 
                           .rsrc:0040590c ff                               0xff 
                           .rsrc:0040590d ff                               0xff 
                           .rsrc:0040590e ff                               0xff 
                           .rsrc:0040590f ff                               0xff 
                           .rsrc:00405910 ff                               0xff 
                           .rsrc:00405911 ff                               0xff 
                           .rsrc:00405912 ff                               0xff 
                           .rsrc:00405913 ff                               0xff 
                           .rsrc:00405914 ff                               0xff 
                           .rsrc:00405915 ff                               0xff 
                           .rsrc:00405916 ff                               0xff 
                           .rsrc:00405917 ff                               0xff 
                           .rsrc:00405918 ff                               0xff 
                           .rsrc:00405919 ff                               0xff 
                           .rsrc:0040591a 00                               0x00 
                           .rsrc:0040591b 00                               0x00 
                           .rsrc:0040591c 00                               0x00 
                           .rsrc:0040591d 00                               0x00 
                           .rsrc:0040591e 0f                               0x0f 
                           .rsrc:0040591f ff                               0xff 
                           .rsrc:00405920 00                               0x00 
                           .rsrc:00405921 00                               0x00 
                           .rsrc:00405922 ff                               0xff 
                           .rsrc:00405923 ff                               0xff 
                           .rsrc:00405924 ff                               0xff 
                           .rsrc:00405925 ff                               0xff 
                           .rsrc:00405926 ff                               0xff 
                           .rsrc:00405927 ff                               0xff 
                           .rsrc:00405928 ff                               0xff 
                           .rsrc:00405929 ff                               0xff 
                           .rsrc:0040592a ff                               0xff 
                           .rsrc:0040592b ff                               0xff 
                           .rsrc:0040592c ff                               0xff 
                           .rsrc:0040592d ff                               0xff 
                           .rsrc:0040592e ff                               0xff 
                           .rsrc:0040592f ff                               0xff 
                           .rsrc:00405930 ff                               0xff 
                           .rsrc:00405931 f0                               0xf0 
                           .rsrc:00405932 00                               0x00 
                           .rsrc:00405933 00                               0x00 
                           .rsrc:00405934 00                               0x00 
                           .rsrc:00405935 00                               0x00 
                           .rsrc:00405936 ff                               0xff 
                           .rsrc:00405937 ff                               0xff 
                           .rsrc:00405938 f0                               0xf0 
                           .rsrc:00405939 0f                               0x0f 
                           .rsrc:0040593a ff                               0xff 
                           .rsrc:0040593b ff                               0xff 
                           .rsrc:0040593c ff                               0xff 
                           .rsrc:0040593d ff                               0xff 
                           .rsrc:0040593e ff                               0xff 
                           .rsrc:0040593f ff                               0xff 
                           .rsrc:00405940 ff                               0xff 
                           .rsrc:00405941 ff                               0xff 
                           .rsrc:00405942 ff                               0xff 
                           .rsrc:00405943 00                               0x00 
                           .rsrc:00405944 ff                               0xff 
                           .rsrc:00405945 ff                               0xff 
                           .rsrc:00405946 ff                               0xff 
                           .rsrc:00405947 ff                               0xff 
                           .rsrc:00405948 ff                               0xff 
                           .rsrc:00405949 f0                               0xf0 
                           .rsrc:0040594a 00                               0x00 
                           .rsrc:0040594b 00                               0x00 
                           .rsrc:0040594c 00                               0x00 
                           .rsrc:0040594d ff                               0xff 
                           .rsrc:0040594e ff                               0xff 
                           .rsrc:0040594f ff                               0xff 
                           .rsrc:00405950 ff                               0xff 
                           .rsrc:00405951 ff                               0xff 
                           .rsrc:00405952 ff                               0xff 
                           .rsrc:00405953 ff                               0xff 
                           .rsrc:00405954 ff                               0xff 
                           .rsrc:00405955 00                               0x00 
                           .rsrc:00405956 ff                               0xff 
                           .rsrc:00405957 ff                               0xff 
                           .rsrc:00405958 ff                               0xff 
                           .rsrc:00405959 ff                               0xff 
                           .rsrc:0040595a f0                               0xf0 
                           .rsrc:0040595b 00                               0x00 
                           .rsrc:0040595c 0f                               0x0f 
                           .rsrc:0040595d ff                               0xff 
                           .rsrc:0040595e ff                               0xff 
                           .rsrc:0040595f ff                               0xff 
                           .rsrc:00405960 ff                               0xff 
                           .rsrc:00405961 ff                               0xff 
                           .rsrc:00405962 00                               0x00 
                           .rsrc:00405963 0f                               0x0f 
                           .rsrc:00405964 ff                               0xff 
                           .rsrc:00405965 ff                               0xff 
                           .rsrc:00405966 ff                               0xff 
                           .rsrc:00405967 ff                               0xff 
                           .rsrc:00405968 ff                               0xff 
                           .rsrc:00405969 ff                               0xff 
                           .rsrc:0040596a ff                               0xff 
                           .rsrc:0040596b ff                               0xff 
                           .rsrc:0040596c f0                               0xf0 
                           .rsrc:0040596d 00                               0x00 
                           .rsrc:0040596e 0f                               0x0f 
                           .rsrc:0040596f ff                               0xff 
                           .rsrc:00405970 ff                               0xff 
                           .rsrc:00405971 ff                               0xff 
                           .rsrc:00405972 f0                               0xf0 
                           .rsrc:00405973 00                               0x00 
                           .rsrc:00405974 0f                               0x0f 
                           .rsrc:00405975 ff                               0xff 
                           .rsrc:00405976 ff                               0xff 
                           .rsrc:00405977 ff                               0xff 
                           .rsrc:00405978 ff                               0xff 
                           .rsrc:00405979 ff                               0xff 
                           .rsrc:0040597a ff                               0xff 
                           .rsrc:0040597b ff                               0xff 
                           .rsrc:0040597c ff                               0xff 
                           .rsrc:0040597d ff                               0xff 
                           .rsrc:0040597e ff                               0xff 
                           .rsrc:0040597f ff                               0xff 
                           .rsrc:00405980 00                               0x00 
                           .rsrc:00405981 ff                               0xff 
                           .rsrc:00405982 ff                               0xff 
                           .rsrc:00405983 ff                               0xff 
                           .rsrc:00405984 f0                               0xf0 
                           .rsrc:00405985 00                               0x00 
                           .rsrc:00405986 0f                               0x0f 
                           .rsrc:00405987 ff                               0xff 
                           .rsrc:00405988 ff                               0xff 
                           .rsrc:00405989 ff                               0xff 
                           .rsrc:0040598a ff                               0xff 
                           .rsrc:0040598b 00                               0x00 
                           .rsrc:0040598c ff                               0xff 
                           .rsrc:0040598d 00                               0x00 
                           .rsrc:0040598e 0f                               0x0f 
                           .rsrc:0040598f ff                               0xff 
                           .rsrc:00405990 ff                               0xff 
                           .rsrc:00405991 ff                               0xff 
                           .rsrc:00405992 ff                               0xff 
                           .rsrc:00405993 ff                               0xff 
                           .rsrc:00405994 ff                               0xff 
                           .rsrc:00405995 ff                               0xff 
                           .rsrc:00405996 ff                               0xff 
                           .rsrc:00405997 f0                               0xf0 
                           .rsrc:00405998 00                               0x00 
                           .rsrc:00405999 0f                               0x0f 
                           .rsrc:0040599a ff                               0xff 
                           .rsrc:0040599b ff                               0xff 
                           .rsrc:0040599c f0                               0xf0 
                           .rsrc:0040599d 00                               0x00 
                           .rsrc:0040599e 0f                               0x0f 
                           .rsrc:0040599f ff                               0xff 
                           .rsrc:004059a0 ff                               0xff 
                           .rsrc:004059a1 ff                               0xff 
                           .rsrc:004059a2 ff                               0xff 
                           .rsrc:004059a3 ff                               0xff 
                           .rsrc:004059a4 f0                               0xf0 
                           .rsrc:004059a5 00                               0x00 
                           .rsrc:004059a6 00                               0x00 
                           .rsrc:004059a7 ff                               0xff 
                           .rsrc:004059a8 ff                               0xff 
                           .rsrc:004059a9 ff                               0xff 
                           .rsrc:004059aa ff                               0xff 
                           .rsrc:004059ab 00                               0x00 
                           .rsrc:004059ac ff                               0xff 
                           .rsrc:004059ad ff                               0xff 
                           .rsrc:004059ae ff                               0xff 
                           .rsrc:004059af f0                               0xf0 
                           .rsrc:004059b0 00                               0x00 
                           .rsrc:004059b1 0f                               0x0f 
                           .rsrc:004059b2 ff                               0xff 
                           .rsrc:004059b3 ff                               0xff 
                           .rsrc:004059b4 ff                               0xff 
                           .rsrc:004059b5 00                               0x00 
                           .rsrc:004059b6 ff                               0xff 
                           .rsrc:004059b7 ff                               0xff 
                           .rsrc:004059b8 ff                               0xff 
                           .rsrc:004059b9 ff                               0xff 
                           .rsrc:004059ba ff                               0xff 
                           .rsrc:004059bb ff                               0xff 
                           .rsrc:004059bc f0                               0xf0 
                           .rsrc:004059bd 00                               0x00 
                           .rsrc:004059be 00                               0x00 
                           .rsrc:004059bf ff                               0xff 
                           .rsrc:004059c0 ff                               0xff 
                           .rsrc:004059c1 ff                               0xff 
                           .rsrc:004059c2 f0                               0xf0 
                           .rsrc:004059c3 00                               0x00 
                           .rsrc:004059c4 0f                               0x0f 
                           .rsrc:004059c5 ff                               0xff 
                           .rsrc:004059c6 ff                               0xff 
                           .rsrc:004059c7 f0                               0xf0 
                           .rsrc:004059c8 00                               0x00 
                           .rsrc:004059c9 0f                               0x0f 
                           .rsrc:004059ca ff                               0xff 
                           .rsrc:004059cb ff                               0xff 
                           .rsrc:004059cc ff                               0xff 
                           .rsrc:004059cd ff                               0xff 
                           .rsrc:004059ce ff                               0xff 
                           .rsrc:004059cf ff                               0xff 
                           .rsrc:004059d0 ff                               0xff 
                           .rsrc:004059d1 ff                               0xff 
                           .rsrc:004059d2 ff                               0xff 
                           .rsrc:004059d3 ff                               0xff 
                           .rsrc:004059d4 ff                               0xff 
                           .rsrc:004059d5 00                               0x00 
                           .rsrc:004059d6 0f                               0x0f 
                           .rsrc:004059d7 ff                               0xff 
                           .rsrc:004059d8 ff                               0xff 
                           .rsrc:004059d9 ff                               0xff 
                           .rsrc:004059da f0                               0xf0 
                           .rsrc:004059db 00                               0x00 
                           .rsrc:004059dc 0f                               0x0f 
                           .rsrc:004059dd ff                               0xff 
                           .rsrc:004059de ff                               0xff 
                           .rsrc:004059df ff                               0xff 
                           .rsrc:004059e0 00                               0x00 
                           .rsrc:004059e1 ff                               0xff 
                           .rsrc:004059e2 00                               0x00 
                           .rsrc:004059e3 ff                               0xff 
                           .rsrc:004059e4 ff                               0xff 
                           .rsrc:004059e5 ff                               0xff 
                           .rsrc:004059e6 ff                               0xff 
                           .rsrc:004059e7 ff                               0xff 
                           .rsrc:004059e8 ff                               0xff 
                           .rsrc:004059e9 ff                               0xff 
                           .rsrc:004059ea ff                               0xff 
                           .rsrc:004059eb ff                               0xff 
                           .rsrc:004059ec ff                               0xff 
                           .rsrc:004059ed ff                               0xff 
                           .rsrc:004059ee ff                               0xff 
                           .rsrc:004059ef ff                               0xff 
                           .rsrc:004059f0 ff                               0xff 
                           .rsrc:004059f1 ff                               0xff 
                           .rsrc:004059f2 ff                               0xff 
                           .rsrc:004059f3 00                               0x00 
                           .rsrc:004059f4 ff                               0xff 
                           .rsrc:004059f5 ff                               0xff 
                           .rsrc:004059f6 ff                               0xff 
                           .rsrc:004059f7 ff                               0xff 
                           .rsrc:004059f8 ff                               0xff 
                           .rsrc:004059f9 f0                               0xf0 
                           .rsrc:004059fa 00                               0x00 
                           .rsrc:004059fb 0f                               0x0f 
                           .rsrc:004059fc ff                               0xff 
                           .rsrc:004059fd ff                               0xff 
                           .rsrc:004059fe ff                               0xff 
                           .rsrc:004059ff ff                               0xff 
                           .rsrc:00405a00 f0                               0xf0 
                           .rsrc:00405a01 0f                               0x0f 
                           .rsrc:00405a02 ff                               0xff 
                           .rsrc:00405a03 ff                               0xff 
                           .rsrc:00405a04 ff                               0xff 
                           .rsrc:00405a05 00                               0x00 
                           .rsrc:00405a06 ff                               0xff 
                           .rsrc:00405a07 ff                               0xff 
                           .rsrc:00405a08 ff                               0xff 
                           .rsrc:00405a09 ff                               0xff 
                           .rsrc:00405a0a ff                               0xff 
                           .rsrc:00405a0b ff                               0xff 
                           .rsrc:00405a0c ff                               0xff 
                           .rsrc:00405a0d ff                               0xff 
                           .rsrc:00405a0e ff                               0xff 
                           .rsrc:00405a0f ff                               0xff 
                           .rsrc:00405a10 ff                               0xff 
                           .rsrc:00405a11 f0                               0xf0 
                           .rsrc:00405a12 00                               0x00 
                           .rsrc:00405a13 0f                               0x0f 
                           .rsrc:00405a14 ff                               0xff 
                           .rsrc:00405a15 ff                               0xff 
                           .rsrc:00405a16 ff                               0xff 
                           .rsrc:00405a17 ff                               0xff 
                           .rsrc:00405a18 00                               0x00 
                           .rsrc:00405a19 00                               0x00 
                           .rsrc:00405a1a ff                               0xff 
                           .rsrc:00405a1b ff                               0xff 
                           .rsrc:00405a1c f0                               0xf0 
                           .rsrc:00405a1d 00                               0x00 
                           .rsrc:00405a1e 0f                               0x0f 
                           .rsrc:00405a1f ff                               0xff 
                           .rsrc:00405a20 00                               0x00 
                           .rsrc:00405a21 ff                               0xff 
                           .rsrc:00405a22 ff                               0xff 
                           .rsrc:00405a23 ff                               0xff 
                           .rsrc:00405a24 ff                               0xff 
                           .rsrc:00405a25 ff                               0xff 
                           .rsrc:00405a26 ff                               0xff 
                           .rsrc:00405a27 ff                               0xff 
                           .rsrc:00405a28 ff                               0xff 
                           .rsrc:00405a29 ff                               0xff 
                           .rsrc:00405a2a 00                               0x00 
                           .rsrc:00405a2b ff                               0xff 
                           .rsrc:00405a2c ff                               0xff 
                           .rsrc:00405a2d ff                               0xff 
                           .rsrc:00405a2e ff                               0xff 
                           .rsrc:00405a2f ff                               0xff 
                           .rsrc:00405a30 00                               0x00 
                           .rsrc:00405a31 00                               0x00 
                           .rsrc:00405a32 ff                               0xff 
                           .rsrc:00405a33 ff                               0xff 
                           .rsrc:00405a34 f0                               0xf0 
                           .rsrc:00405a35 00                               0x00 
                           .rsrc:00405a36 0f                               0x0f 
                           .rsrc:00405a37 f0                               0xf0 
                           .rsrc:00405a38 00                               0x00 
                           .rsrc:00405a39 0f                               0x0f 
                           .rsrc:00405a3a ff                               0xff 
                           .rsrc:00405a3b ff                               0xff 
                           .rsrc:00405a3c ff                               0xff 
                           .rsrc:00405a3d ff                               0xff 
                           .rsrc:00405a3e ff                               0xff 
                           .rsrc:00405a3f ff                               0xff 
                           .rsrc:00405a40 ff                               0xff 
                           .rsrc:00405a41 ff                               0xff 
                           .rsrc:00405a42 00                               0x00 
                           .rsrc:00405a43 ff                               0xff 
                           .rsrc:00405a44 ff                               0xff 
                           .rsrc:00405a45 ff                               0xff 
                           .rsrc:00405a46 f0                               0xf0 
                           .rsrc:00405a47 00                               0x00 
                           .rsrc:00405a48 f0                               0xf0 
                           .rsrc:00405a49 0f                               0x0f 
                           .rsrc:00405a4a ff                               0xff 
                           .rsrc:00405a4b ff                               0xff 
                           .rsrc:00405a4c ff                               0xff 
                           .rsrc:00405a4d 00                               0x00 
                           .rsrc:00405a4e ff                               0xff 
                           .rsrc:00405a4f f0                               0xf0 
                           .rsrc:00405a50 00                               0x00 
                           .rsrc:00405a51 0f                               0x0f 
                           .rsrc:00405a52 ff                               0xff 
                           .rsrc:00405a53 ff                               0xff 
                           .rsrc:00405a54 ff                               0xff 
                           .rsrc:00405a55 f0                               0xf0 
                           .rsrc:00405a56 0f                               0x0f 
                           .rsrc:00405a57 ff                               0xff 
                           .rsrc:00405a58 ff                               0xff 
                           .rsrc:00405a59 f0                               0xf0 
                           .rsrc:00405a5a 00                               0x00 
                           .rsrc:00405a5b 0f                               0x0f 
                           .rsrc:00405a5c ff                               0xff 
                           .rsrc:00405a5d ff                               0xff 
                           .rsrc:00405a5e 00                               0x00 
                           .rsrc:00405a5f 00                               0x00 
                           .rsrc:00405a60 ff                               0xff 
                           .rsrc:00405a61 ff                               0xff 
                           .rsrc:00405a62 ff                               0xff 
                           .rsrc:00405a63 ff                               0xff 
                           .rsrc:00405a64 ff                               0xff 
                           .rsrc:00405a65 ff                               0xff 
                           .rsrc:00405a66 ff                               0xff 
                           .rsrc:00405a67 ff                               0xff 
                           .rsrc:00405a68 00                               0x00 
                           .rsrc:00405a69 ff                               0xff 
                           .rsrc:00405a6a ff                               0xff 
                           .rsrc:00405a6b ff                               0xff 
                           .rsrc:00405a6c ff                               0xff 
                           .rsrc:00405a6d 00                               0x00 
                           .rsrc:00405a6e 00                               0x00 
                           .rsrc:00405a6f ff                               0xff 
                           .rsrc:00405a70 ff                               0xff 
                           .rsrc:00405a71 f0                               0xf0 
                           .rsrc:00405a72 00                               0x00 
                           .rsrc:00405a73 0f                               0x0f 
                           .rsrc:00405a74 ff                               0xff 
                           .rsrc:00405a75 ff                               0xff 
                           .rsrc:00405a76 00                               0x00 
                           .rsrc:00405a77 00                               0x00 
                           .rsrc:00405a78 ff                               0xff 
                           .rsrc:00405a79 ff                               0xff 
                           .rsrc:00405a7a ff                               0xff 
                           .rsrc:00405a7b ff                               0xff 
                           .rsrc:00405a7c ff                               0xff 
                           .rsrc:00405a7d ff                               0xff 
                           .rsrc:00405a7e ff                               0xff 
                           .rsrc:00405a7f ff                               0xff 
                           .rsrc:00405a80 ff                               0xff 
                           .rsrc:00405a81 ff                               0xff 
                           .rsrc:00405a82 ff                               0xff 
                           .rsrc:00405a83 ff                               0xff 
                           .rsrc:00405a84 ff                               0xff 
                           .rsrc:00405a85 00                               0x00 
                           .rsrc:00405a86 00                               0x00 
                           .rsrc:00405a87 ff                               0xff 
                           .rsrc:00405a88 ff                               0xff 
                           .rsrc:00405a89 ff                               0xff 
                           .rsrc:00405a8a 00                               0x00 
                           .rsrc:00405a8b ff                               0xff 
                           .rsrc:00405a8c ff                               0xff 
                           .rsrc:00405a8d ff                               0xff 
                           .rsrc:00405a8e f0                               0xf0 
                           .rsrc:00405a8f 00                               0x00 
                           .rsrc:00405a90 ff                               0xff 
                           .rsrc:00405a91 ff                               0xff 
                           .rsrc:00405a92 ff                               0xff 
                           .rsrc:00405a93 ff                               0xff 
                           .rsrc:00405a94 ff                               0xff 
                           .rsrc:00405a95 ff                               0xff 
                           .rsrc:00405a96 ff                               0xff 
                           .rsrc:00405a97 ff                               0xff 
                           .rsrc:00405a98 ff                               0xff 
                           .rsrc:00405a99 ff                               0xff 
                           .rsrc:00405a9a ff                               0xff 
                           .rsrc:00405a9b ff                               0xff 
                           .rsrc:00405a9c ff                               0xff 
                           .rsrc:00405a9d 00                               0x00 
                           .rsrc:00405a9e 00                               0x00 
                           .rsrc:00405a9f ff                               0xff 
                           .rsrc:00405aa0 ff                               0xff 
                           .rsrc:00405aa1 ff                               0xff 
                           .rsrc:00405aa2 ff                               0xff 
                           .rsrc:00405aa3 ff                               0xff 
                           .rsrc:00405aa4 ff                               0xff 
                           .rsrc:00405aa5 ff                               0xff 
                           .rsrc:00405aa6 ff                               0xff 
                           .rsrc:00405aa7 ff                               0xff 
                           .rsrc:00405aa8 00                               0x00 
                           .rsrc:00405aa9 ff                               0xff 
                           .rsrc:00405aaa ff                               0xff 
                           .rsrc:00405aab ff                               0xff 
                           .rsrc:00405aac ff                               0xff 
                           .rsrc:00405aad ff                               0xff 
                           .rsrc:00405aae ff                               0xff 
                           .rsrc:00405aaf ff                               0xff 
                           .rsrc:00405ab0 ff                               0xff 
                           .rsrc:00405ab1 ff                               0xff 
                           .rsrc:00405ab2 ff                               0xff 
                           .rsrc:00405ab3 ff                               0xff 
                           .rsrc:00405ab4 ff                               0xff 
                           .rsrc:00405ab5 f0                               0xf0 
                           .rsrc:00405ab6 0f                               0x0f 
                           .rsrc:00405ab7 ff                               0xff 
                           .rsrc:00405ab8 ff                               0xff 
                           .rsrc:00405ab9 ff                               0xff 
                           .rsrc:00405aba ff                               0xff 
                           .rsrc:00405abb ff                               0xff 
                           .rsrc:00405abc ff                               0xff 
                           .rsrc:00405abd ff                               0xff 
                           .rsrc:00405abe ff                               0xff 
                           .rsrc:00405abf ff                               0xff 
                           .rsrc:00405ac0 00                               0x00 
                           .rsrc:00405ac1 0f                               0x0f 
                           .rsrc:00405ac2 ff                               0xff 
                           .rsrc:00405ac3 ff                               0xff 
                           .rsrc:00405ac4 ff                               0xff 
                           .rsrc:00405ac5 ff                               0xff 
                           .rsrc:00405ac6 ff                               0xff 
                           .rsrc:00405ac7 00                               0x00 
                           .rsrc:00405ac8 ff                               0xff 
                           .rsrc:00405ac9 ff                               0xff 
                           .rsrc:00405aca ff                               0xff 
                           .rsrc:00405acb ff                               0xff 
                           .rsrc:00405acc ff                               0xff 
                           .rsrc:00405acd ff                               0xff 
                           .rsrc:00405ace ff                               0xff 
                           .rsrc:00405acf ff                               0xff 
                           .rsrc:00405ad0 ff                               0xff 
                           .rsrc:00405ad1 ff                               0xff 
                           .rsrc:00405ad2 f0                               0xf0 
                           .rsrc:00405ad3 0f                               0x0f 
                           .rsrc:00405ad4 ff                               0xff 
                           .rsrc:00405ad5 ff                               0xff 
                           .rsrc:00405ad6 ff                               0xff 
                           .rsrc:00405ad7 ff                               0xff 
                           .rsrc:00405ad8 00                               0x00 
                           .rsrc:00405ad9 0f                               0x0f 
                           .rsrc:00405ada ff                               0xff 
                           .rsrc:00405adb ff                               0xff 
                           .rsrc:00405adc ff                               0xff 
                           .rsrc:00405add ff                               0xff 
                           .rsrc:00405ade f0                               0xf0 
                           .rsrc:00405adf 00                               0x00 
                           .rsrc:00405ae0 0f                               0x0f 
                           .rsrc:00405ae1 ff                               0xff 
                           .rsrc:00405ae2 f0                               0xf0 
                           .rsrc:00405ae3 0f                               0x0f 
                           .rsrc:00405ae4 ff                               0xff 
                           .rsrc:00405ae5 ff                               0xff 
                           .rsrc:00405ae6 ff                               0xff 
                           .rsrc:00405ae7 ff                               0xff 
                           .rsrc:00405ae8 ff                               0xff 
                           .rsrc:00405ae9 ff                               0xff 
                           .rsrc:00405aea 00                               0x00 
                           .rsrc:00405aeb 00                               0x00 
                           .rsrc:00405aec ff                               0xff 
                           .rsrc:00405aed ff                               0xff 
                           .rsrc:00405aee ff                               0xff 
                           .rsrc:00405aef ff                               0xff 
                           .rsrc:00405af0 00                               0x00 
                           .rsrc:00405af1 ff                               0xff 
                           .rsrc:00405af2 ff                               0xff 
                           .rsrc:00405af3 ff                               0xff 
                           .rsrc:00405af4 ff                               0xff 
                           .rsrc:00405af5 ff                               0xff 
                           .rsrc:00405af6 f0                               0xf0 
                           .rsrc:00405af7 00                               0x00 
                           .rsrc:00405af8 0f                               0x0f 
                           .rsrc:00405af9 ff                               0xff 
                           .rsrc:00405afa 00                               0x00 
                           .rsrc:00405afb 00                               0x00 
                           .rsrc:00405afc ff                               0xff 
                           .rsrc:00405afd ff                               0xff 
                           .rsrc:00405afe ff                               0xff 
                           .rsrc:00405aff ff                               0xff 
                           .rsrc:00405b00 ff                               0xff 
                           .rsrc:00405b01 ff                               0xff 
                           .rsrc:00405b02 00                               0x00 
                           .rsrc:00405b03 00                               0x00 
                           .rsrc:00405b04 ff                               0xff 
                           .rsrc:00405b05 ff                               0xff 
                           .rsrc:00405b06 ff                               0xff 
                           .rsrc:00405b07 ff                               0xff 
                           .rsrc:00405b08 ff                               0xff 
                           .rsrc:00405b09 ff                               0xff 
                           .rsrc:00405b0a ff                               0xff 
                           .rsrc:00405b0b ff                               0xff 
                           .rsrc:00405b0c ff                               0xff 
                           .rsrc:00405b0d ff                               0xff 
                           .rsrc:00405b0e ff                               0xff 
                           .rsrc:00405b0f 00                               0x00 
                           .rsrc:00405b10 ff                               0xff 
                           .rsrc:00405b11 ff                               0xff 
                           .rsrc:00405b12 00                               0x00 
                           .rsrc:00405b13 00                               0x00 
                           .rsrc:00405b14 ff                               0xff 
                           .rsrc:00405b15 ff                               0xff 
                           .rsrc:00405b16 ff                               0xff 
                           .rsrc:00405b17 ff                               0xff 
                           .rsrc:00405b18 ff                               0xff 
                           .rsrc:00405b19 ff                               0xff 
                           .rsrc:00405b1a f0                               0xf0 
                           .rsrc:00405b1b 0f                               0x0f 
                           .rsrc:00405b1c ff                               0xff 
                           .rsrc:00405b1d ff                               0xff 
                           .rsrc:00405b1e ff                               0xff 
                           .rsrc:00405b1f ff                               0xff 
                           .rsrc:00405b20 ff                               0xff 
                           .rsrc:00405b21 ff                               0xff 
                           .rsrc:00405b22 ff                               0xff 
                           .rsrc:00405b23 ff                               0xff 
                           .rsrc:00405b24 ff                               0xff 
                           .rsrc:00405b25 00                               0x00 
                           .rsrc:00405b26 ff                               0xff 
                           .rsrc:00405b27 ff                               0xff 
                           .rsrc:00405b28 ff                               0xff 
                           .rsrc:00405b29 ff                               0xff 
                           .rsrc:00405b2a f0                               0xf0 
                           .rsrc:00405b2b 0f                               0x0f 
                           .rsrc:00405b2c ff                               0xff 
                           .rsrc:00405b2d ff                               0xff 
                           .rsrc:00405b2e ff                               0xff 
                           .rsrc:00405b2f ff                               0xff 
                           .rsrc:00405b30 ff                               0xff 
                           .rsrc:00405b31 ff                               0xff 
                           .rsrc:00405b32 ff                               0xff 
                           .rsrc:00405b33 ff                               0xff 
                           .rsrc:00405b34 ff                               0xff 
                           .rsrc:00405b35 ff                               0xff 
                           .rsrc:00405b36 ff                               0xff 
                           .rsrc:00405b37 ff                               0xff 
                           .rsrc:00405b38 ff                               0xff 
                           .rsrc:00405b39 ff                               0xff 
                           .rsrc:00405b3a ff                               0xff 
                           .rsrc:00405b3b ff                               0xff 
                           .rsrc:00405b3c f0                               0xf0 
                           .rsrc:00405b3d 00                               0x00 
                           .rsrc:00405b3e 0f                               0x0f 
                           .rsrc:00405b3f ff                               0xff 
                           .rsrc:00405b40 ff                               0xff 
                           .rsrc:00405b41 ff                               0xff 
                           .rsrc:00405b42 ff                               0xff 
                           .rsrc:00405b43 ff                               0xff 
                           .rsrc:00405b44 ff                               0xff 
                           .rsrc:00405b45 f0                               0xf0 
                           .rsrc:00405b46 00                               0x00 
                           .rsrc:00405b47 ff                               0xff 
                           .rsrc:00405b48 ff                               0xff 
                           .rsrc:00405b49 ff                               0xff 
                           .rsrc:00405b4a ff                               0xff 
                           .rsrc:00405b4b ff                               0xff 
                           .rsrc:00405b4c ff                               0xff 
                           .rsrc:00405b4d f0                               0xf0 
                           .rsrc:00405b4e 0f                               0x0f 
                           .rsrc:00405b4f ff                               0xff 
                           .rsrc:00405b50 ff                               0xff 
                           .rsrc:00405b51 00                               0x00 
                           .rsrc:00405b52 0f                               0x0f 
                           .rsrc:00405b53 ff                               0xff 
                           .rsrc:00405b54 f0                               0xf0 
                           .rsrc:00405b55 00                               0x00 
                           .rsrc:00405b56 0f                               0x0f 
                           .rsrc:00405b57 ff                               0xff 
                           .rsrc:00405b58 ff                               0xff 
                           .rsrc:00405b59 ff                               0xff 
                           .rsrc:00405b5a ff                               0xff 
                           .rsrc:00405b5b ff                               0xff 
                           .rsrc:00405b5c ff                               0xff 
                           .rsrc:00405b5d 00                               0x00 
                           .rsrc:00405b5e 00                               0x00 
                           .rsrc:00405b5f 0f                               0x0f 
                           .rsrc:00405b60 ff                               0xff 
                           .rsrc:00405b61 ff                               0xff 
                           .rsrc:00405b62 ff                               0xff 
                           .rsrc:00405b63 ff                               0xff 
                           .rsrc:00405b64 ff                               0xff 
                           .rsrc:00405b65 00                               0x00 
                           .rsrc:00405b66 00                               0x00 
                           .rsrc:00405b67 ff                               0xff 
                           .rsrc:00405b68 f0                               0xf0 
                           .rsrc:00405b69 00                               0x00 
                           .rsrc:00405b6a 00                               0x00 
                           .rsrc:00405b6b ff                               0xff 
                           .rsrc:00405b6c ff                               0xff 
                           .rsrc:00405b6d 00                               0x00 
                           .rsrc:00405b6e ff                               0xff 
                           .rsrc:00405b6f ff                               0xff 
                           .rsrc:00405b70 ff                               0xff 
                           .rsrc:00405b71 ff                               0xff 
                           .rsrc:00405b72 ff                               0xff 
                           .rsrc:00405b73 ff                               0xff 
                           .rsrc:00405b74 ff                               0xff 
                           .rsrc:00405b75 00                               0x00 
                           .rsrc:00405b76 00                               0x00 
                           .rsrc:00405b77 0f                               0x0f 
                           .rsrc:00405b78 ff                               0xff 
                           .rsrc:00405b79 ff                               0xff 
                           .rsrc:00405b7a ff                               0xff 
                           .rsrc:00405b7b ff                               0xff 
                           .rsrc:00405b7c ff                               0xff 
                           .rsrc:00405b7d 00                               0x00 
                           .rsrc:00405b7e 00                               0x00 
                           .rsrc:00405b7f ff                               0xff 
                           .rsrc:00405b80 f0                               0xf0 
                           .rsrc:00405b81 00                               0x00 
                           .rsrc:00405b82 00                               0x00 
                           .rsrc:00405b83 ff                               0xff 
                           .rsrc:00405b84 ff                               0xff 
                           .rsrc:00405b85 ff                               0xff 
                           .rsrc:00405b86 ff                               0xff 
                           .rsrc:00405b87 ff                               0xff 
                           .rsrc:00405b88 ff                               0xff 
                           .rsrc:00405b89 ff                               0xff 
                           .rsrc:00405b8a ff                               0xff 
                           .rsrc:00405b8b ff                               0xff 
                           .rsrc:00405b8c ff                               0xff 
                           .rsrc:00405b8d f0                               0xf0 
                           .rsrc:00405b8e 00                               0x00 
                           .rsrc:00405b8f 0f                               0x0f 
                           .rsrc:00405b90 ff                               0xff 
                           .rsrc:00405b91 ff                               0xff 
                           .rsrc:00405b92 ff                               0xff 
                           .rsrc:00405b93 ff                               0xff 
                           .rsrc:00405b94 ff                               0xff 
                           .rsrc:00405b95 f0                               0xf0 
                           .rsrc:00405b96 0f                               0x0f 
                           .rsrc:00405b97 ff                               0xff 
                           .rsrc:00405b98 ff                               0xff 
                           .rsrc:00405b99 00                               0x00 
                           .rsrc:00405b9a 0f                               0x0f 
                           .rsrc:00405b9b ff                               0xff 
                           .rsrc:00405b9c ff                               0xff 
                           .rsrc:00405b9d ff                               0xff 
                           .rsrc:00405b9e ff                               0xff 
                           .rsrc:00405b9f ff                               0xff 
                           .rsrc:00405ba0 ff                               0xff 
                           .rsrc:00405ba1 ff                               0xff 
                           .rsrc:00405ba2 ff                               0xff 
                           .rsrc:00405ba3 ff                               0xff 
                           .rsrc:00405ba4 ff                               0xff 
                           .rsrc:00405ba5 ff                               0xff 
                           .rsrc:00405ba6 00                               0x00 
                           .rsrc:00405ba7 ff                               0xff 
                           .rsrc:00405ba8 ff                               0xff 
                           .rsrc:00405ba9 f0                               0xf0 
                           .rsrc:00405baa 0f                               0x0f 
                           .rsrc:00405bab ff                               0xff 
                           .rsrc:00405bac ff                               0xff 
                           .rsrc:00405bad ff                               0xff 
                           .rsrc:00405bae ff                               0xff 
                           .rsrc:00405baf ff                               0xff 
                           .rsrc:00405bb0 ff                               0xff 
                           .rsrc:00405bb1 ff                               0xff 
                           .rsrc:00405bb2 ff                               0xff 
                           .rsrc:00405bb3 ff                               0xff 
                           .rsrc:00405bb4 f0                               0xf0 
                           .rsrc:00405bb5 0f                               0x0f 
                           .rsrc:00405bb6 ff                               0xff 
                           .rsrc:00405bb7 ff                               0xff 
                           .rsrc:00405bb8 ff                               0xff 
                           .rsrc:00405bb9 f0                               0xf0 
                           .rsrc:00405bba 0f                               0x0f 
                           .rsrc:00405bbb ff                               0xff 
                           .rsrc:00405bbc ff                               0xff 
                           .rsrc:00405bbd ff                               0xff 
                           .rsrc:00405bbe ff                               0xff 
                           .rsrc:00405bbf ff                               0xff 
                           .rsrc:00405bc0 ff                               0xff 
                           .rsrc:00405bc1 00                               0x00 
                           .rsrc:00405bc2 00                               0x00 
                           .rsrc:00405bc3 ff                               0xff 
                           .rsrc:00405bc4 ff                               0xff 
                           .rsrc:00405bc5 ff                               0xff 
                           .rsrc:00405bc6 ff                               0xff 
                           .rsrc:00405bc7 ff                               0xff 
                           .rsrc:00405bc8 ff                               0xff 
                           .rsrc:00405bc9 ff                               0xff 
                           .rsrc:00405bca ff                               0xff 
                           .rsrc:00405bcb ff                               0xff 
                           .rsrc:00405bcc 00                               0x00 
                           .rsrc:00405bcd 00                               0x00 
                           .rsrc:00405bce ff                               0xff 
                           .rsrc:00405bcf ff                               0xff 
                           .rsrc:00405bd0 ff                               0xff 
                           .rsrc:00405bd1 00                               0x00 
                           .rsrc:00405bd2 00                               0x00 
                           .rsrc:00405bd3 ff                               0xff 
                           .rsrc:00405bd4 ff                               0xff 
                           .rsrc:00405bd5 ff                               0xff 
                           .rsrc:00405bd6 ff                               0xff 
                           .rsrc:00405bd7 ff                               0xff 
                           .rsrc:00405bd8 ff                               0xff 
                           .rsrc:00405bd9 00                               0x00 
                           .rsrc:00405bda 00                               0x00 
                           .rsrc:00405bdb ff                               0xff 
                           .rsrc:00405bdc ff                               0xff 
                           .rsrc:00405bdd ff                               0xff 
                           .rsrc:00405bde ff                               0xff 
                           .rsrc:00405bdf ff                               0xff 
                           .rsrc:00405be0 ff                               0xff 
                           .rsrc:00405be1 ff                               0xff 
                           .rsrc:00405be2 ff                               0xff 
                           .rsrc:00405be3 ff                               0xff 
                           .rsrc:00405be4 00                               0x00 
                           .rsrc:00405be5 00                               0x00 
                           .rsrc:00405be6 ff                               0xff 
                           .rsrc:00405be7 ff                               0xff 
                           .rsrc:00405be8 ff                               0xff 
                           .rsrc:00405be9 00                               0x00 
                           .rsrc:00405bea 00                               0x00 
                           .rsrc:00405beb ff                               0xff 
                           .rsrc:00405bec ff                               0xff 
                           .rsrc:00405bed ff                               0xff 
                           .rsrc:00405bee ff                               0xff 
                           .rsrc:00405bef ff                               0xff 
                           .rsrc:00405bf0 ff                               0xff 
                           .rsrc:00405bf1 f0                               0xf0 
                           .rsrc:00405bf2 0f                               0x0f 
                           .rsrc:00405bf3 ff                               0xff 
                           .rsrc:00405bf4 ff                               0xff 
                           .rsrc:00405bf5 ff                               0xff 
                           .rsrc:00405bf6 ff                               0xff 
                           .rsrc:00405bf7 ff                               0xff 
                           .rsrc:00405bf8 ff                               0xff 
                           .rsrc:00405bf9 ff                               0xff 
                           .rsrc:00405bfa ff                               0xff 
                           .rsrc:00405bfb ff                               0xff 
                           .rsrc:00405bfc f0                               0xf0 
                           .rsrc:00405bfd 0f                               0x0f 
                           .rsrc:00405bfe ff                               0xff 
                           .rsrc:00405bff ff                               0xff 
                           .rsrc:00405c00 ff                               0xff 
                           .rsrc:00405c01 f0                               0xf0 
                           .rsrc:00405c02 0f                               0x0f 
                           .rsrc:00405c03 ff                               0xff 
                           .rsrc:00405c04 ff                               0xff 
                           .rsrc:00405c05 ff                               0xff 
                           .rsrc:00405c06 ff                               0xff 
                           .rsrc:00405c07 ff                               0xff 
                           .rsrc:00405c08 ff                               0xff 
                           .rsrc:00405c09 ff                               0xff 
                           .rsrc:00405c0a ff                               0xff 
                           .rsrc:00405c0b ff                               0xff 
                           .rsrc:00405c0c ff                               0xff 
                           .rsrc:00405c0d ff                               0xff 
                           .rsrc:00405c0e ff                               0xff 
                           .rsrc:00405c0f ff                               0xff 
                           .rsrc:00405c10 ff                               0xff 
                           .rsrc:00405c11 ff                               0xff 
                           .rsrc:00405c12 ff                               0xff 
                           .rsrc:00405c13 ff                               0xff 
                           .rsrc:00405c14 ff                               0xff 
                           .rsrc:00405c15 ff                               0xff 
                           .rsrc:00405c16 ff                               0xff 
                           .rsrc:00405c17 ff                               0xff 
                           .rsrc:00405c18 ff                               0xff 
                           .rsrc:00405c19 ff                               0xff 
                           .rsrc:00405c1a ff                               0xff 
                           .rsrc:00405c1b ff                               0xff 
                           .rsrc:00405c1c ff                               0xff 
                           .rsrc:00405c1d ff                               0xff 
                           .rsrc:00405c1e ff                               0xff 
                           .rsrc:00405c1f ff                               0xff 
                           .rsrc:00405c20 ff                               0xff 
                           .rsrc:00405c21 ff                               0xff 
                           .rsrc:00405c22 ff                               0xff 
                           .rsrc:00405c23 ff                               0xff 
                           .rsrc:00405c24 ff                               0xff 
                           .rsrc:00405c25 ff                               0xff 
                           .rsrc:00405c26 ff                               0xff 
                           .rsrc:00405c27 ff                               0xff 
                           .rsrc:00405c28 ff                               0xff 
                           .rsrc:00405c29 f0                               0xf0 
                           .rsrc:00405c2a 0f                               0x0f 
                           .rsrc:00405c2b ff                               0xff 
                           .rsrc:00405c2c ff                               0xff 
                           .rsrc:00405c2d ff                               0xff 
                           .rsrc:00405c2e ff                               0xff 
                           .rsrc:00405c2f 00                               0x00 
                           .rsrc:00405c30 ff                               0xff 
                           .rsrc:00405c31 ff                               0xff 
                           .rsrc:00405c32 ff                               0xff 
                           .rsrc:00405c33 ff                               0xff 
                           .rsrc:00405c34 ff                               0xff 
                           .rsrc:00405c35 ff                               0xff 
                           .rsrc:00405c36 ff                               0xff 
                           .rsrc:00405c37 ff                               0xff 
                           .rsrc:00405c38 ff                               0xff 
                           .rsrc:00405c39 ff                               0xff 
                           .rsrc:00405c3a ff                               0xff 
                           .rsrc:00405c3b ff                               0xff 
                           .rsrc:00405c3c ff                               0xff 
                           .rsrc:00405c3d ff                               0xff 
                           .rsrc:00405c3e ff                               0xff 
                           .rsrc:00405c3f ff                               0xff 
                           .rsrc:00405c40 ff                               0xff 
                           .rsrc:00405c41 00                               0x00 
                           .rsrc:00405c42 00                               0x00 
                           .rsrc:00405c43 ff                               0xff 
                           .rsrc:00405c44 ff                               0xff 
                           .rsrc:00405c45 ff                               0xff 
                           .rsrc:00405c46 f0                               0xf0 
                           .rsrc:00405c47 00                               0x00 
                           .rsrc:00405c48 0f                               0x0f 
                           .rsrc:00405c49 ff                               0xff 
                           .rsrc:00405c4a ff                               0xff 
                           .rsrc:00405c4b ff                               0xff 
                           .rsrc:00405c4c ff                               0xff 
                           .rsrc:00405c4d ff                               0xff 
                           .rsrc:00405c4e f0                               0xf0 
                           .rsrc:00405c4f 00                               0x00 
                           .rsrc:00405c50 ff                               0xff 
                           .rsrc:00405c51 ff                               0xff 
                           .rsrc:00405c52 ff                               0xff 
                           .rsrc:00405c53 ff                               0xff 
                           .rsrc:00405c54 ff                               0xff 
                           .rsrc:00405c55 ff                               0xff 
                           .rsrc:00405c56 ff                               0xff 
                           .rsrc:00405c57 ff                               0xff 
                           .rsrc:00405c58 ff                               0xff 
                           .rsrc:00405c59 00                               0x00 
                           .rsrc:00405c5a 00                               0x00 
                           .rsrc:00405c5b ff                               0xff 
                           .rsrc:00405c5c ff                               0xff 
                           .rsrc:00405c5d ff                               0xff 
                           .rsrc:00405c5e f0                               0xf0 
                           .rsrc:00405c5f 00                               0x00 
                           .rsrc:00405c60 0f                               0x0f 
                           .rsrc:00405c61 ff                               0xff 
                           .rsrc:00405c62 ff                               0xff 
                           .rsrc:00405c63 ff                               0xff 
                           .rsrc:00405c64 ff                               0xff 
                           .rsrc:00405c65 ff                               0xff 
                           .rsrc:00405c66 00                               0x00 
                           .rsrc:00405c67 00                               0x00 
                           .rsrc:00405c68 0f                               0x0f 
                           .rsrc:00405c69 ff                               0xff 
                           .rsrc:00405c6a ff                               0xff 
                           .rsrc:00405c6b ff                               0xff 
                           .rsrc:00405c6c ff                               0xff 
                           .rsrc:00405c6d ff                               0xff 
                           .rsrc:00405c6e ff                               0xff 
                           .rsrc:00405c6f ff                               0xff 
                           .rsrc:00405c70 ff                               0xff 
                           .rsrc:00405c71 f0                               0xf0 
                           .rsrc:00405c72 0f                               0x0f 
                           .rsrc:00405c73 ff                               0xff 
                           .rsrc:00405c74 ff                               0xff 
                           .rsrc:00405c75 ff                               0xff 
                           .rsrc:00405c76 ff                               0xff 
                           .rsrc:00405c77 00                               0x00 
                           .rsrc:00405c78 ff                               0xff 
                           .rsrc:00405c79 ff                               0xff 
                           .rsrc:00405c7a ff                               0xff 
                           .rsrc:00405c7b ff                               0xff 
                           .rsrc:00405c7c ff                               0xff 
                           .rsrc:00405c7d ff                               0xff 
                           .rsrc:00405c7e 00                               0x00 
                           .rsrc:00405c7f 00                               0x00 
                           .rsrc:00405c80 0f                               0x0f 
                           .rsrc:00405c81 ff                               0xff 
                           .rsrc:00405c82 ff                               0xff 
                           .rsrc:00405c83 ff                               0xff 
                           .rsrc:00405c84 ff                               0xff 
                           .rsrc:00405c85 ff                               0xff 
                           .rsrc:00405c86 ff                               0xff 
                           .rsrc:00405c87 ff                               0xff 
                           .rsrc:00405c88 ff                               0xff 
                           .rsrc:00405c89 ff                               0xff 
                           .rsrc:00405c8a ff                               0xff 
                           .rsrc:00405c8b ff                               0xff 
                           .rsrc:00405c8c ff                               0xff 
                           .rsrc:00405c8d ff                               0xff 
                           .rsrc:00405c8e ff                               0xff 
                           .rsrc:00405c8f ff                               0xff 
                           .rsrc:00405c90 ff                               0xff 
                           .rsrc:00405c91 ff                               0xff 
                           .rsrc:00405c92 ff                               0xff 
                           .rsrc:00405c93 ff                               0xff 
                           .rsrc:00405c94 ff                               0xff 
                           .rsrc:00405c95 ff                               0xff 
                           .rsrc:00405c96 f0                               0xf0 
                           .rsrc:00405c97 00                               0x00 
                           .rsrc:00405c98 0f                               0x0f 
                           .rsrc:00405c99 ff                               0xff 
                           .rsrc:00405c9a ff                               0xff 
                           .rsrc:00405c9b ff                               0xff 
                           .rsrc:00405c9c ff                               0xff 
                           .rsrc:00405c9d ff                               0xff 
                           .rsrc:00405c9e ff                               0xff 
                           .rsrc:00405c9f ff                               0xff 
                           .rsrc:00405ca0 ff                               0xff 
                           .rsrc:00405ca1 ff                               0xff 
                           .rsrc:00405ca2 ff                               0xff 
                           .rsrc:00405ca3 ff                               0xff 
                           .rsrc:00405ca4 ff                               0xff 
                           .rsrc:00405ca5 ff                               0xff 
                           .rsrc:00405ca6 ff                               0xff 
                           .rsrc:00405ca7 ff                               0xff 
                           .rsrc:00405ca8 ff                               0xff 
                           .rsrc:00405ca9 ff                               0xff 
                           .rsrc:00405caa ff                               0xff 
                           .rsrc:00405cab ff                               0xff 
                           .rsrc:00405cac ff                               0xff 
                           .rsrc:00405cad ff                               0xff 
                           .rsrc:00405cae ff                               0xff 
                           .rsrc:00405caf 00                               0x00 
                           .rsrc:00405cb0 ff                               0xff 
                           .rsrc:00405cb1 ff                               0xff 
                           .rsrc:00405cb2 ff                               0xff 
                           .rsrc:00405cb3 ff                               0xff 
                           .rsrc:00405cb4 ff                               0xff 
                           .rsrc:00405cb5 ff                               0xff 
                           .rsrc:00405cb6 ff                               0xff 
                           .rsrc:00405cb7 ff                               0xff 
                           .rsrc:00405cb8 c0                               0xc0 
                           .rsrc:00405cb9 00                               0x00 
                           .rsrc:00405cba c8                               0xc8 
                           .rsrc:00405cbb 80                               0x80 
                           .rsrc:00405cbc 00                               0x00 
                           .rsrc:00405cbd 00                               0x00 
                           .rsrc:00405cbe 00                               0x00 
                           .rsrc:00405cbf 00                               0x00 
                           .rsrc:00405cc0 03                               0x03 
                           .rsrc:00405cc1 00                               0x00 
                           .rsrc:00405cc2 00                               0x00 
                           .rsrc:00405cc3 00                               0x00 
                           .rsrc:00405cc4 00                               0x00 
                           .rsrc:00405cc5 00                               0x00 
                           .rsrc:00405cc6 bb                               0xbb 
                           .rsrc:00405cc7 00                               0x00 
                           .rsrc:00405cc8 60                               0x60 '`'
                           .rsrc:00405cc9 00                               0x00 
                           .rsrc:00405cca 00                               0x00 
                           .rsrc:00405ccb 00                               0x00 
                           .rsrc:00405ccc 00                               0x00 
                           .rsrc:00405ccd 00                               0x00 
                           .rsrc:00405cce f9                               0xf9 
                           .rsrc:00405ccf 5b                               0x5b '['
                           .rsrc:00405cd0 dd                               0xdd 
                           .rsrc:00405cd1 8b                               0x8b 
                           .rsrc:00405cd2 00                               0x00 
                           .rsrc:00405cd3 00                               0x00 
                           .rsrc:00405cd4 0a                               0x0a '
'
                           .rsrc:00405cd5 00                               0x00 
                           .rsrc:00405cd6 53                               0x53 'S'
                           .rsrc:00405cd7 00                               0x00 
                           .rsrc:00405cd8 79                               0x79 'y'
                           .rsrc:00405cd9 00                               0x00 
                           .rsrc:00405cda 73                               0x73 's'
                           .rsrc:00405cdb 00                               0x00 
                           .rsrc:00405cdc 74                               0x74 't'
                           .rsrc:00405cdd 00                               0x00 
                           .rsrc:00405cde 65                               0x65 'e'
                           .rsrc:00405cdf 00                               0x00 
                           .rsrc:00405ce0 6d                               0x6d 'm'
                           .rsrc:00405ce1 00                               0x00 
                           .rsrc:00405ce2 00                               0x00 
                           .rsrc:00405ce3 00                               0x00 
                           .rsrc:00405ce4 01                               0x01 
                           .rsrc:00405ce5 00                               0x00 
                           .rsrc:00405ce6 01                               0x01 
                           .rsrc:00405ce7 50                               0x50 'P'
                           .rsrc:00405ce8 00                               0x00 
                           .rsrc:00405ce9 00                               0x00 
                           .rsrc:00405cea 00                               0x00 
                           .rsrc:00405ceb 00                               0x00 
                           .rsrc:00405cec 82                               0x82 
                           .rsrc:00405ced 00                               0x00 
                           .rsrc:00405cee 07                               0x07 
                           .rsrc:00405cef 00                               0x00 
                           .rsrc:00405cf0 32                               0x32 '2'
                           .rsrc:00405cf1 00                               0x00 
                           .rsrc:00405cf2 0e                               0x0e 
                           .rsrc:00405cf3 00                               0x00 
                           .rsrc:00405cf4 01                               0x01 
                           .rsrc:00405cf5 00                               0x00 
                           .rsrc:00405cf6 ff                               0xff 
                           .rsrc:00405cf7 ff                               0xff 
                           .rsrc:00405cf8 80                               0x80 
                           .rsrc:00405cf9 00                               0x00 
                           .rsrc:00405cfa 6e                               0x6e 'n'
                           .rsrc:00405cfb 78                               0x78 'x'
                           .rsrc:00405cfc 9a                               0x9a 
                           .rsrc:00405cfd 5b                               0x5b '['
                           .rsrc:00405cfe 00                               0x00 
                           .rsrc:00405cff 00                               0x00 
                           .rsrc:00405d00 00                               0x00 
                           .rsrc:00405d01 00                               0x00 
                           .rsrc:00405d02 00                               0x00 
                           .rsrc:00405d03 00                               0x00 
                           .rsrc:00405d04 00                               0x00 
                           .rsrc:00405d05 00                               0x00 
                           .rsrc:00405d06 01                               0x01 
                           .rsrc:00405d07 50                               0x50 'P'
                           .rsrc:00405d08 00                               0x00 
                           .rsrc:00405d09 00                               0x00 
                           .rsrc:00405d0a 00                               0x00 
                           .rsrc:00405d0b 00                               0x00 
                           .rsrc:00405d0c 82                               0x82 
                           .rsrc:00405d0d 00                               0x00 
                           .rsrc:00405d0e 18                               0x18 
                           .rsrc:00405d0f 00                               0x00 
                           .rsrc:00405d10 32                               0x32 '2'
                           .rsrc:00405d11 00                               0x00 
                           .rsrc:00405d12 0e                               0x0e 
                           .rsrc:00405d13 00                               0x00 
                           .rsrc:00405d14 02                               0x02 
                           .rsrc:00405d15 00                               0x00 
                           .rsrc:00405d16 ff                               0xff 
                           .rsrc:00405d17 ff                               0xff 
                           .rsrc:00405d18 80                               0x80 
                           .rsrc:00405d19 00                               0x00 
                           .rsrc:00405d1a d6                               0xd6 
                           .rsrc:00405d1b 53                               0x53 'S'
                           .rsrc:00405d1c 88                               0x88 
                           .rsrc:00405d1d 6d                               0x6d 'm'
                           .rsrc:00405d1e 00                               0x00 
                           .rsrc:00405d1f 00                               0x00 
                           .rsrc:00405d20 00                               0x00 
                           .rsrc:00405d21 00                               0x00 
                           .rsrc:00405d22 00                               0x00 
                           .rsrc:00405d23 00                               0x00 
                           .rsrc:00405d24 00                               0x00 
                           .rsrc:00405d25 00                               0x00 
                           .rsrc:00405d26 01                               0x01 
                           .rsrc:00405d27 50                               0x50 'P'
                           .rsrc:00405d28 00                               0x00 
                           .rsrc:00405d29 00                               0x00 
                           .rsrc:00405d2a 00                               0x00 
                           .rsrc:00405d2b 00                               0x00 
                           .rsrc:00405d2c 0a                               0x0a '
'
                           .rsrc:00405d2d 00                               0x00 
                           .rsrc:00405d2e 00                               0x00 
                           .rsrc:00405d2f 00                               0x00 
                           .rsrc:00405d30 90                               0x90 
                           .rsrc:00405d31 00                               0x00 
                           .rsrc:00405d32 60                               0x60 '`'
                           .rsrc:00405d33 00                               0x00 
                           .rsrc:00405d34 e8                               0xe8 
                           .rsrc:00405d35 03                               0x03 
                           .rsrc:00405d36 7b                               0x7b '{'
                           .rsrc:00405d37 00                               0x00 
                           .rsrc:00405d38 38                               0x38 '8'
                           .rsrc:00405d39 00                               0x00 
                           .rsrc:00405d3a 45                               0x45 'E'
                           .rsrc:00405d3b 00                               0x00 
                           .rsrc:00405d3c 32                               0x32 '2'
                           .rsrc:00405d3d 00                               0x00 
                           .rsrc:00405d3e 37                               0x37 '7'
                           .rsrc:00405d3f 00                               0x00 
                           .rsrc:00405d40 43                               0x43 'C'
                           .rsrc:00405d41 00                               0x00 
                           .rsrc:00405d42 39                               0x39 '9'
                           .rsrc:00405d43 00                               0x00 
                           .rsrc:00405d44 32                               0x32 '2'
                           .rsrc:00405d45 00                               0x00 
                           .rsrc:00405d46 42                               0x42 'B'
                           .rsrc:00405d47 00                               0x00 
                           .rsrc:00405d48 2d                               0x2d '-'
                           .rsrc:00405d49 00                               0x00 
                           .rsrc:00405d4a 31                               0x31 '1'
                           .rsrc:00405d4b 00                               0x00 
                           .rsrc:00405d4c 32                               0x32 '2'
                           .rsrc:00405d4d 00                               0x00 
                           .rsrc:00405d4e 36                               0x36 '6'
                           .rsrc:00405d4f 00                               0x00 
                           .rsrc:00405d50 34                               0x34 '4'
                           .rsrc:00405d51 00                               0x00 
                           .rsrc:00405d52 2d                               0x2d '-'
                           .rsrc:00405d53 00                               0x00 
                           .rsrc:00405d54 31                               0x31 '1'
                           .rsrc:00405d55 00                               0x00 
                           .rsrc:00405d56 30                               0x30 '0'
                           .rsrc:00405d57 00                               0x00 
                           .rsrc:00405d58 31                               0x31 '1'
                           .rsrc:00405d59 00                               0x00 
                           .rsrc:00405d5a 43                               0x43 'C'
                           .rsrc:00405d5b 00                               0x00 
                           .rsrc:00405d5c 2d                               0x2d '-'
                           .rsrc:00405d5d 00                               0x00 
                           .rsrc:00405d5e 38                               0x38 '8'
                           .rsrc:00405d5f 00                               0x00 
                           .rsrc:00405d60 41                               0x41 'A'
                           .rsrc:00405d61 00                               0x00 
                           .rsrc:00405d62 32                               0x32 '2'
                           .rsrc:00405d63 00                               0x00 
                           .rsrc:00405d64 46                               0x46 'F'
                           .rsrc:00405d65 00                               0x00 
                           .rsrc:00405d66 2d                               0x2d '-'
                           .rsrc:00405d67 00                               0x00 
                           .rsrc:00405d68 30                               0x30 '0'
                           .rsrc:00405d69 00                               0x00 
                           .rsrc:00405d6a 34                               0x34 '4'
                           .rsrc:00405d6b 00                               0x00 
                           .rsrc:00405d6c 30                               0x30 '0'
                           .rsrc:00405d6d 00                               0x00 
                           .rsrc:00405d6e 32                               0x32 '2'
                           .rsrc:00405d6f 00                               0x00 
                           .rsrc:00405d70 32                               0x32 '2'
                           .rsrc:00405d71 00                               0x00 
                           .rsrc:00405d72 34                               0x34 '4'
                           .rsrc:00405d73 00                               0x00 
                           .rsrc:00405d74 30                               0x30 '0'
                           .rsrc:00405d75 00                               0x00 
                           .rsrc:00405d76 30                               0x30 '0'
                           .rsrc:00405d77 00                               0x00 
                           .rsrc:00405d78 39                               0x39 '9'
                           .rsrc:00405d79 00                               0x00 
                           .rsrc:00405d7a 43                               0x43 'C'
                           .rsrc:00405d7b 00                               0x00 
                           .rsrc:00405d7c 30                               0x30 '0'
                           .rsrc:00405d7d 00                               0x00 
                           .rsrc:00405d7e 32                               0x32 '2'
                           .rsrc:00405d7f 00                               0x00 
                           .rsrc:00405d80 7d                               0x7d '}'
                           .rsrc:00405d81 00                               0x00 
                           .rsrc:00405d82 00                               0x00 
                           .rsrc:00405d83 00                               0x00 
                           .rsrc:00405d84 00                               0x00 
                           .rsrc:00405d85 00                               0x00 
                           .rsrc:00405d86 00                               0x00 
                           .rsrc:00405d87 00                               0x00 
                           .rsrc:00405d88 e8                               0xe8 
                           .rsrc:00405d89 03                               0x03 
                           .rsrc:00405d8a 7a                               0x7a 'z'
                           .rsrc:00405d8b 03                               0x03 
                           .rsrc:00405d8c 9e                               0x9e 
                           .rsrc:00405d8d 01                               0x01 
                           .rsrc:00405d8e 00                               0x00 
                           .rsrc:00405d8f 00                               0x00 
                           .rsrc:00405d90 00                               0x00 
                           .rsrc:00405d91 00                               0x00 
                           .rsrc:00405d92 00                               0x00 
                           .rsrc:00405d93 00                               0x00 
                           .rsrc:00405d94 23                               0x23 '#'
                           .rsrc:00405d95 00                               0x00 
                           .rsrc:00405d96 00                               0x00 
                           .rsrc:00405d97 00                               0x00 
                           .rsrc:00405d98 01                               0x01 
                           .rsrc:00405d99 00                               0x00 
                           .rsrc:00405d9a 00                               0x00 
                           .rsrc:00405d9b 00                               0x00 
                           .rsrc:00405d9c 1b                               0x1b 
                           .rsrc:00405d9d 00                               0x00 
                           .rsrc:00405d9e 00                               0x00 
                           .rsrc:00405d9f 00                               0x00 
                           .rsrc:00405da0 01                               0x01 
                           .rsrc:00405da1 00                               0x00 
                           .rsrc:00405da2 01                               0x01 
                           .rsrc:00405da3 80                               0x80 
                           .rsrc:00405da4 00                               0x00 
                           .rsrc:00405da5 00                               0x00 
                           .rsrc:00405da6 0c                               0x0c ''
                           .rsrc:00405da7 00                               0x00 
                           .rsrc:00405da8 00                               0x00 
                           .rsrc:00405da9 00                               0x00 
                           .rsrc:00405daa 1a                               0x1a 
                           .rsrc:00405dab 00                               0x00 
                           .rsrc:00405dac 00                               0x00 
                           .rsrc:00405dad 00                               0x00 
                           .rsrc:00405dae 02                               0x02 
                           .rsrc:00405daf 00                               0x00 
                           .rsrc:00405db0 01                               0x01 
                           .rsrc:00405db1 80                               0x80 
                           .rsrc:00405db2 01                               0x01 
                           .rsrc:00405db3 00                               0x00 
                           .rsrc:00405db4 00                               0x00 
                           .rsrc:00405db5 00                               0x00 
                           .rsrc:00405db6 00                               0x00 
                           .rsrc:00405db7 00                               0x00 
                           .rsrc:00405db8 00                               0x00 
                           .rsrc:00405db9 08                               0x08 
                           .rsrc:00405dba 00                               0x00 
                           .rsrc:00405dbb c4                               0xc4 
                           .rsrc:00405dbc 1d                               0x1d 
                           .rsrc:00405dbd 00                               0x00 
                           .rsrc:00405dbe 00                               0x00 
                           .rsrc:00405dbf d8                               0xd8 
                           .rsrc:00405dc0 13                               0x13 
                           .rsrc:00405dc1 00                               0x00 
                           .rsrc:00405dc2 00                               0x00 
                           .rsrc:00405dc3 df                               0xdf 
                           .rsrc:00405dc4 07                               0x07 
                           .rsrc:00405dc5 04                               0x04 
                           .rsrc:00405dc6 00                               0x00 
                           .rsrc:00405dc7 03                               0x03 
                           .rsrc:00405dc8 00                               0x00 
                           .rsrc:00405dc9 0f                               0x0f 
                           .rsrc:00405dca 00                               0x00 
                           .rsrc:00405dcb 00                               0x00 
                           .rsrc:00405dcc 80                               0x80 
                           .rsrc:00405dcd 00                               0x00 
                           .rsrc:00405dce 00                               0x00 
                           .rsrc:00405dcf 00                               0x00 
                           .rsrc:00405dd0 00                               0x00 
                           .rsrc:00405dd1 00                               0x00 
                           .rsrc:00405dd2 00                               0x00 
                           .rsrc:00405dd3 a0                               0xa0 
                           .rsrc:00405dd4 00                               0x00 
                           .rsrc:00405dd5 10                               0x10 
                           .rsrc:00405dd6 00                               0x00 
                           .rsrc:00405dd7 00                               0x00 
                           .rsrc:00405dd8 80                               0x80 
                           .rsrc:00405dd9 00                               0x00 
                           .rsrc:00405dda 00                               0x00 
                           .rsrc:00405ddb a0                               0xa0 
                           .rsrc:00405ddc 00                               0x00 
                           .rsrc:00405ddd 00                               0x00 
                           .rsrc:00405dde 00                               0x00 
                           .rsrc:00405ddf 01                               0x01 
                           .rsrc:00405de0 00                               0x00 
                           .rsrc:00405de1 00                               0x00 
                           .rsrc:00405de2 00                               0x00 
                           .rsrc:00405de3 00                               0x00 
                           .rsrc:00405de4 00                               0x00 
                           .rsrc:00405de5 01                               0x01 
                           .rsrc:00405de6 00                               0x00 
                           .rsrc:00405de7 00                               0x00 
                           .rsrc:00405de8 00                               0x00 
                           .rsrc:00405de9 01                               0x01 
                           .rsrc:00405dea 00                               0x00 
                           .rsrc:00405deb 00                               0x00 
                           .rsrc:00405dec 00                               0x00 
                           .rsrc:00405ded 01                               0x01 
                           .rsrc:00405dee 00                               0x00 
                           .rsrc:00405def 00                               0x00 
                           .rsrc:00405df0 00                               0x00 
                           .rsrc:00405df1 01                               0x01 
                           .rsrc:00405df2 00                               0x00 
                           .rsrc:00405df3 00                               0x00 
                           .rsrc:00405df4 00                               0x00 
                           .rsrc:00405df5 01                               0x01 
                           .rsrc:00405df6 00                               0x00 
                           .rsrc:00405df7 00                               0x00 
                           .rsrc:00405df8 00                               0x00 
                           .rsrc:00405df9 01                               0x01 
                           .rsrc:00405dfa 00                               0x00 
                           .rsrc:00405dfb 00                               0x00 
                           .rsrc:00405dfc 00                               0x00 
                           .rsrc:00405dfd 00                               0x00 
                           .rsrc:00405dfe 00                               0x00 
                           .rsrc:00405dff 00                               0x00 
                           .rsrc:00405e00 00                               0x00 
                           .rsrc:00405e01 00                               0x00 
                           .rsrc:00405e02 00                               0x00 
                           .rsrc:00405e03 00                               0x00 
                           .rsrc:00405e04 00                               0x00 
                           .rsrc:00405e05 00                               0x00 
                           .rsrc:00405e06 00                               0x00 
                           .rsrc:00405e07 00                               0x00 
                           .rsrc:00405e08 00                               0x00 
                           .rsrc:00405e09 00                               0x00 
                           .rsrc:00405e0a 00                               0x00 
                           .rsrc:00405e0b 00                               0x00 
                           .rsrc:00405e0c 00                               0x00 
                           .rsrc:00405e0d 00                               0x00 
                           .rsrc:00405e0e 00                               0x00 
                           .rsrc:00405e0f 00                               0x00 
                           .rsrc:00405e10 00                               0x00 
                           .rsrc:00405e11 00                               0x00 
                           .rsrc:00405e12 00                               0x00 
                           .rsrc:00405e13 00                               0x00 
                           .rsrc:00405e14 00                               0x00 
                           .rsrc:00405e15 00                               0x00 
                           .rsrc:00405e16 00                               0x00 
                           .rsrc:00405e17 00                               0x00 
                           .rsrc:00405e18 00                               0x00 
                           .rsrc:00405e19 00                               0x00 
                           .rsrc:00405e1a 00                               0x00 
                           .rsrc:00405e1b 00                               0x00 
                           .rsrc:00405e1c 00                               0x00 
                           .rsrc:00405e1d 00                               0x00 
                           .rsrc:00405e1e 00                               0x00 
                           .rsrc:00405e1f 00                               0x00 
                           .rsrc:00405e20 00                               0x00 
                           .rsrc:00405e21 00                               0x00 
                           .rsrc:00405e22 00                               0x00 
                           .rsrc:00405e23 00                               0x00 
                           .rsrc:00405e24 00                               0x00 
                           .rsrc:00405e25 00                               0x00 
                           .rsrc:00405e26 00                               0x00 
                           .rsrc:00405e27 00                               0x00 
                           .rsrc:00405e28 00                               0x00 
                           .rsrc:00405e29 00                               0x00 
                           .rsrc:00405e2a 00                               0x00 
                           .rsrc:00405e2b 00                               0x00 
                           .rsrc:00405e2c 00                               0x00 
                           .rsrc:00405e2d 00                               0x00 
                           .rsrc:00405e2e 00                               0x00 
                           .rsrc:00405e2f 00                               0x00 
                           .rsrc:00405e30 00                               0x00 
                           .rsrc:00405e31 00                               0x00 
                           .rsrc:00405e32 00                               0x00 
                           .rsrc:00405e33 00                               0x00 
                           .rsrc:00405e34 00                               0x00 
                           .rsrc:00405e35 00                               0x00 
                           .rsrc:00405e36 00                               0x00 
                           .rsrc:00405e37 00                               0x00 
                           .rsrc:00405e38 00                               0x00 
                           .rsrc:00405e39 00                               0x00 
                           .rsrc:00405e3a 00                               0x00 
                           .rsrc:00405e3b 00                               0x00 
                           .rsrc:00405e3c 00                               0x00 
                           .rsrc:00405e3d 00                               0x00 
                           .rsrc:00405e3e 00                               0x00 
                           .rsrc:00405e3f 00                               0x00 
                           .rsrc:00405e40 00                               0x00 
                           .rsrc:00405e41 00                               0x00 
                           .rsrc:00405e42 00                               0x00 
                           .rsrc:00405e43 00                               0x00 
                           .rsrc:00405e44 00                               0x00 
                           .rsrc:00405e45 00                               0x00 
                           .rsrc:00405e46 00                               0x00 
                           .rsrc:00405e47 00                               0x00 
                           .rsrc:00405e48 00                               0x00 
                           .rsrc:00405e49 00                               0x00 
                           .rsrc:00405e4a 00                               0x00 
                           .rsrc:00405e4b 00                               0x00 
                           .rsrc:00405e4c 00                               0x00 
                           .rsrc:00405e4d 00                               0x00 
                           .rsrc:00405e4e 00                               0x00 
                           .rsrc:00405e4f 00                               0x00 
                           .rsrc:00405e50 00                               0x00 
                           .rsrc:00405e51 00                               0x00 
                           .rsrc:00405e52 00                               0x00 
                           .rsrc:00405e53 00                               0x00 
                           .rsrc:00405e54 00                               0x00 
                           .rsrc:00405e55 00                               0x00 
                           .rsrc:00405e56 00                               0x00 
                           .rsrc:00405e57 00                               0x00 
                           .rsrc:00405e58 00                               0x00 
                           .rsrc:00405e59 00                               0x00 
                           .rsrc:00405e5a 00                               0x00 
                           .rsrc:00405e5b 00                               0x00 
                           .rsrc:00405e5c 00                               0x00 
                           .rsrc:00405e5d 00                               0x00 
                           .rsrc:00405e5e 00                               0x00 
                           .rsrc:00405e5f 00                               0x00 
                           .rsrc:00405e60 00                               0x00 
                           .rsrc:00405e61 00                               0x00 
                           .rsrc:00405e62 00                               0x00 
                           .rsrc:00405e63 00                               0x00 
                           .rsrc:00405e64 00                               0x00 
                           .rsrc:00405e65 00                               0x00 
                           .rsrc:00405e66 00                               0x00 
                           .rsrc:00405e67 00                               0x00 
                           .rsrc:00405e68 00                               0x00 
                           .rsrc:00405e69 00                               0x00 
                           .rsrc:00405e6a 00                               0x00 
                           .rsrc:00405e6b 00                               0x00 
                           .rsrc:00405e6c 00                               0x00 
                           .rsrc:00405e6d 00                               0x00 
                           .rsrc:00405e6e 00                               0x00 
                           .rsrc:00405e6f 00                               0x00 
                           .rsrc:00405e70 00                               0x00 
                           .rsrc:00405e71 00                               0x00 
                           .rsrc:00405e72 00                               0x00 
                           .rsrc:00405e73 00                               0x00 
                           .rsrc:00405e74 00                               0x00 
                           .rsrc:00405e75 00                               0x00 
                           .rsrc:00405e76 00                               0x00 
                           .rsrc:00405e77 00                               0x00 
                           .rsrc:00405e78 00                               0x00 
                           .rsrc:00405e79 00                               0x00 
                           .rsrc:00405e7a 00                               0x00 
                           .rsrc:00405e7b 00                               0x00 
                           .rsrc:00405e7c 00                               0x00 
                           .rsrc:00405e7d 00                               0x00 
                           .rsrc:00405e7e 00                               0x00 
                           .rsrc:00405e7f 00                               0x00 
                           .rsrc:00405e80 00                               0x00 
                           .rsrc:00405e81 00                               0x00 
                           .rsrc:00405e82 00                               0x00 
                           .rsrc:00405e83 00                               0x00 
                           .rsrc:00405e84 00                               0x00 
                           .rsrc:00405e85 00                               0x00 
                           .rsrc:00405e86 00                               0x00 
                           .rsrc:00405e87 00                               0x00 
                           .rsrc:00405e88 00                               0x00 
                           .rsrc:00405e89 00                               0x00 
                           .rsrc:00405e8a 00                               0x00 
                           .rsrc:00405e8b 00                               0x00 
                           .rsrc:00405e8c 00                               0x00 
                           .rsrc:00405e8d 00                               0x00 
                           .rsrc:00405e8e 00                               0x00 
                           .rsrc:00405e8f 00                               0x00 
                           .rsrc:00405e90 00                               0x00 
                           .rsrc:00405e91 00                               0x00 
                           .rsrc:00405e92 00                               0x00 
                           .rsrc:00405e93 00                               0x00 
                           .rsrc:00405e94 00                               0x00 
                           .rsrc:00405e95 00                               0x00 
                           .rsrc:00405e96 00                               0x00 
                           .rsrc:00405e97 00                               0x00 
                           .rsrc:00405e98 00                               0x00 
                           .rsrc:00405e99 00                               0x00 
                           .rsrc:00405e9a 00                               0x00 
                           .rsrc:00405e9b 00                               0x00 
                           .rsrc:00405e9c 00                               0x00 
                           .rsrc:00405e9d 00                               0x00 
                           .rsrc:00405e9e 00                               0x00 
                           .rsrc:00405e9f 00                               0x00 
                           .rsrc:00405ea0 00                               0x00 
                           .rsrc:00405ea1 00                               0x00 
                           .rsrc:00405ea2 00                               0x00 
                           .rsrc:00405ea3 00                               0x00 
                           .rsrc:00405ea4 00                               0x00 
                           .rsrc:00405ea5 00                               0x00 
                           .rsrc:00405ea6 00                               0x00 
                           .rsrc:00405ea7 00                               0x00 
                           .rsrc:00405ea8 00                               0x00 
                           .rsrc:00405ea9 00                               0x00 
                           .rsrc:00405eaa 00                               0x00 
                           .rsrc:00405eab 00                               0x00 
                           .rsrc:00405eac 00                               0x00 
                           .rsrc:00405ead 00                               0x00 
                           .rsrc:00405eae 00                               0x00 
                           .rsrc:00405eaf 00                               0x00 
                           .rsrc:00405eb0 00                               0x00 
                           .rsrc:00405eb1 00                               0x00 
                           .rsrc:00405eb2 00                               0x00 
                           .rsrc:00405eb3 00                               0x00 
                           .rsrc:00405eb4 00                               0x00 
                           .rsrc:00405eb5 00                               0x00 
                           .rsrc:00405eb6 00                               0x00 
                           .rsrc:00405eb7 00                               0x00 
                           .rsrc:00405eb8 00                               0x00 
                           .rsrc:00405eb9 00                               0x00 
                           .rsrc:00405eba 00                               0x00 
                           .rsrc:00405ebb 00                               0x00 
                           .rsrc:00405ebc 00                               0x00 
                           .rsrc:00405ebd 00                               0x00 
                           .rsrc:00405ebe 00                               0x00 
                           .rsrc:00405ebf 00                               0x00 
                           .rsrc:00405ec0 00                               0x00 
                           .rsrc:00405ec1 00                               0x00 
                           .rsrc:00405ec2 00                               0x00 
                           .rsrc:00405ec3 00                               0x00 
                           .rsrc:00405ec4 00                               0x00 
                           .rsrc:00405ec5 00                               0x00 
                           .rsrc:00405ec6 00                               0x00 
                           .rsrc:00405ec7 00                               0x00 
                           .rsrc:00405ec8 00                               0x00 
                           .rsrc:00405ec9 00                               0x00 
                           .rsrc:00405eca 00                               0x00 
                           .rsrc:00405ecb 00                               0x00 
                           .rsrc:00405ecc 00                               0x00 
                           .rsrc:00405ecd 00                               0x00 
                           .rsrc:00405ece 00                               0x00 
                           .rsrc:00405ecf 00                               0x00 
                           .rsrc:00405ed0 00                               0x00 
                           .rsrc:00405ed1 00                               0x00 
                           .rsrc:00405ed2 00                               0x00 
                           .rsrc:00405ed3 00                               0x00 
                           .rsrc:00405ed4 00                               0x00 
                           .rsrc:00405ed5 00                               0x00 
                           .rsrc:00405ed6 00                               0x00 
                           .rsrc:00405ed7 00                               0x00 
                           .rsrc:00405ed8 00                               0x00 
                           .rsrc:00405ed9 00                               0x00 
                           .rsrc:00405eda 00                               0x00 
                           .rsrc:00405edb 00                               0x00 
                           .rsrc:00405edc 00                               0x00 
                           .rsrc:00405edd 00                               0x00 
                           .rsrc:00405ede 00                               0x00 
                           .rsrc:00405edf 00                               0x00 
                           .rsrc:00405ee0 00                               0x00 
                           .rsrc:00405ee1 00                               0x00 
                           .rsrc:00405ee2 00                               0x00 
                           .rsrc:00405ee3 00                               0x00 
                           .rsrc:00405ee4 00                               0x00 
                           .rsrc:00405ee5 00                               0x00 
                           .rsrc:00405ee6 00                               0x00 
                           .rsrc:00405ee7 00                               0x00 
                           .rsrc:00405ee8 00                               0x00 
                           .rsrc:00405ee9 00                               0x00 
                           .rsrc:00405eea 00                               0x00 
                           .rsrc:00405eeb 00                               0x00 
                           .rsrc:00405eec 00                               0x00 
                           .rsrc:00405eed 00                               0x00 
                           .rsrc:00405eee 00                               0x00 
                           .rsrc:00405eef 00                               0x00 
                           .rsrc:00405ef0 00                               0x00 
                           .rsrc:00405ef1 00                               0x00 
                           .rsrc:00405ef2 00                               0x00 
                           .rsrc:00405ef3 00                               0x00 
                           .rsrc:00405ef4 00                               0x00 
                           .rsrc:00405ef5 00                               0x00 
                           .rsrc:00405ef6 00                               0x00 
                           .rsrc:00405ef7 00                               0x00 
                           .rsrc:00405ef8 00                               0x00 
                           .rsrc:00405ef9 00                               0x00 
                           .rsrc:00405efa 00                               0x00 
                           .rsrc:00405efb 00                               0x00 
                           .rsrc:00405efc 00                               0x00 
                           .rsrc:00405efd 00                               0x00 
                           .rsrc:00405efe 00                               0x00 
                           .rsrc:00405eff 00                               0x00 
                           .rsrc:00405f00 00                               0x00 
                           .rsrc:00405f01 01                               0x01 
                           .rsrc:00405f02 86                               0x86 
                           .rsrc:00405f03 00                               0x00 
                           .rsrc:00405f04 00                               0x00 
                           .rsrc:00405f05 bc                               0xbc 
                           .rsrc:00405f06 02                               0x02 
                           .rsrc:00405f07 44                               0x44 'D'
                           .rsrc:00405f08 42                               0x42 'B'
                           .rsrc:00405f09 01                               0x01 
                           .rsrc:00405f0a 00                               0x00 
                           .rsrc:00405f0b 04                               0x04 
                           .rsrc:00405f0c cb                               0xcb 
                           .rsrc:00405f0d ce                               0xce 
                           .rsrc:00405f0e cc                               0xcc 
                           .rsrc:00405f0f e5                               0xe5 
                           .rsrc:00405f10 01                               0x01 
                           .rsrc:00405f11 86                               0x86 
                           .rsrc:00405f12 00                               0x00 
                           .rsrc:00405f13 00                               0x00 
                           .rsrc:00405f14 90                               0x90 
                           .rsrc:00405f15 01                               0x01 
                           .rsrc:00405f16 44                               0x44 'D'
                           .rsrc:00405f17 42                               0x42 'B'
                           .rsrc:00405f18 01                               0x01 
                           .rsrc:00405f19 00                               0x00 
                           .rsrc:00405f1a 04                               0x04 
                           .rsrc:00405f1b cb                               0xcb 
                           .rsrc:00405f1c ce                               0xce 
                           .rsrc:00405f1d cc                               0xcc 
                           .rsrc:00405f1e e5                               0xe5 
                           .rsrc:00405f1f 01                               0x01 
                           .rsrc:00405f20 86                               0x86 
                           .rsrc:00405f21 00                               0x00 
                           .rsrc:00405f22 00                               0x00 
                           .rsrc:00405f23 bc                               0xbc 
                           .rsrc:00405f24 02                               0x02 
                           .rsrc:00405f25 c0                               0xc0 
                           .rsrc:00405f26 d4                               0xd4 
                           .rsrc:00405f27 01                               0x01 
                           .rsrc:00405f28 00                               0x00 
                           .rsrc:00405f29 04                               0x04 
                           .rsrc:00405f2a cb                               0xcb 
                           .rsrc:00405f2b ce                               0xce 
                           .rsrc:00405f2c cc                               0xcc 
                           .rsrc:00405f2d e5                               0xe5 
                           .rsrc:00405f2e 00                               0x00 
                           .rsrc:00405f2f 00                               0x00 
