                            CODE:00401000 60                               pusha  
                            CODE:00401001 8b f0                            mov    %eax,%esi
                            CODE:00401003 53                               push   %ebx
                            CODE:00401004 0f 01 4c 24 fe                   sidtl  -0x2(%esp)
                            CODE:00401009 5b                               pop    %ebx
                            CODE:0040100a 83 c3 18                         add    $0x18,%ebx
                            CODE:0040100d 8b 6b 04                         mov    0x4(%ebx),%ebp
                            CODE:00401010 66 8b 2b                         mov    (%ebx),%bp
                            CODE:00401013 8b c5                            mov    %ebp,%eax
                            CODE:00401015 eb 03                            jmp    0x0040101a
                            CODE:00401017 90                               nop
                            CODE:00401018 90                               nop
                            CODE:00401019 90                               nop
                            CODE:0040101a c1 e8 18                         shr    $0x18,%eax
                            CODE:0040101d 3c 00                            cmp    $0x0,%al
                            CODE:0040101f 74 17                            je     0x00401038
                            CODE:00401021 90                               nop
                            CODE:00401022 90                               nop
                            CODE:00401023 90                               nop
                            CODE:00401024 90                               nop
                            CODE:00401025 fa                               cli    
                            CODE:00401026 8d 46 42                         lea    0x42(%esi),%eax
                            CODE:00401029 90                               nop
                            CODE:0040102a 90                               nop
                            CODE:0040102b 90                               nop
                            CODE:0040102c 66 89 03                         mov    %ax,(%ebx)
                            CODE:0040102f c1 e8 10                         shr    $0x10,%eax
                            CODE:00401032 66 89 43 06                      mov    %ax,0x6(%ebx)
                            CODE:00401036 fb                               sti    
                            CODE:00401037 cc                               int3   
                            CODE:00401038 61                               popa   
                            CODE:00401039 b8 bf ef bf ff                   mov    $0xffbfefbf,%eax
                            CODE:0040103e f7 d0                            not    %eax
                            CODE:00401040 ff e0                            jmp    *%eax
                            CODE:00401042 33 d2                            xor    %edx,%edx
                            CODE:00401044 6a 0f                            push   $0xf
                            CODE:00401046 52                               push   %edx
                            CODE:00401047 68 ff 00 00 00                   push   $0xff
                            CODE:0040104c 52                               push   %edx
                            CODE:0040104d 52                               push   %edx
                            CODE:0040104e 52                               push   %edx
                            CODE:0040104f 6a 01                            push   $0x1
                            CODE:00401051 6a 02                            push   $0x2
                            CODE:00401053 cd 20                            int    $0x20
                            CODE:00401055 53                               push   %ebx
                            CODE:00401056 00 01                            add    %al,(%ecx)
                            CODE:00401058 00 83 c4 20 83 fa                add    %al,-0x57cdf3c(%ebx)
                            CODE:0040105e 00 75 11                         add    %dh,0x11(%ebp)
                            CODE:00401061 90                               nop
                            CODE:00401062 90                               nop
                            CODE:00401063 90                               nop
                            CODE:00401064 90                               nop
                            CODE:00401065 fa                               cli    
                            CODE:00401066 66 89 2b                         mov    %bp,(%ebx)
                            CODE:00401069 c1 ed 10                         shr    $0x10,%ebp
                            CODE:0040106c 66 89 6b 06                      mov    %bp,0x6(%ebx)
                            CODE:00401070 fb                               sti    
                            CODE:00401071 cf                               iret   
                            CODE:00401072 8b fa                            mov    %edx,%edi
                            CODE:00401074 b9 fb 05 00 00                   mov    $0x5fb,%ecx
                            CODE:00401079 fc                               cld    
                            CODE:0040107a f3 a4                            rep movsb %ds:(%esi),%es:(%edi)
                            CODE:0040107c 8b fa                            mov    %edx,%edi
                            CODE:0040107e 8d 87 ee 00 00 00                lea    0xee(%edi),%eax
                            CODE:00401084 50                               push   %eax
                            CODE:00401085 cd 20                            int    $0x20
                            CODE:00401087 67 00 40 00                      add    %al,0x0(%bx,%si)
                            CODE:0040108b 83 c4 04                         add    $0x4,%esp
                            CODE:0040108e 89 87 ac 02 00 00                mov    %eax,0x2ac(%edi)
                            CODE:00401094 89 bf f0 00 00 00                mov    %edi,0xf0(%edi)
                            CODE:0040109a 66 b8 cd 20                      mov    $0x20cd,%ax
                            CODE:0040109e 66 89 47 53                      mov    %ax,0x53(%edi)
                            CODE:004010a2 c7 47 55 53 00 01 00             movl   $0x10053,0x55(%edi)
                            CODE:004010a9 66 89 87 73 05 00 00             mov    %ax,0x573(%edi)
                            CODE:004010b0 c7 87 75 05 00 00 32 00 40 00    movl   $0x400032,0x575(%edi)
                            CODE:004010ba 66 89 87 63 01 00 00             mov    %ax,0x163(%edi)
                            CODE:004010c1 c7 87 65 01 00 00 41 00 40 00    movl   $0x400041,0x165(%edi)
                            CODE:004010cb c6 87 fb 05 00 00 00             movb   $0x0,0x5fb(%edi)
                            CODE:004010d2 b9 81 00 00 00                   mov    $0x81,%ecx
                            CODE:004010d7 81 c7 7a 05 00 00                add    $0x57a,%edi
                            CODE:004010dd 8a 07                            mov    (%edi),%al
                            CODE:004010df f6 d0                            not    %al
                            CODE:004010e1 88 87 a4 06 00 00                mov    %al,0x6a4(%edi)
                            CODE:004010e7 47                               inc    %edi
                            CODE:004010e8 49                               dec    %ecx
                            CODE:004010e9 e3 02                            jecxz  0x004010ed
                            CODE:004010eb eb f0                            jmp    0x004010dd
                            CODE:004010ed cf                               iret   
                            CODE:004010ee 60                               pusha  
                            CODE:004010ef bf 00 00 00 00                   mov    $0x0,%edi
                            CODE:004010f4 0f 23 c7                         mov    %edi,%db0
                            CODE:004010f7 8b dc                            mov    %esp,%ebx
                            CODE:004010f9 80 bf fb 05 00 00 00             cmpb   $0x0,0x5fb(%edi)
                            CODE:00401100 74 23                            je     0x00401125
                            CODE:00401102 90                               nop
                            CODE:00401103 90                               nop
                            CODE:00401104 90                               nop
                            CODE:00401105 90                               nop
                            CODE:00401106 ff 73 38                         pushl  0x38(%ebx)
                            CODE:00401109 ff 53 24                         call   *0x24(%ebx)
                            CODE:0040110c 59                               pop    %ecx
                            CODE:0040110d 89 43 1c                         mov    %eax,0x1c(%ebx)
                            CODE:00401110 83 7b 28 24                      cmpl   $0x24,0x28(%ebx)
                            CODE:00401114 75 0d                            jne    0x00401123
                            CODE:00401116 90                               nop
                            CODE:00401117 90                               nop
                            CODE:00401118 90                               nop
                            CODE:00401119 90                               nop
                            CODE:0040111a 8b 41 28                         mov    0x28(%ecx),%eax
                            CODE:0040111d 89 87 1a 06 00 00                mov    %eax,0x61a(%edi)
                            CODE:00401123 61                               popa   
                            CODE:00401124 c3                               ret    
                            CODE:00401125 83 7b 28 24                      cmpl   $0x24,0x28(%ebx)
                            CODE:00401129 0f 85 7b 01 00 00                jne    0x004012aa
                            CODE:0040112f c6 87 fb 05 00 00 01             movb   $0x1,0x5fb(%edi)
                            CODE:00401136 8d b7 1e 07 00 00                lea    0x71e(%edi),%esi
                            CODE:0040113c 8b 43 2c                         mov    0x2c(%ebx),%eax
                            CODE:0040113f 3c ff                            cmp    $0xff,%al
                            CODE:00401141 74 0d                            je     0x00401150
                            CODE:00401143 90                               nop
                            CODE:00401144 90                               nop
                            CODE:00401145 90                               nop
                            CODE:00401146 90                               nop
                            CODE:00401147 04 40                            add    $0x40,%al
                            CODE:00401149 88 06                            mov    %al,(%esi)
                            CODE:0040114b 46                               inc    %esi
                            CODE:0040114c c6 06 3a                         movb   $0x3a,(%esi)
                            CODE:0040114f 46                               inc    %esi
                            CODE:00401150 2b c0                            sub    %eax,%eax
                            CODE:00401152 50                               push   %eax
                            CODE:00401153 68 ff 00 00 00                   push   $0xff
                            CODE:00401158 8b 5b 38                         mov    0x38(%ebx),%ebx
                            CODE:0040115b 8b 43 0c                         mov    0xc(%ebx),%eax
                            CODE:0040115e 83 c0 04                         add    $0x4,%eax
                            CODE:00401161 50                               push   %eax
                            CODE:00401162 56                               push   %esi
                            CODE:00401163 cd 20                            int    $0x20
                            CODE:00401165 41                               inc    %ecx
                            CODE:00401166 00 40 00                         add    %al,0x0(%eax)
                            CODE:00401169 83 c4 10                         add    $0x10,%esp
                            CODE:0040116c 40                               inc    %eax
                            CODE:0040116d 40                               inc    %eax
                            CODE:0040116e 4e                               dec    %esi
                            CODE:0040116f 4e                               dec    %esi
                            CODE:00401170 81 c7 1e 06 00 00                add    $0x61e,%edi
                            CODE:00401176 8b c8                            mov    %eax,%ecx
                            CODE:00401178 fc                               cld    
                            CODE:00401179 f3 a4                            rep movsb %ds:(%esi),%es:(%edi)
                            CODE:0040117b 88 0e                            mov    %cl,(%esi)
                            CODE:0040117d 88 0f                            mov    %cl,(%edi)
                            CODE:0040117f 0f 21 c7                         mov    %db0,%edi
                            CODE:00401182 0f 23 ce                         mov    %esi,%db1
                            CODE:00401185 66 b8 00 d5                      mov    $0xd500,%ax
                            CODE:00401189 33 db                            xor    %ebx,%ebx
                            CODE:0040118b 33 c9                            xor    %ecx,%ecx
                            CODE:0040118d 33 d2                            xor    %edx,%edx
                            CODE:0040118f 42                               inc    %edx
                            CODE:00401190 8d b7 1e 0c 00 00                lea    0xc1e(%edi),%esi
                            CODE:00401196 e8 d8 03 00 00                   call   0x00401573
                            CODE:0040119b 0f 82 94 00 00 00                jb     0x00401235
                            CODE:004011a1 8b d8                            mov    %eax,%ebx
                            CODE:004011a3 66 b8 00 d8                      mov    $0xd800,%ax
                            CODE:004011a7 e8 c7 03 00 00                   call   0x00401573
                            CODE:004011ac 72 13                            jb     0x004011c1
                            CODE:004011ae 90                               nop
                            CODE:004011af 90                               nop
                            CODE:004011b0 90                               nop
                            CODE:004011b1 90                               nop
                            CODE:004011b2 8b c8                            mov    %eax,%ecx
                            CODE:004011b4 33 d2                            xor    %edx,%edx
                            CODE:004011b6 8d b7 25 0c 00 00                lea    0xc25(%edi),%esi
                            CODE:004011bc e8 ae 03 00 00                   call   0x0040156f
                            CODE:004011c1 66 b8 00 d7                      mov    $0xd700,%ax
                            CODE:004011c5 e8 a9 03 00 00                   call   0x00401573
                            CODE:004011ca fc                               cld    
                            CODE:004011cb 87 f7                            xchg   %esi,%edi
                            CODE:004011cd 66 b8 0d 00                      mov    $0xd,%ax
                            CODE:004011d1 f2 ae                            repnz scas %es:(%edi),%al
                            CODE:004011d3 e3 08                            jecxz  0x004011dd
                            CODE:004011d5 4f                               dec    %edi
                            CODE:004011d6 41                               inc    %ecx
                            CODE:004011d7 88 27                            mov    %ah,(%edi)
                            CODE:004011d9 eb f6                            jmp    0x004011d1
                            CODE:004011db c7 87 87 fe 80 7e fd 23 75 50    movl   $0x507523fd,0x7e80fe87(%edi)
                            CODE:004011e5 90                               nop
                            CODE:004011e6 90                               nop
                            CODE:004011e7 90                               nop
                            CODE:004011e8 90                               nop
                            CODE:004011e9 b0 07                            mov    $0x7,%al
                            CODE:004011eb e6 70                            out    %al,$0x70
                            CODE:004011ed e4 71                            in     $0x71,%al
                            CODE:004011ef 8a c8                            mov    %al,%cl
                            CODE:004011f1 b0 08                            mov    $0x8,%al
                            CODE:004011f3 e6 70                            out    %al,$0x70
                            CODE:004011f5 e4 71                            in     $0x71,%al
                            CODE:004011f7 8a e8                            mov    %al,%ch
                            CODE:004011f9 b4 30                            mov    $0x30,%ah
                            CODE:004011fb 66 8b 56 f9                      mov    -0x7(%esi),%dx
                            CODE:004011ff 2a f4                            sub    %ah,%dh
                            CODE:00401201 2a d4                            sub    %ah,%dl
                            CODE:00401203 c0 e2 04                         shl    $0x4,%dl
                            CODE:00401206 02 d6                            add    %dh,%dl
                            CODE:00401208 0a d2                            or     %dl,%dl
                            CODE:0040120a 74 0c                            je     0x00401218
                            CODE:0040120c 90                               nop
                            CODE:0040120d 90                               nop
                            CODE:0040120e 90                               nop
                            CODE:0040120f 90                               nop
                            CODE:00401210 3a d5                            cmp    %ch,%dl
                            CODE:00401212 75 74                            jne    0x00401288
                            CODE:00401214 90                               nop
                            CODE:00401215 90                               nop
                            CODE:00401216 90                               nop
                            CODE:00401217 90                               nop
                            CODE:00401218 66 8b 56 fb                      mov    -0x5(%esi),%dx
                            CODE:0040121c 2a f4                            sub    %ah,%dh
                            CODE:0040121e 2a d4                            sub    %ah,%dl
                            CODE:00401220 c0 e2 04                         shl    $0x4,%dl
                            CODE:00401223 02 d6                            add    %dh,%dl
                            CODE:00401225 0a d2                            or     %dl,%dl
                            CODE:00401227 74 0c                            je     0x00401235
                            CODE:00401229 90                               nop
                            CODE:0040122a 90                               nop
                            CODE:0040122b 90                               nop
                            CODE:0040122c 90                               nop
                            CODE:0040122d 3a d1                            cmp    %cl,%dl
                            CODE:0040122f 75 57                            jne    0x00401288
                            CODE:00401231 90                               nop
                            CODE:00401232 90                               nop
                            CODE:00401233 90                               nop
                            CODE:00401234 90                               nop
                            CODE:00401235 0f 21 ce                         mov    %db1,%esi
                            CODE:00401238 81 c7 25 0c 00 00                add    $0xc25,%edi
                            CODE:0040123e 32 c0                            xor    %al,%al
                            CODE:00401240 e6 70                            out    %al,$0x70
                            CODE:00401242 e4 71                            in     $0x71,%al
                            CODE:00401244 8a f8                            mov    %al,%bh
                            CODE:00401246 80 e7 1f                         and    $0x1f,%bh
                            CODE:00401249 32 db                            xor    %bl,%bl
                            CODE:0040124b 33 d2                            xor    %edx,%edx
                            CODE:0040124d 4f                               dec    %edi
                            CODE:0040124e 4f                               dec    %edi
                            CODE:0040124f f6 d3                            not    %bl
                            CODE:00401251 03 fa                            add    %edx,%edi
                            CODE:00401253 47                               inc    %edi
                            CODE:00401254 47                               inc    %edi
                            CODE:00401255 80 3f 00                         cmpb   $0x0,(%edi)
                            CODE:00401258 74 2e                            je     0x00401288
                            CODE:0040125a 90                               nop
                            CODE:0040125b 90                               nop
                            CODE:0040125c 90                               nop
                            CODE:0040125d 90                               nop
                            CODE:0040125e e8 61 00 00 00                   call   0x004012c4
                            CODE:00401263 8b d1                            mov    %ecx,%edx
                            CODE:00401265 56                               push   %esi
                            CODE:00401266 2b f2                            sub    %edx,%esi
                            CODE:00401268 e8 45 00 00 00                   call   0x004012b2
                            CODE:0040126d 5e                               pop    %esi
                            CODE:0040126e 75 df                            jne    0x0040124f
                            CODE:00401270 0a db                            or     %bl,%bl
                            CODE:00401272 75 08                            jne    0x0040127c
                            CODE:00401274 90                               nop
                            CODE:00401275 90                               nop
                            CODE:00401276 90                               nop
                            CODE:00401277 90                               nop
                            CODE:00401278 0a ff                            or     %bh,%bh
                            CODE:0040127a 75 d3                            jne    0x0040124f
                            CODE:0040127c e8 52 00 00 00                   call   0x004012d3
                            CODE:00401281 eb 1d                            jmp    0x004012a0
                            CODE:00401283 90                               nop
                            CODE:00401284 90                               nop
                            CODE:00401285 90                               nop
                            CODE:00401286 c7 87 0f 21 ce b8 d1 ba a7 ba    movl   $0xbaa7bad1,-0x4731def1(%edi)
                            CODE:00401290 f7 d0                            not    %eax
                            CODE:00401292 39 46 fc                         cmp    %eax,-0x4(%esi)
                            CODE:00401295 75 09                            jne    0x004012a0
                            CODE:00401297 90                               nop
                            CODE:00401298 90                               nop
                            CODE:00401299 90                               nop
                            CODE:0040129a 90                               nop
                            CODE:0040129b e8 57 00 00 00                   call   0x004012f7
                            CODE:004012a0 0f 21 c7                         mov    %db0,%edi
                            CODE:004012a3 c6 87 fb 05 00 00 00             movb   $0x0,0x5fb(%edi)
                            CODE:004012aa 61                               popa   
                            CODE:004012ab b8 00 00 00 00                   mov    $0x0,%eax
                            CODE:004012b0 ff 20                            jmp    *(%eax)
                            CODE:004012b2 56                               push   %esi
                            CODE:004012b3 57                               push   %edi
                            CODE:004012b4 fc                               cld    
                            CODE:004012b5 f3 a6                            repz cmpsb %es:(%edi),%ds:(%esi)
                            CODE:004012b7 e3 06                            jecxz  0x004012bf
                            CODE:004012b9 80 7f ff 3f                      cmpb   $0x3f,-0x1(%edi)
                            CODE:004012bd 74 f6                            je     0x004012b5
                            CODE:004012bf 5f                               pop    %edi
                            CODE:004012c0 5e                               pop    %esi
                            CODE:004012c1 0b c9                            or     %ecx,%ecx
                            CODE:004012c3 c3                               ret    
                            CODE:004012c4 50                               push   %eax
                            CODE:004012c5 57                               push   %edi
                            CODE:004012c6 33 c9                            xor    %ecx,%ecx
                            CODE:004012c8 49                               dec    %ecx
                            CODE:004012c9 32 c0                            xor    %al,%al
                            CODE:004012cb f2 ae                            repnz scas %es:(%edi),%al
                            CODE:004012cd f7 d1                            not    %ecx
                            CODE:004012cf 49                               dec    %ecx
                            CODE:004012d0 5f                               pop    %edi
                            CODE:004012d1 58                               pop    %eax
                            CODE:004012d2 c3                               ret    
                            CODE:004012d3 66 b8 01 43                      mov    $0x4301,%ax
                            CODE:004012d7 33 c9                            xor    %ecx,%ecx
                            CODE:004012d9 0f 21 c6                         mov    %db0,%esi
                            CODE:004012dc 81 c6 1e 06 00 00                add    $0x61e,%esi
                            CODE:004012e2 e8 8c 02 00 00                   call   0x00401573
                            CODE:004012e7 72 0d                            jb     0x004012f6
                            CODE:004012e9 90                               nop
                            CODE:004012ea 90                               nop
                            CODE:004012eb 90                               nop
                            CODE:004012ec 90                               nop
                            CODE:004012ed 66 b8 00 41                      mov    $0x4100,%ax
                            CODE:004012f1 e8 7d 02 00 00                   call   0x00401573
                            CODE:004012f6 c3                               ret    
                            CODE:004012f7 0f 21 c7                         mov    %db0,%edi
                            CODE:004012fa 33 c0                            xor    %eax,%eax
                            CODE:004012fc 0f 23 d0                         mov    %eax,%db2
                            CODE:004012ff 66 b8 00 43                      mov    $0x4300,%ax
                            CODE:00401303 8d b7 1e 06 00 00                lea    0x61e(%edi),%esi
                            CODE:00401309 e8 65 02 00 00                   call   0x00401573
                            CODE:0040130e 0f 82 4f 02 00 00                jb     0x00401563
                            CODE:00401314 0f 23 c9                         mov    %ecx,%db1
                            CODE:00401317 66 b8 01 43                      mov    $0x4301,%ax
                            CODE:0040131b 33 c9                            xor    %ecx,%ecx
                            CODE:0040131d e8 51 02 00 00                   call   0x00401573
                            CODE:00401322 0f 82 3b 02 00 00                jb     0x00401563
                            CODE:00401328 66 b8 00 d5                      mov    $0xd500,%ax
                            CODE:0040132c 2b c9                            sub    %ecx,%ecx
                            CODE:0040132e 33 d2                            xor    %edx,%edx
                            CODE:00401330 42                               inc    %edx
                            CODE:00401331 8b da                            mov    %edx,%ebx
                            CODE:00401333 43                               inc    %ebx
                            CODE:00401334 8d b7 1e 06 00 00                lea    0x61e(%edi),%esi
                            CODE:0040133a e8 34 02 00 00                   call   0x00401573
                            CODE:0040133f 0f 82 ec 01 00 00                jb     0x00401531
                            CODE:00401345 8b d8                            mov    %eax,%ebx
                            CODE:00401347 33 c9                            xor    %ecx,%ecx
                            CODE:00401349 b1 04                            mov    $0x4,%cl
                            CODE:0040134b 33 d2                            xor    %edx,%edx
                            CODE:0040134d b2 3c                            mov    $0x3c,%dl
                            CODE:0040134f 8d b7 02 06 00 00                lea    0x602(%edi),%esi
                            CODE:00401355 e8 15 02 00 00                   call   0x0040156f
                            CODE:0040135a 0f 82 c8 01 00 00                jb     0x00401528
                            CODE:00401360 33 c9                            xor    %ecx,%ecx
                            CODE:00401362 b1 60                            mov    $0x60,%cl
                            CODE:00401364 8b 97 02 06 00 00                mov    0x602(%edi),%edx
                            CODE:0040136a 8d b7 1e 07 00 00                lea    0x71e(%edi),%esi
                            CODE:00401370 e8 fa 01 00 00                   call   0x0040156f
                            CODE:00401375 66 b8 af ba                      mov    $0xbaaf,%ax
                            CODE:00401379 66 f7 d0                         not    %ax
                            CODE:0040137c 66 39 06                         cmp    %ax,(%esi)
                            CODE:0040137f 0f 85 a3 01 00 00                jne    0x00401528
                            CODE:00401385 8b 46 28                         mov    0x28(%esi),%eax
                            CODE:00401388 89 47 3a                         mov    %eax,0x3a(%edi)
                            CODE:0040138b 8b 46 34                         mov    0x34(%esi),%eax
                            CODE:0040138e 89 87 0e 06 00 00                mov    %eax,0x60e(%edi)
                            CODE:00401394 01 47 3a                         add    %eax,0x3a(%edi)
                            CODE:00401397 f7 57 3a                         notl   0x3a(%edi)
                            CODE:0040139a 8b 46 3c                         mov    0x3c(%esi),%eax
                            CODE:0040139d 89 87 0a 06 00 00                mov    %eax,0x60a(%edi)
                            CODE:004013a3 33 c0                            xor    %eax,%eax
                            CODE:004013a5 66 8b 46 06                      mov    0x6(%esi),%ax
                            CODE:004013a9 66 89 87 fc 05 00 00             mov    %ax,0x5fc(%edi)
                            CODE:004013b0 33 c9                            xor    %ecx,%ecx
                            CODE:004013b2 b1 28                            mov    $0x28,%cl
                            CODE:004013b4 f7 e1                            mul    %ecx
                            CODE:004013b6 8b c8                            mov    %eax,%ecx
                            CODE:004013b8 89 8f fe 05 00 00                mov    %ecx,0x5fe(%edi)
                            CODE:004013be 33 d2                            xor    %edx,%edx
                            CODE:004013c0 66 03 56 14                      add    0x14(%esi),%dx
                            CODE:004013c4 83 c2 18                         add    $0x18,%edx
                            CODE:004013c7 03 97 02 06 00 00                add    0x602(%edi),%edx
                            CODE:004013cd 89 97 06 06 00 00                mov    %edx,0x606(%edi)
                            CODE:004013d3 8d b7 1e 07 00 00                lea    0x71e(%edi),%esi
                            CODE:004013d9 e8 91 01 00 00                   call   0x0040156f
                            CODE:004013de 8b 56 3c                         mov    0x3c(%esi),%edx
                            CODE:004013e1 b9 04 00 00 00                   mov    $0x4,%ecx
                            CODE:004013e6 8d b7 0e 0c 00 00                lea    0xc0e(%edi),%esi
                            CODE:004013ec e8 7e 01 00 00                   call   0x0040156f
                            CODE:004013f1 8b 16                            mov    (%esi),%edx
                            CODE:004013f3 42                               inc    %edx
                            CODE:004013f4 0b d2                            or     %edx,%edx
                            CODE:004013f6 0f 84 2c 01 00 00                je     0x00401528
                            CODE:004013fc 8d b7 1e 07 00 00                lea    0x71e(%edi),%esi
                            CODE:00401402 66 8b 87 fc 05 00 00             mov    0x5fc(%edi),%ax
                            CODE:00401409 66 0b c0                         or     %ax,%ax
                            CODE:0040140c 74 2f                            je     0x0040143d
                            CODE:0040140e 90                               nop
                            CODE:0040140f 90                               nop
                            CODE:00401410 90                               nop
                            CODE:00401411 90                               nop
                            CODE:00401412 83 7e 08 00                      cmpl   $0x0,0x8(%esi)
                            CODE:00401416 74 1c                            je     0x00401434
                            CODE:00401418 90                               nop
                            CODE:00401419 90                               nop
                            CODE:0040141a 90                               nop
                            CODE:0040141b 90                               nop
                            CODE:0040141c 8b 56 10                         mov    0x10(%esi),%edx
                            CODE:0040141f 2b 56 08                         sub    0x8(%esi),%edx
                            CODE:00401422 78 10                            js     0x00401434
                            CODE:00401424 90                               nop
                            CODE:00401425 90                               nop
                            CODE:00401426 90                               nop
                            CODE:00401427 90                               nop
                            CODE:00401428 81 fa fb 05 00 00                cmp    $0x5fb,%edx
                            CODE:0040142e 0f 87 8f 00 00 00                ja     0x004014c3
                            CODE:00401434 66 48                            dec    %ax
                            CODE:00401436 83 c6 28                         add    $0x28,%esi
                            CODE:00401439 eb ce                            jmp    0x00401409
                            CODE:0040143b c7 87 83 ee 28 66 b8 00 d8 e8    movl   $0xe8d800b8,0x6628ee83(%edi)
                            CODE:00401445 2a 01                            sub    (%ecx),%al
                            CODE:00401447 00 00                            add    %al,(%eax)
                            CODE:00401449 8b 56 14                         mov    0x14(%esi),%edx
                            CODE:0040144c 03 56 10                         add    0x10(%esi),%edx
                            CODE:0040144f 3b c2                            cmp    %edx,%eax
                            CODE:00401451 0f 85 d1 00 00 00                jne    0x00401528
                            CODE:00401457 8b 56 08                         mov    0x8(%esi),%edx
                            CODE:0040145a 0b d2                            or     %edx,%edx
                            CODE:0040145c 0f 84 c6 00 00 00                je     0x00401528
                            CODE:00401462 8b 46 10                         mov    0x10(%esi),%eax
                            CODE:00401465 3b c2                            cmp    %edx,%eax
                            CODE:00401467 0f 86 bb 00 00 00                jbe    0x00401528
                            CODE:0040146d 33 d2                            xor    %edx,%edx
                            CODE:0040146f b8 fb 05 00 00                   mov    $0x5fb,%eax
                            CODE:00401474 8b 8f 0a 06 00 00                mov    0x60a(%edi),%ecx
                            CODE:0040147a f7 f1                            div    %ecx
                            CODE:0040147c 40                               inc    %eax
                            CODE:0040147d f7 e1                            mul    %ecx
                            CODE:0040147f 50                               push   %eax
                            CODE:00401480 01 46 10                         add    %eax,0x10(%esi)
                            CODE:00401483 8b 46 0c                         mov    0xc(%esi),%eax
                            CODE:00401486 03 46 10                         add    0x10(%esi),%eax
                            CODE:00401489 89 87 16 06 00 00                mov    %eax,0x616(%edi)
                            CODE:0040148f 56                               push   %esi
                            CODE:00401490 8b 97 02 06 00 00                mov    0x602(%edi),%edx
                            CODE:00401496 83 c2 50                         add    $0x50,%edx
                            CODE:00401499 b9 04 00 00 00                   mov    $0x4,%ecx
                            CODE:0040149e 8d b7 16 06 00 00                lea    0x616(%edi),%esi
                            CODE:004014a4 e8 bb 00 00 00                   call   0x00401564
                            CODE:004014a9 33 c0                            xor    %eax,%eax
                            CODE:004014ab 40                               inc    %eax
                            CODE:004014ac 0f 23 d0                         mov    %eax,%db2
                            CODE:004014af 5e                               pop    %esi
                            CODE:004014b0 58                               pop    %eax
                            CODE:004014b1 72 7e                            jb     0x00401531
                            CODE:004014b3 90                               nop
                            CODE:004014b4 90                               nop
                            CODE:004014b5 90                               nop
                            CODE:004014b6 90                               nop
                            CODE:004014b7 8b 56 10                         mov    0x10(%esi),%edx
                            CODE:004014ba 2b d0                            sub    %eax,%edx
                            CODE:004014bc eb 0e                            jmp    0x004014cc
                            CODE:004014be 90                               nop
                            CODE:004014bf 90                               nop
                            CODE:004014c0 90                               nop
                            CODE:004014c1 c7 87 8b 56 10 81 ea fb 05 00    movl   $0x5fbea,-0x7eefa975(%edi)
                            CODE:004014cb 00 8b 46 10 89 46                add    %cl,0x46891046(%ebx)
                            CODE:004014d1 08 c7                            or     %al,%bh
                            CODE:004014d3 46                               inc    %esi
                            CODE:004014d4 24 40                            and    $0x40,%al
                            CODE:004014d6 00 00                            add    %al,(%eax)
                            CODE:004014d8 e0 8b                            loopne 0x00401465
                            CODE:004014da 46                               inc    %esi
                            CODE:004014db 0c 03                            or     $0x3,%al
                            CODE:004014dd c2 89 87                         ret    $0x8789
                            CODE:004014e0 12 06                            adc    (%esi),%al
                            CODE:004014e2 00 00                            add    %al,(%eax)
                            CODE:004014e4 03 56 14                         add    0x14(%esi),%edx
                            CODE:004014e7 b9 fb 05 00 00                   mov    $0x5fb,%ecx
                            CODE:004014ec 8b f7                            mov    %edi,%esi
                            CODE:004014ee e8 71 00 00 00                   call   0x00401564
                            CODE:004014f3 72 3c                            jb     0x00401531
                            CODE:004014f5 90                               nop
                            CODE:004014f6 90                               nop
                            CODE:004014f7 90                               nop
                            CODE:004014f8 90                               nop
                            CODE:004014f9 8b 8f fe 05 00 00                mov    0x5fe(%edi),%ecx
                            CODE:004014ff 8b 97 06 06 00 00                mov    0x606(%edi),%edx
                            CODE:00401505 8d b7 1e 07 00 00                lea    0x71e(%edi),%esi
                            CODE:0040150b e8 54 00 00 00                   call   0x00401564
                            CODE:00401510 33 c9                            xor    %ecx,%ecx
                            CODE:00401512 b1 04                            mov    $0x4,%cl
                            CODE:00401514 8b 97 02 06 00 00                mov    0x602(%edi),%edx
                            CODE:0040151a 83 c2 28                         add    $0x28,%edx
                            CODE:0040151d 8d b7 12 06 00 00                lea    0x612(%edi),%esi
                            CODE:00401523 e8 3c 00 00 00                   call   0x00401564
                            CODE:00401528 66 b8 00 d7                      mov    $0xd700,%ax
                            CODE:0040152c e8 42 00 00 00                   call   0x00401573
                            CODE:00401531 66 b8 01 43                      mov    $0x4301,%ax
                            CODE:00401535 8d b7 1e 06 00 00                lea    0x61e(%edi),%esi
                            CODE:0040153b 0f 21 c9                         mov    %db1,%ecx
                            CODE:0040153e e8 30 00 00 00                   call   0x00401573
                            CODE:00401543 0f 21 d0                         mov    %db2,%eax
                            CODE:00401546 0b c0                            or     %eax,%eax
                            CODE:00401548 75 19                            jne    0x00401563
                            CODE:0040154a 90                               nop
                            CODE:0040154b 90                               nop
                            CODE:0040154c 90                               nop
                            CODE:0040154d 90                               nop
                            CODE:0040154e 66 b8 03 43                      mov    $0x4303,%ax
                            CODE:00401552 8b 8f 1a 06 00 00                mov    0x61a(%edi),%ecx
                            CODE:00401558 8b bf 1c 06 00 00                mov    0x61c(%edi),%edi
                            CODE:0040155e e8 10 00 00 00                   call   0x00401573
                            CODE:00401563 c3                               ret    
                            CODE:00401564 66 b8 01 d6                      mov    $0xd601,%ax
                            CODE:00401568 eb 09                            jmp    0x00401573
                            CODE:0040156a 90                               nop
                            CODE:0040156b 90                               nop
                            CODE:0040156c 90                               nop
                            CODE:0040156d c7 87 66 b8 00 d6 cd 20 32 00    movl   $0x3220cd,-0x29ff479a(%edi)
                            CODE:00401577 40                               inc    %eax
                            CODE:00401578 00 c3                            add    %al,%bl
                            CODE:0040157a bc c5 a3 bb be                   mov    $0xbebba3c5,%esp
                            CODE:0040157f a8 ff                            test   $0xff,%al
                            CODE:00401581 be a9 d1 ba a7                   mov    $0xa7bad1a9,%esi
                            CODE:00401586 ba ff ff a8 b0                   mov    $0xb0a8ffff,%edx
                            CODE:0040158b ad                               lods   %ds:(%esi),%eax
                            CODE:0040158c bb d1 ba a7 ba                   mov    $0xbaa7bad1,%ebx
                            CODE:00401591 ff                               (bad)  
                            CODE:00401592 ff b2 b0 b1 d1 ba                pushl  -0x452e4e50(%edx)
                            CODE:00401598 a7                               cmpsl  %es:(%edi),%ds:(%esi)
                            CODE:00401599 ba ff ff d1 bb                   mov    $0xbbd1ffff,%edx
                            CODE:0040159e b0 bc                            mov    $0xbc,%al
                            CODE:004015a0 ff                               (bad)  
                            CODE:004015a1 ff b2 b0 b1 c0 c0                pushl  -0x3f3f4e50(%edx)
                            CODE:004015a7 d1 ba a7 ba ff ff                sarl   -0x4559(%edx)
                            CODE:004015ad d1 bb af ad ff ff                sarl   -0x5251(%ebx)
                            CODE:004015b3 b2 b0                            mov    $0xb0,%dl
                            CODE:004015b5 b1 c0                            mov    $0xc0,%cl
                            CODE:004015b7 c0 c0 c0                         rol    $0xc0,%al
                            CODE:004015ba d1 ba a7 ba ff ff                sarl   -0x4559(%edx)
                            CODE:004015c0 d1                               (bad)  
                            CODE:004015c1 b5 af                            mov    $0xaf,%ch
                            CODE:004015c3 b8 ff ff a9 ac                   mov    $0xaca9ffff,%eax
                            CODE:004015c8 bc be b1 c0 c0                   mov    $0xc0c0b1be,%esp
                            CODE:004015cd d1 ba a7 ba ff ff                sarl   -0x4559(%edx)
                            CODE:004015d3 d1                               (bad)  
                            CODE:004015d4 b2 af                            mov    $0xaf,%dl
                            CODE:004015d6 cc                               int3   
                            CODE:004015d7 ff                               (bad)  
                            CODE:004015d8 ff b4 a9 c0 cf cf d1             pushl  -0x2e303040(%ecx,%ebp,4)
                            CODE:004015df c0 c0 c0                         rol    $0xc0,%al
                            CODE:004015e2 ff d1                            call   *%ecx
                            CODE:004015e4 af                               scas   %es:(%edi),%eax
                            CODE:004015e5 be ac ff ff b4                   mov    $0xb4ffffac,%esi
                            CODE:004015ea be a9 c0 c0 d1                   mov    $0xd1c0c0a9,%esi
                            CODE:004015ef ba a7 ba ff d1                   mov    $0xd1ffbaa7,%edx
                            CODE:004015f4 a9 bd ac ff ff                   test   $0xffffacbd,%eax
                            CODE:004015f9 ff                               (bad)  
                            CODE:004015fa ff 00                            incl   (%eax)
                            CODE:004015fc 00 00                            add    %al,(%eax)
                            CODE:004015fe 00 00                            add    %al,(%eax)
                            CODE:00401600 00 00                            add    %al,(%eax)
                            CODE:00401602 00 00                            add    %al,(%eax)
                            CODE:00401604 00 00                            add    %al,(%eax)
                            CODE:00401606 00 00                            add    %al,(%eax)
                            CODE:00401608 00 00                            add    %al,(%eax)
                            CODE:0040160a 00 00                            add    %al,(%eax)
                            CODE:0040160c 00 00                            add    %al,(%eax)
                            CODE:0040160e 00 00                            add    %al,(%eax)
                            CODE:00401610 00 00                            add    %al,(%eax)
                            CODE:00401612 00 00                            add    %al,(%eax)
                            CODE:00401614 00 00                            add    %al,(%eax)
                            CODE:00401616 00 00                            add    %al,(%eax)
                            CODE:00401618 00 00                            add    %al,(%eax)
                            CODE:0040161a 00 00                            add    %al,(%eax)
                            CODE:0040161c 00 00                            add    %al,(%eax)
                            CODE:0040161e 00 00                            add    %al,(%eax)
                            CODE:00401620 00 00                            add    %al,(%eax)
                            CODE:00401622 00 00                            add    %al,(%eax)
                            CODE:00401624 00 00                            add    %al,(%eax)
                            CODE:00401626 00 00                            add    %al,(%eax)
                            CODE:00401628 00 00                            add    %al,(%eax)
                            CODE:0040162a 00 00                            add    %al,(%eax)
                            CODE:0040162c 00 00                            add    %al,(%eax)
                            CODE:0040162e 00 00                            add    %al,(%eax)
                            CODE:00401630 00 00                            add    %al,(%eax)
                            CODE:00401632 00 00                            add    %al,(%eax)
                            CODE:00401634 00 00                            add    %al,(%eax)
                            CODE:00401636 00 00                            add    %al,(%eax)
                            CODE:00401638 00 00                            add    %al,(%eax)
                            CODE:0040163a 00 00                            add    %al,(%eax)
                            CODE:0040163c 00 00                            add    %al,(%eax)
                            CODE:0040163e 00 00                            add    %al,(%eax)
                            CODE:00401640 00 00                            add    %al,(%eax)
                            CODE:00401642 00 00                            add    %al,(%eax)
                            CODE:00401644 00 00                            add    %al,(%eax)
                            CODE:00401646 00 00                            add    %al,(%eax)
                            CODE:00401648 00 00                            add    %al,(%eax)
                            CODE:0040164a 00 00                            add    %al,(%eax)
                            CODE:0040164c 00 00                            add    %al,(%eax)
                            CODE:0040164e 00 00                            add    %al,(%eax)
                            CODE:00401650 00 00                            add    %al,(%eax)
                            CODE:00401652 00 00                            add    %al,(%eax)
                            CODE:00401654 00 00                            add    %al,(%eax)
                            CODE:00401656 00 00                            add    %al,(%eax)
                            CODE:00401658 00 00                            add    %al,(%eax)
                            CODE:0040165a 00 00                            add    %al,(%eax)
                            CODE:0040165c 00 00                            add    %al,(%eax)
                            CODE:0040165e 00 00                            add    %al,(%eax)
                            CODE:00401660 00 00                            add    %al,(%eax)
                            CODE:00401662 00 00                            add    %al,(%eax)
                            CODE:00401664 00 00                            add    %al,(%eax)
                            CODE:00401666 00 00                            add    %al,(%eax)
                            CODE:00401668 00 00                            add    %al,(%eax)
                            CODE:0040166a 00 00                            add    %al,(%eax)
                            CODE:0040166c 00 00                            add    %al,(%eax)
                            CODE:0040166e 00 00                            add    %al,(%eax)
                            CODE:00401670 00 00                            add    %al,(%eax)
                            CODE:00401672 00 00                            add    %al,(%eax)
                            CODE:00401674 00 00                            add    %al,(%eax)
                            CODE:00401676 00 00                            add    %al,(%eax)
                            CODE:00401678 00 00                            add    %al,(%eax)
                            CODE:0040167a 00 00                            add    %al,(%eax)
                            CODE:0040167c 00 00                            add    %al,(%eax)
                            CODE:0040167e 00 00                            add    %al,(%eax)
                            CODE:00401680 00 00                            add    %al,(%eax)
                            CODE:00401682 00 00                            add    %al,(%eax)
                            CODE:00401684 00 00                            add    %al,(%eax)
                            CODE:00401686 00 00                            add    %al,(%eax)
                            CODE:00401688 00 00                            add    %al,(%eax)
                            CODE:0040168a 00 00                            add    %al,(%eax)
                            CODE:0040168c 00 00                            add    %al,(%eax)
                            CODE:0040168e 00 00                            add    %al,(%eax)
                            CODE:00401690 00 00                            add    %al,(%eax)
                            CODE:00401692 00 00                            add    %al,(%eax)
                            CODE:00401694 00 00                            add    %al,(%eax)
                            CODE:00401696 00 00                            add    %al,(%eax)
                            CODE:00401698 00 00                            add    %al,(%eax)
                            CODE:0040169a 00 00                            add    %al,(%eax)
                            CODE:0040169c 00 00                            add    %al,(%eax)
                            CODE:0040169e 00 00                            add    %al,(%eax)
                            CODE:004016a0 00 00                            add    %al,(%eax)
                            CODE:004016a2 00 00                            add    %al,(%eax)
                            CODE:004016a4 00 00                            add    %al,(%eax)
                            CODE:004016a6 00 00                            add    %al,(%eax)
                            CODE:004016a8 00 00                            add    %al,(%eax)
                            CODE:004016aa 00 00                            add    %al,(%eax)
                            CODE:004016ac 00 00                            add    %al,(%eax)
                            CODE:004016ae 00 00                            add    %al,(%eax)
                            CODE:004016b0 00 00                            add    %al,(%eax)
                            CODE:004016b2 00 00                            add    %al,(%eax)
                            CODE:004016b4 00 00                            add    %al,(%eax)
                            CODE:004016b6 00 00                            add    %al,(%eax)
                            CODE:004016b8 00 00                            add    %al,(%eax)
                            CODE:004016ba 00 00                            add    %al,(%eax)
                            CODE:004016bc 00 00                            add    %al,(%eax)
                            CODE:004016be 00 00                            add    %al,(%eax)
                            CODE:004016c0 00 00                            add    %al,(%eax)
                            CODE:004016c2 00 00                            add    %al,(%eax)
                            CODE:004016c4 00 00                            add    %al,(%eax)
                            CODE:004016c6 00 00                            add    %al,(%eax)
                            CODE:004016c8 00 00                            add    %al,(%eax)
                            CODE:004016ca 00 00                            add    %al,(%eax)
                            CODE:004016cc 00 00                            add    %al,(%eax)
                            CODE:004016ce 00 00                            add    %al,(%eax)
                            CODE:004016d0 00 00                            add    %al,(%eax)
                            CODE:004016d2 00 00                            add    %al,(%eax)
                            CODE:004016d4 00 00                            add    %al,(%eax)
                            CODE:004016d6 00 00                            add    %al,(%eax)
                            CODE:004016d8 00 00                            add    %al,(%eax)
                            CODE:004016da 00 00                            add    %al,(%eax)
                            CODE:004016dc 00 00                            add    %al,(%eax)
                            CODE:004016de 00 00                            add    %al,(%eax)
                            CODE:004016e0 00 00                            add    %al,(%eax)
                            CODE:004016e2 00 00                            add    %al,(%eax)
                            CODE:004016e4 00 00                            add    %al,(%eax)
                            CODE:004016e6 00 00                            add    %al,(%eax)
                            CODE:004016e8 00 00                            add    %al,(%eax)
                            CODE:004016ea 00 00                            add    %al,(%eax)
                            CODE:004016ec 00 00                            add    %al,(%eax)
                            CODE:004016ee 00 00                            add    %al,(%eax)
                            CODE:004016f0 00 00                            add    %al,(%eax)
                            CODE:004016f2 00 00                            add    %al,(%eax)
                            CODE:004016f4 00 00                            add    %al,(%eax)
                            CODE:004016f6 00 00                            add    %al,(%eax)
                            CODE:004016f8 00 00                            add    %al,(%eax)
                            CODE:004016fa 00 00                            add    %al,(%eax)
                            CODE:004016fc 00 00                            add    %al,(%eax)
                            CODE:004016fe 00 00                            add    %al,(%eax)
                            CODE:00401700 00 00                            add    %al,(%eax)
                            CODE:00401702 00 00                            add    %al,(%eax)
                            CODE:00401704 00 00                            add    %al,(%eax)
                            CODE:00401706 00 00                            add    %al,(%eax)
                            CODE:00401708 00 00                            add    %al,(%eax)
                            CODE:0040170a 00 00                            add    %al,(%eax)
                            CODE:0040170c 00 00                            add    %al,(%eax)
                            CODE:0040170e 00 00                            add    %al,(%eax)
                            CODE:00401710 00 00                            add    %al,(%eax)
                            CODE:00401712 00 00                            add    %al,(%eax)
                            CODE:00401714 00 00                            add    %al,(%eax)
                            CODE:00401716 00 00                            add    %al,(%eax)
                            CODE:00401718 00 00                            add    %al,(%eax)
                            CODE:0040171a 00 00                            add    %al,(%eax)
                            CODE:0040171c 00 00                            add    %al,(%eax)
                            CODE:0040171e 00 00                            add    %al,(%eax)
                            CODE:00401720 00 00                            add    %al,(%eax)
                            CODE:00401722 00 00                            add    %al,(%eax)
                            CODE:00401724 00 00                            add    %al,(%eax)
                            CODE:00401726 00 00                            add    %al,(%eax)
                            CODE:00401728 00 00                            add    %al,(%eax)
                            CODE:0040172a 00 00                            add    %al,(%eax)
                            CODE:0040172c 00 00                            add    %al,(%eax)
                            CODE:0040172e 00 00                            add    %al,(%eax)
                            CODE:00401730 00 00                            add    %al,(%eax)
                            CODE:00401732 00 00                            add    %al,(%eax)
                            CODE:00401734 00 00                            add    %al,(%eax)
                            CODE:00401736 00 00                            add    %al,(%eax)
                            CODE:00401738 00 00                            add    %al,(%eax)
                            CODE:0040173a 00 00                            add    %al,(%eax)
                            CODE:0040173c 00 00                            add    %al,(%eax)
                            CODE:0040173e 00 00                            add    %al,(%eax)
                            CODE:00401740 00 00                            add    %al,(%eax)
                            CODE:00401742 00 00                            add    %al,(%eax)
                            CODE:00401744 00 00                            add    %al,(%eax)
                            CODE:00401746 00 00                            add    %al,(%eax)
                            CODE:00401748 00 00                            add    %al,(%eax)
                            CODE:0040174a 00 00                            add    %al,(%eax)
                            CODE:0040174c 00 00                            add    %al,(%eax)
                            CODE:0040174e 00 00                            add    %al,(%eax)
                            CODE:00401750 00 00                            add    %al,(%eax)
                            CODE:00401752 00 00                            add    %al,(%eax)
                            CODE:00401754 00 00                            add    %al,(%eax)
                            CODE:00401756 00 00                            add    %al,(%eax)
                            CODE:00401758 00 00                            add    %al,(%eax)
                            CODE:0040175a 00 00                            add    %al,(%eax)
                            CODE:0040175c 00 00                            add    %al,(%eax)
                            CODE:0040175e 00 00                            add    %al,(%eax)
                            CODE:00401760 00 00                            add    %al,(%eax)
                            CODE:00401762 00 00                            add    %al,(%eax)
                            CODE:00401764 00 00                            add    %al,(%eax)
                            CODE:00401766 00 00                            add    %al,(%eax)
                            CODE:00401768 00 00                            add    %al,(%eax)
                            CODE:0040176a 00 00                            add    %al,(%eax)
                            CODE:0040176c 00 00                            add    %al,(%eax)
                            CODE:0040176e 00 00                            add    %al,(%eax)
                            CODE:00401770 00 00                            add    %al,(%eax)
                            CODE:00401772 00 00                            add    %al,(%eax)
                            CODE:00401774 00 00                            add    %al,(%eax)
                            CODE:00401776 00 00                            add    %al,(%eax)
                            CODE:00401778 00 00                            add    %al,(%eax)
                            CODE:0040177a 00 00                            add    %al,(%eax)
                            CODE:0040177c 00 00                            add    %al,(%eax)
                            CODE:0040177e 00 00                            add    %al,(%eax)
                            CODE:00401780 00 00                            add    %al,(%eax)
                            CODE:00401782 00 00                            add    %al,(%eax)
                            CODE:00401784 00 00                            add    %al,(%eax)
                            CODE:00401786 00 00                            add    %al,(%eax)
                            CODE:00401788 00 00                            add    %al,(%eax)
                            CODE:0040178a 00 00                            add    %al,(%eax)
                            CODE:0040178c 00 00                            add    %al,(%eax)
                            CODE:0040178e 00 00                            add    %al,(%eax)
                            CODE:00401790 00 00                            add    %al,(%eax)
                            CODE:00401792 00 00                            add    %al,(%eax)
                            CODE:00401794 00 00                            add    %al,(%eax)
                            CODE:00401796 00 00                            add    %al,(%eax)
                            CODE:00401798 00 00                            add    %al,(%eax)
                            CODE:0040179a 00 00                            add    %al,(%eax)
                            CODE:0040179c 00 00                            add    %al,(%eax)
                            CODE:0040179e 00 00                            add    %al,(%eax)
                            CODE:004017a0 00 00                            add    %al,(%eax)
                            CODE:004017a2 00 00                            add    %al,(%eax)
                            CODE:004017a4 00 00                            add    %al,(%eax)
                            CODE:004017a6 00 00                            add    %al,(%eax)
                            CODE:004017a8 00 00                            add    %al,(%eax)
                            CODE:004017aa 00 00                            add    %al,(%eax)
                            CODE:004017ac 00 00                            add    %al,(%eax)
                            CODE:004017ae 00 00                            add    %al,(%eax)
                            CODE:004017b0 00 00                            add    %al,(%eax)
                            CODE:004017b2 00 00                            add    %al,(%eax)
                            CODE:004017b4 00 00                            add    %al,(%eax)
                            CODE:004017b6 00 00                            add    %al,(%eax)
                            CODE:004017b8 00 00                            add    %al,(%eax)
                            CODE:004017ba 00 00                            add    %al,(%eax)
                            CODE:004017bc 00 00                            add    %al,(%eax)
                            CODE:004017be 00 00                            add    %al,(%eax)
                            CODE:004017c0 00 00                            add    %al,(%eax)
                            CODE:004017c2 00 00                            add    %al,(%eax)
                            CODE:004017c4 00 00                            add    %al,(%eax)
                            CODE:004017c6 00 00                            add    %al,(%eax)
                            CODE:004017c8 00 00                            add    %al,(%eax)
                            CODE:004017ca 00 00                            add    %al,(%eax)
                            CODE:004017cc 00 00                            add    %al,(%eax)
                            CODE:004017ce 00 00                            add    %al,(%eax)
                            CODE:004017d0 00 00                            add    %al,(%eax)
                            CODE:004017d2 00 00                            add    %al,(%eax)
                            CODE:004017d4 00 00                            add    %al,(%eax)
                            CODE:004017d6 00 00                            add    %al,(%eax)
                            CODE:004017d8 00 00                            add    %al,(%eax)
                            CODE:004017da 00 00                            add    %al,(%eax)
                            CODE:004017dc 00 00                            add    %al,(%eax)
                            CODE:004017de 00 00                            add    %al,(%eax)
                            CODE:004017e0 00 00                            add    %al,(%eax)
                            CODE:004017e2 00 00                            add    %al,(%eax)
                            CODE:004017e4 00 00                            add    %al,(%eax)
                            CODE:004017e6 00 00                            add    %al,(%eax)
                            CODE:004017e8 00 00                            add    %al,(%eax)
                            CODE:004017ea 00 00                            add    %al,(%eax)
                            CODE:004017ec 00 00                            add    %al,(%eax)
                            CODE:004017ee 00 00                            add    %al,(%eax)
                            CODE:004017f0 00 00                            add    %al,(%eax)
                            CODE:004017f2 00 00                            add    %al,(%eax)
                            CODE:004017f4 00 00                            add    %al,(%eax)
                            CODE:004017f6 00 00                            add    %al,(%eax)
                            CODE:004017f8 00 00                            add    %al,(%eax)
                            CODE:004017fa 00 00                            add    %al,(%eax)
                            CODE:004017fc 00 00                            add    %al,(%eax)
                            CODE:004017fe 00 00                            add    %al,(%eax)
                            CODE:00401800 00 00                            add    %al,(%eax)
                            CODE:00401802 00 00                            add    %al,(%eax)
                            CODE:00401804 00 00                            add    %al,(%eax)
                            CODE:00401806 00 00                            add    %al,(%eax)
                            CODE:00401808 00 00                            add    %al,(%eax)
                            CODE:0040180a 00 00                            add    %al,(%eax)
                            CODE:0040180c 00 00                            add    %al,(%eax)
                            CODE:0040180e 00 00                            add    %al,(%eax)
                            CODE:00401810 00 00                            add    %al,(%eax)
                            CODE:00401812 00 00                            add    %al,(%eax)
                            CODE:00401814 00 00                            add    %al,(%eax)
                            CODE:00401816 00 00                            add    %al,(%eax)
                            CODE:00401818 00 00                            add    %al,(%eax)
                            CODE:0040181a 00 00                            add    %al,(%eax)
                            CODE:0040181c 00 00                            add    %al,(%eax)
                            CODE:0040181e 00 00                            add    %al,(%eax)
                            CODE:00401820 00 00                            add    %al,(%eax)
                            CODE:00401822 00 00                            add    %al,(%eax)
                            CODE:00401824 00 00                            add    %al,(%eax)
                            CODE:00401826 00 00                            add    %al,(%eax)
                            CODE:00401828 00 00                            add    %al,(%eax)
                            CODE:0040182a 00 00                            add    %al,(%eax)
                            CODE:0040182c 00 00                            add    %al,(%eax)
                            CODE:0040182e 00 00                            add    %al,(%eax)
                            CODE:00401830 00 00                            add    %al,(%eax)
                            CODE:00401832 00 00                            add    %al,(%eax)
                            CODE:00401834 00 00                            add    %al,(%eax)
                            CODE:00401836 00 00                            add    %al,(%eax)
                            CODE:00401838 00 00                            add    %al,(%eax)
                            CODE:0040183a 00 00                            add    %al,(%eax)
                            CODE:0040183c 00 00                            add    %al,(%eax)
                            CODE:0040183e 00 00                            add    %al,(%eax)
                            CODE:00401840 00 00                            add    %al,(%eax)
                            CODE:00401842 00 00                            add    %al,(%eax)
                            CODE:00401844 00 00                            add    %al,(%eax)
                            CODE:00401846 00 00                            add    %al,(%eax)
                            CODE:00401848 00 00                            add    %al,(%eax)
                            CODE:0040184a 00 00                            add    %al,(%eax)
                            CODE:0040184c 00 00                            add    %al,(%eax)
                            CODE:0040184e 00 00                            add    %al,(%eax)
                            CODE:00401850 00 00                            add    %al,(%eax)
                            CODE:00401852 00 00                            add    %al,(%eax)
                            CODE:00401854 00 00                            add    %al,(%eax)
                            CODE:00401856 00 00                            add    %al,(%eax)
                            CODE:00401858 00 00                            add    %al,(%eax)
                            CODE:0040185a 00 00                            add    %al,(%eax)
                            CODE:0040185c 00 00                            add    %al,(%eax)
                            CODE:0040185e 00 00                            add    %al,(%eax)
                            CODE:00401860 00 00                            add    %al,(%eax)
                            CODE:00401862 00 00                            add    %al,(%eax)
                            CODE:00401864 00 00                            add    %al,(%eax)
                            CODE:00401866 00 00                            add    %al,(%eax)
                            CODE:00401868 00 00                            add    %al,(%eax)
                            CODE:0040186a 00 00                            add    %al,(%eax)
                            CODE:0040186c 00 00                            add    %al,(%eax)
                            CODE:0040186e 00 00                            add    %al,(%eax)
                            CODE:00401870 00 00                            add    %al,(%eax)
                            CODE:00401872 00 00                            add    %al,(%eax)
                            CODE:00401874 00 00                            add    %al,(%eax)
                            CODE:00401876 00 00                            add    %al,(%eax)
                            CODE:00401878 00 00                            add    %al,(%eax)
                            CODE:0040187a 00 00                            add    %al,(%eax)
                            CODE:0040187c 00 00                            add    %al,(%eax)
                            CODE:0040187e 00 00                            add    %al,(%eax)
                            CODE:00401880 00 00                            add    %al,(%eax)
                            CODE:00401882 00 00                            add    %al,(%eax)
                            CODE:00401884 00 00                            add    %al,(%eax)
                            CODE:00401886 00 00                            add    %al,(%eax)
                            CODE:00401888 00 00                            add    %al,(%eax)
                            CODE:0040188a 00 00                            add    %al,(%eax)
                            CODE:0040188c 00 00                            add    %al,(%eax)
                            CODE:0040188e 00 00                            add    %al,(%eax)
                            CODE:00401890 00 00                            add    %al,(%eax)
                            CODE:00401892 00 00                            add    %al,(%eax)
                            CODE:00401894 00 00                            add    %al,(%eax)
                            CODE:00401896 00 00                            add    %al,(%eax)
                            CODE:00401898 00 00                            add    %al,(%eax)
                            CODE:0040189a 00 00                            add    %al,(%eax)
                            CODE:0040189c 00 00                            add    %al,(%eax)
                            CODE:0040189e 00 00                            add    %al,(%eax)
                            CODE:004018a0 00 00                            add    %al,(%eax)
                            CODE:004018a2 00 00                            add    %al,(%eax)
                            CODE:004018a4 00 00                            add    %al,(%eax)
                            CODE:004018a6 00 00                            add    %al,(%eax)
                            CODE:004018a8 00 00                            add    %al,(%eax)
                            CODE:004018aa 00 00                            add    %al,(%eax)
                            CODE:004018ac 00 00                            add    %al,(%eax)
                            CODE:004018ae 00 00                            add    %al,(%eax)
                            CODE:004018b0 00 00                            add    %al,(%eax)
                            CODE:004018b2 00 00                            add    %al,(%eax)
                            CODE:004018b4 00 00                            add    %al,(%eax)
                            CODE:004018b6 00 00                            add    %al,(%eax)
                            CODE:004018b8 00 00                            add    %al,(%eax)
                            CODE:004018ba 00 00                            add    %al,(%eax)
                            CODE:004018bc 00 00                            add    %al,(%eax)
                            CODE:004018be 00 00                            add    %al,(%eax)
                            CODE:004018c0 00 00                            add    %al,(%eax)
                            CODE:004018c2 00 00                            add    %al,(%eax)
                            CODE:004018c4 00 00                            add    %al,(%eax)
                            CODE:004018c6 00 00                            add    %al,(%eax)
                            CODE:004018c8 00 00                            add    %al,(%eax)
                            CODE:004018ca 00 00                            add    %al,(%eax)
                            CODE:004018cc 00 00                            add    %al,(%eax)
                            CODE:004018ce 00 00                            add    %al,(%eax)
                            CODE:004018d0 00 00                            add    %al,(%eax)
                            CODE:004018d2 00 00                            add    %al,(%eax)
                            CODE:004018d4 00 00                            add    %al,(%eax)
                            CODE:004018d6 00 00                            add    %al,(%eax)
                            CODE:004018d8 00 00                            add    %al,(%eax)
                            CODE:004018da 00 00                            add    %al,(%eax)
                            CODE:004018dc 00 00                            add    %al,(%eax)
                            CODE:004018de 00 00                            add    %al,(%eax)
                            CODE:004018e0 00 00                            add    %al,(%eax)
                            CODE:004018e2 00 00                            add    %al,(%eax)
                            CODE:004018e4 00 00                            add    %al,(%eax)
                            CODE:004018e6 00 00                            add    %al,(%eax)
                            CODE:004018e8 00 00                            add    %al,(%eax)
                            CODE:004018ea 00 00                            add    %al,(%eax)
                            CODE:004018ec 00 00                            add    %al,(%eax)
                            CODE:004018ee 00 00                            add    %al,(%eax)
                            CODE:004018f0 00 00                            add    %al,(%eax)
                            CODE:004018f2 00 00                            add    %al,(%eax)
                            CODE:004018f4 00 00                            add    %al,(%eax)
                            CODE:004018f6 00 00                            add    %al,(%eax)
                            CODE:004018f8 00 00                            add    %al,(%eax)
                            CODE:004018fa 00 00                            add    %al,(%eax)
                            CODE:004018fc 00 00                            add    %al,(%eax)
                            CODE:004018fe 00 00                            add    %al,(%eax)
                            CODE:00401900 00 00                            add    %al,(%eax)
                            CODE:00401902 00 00                            add    %al,(%eax)
                            CODE:00401904 00 00                            add    %al,(%eax)
                            CODE:00401906 00 00                            add    %al,(%eax)
                            CODE:00401908 00 00                            add    %al,(%eax)
                            CODE:0040190a 00 00                            add    %al,(%eax)
                            CODE:0040190c 00 00                            add    %al,(%eax)
                            CODE:0040190e 00 00                            add    %al,(%eax)
                            CODE:00401910 00 00                            add    %al,(%eax)
                            CODE:00401912 00 00                            add    %al,(%eax)
                            CODE:00401914 00 00                            add    %al,(%eax)
                            CODE:00401916 00 00                            add    %al,(%eax)
                            CODE:00401918 00 00                            add    %al,(%eax)
                            CODE:0040191a 00 00                            add    %al,(%eax)
                            CODE:0040191c 00 00                            add    %al,(%eax)
                            CODE:0040191e 00 00                            add    %al,(%eax)
                            CODE:00401920 00 00                            add    %al,(%eax)
                            CODE:00401922 00 00                            add    %al,(%eax)
                            CODE:00401924 00 00                            add    %al,(%eax)
                            CODE:00401926 00 00                            add    %al,(%eax)
                            CODE:00401928 00 00                            add    %al,(%eax)
                            CODE:0040192a 00 00                            add    %al,(%eax)
                            CODE:0040192c 00 00                            add    %al,(%eax)
                            CODE:0040192e 00 00                            add    %al,(%eax)
                            CODE:00401930 00 00                            add    %al,(%eax)
                            CODE:00401932 00 00                            add    %al,(%eax)
                            CODE:00401934 00 00                            add    %al,(%eax)
                            CODE:00401936 00 00                            add    %al,(%eax)
                            CODE:00401938 00 00                            add    %al,(%eax)
                            CODE:0040193a 00 00                            add    %al,(%eax)
                            CODE:0040193c 00 00                            add    %al,(%eax)
                            CODE:0040193e 00 00                            add    %al,(%eax)
                            CODE:00401940 00 00                            add    %al,(%eax)
                            CODE:00401942 00 00                            add    %al,(%eax)
                            CODE:00401944 00 00                            add    %al,(%eax)
                            CODE:00401946 00 00                            add    %al,(%eax)
                            CODE:00401948 00 00                            add    %al,(%eax)
                            CODE:0040194a 00 00                            add    %al,(%eax)
                            CODE:0040194c 00 00                            add    %al,(%eax)
                            CODE:0040194e 00 00                            add    %al,(%eax)
                            CODE:00401950 00 00                            add    %al,(%eax)
                            CODE:00401952 00 00                            add    %al,(%eax)
                            CODE:00401954 00 00                            add    %al,(%eax)
                            CODE:00401956 00 00                            add    %al,(%eax)
                            CODE:00401958 00 00                            add    %al,(%eax)
                            CODE:0040195a 00 00                            add    %al,(%eax)
                            CODE:0040195c 00 00                            add    %al,(%eax)
                            CODE:0040195e 00 00                            add    %al,(%eax)
                            CODE:00401960 00 00                            add    %al,(%eax)
                            CODE:00401962 00 00                            add    %al,(%eax)
                            CODE:00401964 00 00                            add    %al,(%eax)
                            CODE:00401966 00 00                            add    %al,(%eax)
                            CODE:00401968 00 00                            add    %al,(%eax)
                            CODE:0040196a 00 00                            add    %al,(%eax)
                            CODE:0040196c 00 00                            add    %al,(%eax)
                            CODE:0040196e 00 00                            add    %al,(%eax)
                            CODE:00401970 00 00                            add    %al,(%eax)
                            CODE:00401972 00 00                            add    %al,(%eax)
                            CODE:00401974 00 00                            add    %al,(%eax)
                            CODE:00401976 00 00                            add    %al,(%eax)
                            CODE:00401978 00 00                            add    %al,(%eax)
                            CODE:0040197a 00 00                            add    %al,(%eax)
                            CODE:0040197c 00 00                            add    %al,(%eax)
                            CODE:0040197e 00 00                            add    %al,(%eax)
                            CODE:00401980 00 00                            add    %al,(%eax)
                            CODE:00401982 00 00                            add    %al,(%eax)
                            CODE:00401984 00 00                            add    %al,(%eax)
                            CODE:00401986 00 00                            add    %al,(%eax)
                            CODE:00401988 00 00                            add    %al,(%eax)
                            CODE:0040198a 00 00                            add    %al,(%eax)
                            CODE:0040198c 00 00                            add    %al,(%eax)
                            CODE:0040198e 00 00                            add    %al,(%eax)
                            CODE:00401990 00 00                            add    %al,(%eax)
                            CODE:00401992 00 00                            add    %al,(%eax)
                            CODE:00401994 00 00                            add    %al,(%eax)
                            CODE:00401996 00 00                            add    %al,(%eax)
                            CODE:00401998 00 00                            add    %al,(%eax)
                            CODE:0040199a 00 00                            add    %al,(%eax)
                            CODE:0040199c 00 00                            add    %al,(%eax)
                            CODE:0040199e 00 00                            add    %al,(%eax)
                            CODE:004019a0 00 00                            add    %al,(%eax)
                            CODE:004019a2 00 00                            add    %al,(%eax)
                            CODE:004019a4 00 00                            add    %al,(%eax)
                            CODE:004019a6 00 00                            add    %al,(%eax)
                            CODE:004019a8 00 00                            add    %al,(%eax)
                            CODE:004019aa 00 00                            add    %al,(%eax)
                            CODE:004019ac 00 00                            add    %al,(%eax)
                            CODE:004019ae 00 00                            add    %al,(%eax)
                            CODE:004019b0 00 00                            add    %al,(%eax)
                            CODE:004019b2 00 00                            add    %al,(%eax)
                            CODE:004019b4 00 00                            add    %al,(%eax)
                            CODE:004019b6 00 00                            add    %al,(%eax)
                            CODE:004019b8 00 00                            add    %al,(%eax)
                            CODE:004019ba 00 00                            add    %al,(%eax)
                            CODE:004019bc 00 00                            add    %al,(%eax)
                            CODE:004019be 00 00                            add    %al,(%eax)
                            CODE:004019c0 00 00                            add    %al,(%eax)
                            CODE:004019c2 00 00                            add    %al,(%eax)
                            CODE:004019c4 00 00                            add    %al,(%eax)
                            CODE:004019c6 00 00                            add    %al,(%eax)
                            CODE:004019c8 00 00                            add    %al,(%eax)
                            CODE:004019ca 00 00                            add    %al,(%eax)
                            CODE:004019cc 00 00                            add    %al,(%eax)
                            CODE:004019ce 00 00                            add    %al,(%eax)
                            CODE:004019d0 00 00                            add    %al,(%eax)
                            CODE:004019d2 00 00                            add    %al,(%eax)
                            CODE:004019d4 00 00                            add    %al,(%eax)
                            CODE:004019d6 00 00                            add    %al,(%eax)
                            CODE:004019d8 00 00                            add    %al,(%eax)
                            CODE:004019da 00 00                            add    %al,(%eax)
                            CODE:004019dc 00 00                            add    %al,(%eax)
                            CODE:004019de 00 00                            add    %al,(%eax)
                            CODE:004019e0 00 00                            add    %al,(%eax)
                            CODE:004019e2 00 00                            add    %al,(%eax)
                            CODE:004019e4 00 00                            add    %al,(%eax)
                            CODE:004019e6 00 00                            add    %al,(%eax)
                            CODE:004019e8 00 00                            add    %al,(%eax)
                            CODE:004019ea 00 00                            add    %al,(%eax)
                            CODE:004019ec 00 00                            add    %al,(%eax)
                            CODE:004019ee 00 00                            add    %al,(%eax)
                            CODE:004019f0 00 00                            add    %al,(%eax)
                            CODE:004019f2 00 00                            add    %al,(%eax)
                            CODE:004019f4 00 00                            add    %al,(%eax)
                            CODE:004019f6 00 00                            add    %al,(%eax)
                            CODE:004019f8 00 00                            add    %al,(%eax)
                            CODE:004019fa 00 00                            add    %al,(%eax)
                            CODE:004019fc 00 00                            add    %al,(%eax)
                            CODE:004019fe 00 00                            add    %al,(%eax)
                            CODE:00401a00 00 00                            add    %al,(%eax)
                            CODE:00401a02 00 00                            add    %al,(%eax)
                            CODE:00401a04 00 00                            add    %al,(%eax)
                            CODE:00401a06 00 00                            add    %al,(%eax)
                            CODE:00401a08 00 00                            add    %al,(%eax)
                            CODE:00401a0a 00 00                            add    %al,(%eax)
                            CODE:00401a0c 00 00                            add    %al,(%eax)
                            CODE:00401a0e 00 00                            add    %al,(%eax)
                            CODE:00401a10 00 00                            add    %al,(%eax)
                            CODE:00401a12 00 00                            add    %al,(%eax)
                            CODE:00401a14 00 00                            add    %al,(%eax)
                            CODE:00401a16 00 00                            add    %al,(%eax)
                            CODE:00401a18 00 00                            add    %al,(%eax)
                            CODE:00401a1a 00 00                            add    %al,(%eax)
                            CODE:00401a1c 00 00                            add    %al,(%eax)
                            CODE:00401a1e 00 00                            add    %al,(%eax)
                            CODE:00401a20 00 00                            add    %al,(%eax)
                            CODE:00401a22 00 00                            add    %al,(%eax)
                            CODE:00401a24 00 00                            add    %al,(%eax)
                            CODE:00401a26 00 00                            add    %al,(%eax)
                            CODE:00401a28 00 00                            add    %al,(%eax)
                            CODE:00401a2a 00 00                            add    %al,(%eax)
                            CODE:00401a2c 00 00                            add    %al,(%eax)
                            CODE:00401a2e 00 00                            add    %al,(%eax)
                            CODE:00401a30 00 00                            add    %al,(%eax)
                            CODE:00401a32 00 00                            add    %al,(%eax)
                            CODE:00401a34 00 00                            add    %al,(%eax)
                            CODE:00401a36 00 00                            add    %al,(%eax)
                            CODE:00401a38 00 00                            add    %al,(%eax)
                            CODE:00401a3a 00 00                            add    %al,(%eax)
                            CODE:00401a3c 00 00                            add    %al,(%eax)
                            CODE:00401a3e 00 00                            add    %al,(%eax)
                            CODE:00401a40 00 00                            add    %al,(%eax)
                            CODE:00401a42 00 00                            add    %al,(%eax)
                            CODE:00401a44 00 00                            add    %al,(%eax)
                            CODE:00401a46 00 00                            add    %al,(%eax)
                            CODE:00401a48 00 00                            add    %al,(%eax)
                            CODE:00401a4a 00 00                            add    %al,(%eax)
                            CODE:00401a4c 00 00                            add    %al,(%eax)
                            CODE:00401a4e 00 00                            add    %al,(%eax)
                            CODE:00401a50 00 00                            add    %al,(%eax)
                            CODE:00401a52 00 00                            add    %al,(%eax)
                            CODE:00401a54 00 00                            add    %al,(%eax)
                            CODE:00401a56 00 00                            add    %al,(%eax)
                            CODE:00401a58 00 00                            add    %al,(%eax)
                            CODE:00401a5a 00 00                            add    %al,(%eax)
                            CODE:00401a5c 00 00                            add    %al,(%eax)
                            CODE:00401a5e 00 00                            add    %al,(%eax)
                            CODE:00401a60 00 00                            add    %al,(%eax)
                            CODE:00401a62 00 00                            add    %al,(%eax)
                            CODE:00401a64 00 00                            add    %al,(%eax)
                            CODE:00401a66 00 00                            add    %al,(%eax)
                            CODE:00401a68 00 00                            add    %al,(%eax)
                            CODE:00401a6a 00 00                            add    %al,(%eax)
                            CODE:00401a6c 00 00                            add    %al,(%eax)
                            CODE:00401a6e 00 00                            add    %al,(%eax)
                            CODE:00401a70 00 00                            add    %al,(%eax)
                            CODE:00401a72 00 00                            add    %al,(%eax)
                            CODE:00401a74 00 00                            add    %al,(%eax)
                            CODE:00401a76 00 00                            add    %al,(%eax)
                            CODE:00401a78 00 00                            add    %al,(%eax)
                            CODE:00401a7a 00 00                            add    %al,(%eax)
                            CODE:00401a7c 00 00                            add    %al,(%eax)
                            CODE:00401a7e 00 00                            add    %al,(%eax)
                            CODE:00401a80 00 00                            add    %al,(%eax)
                            CODE:00401a82 00 00                            add    %al,(%eax)
                            CODE:00401a84 00 00                            add    %al,(%eax)
                            CODE:00401a86 00 00                            add    %al,(%eax)
                            CODE:00401a88 00 00                            add    %al,(%eax)
                            CODE:00401a8a 00 00                            add    %al,(%eax)
                            CODE:00401a8c 00 00                            add    %al,(%eax)
                            CODE:00401a8e 00 00                            add    %al,(%eax)
                            CODE:00401a90 00 00                            add    %al,(%eax)
                            CODE:00401a92 00 00                            add    %al,(%eax)
                            CODE:00401a94 00 00                            add    %al,(%eax)
                            CODE:00401a96 00 00                            add    %al,(%eax)
                            CODE:00401a98 00 00                            add    %al,(%eax)
                            CODE:00401a9a 00 00                            add    %al,(%eax)
                            CODE:00401a9c 00 00                            add    %al,(%eax)
                            CODE:00401a9e 00 00                            add    %al,(%eax)
                            CODE:00401aa0 00 00                            add    %al,(%eax)
                            CODE:00401aa2 00 00                            add    %al,(%eax)
                            CODE:00401aa4 00 00                            add    %al,(%eax)
                            CODE:00401aa6 00 00                            add    %al,(%eax)
                            CODE:00401aa8 00 00                            add    %al,(%eax)
                            CODE:00401aaa 00 00                            add    %al,(%eax)
                            CODE:00401aac 00 00                            add    %al,(%eax)
                            CODE:00401aae 00 00                            add    %al,(%eax)
                            CODE:00401ab0 00 00                            add    %al,(%eax)
                            CODE:00401ab2 00 00                            add    %al,(%eax)
                            CODE:00401ab4 00 00                            add    %al,(%eax)
                            CODE:00401ab6 00 00                            add    %al,(%eax)
                            CODE:00401ab8 00 00                            add    %al,(%eax)
                            CODE:00401aba 00 00                            add    %al,(%eax)
                            CODE:00401abc 00 00                            add    %al,(%eax)
                            CODE:00401abe 00 00                            add    %al,(%eax)
                            CODE:00401ac0 00 00                            add    %al,(%eax)
                            CODE:00401ac2 00 00                            add    %al,(%eax)
                            CODE:00401ac4 00 00                            add    %al,(%eax)
                            CODE:00401ac6 00 00                            add    %al,(%eax)
                            CODE:00401ac8 00 00                            add    %al,(%eax)
                            CODE:00401aca 00 00                            add    %al,(%eax)
                            CODE:00401acc 00 00                            add    %al,(%eax)
                            CODE:00401ace 00 00                            add    %al,(%eax)
                            CODE:00401ad0 00 00                            add    %al,(%eax)
                            CODE:00401ad2 00 00                            add    %al,(%eax)
                            CODE:00401ad4 00 00                            add    %al,(%eax)
                            CODE:00401ad6 00 00                            add    %al,(%eax)
                            CODE:00401ad8 00 00                            add    %al,(%eax)
                            CODE:00401ada 00 00                            add    %al,(%eax)
                            CODE:00401adc 00 00                            add    %al,(%eax)
                            CODE:00401ade 00 00                            add    %al,(%eax)
                            CODE:00401ae0 00 00                            add    %al,(%eax)
                            CODE:00401ae2 00 00                            add    %al,(%eax)
                            CODE:00401ae4 00 00                            add    %al,(%eax)
                            CODE:00401ae6 00 00                            add    %al,(%eax)
                            CODE:00401ae8 00 00                            add    %al,(%eax)
                            CODE:00401aea 00 00                            add    %al,(%eax)
                            CODE:00401aec 00 00                            add    %al,(%eax)
                            CODE:00401aee 00 00                            add    %al,(%eax)
                            CODE:00401af0 00 00                            add    %al,(%eax)
                            CODE:00401af2 00 00                            add    %al,(%eax)
                            CODE:00401af4 00 00                            add    %al,(%eax)
                            CODE:00401af6 00 00                            add    %al,(%eax)
                            CODE:00401af8 00 00                            add    %al,(%eax)
                            CODE:00401afa 00 00                            add    %al,(%eax)
                            CODE:00401afc 00 00                            add    %al,(%eax)
                            CODE:00401afe 00 00                            add    %al,(%eax)
                            CODE:00401b00 00 00                            add    %al,(%eax)
                            CODE:00401b02 00 00                            add    %al,(%eax)
                            CODE:00401b04 00 00                            add    %al,(%eax)
                            CODE:00401b06 00 00                            add    %al,(%eax)
                            CODE:00401b08 00 00                            add    %al,(%eax)
                            CODE:00401b0a 00 00                            add    %al,(%eax)
                            CODE:00401b0c 00 00                            add    %al,(%eax)
                            CODE:00401b0e 00 00                            add    %al,(%eax)
                            CODE:00401b10 00 00                            add    %al,(%eax)
                            CODE:00401b12 00 00                            add    %al,(%eax)
                            CODE:00401b14 00 00                            add    %al,(%eax)
                            CODE:00401b16 00 00                            add    %al,(%eax)
                            CODE:00401b18 00 00                            add    %al,(%eax)
                            CODE:00401b1a 00 00                            add    %al,(%eax)
                            CODE:00401b1c 00 00                            add    %al,(%eax)
                            CODE:00401b1e 00 00                            add    %al,(%eax)
                            CODE:00401b20 00 00                            add    %al,(%eax)
                            CODE:00401b22 00 00                            add    %al,(%eax)
                            CODE:00401b24 00 00                            add    %al,(%eax)
                            CODE:00401b26 00 00                            add    %al,(%eax)
                            CODE:00401b28 00 00                            add    %al,(%eax)
                            CODE:00401b2a 00 00                            add    %al,(%eax)
                            CODE:00401b2c 00 00                            add    %al,(%eax)
                            CODE:00401b2e 00 00                            add    %al,(%eax)
                            CODE:00401b30 00 00                            add    %al,(%eax)
                            CODE:00401b32 00 00                            add    %al,(%eax)
                            CODE:00401b34 00 00                            add    %al,(%eax)
                            CODE:00401b36 00 00                            add    %al,(%eax)
                            CODE:00401b38 00 00                            add    %al,(%eax)
                            CODE:00401b3a 00 00                            add    %al,(%eax)
                            CODE:00401b3c 00 00                            add    %al,(%eax)
                            CODE:00401b3e 00 00                            add    %al,(%eax)
                            CODE:00401b40 00 00                            add    %al,(%eax)
                            CODE:00401b42 00 00                            add    %al,(%eax)
                            CODE:00401b44 00 00                            add    %al,(%eax)
                            CODE:00401b46 00 00                            add    %al,(%eax)
                            CODE:00401b48 00 00                            add    %al,(%eax)
                            CODE:00401b4a 00 00                            add    %al,(%eax)
                            CODE:00401b4c 00 00                            add    %al,(%eax)
                            CODE:00401b4e 00 00                            add    %al,(%eax)
                            CODE:00401b50 00 00                            add    %al,(%eax)
                            CODE:00401b52 00 00                            add    %al,(%eax)
                            CODE:00401b54 00 00                            add    %al,(%eax)
                            CODE:00401b56 00 00                            add    %al,(%eax)
                            CODE:00401b58 00 00                            add    %al,(%eax)
                            CODE:00401b5a 00 00                            add    %al,(%eax)
                            CODE:00401b5c 00 00                            add    %al,(%eax)
                            CODE:00401b5e 00 00                            add    %al,(%eax)
                            CODE:00401b60 00 00                            add    %al,(%eax)
                            CODE:00401b62 00 00                            add    %al,(%eax)
                            CODE:00401b64 00 00                            add    %al,(%eax)
                            CODE:00401b66 00 00                            add    %al,(%eax)
                            CODE:00401b68 00 00                            add    %al,(%eax)
                            CODE:00401b6a 00 00                            add    %al,(%eax)
                            CODE:00401b6c 00 00                            add    %al,(%eax)
                            CODE:00401b6e 00 00                            add    %al,(%eax)
                            CODE:00401b70 00 00                            add    %al,(%eax)
                            CODE:00401b72 00 00                            add    %al,(%eax)
                            CODE:00401b74 00 00                            add    %al,(%eax)
                            CODE:00401b76 00 00                            add    %al,(%eax)
                            CODE:00401b78 00 00                            add    %al,(%eax)
                            CODE:00401b7a 00 00                            add    %al,(%eax)
                            CODE:00401b7c 00 00                            add    %al,(%eax)
                            CODE:00401b7e 00 00                            add    %al,(%eax)
                            CODE:00401b80 00 00                            add    %al,(%eax)
                            CODE:00401b82 00 00                            add    %al,(%eax)
                            CODE:00401b84 00 00                            add    %al,(%eax)
                            CODE:00401b86 00 00                            add    %al,(%eax)
                            CODE:00401b88 00 00                            add    %al,(%eax)
                            CODE:00401b8a 00 00                            add    %al,(%eax)
                            CODE:00401b8c 00 00                            add    %al,(%eax)
                            CODE:00401b8e 00 00                            add    %al,(%eax)
                            CODE:00401b90 00 00                            add    %al,(%eax)
                            CODE:00401b92 00 00                            add    %al,(%eax)
                            CODE:00401b94 00 00                            add    %al,(%eax)
                            CODE:00401b96 00 00                            add    %al,(%eax)
                            CODE:00401b98 00 00                            add    %al,(%eax)
                            CODE:00401b9a 00 00                            add    %al,(%eax)
                            CODE:00401b9c 00 00                            add    %al,(%eax)
                            CODE:00401b9e 00 00                            add    %al,(%eax)
                            CODE:00401ba0 00 00                            add    %al,(%eax)
                            CODE:00401ba2 00 00                            add    %al,(%eax)
                            CODE:00401ba4 00 00                            add    %al,(%eax)
                            CODE:00401ba6 00 00                            add    %al,(%eax)
                            CODE:00401ba8 00 00                            add    %al,(%eax)
                            CODE:00401baa 00 00                            add    %al,(%eax)
                            CODE:00401bac 00 00                            add    %al,(%eax)
                            CODE:00401bae 00 00                            add    %al,(%eax)
                            CODE:00401bb0 00 00                            add    %al,(%eax)
                            CODE:00401bb2 00 00                            add    %al,(%eax)
                            CODE:00401bb4 00 00                            add    %al,(%eax)
                            CODE:00401bb6 00 00                            add    %al,(%eax)
                            CODE:00401bb8 00 00                            add    %al,(%eax)
                            CODE:00401bba 00 00                            add    %al,(%eax)
                            CODE:00401bbc 00 00                            add    %al,(%eax)
                            CODE:00401bbe 00 00                            add    %al,(%eax)
                            CODE:00401bc0 00 00                            add    %al,(%eax)
                            CODE:00401bc2 00 00                            add    %al,(%eax)
                            CODE:00401bc4 00 00                            add    %al,(%eax)
                            CODE:00401bc6 00 00                            add    %al,(%eax)
                            CODE:00401bc8 00 00                            add    %al,(%eax)
                            CODE:00401bca 00 00                            add    %al,(%eax)
                            CODE:00401bcc 00 00                            add    %al,(%eax)
                            CODE:00401bce 00 00                            add    %al,(%eax)
                            CODE:00401bd0 00 00                            add    %al,(%eax)
                            CODE:00401bd2 00 00                            add    %al,(%eax)
                            CODE:00401bd4 00 00                            add    %al,(%eax)
                            CODE:00401bd6 00 00                            add    %al,(%eax)
                            CODE:00401bd8 00 00                            add    %al,(%eax)
                            CODE:00401bda 00 00                            add    %al,(%eax)
                            CODE:00401bdc 00 00                            add    %al,(%eax)
                            CODE:00401bde 00 00                            add    %al,(%eax)
                            CODE:00401be0 00 00                            add    %al,(%eax)
                            CODE:00401be2 00 00                            add    %al,(%eax)
                            CODE:00401be4 00 00                            add    %al,(%eax)
                            CODE:00401be6 00 00                            add    %al,(%eax)
                            CODE:00401be8 00 00                            add    %al,(%eax)
                            CODE:00401bea 00 00                            add    %al,(%eax)
                            CODE:00401bec 00 00                            add    %al,(%eax)
                            CODE:00401bee 00 00                            add    %al,(%eax)
                            CODE:00401bf0 00 00                            add    %al,(%eax)
                            CODE:00401bf2 00 00                            add    %al,(%eax)
                            CODE:00401bf4 00 00                            add    %al,(%eax)
                            CODE:00401bf6 00 00                            add    %al,(%eax)
                            CODE:00401bf8 00 00                            add    %al,(%eax)
                            CODE:00401bfa 00 00                            add    %al,(%eax)
                            CODE:00401bfc 00 00                            add    %al,(%eax)
                            CODE:00401bfe 00 00                            add    %al,(%eax)
                            CODE:00401c00 00 00                            add    %al,(%eax)
                            CODE:00401c02 00 00                            add    %al,(%eax)
                            CODE:00401c04 00 00                            add    %al,(%eax)
                            CODE:00401c06 00 00                            add    %al,(%eax)
                            CODE:00401c08 00 00                            add    %al,(%eax)
                            CODE:00401c0a 00 00                            add    %al,(%eax)
                            CODE:00401c0c 00 00                            add    %al,(%eax)
                            CODE:00401c0e 00 00                            add    %al,(%eax)
                            CODE:00401c10 00 00                            add    %al,(%eax)
                            CODE:00401c12 00 00                            add    %al,(%eax)
                            CODE:00401c14 00 00                            add    %al,(%eax)
                            CODE:00401c16 00 00                            add    %al,(%eax)
                            CODE:00401c18 00 00                            add    %al,(%eax)
                            CODE:00401c1a 00 00                            add    %al,(%eax)
                            CODE:00401c1c 00 00                            add    %al,(%eax)
                            CODE:00401c1e 43                               inc    %ebx
                            CODE:00401c1f 3a 5c 44 41                      cmp    0x41(%esp,%eax,2),%bl
                            CODE:00401c23 57                               push   %edi
                            CODE:00401c24 00 00                            add    %al,(%eax)
                            CODE:00401c26 00 00                            add    %al,(%eax)
                            CODE:00401c28 00 00                            add    %al,(%eax)
                            CODE:00401c2a 00 00                            add    %al,(%eax)
                            CODE:00401c2c 00 00                            add    %al,(%eax)
                            CODE:00401c2e 00 00                            add    %al,(%eax)
                            CODE:00401c30 00 00                            add    %al,(%eax)
                            CODE:00401c32 00 00                            add    %al,(%eax)
                            CODE:00401c34 00 00                            add    %al,(%eax)
                            CODE:00401c36 00 00                            add    %al,(%eax)
                            CODE:00401c38 00 00                            add    %al,(%eax)
                            CODE:00401c3a 00 00                            add    %al,(%eax)
                            CODE:00401c3c 00 00                            add    %al,(%eax)
                            CODE:00401c3e 00 00                            add    %al,(%eax)
                            CODE:00401c40 00 00                            add    %al,(%eax)
                            CODE:00401c42 00 00                            add    %al,(%eax)
                            CODE:00401c44 00 00                            add    %al,(%eax)
                            CODE:00401c46 00 00                            add    %al,(%eax)
                            CODE:00401c48 00 00                            add    %al,(%eax)
                            CODE:00401c4a 00 00                            add    %al,(%eax)
                            CODE:00401c4c 00 00                            add    %al,(%eax)
                            CODE:00401c4e 00 00                            add    %al,(%eax)
                            CODE:00401c50 00 00                            add    %al,(%eax)
                            CODE:00401c52 00 00                            add    %al,(%eax)
                            CODE:00401c54 00 00                            add    %al,(%eax)
                            CODE:00401c56 00 00                            add    %al,(%eax)
                            CODE:00401c58 00 00                            add    %al,(%eax)
                            CODE:00401c5a 00 00                            add    %al,(%eax)
                            CODE:00401c5c 00 00                            add    %al,(%eax)
                            CODE:00401c5e 00 00                            add    %al,(%eax)
                            CODE:00401c60 00 00                            add    %al,(%eax)
                            CODE:00401c62 00 00                            add    %al,(%eax)
                            CODE:00401c64 00 00                            add    %al,(%eax)
                            CODE:00401c66 00 00                            add    %al,(%eax)
                            CODE:00401c68 00 00                            add    %al,(%eax)
                            CODE:00401c6a 00 00                            add    %al,(%eax)
                            CODE:00401c6c 00 00                            add    %al,(%eax)
                            CODE:00401c6e 00 00                            add    %al,(%eax)
                            CODE:00401c70 00 00                            add    %al,(%eax)
                            CODE:00401c72 00 00                            add    %al,(%eax)
                            CODE:00401c74 00 00                            add    %al,(%eax)
                            CODE:00401c76 00 00                            add    %al,(%eax)
                            CODE:00401c78 00 00                            add    %al,(%eax)
                            CODE:00401c7a 00 00                            add    %al,(%eax)
                            CODE:00401c7c 00 00                            add    %al,(%eax)
                            CODE:00401c7e 00 00                            add    %al,(%eax)
                            CODE:00401c80 00 00                            add    %al,(%eax)
                            CODE:00401c82 00 00                            add    %al,(%eax)
                            CODE:00401c84 00 00                            add    %al,(%eax)
                            CODE:00401c86 00 00                            add    %al,(%eax)
                            CODE:00401c88 00 00                            add    %al,(%eax)
                            CODE:00401c8a 00 00                            add    %al,(%eax)
                            CODE:00401c8c 00 00                            add    %al,(%eax)
                            CODE:00401c8e 00 00                            add    %al,(%eax)
                            CODE:00401c90 00 00                            add    %al,(%eax)
                            CODE:00401c92 00 00                            add    %al,(%eax)
                            CODE:00401c94 00 00                            add    %al,(%eax)
                            CODE:00401c96 00 00                            add    %al,(%eax)
                            CODE:00401c98 00 00                            add    %al,(%eax)
                            CODE:00401c9a 00 00                            add    %al,(%eax)
                            CODE:00401c9c 00 00                            add    %al,(%eax)
                            CODE:00401c9e 00 00                            add    %al,(%eax)
                            CODE:00401ca0 00 00                            add    %al,(%eax)
                            CODE:00401ca2 00 00                            add    %al,(%eax)
                            CODE:00401ca4 00 00                            add    %al,(%eax)
                            CODE:00401ca6 00 00                            add    %al,(%eax)
                            CODE:00401ca8 00 00                            add    %al,(%eax)
                            CODE:00401caa 00 00                            add    %al,(%eax)
                            CODE:00401cac 00 00                            add    %al,(%eax)
                            CODE:00401cae 00 00                            add    %al,(%eax)
                            CODE:00401cb0 00 00                            add    %al,(%eax)
                            CODE:00401cb2 00 00                            add    %al,(%eax)
                            CODE:00401cb4 00 00                            add    %al,(%eax)
                            CODE:00401cb6 00 00                            add    %al,(%eax)
                            CODE:00401cb8 00 00                            add    %al,(%eax)
                            CODE:00401cba 00 00                            add    %al,(%eax)
                            CODE:00401cbc 00 00                            add    %al,(%eax)
                            CODE:00401cbe 00 00                            add    %al,(%eax)
                            CODE:00401cc0 00 00                            add    %al,(%eax)
                            CODE:00401cc2 00 00                            add    %al,(%eax)
                            CODE:00401cc4 00 00                            add    %al,(%eax)
                            CODE:00401cc6 00 00                            add    %al,(%eax)
                            CODE:00401cc8 00 00                            add    %al,(%eax)
                            CODE:00401cca 00 00                            add    %al,(%eax)
                            CODE:00401ccc 00 00                            add    %al,(%eax)
                            CODE:00401cce 00 00                            add    %al,(%eax)
                            CODE:00401cd0 00 00                            add    %al,(%eax)
                            CODE:00401cd2 00 00                            add    %al,(%eax)
                            CODE:00401cd4 00 00                            add    %al,(%eax)
                            CODE:00401cd6 00 00                            add    %al,(%eax)
                            CODE:00401cd8 00 00                            add    %al,(%eax)
                            CODE:00401cda 00 00                            add    %al,(%eax)
                            CODE:00401cdc 00 00                            add    %al,(%eax)
                            CODE:00401cde 00 00                            add    %al,(%eax)
                            CODE:00401ce0 00 00                            add    %al,(%eax)
                            CODE:00401ce2 00 00                            add    %al,(%eax)
                            CODE:00401ce4 00 00                            add    %al,(%eax)
                            CODE:00401ce6 00 00                            add    %al,(%eax)
                            CODE:00401ce8 00 00                            add    %al,(%eax)
                            CODE:00401cea 00 00                            add    %al,(%eax)
                            CODE:00401cec 00 00                            add    %al,(%eax)
                            CODE:00401cee 00 00                            add    %al,(%eax)
                            CODE:00401cf0 00 00                            add    %al,(%eax)
                            CODE:00401cf2 00 00                            add    %al,(%eax)
                            CODE:00401cf4 00 00                            add    %al,(%eax)
                            CODE:00401cf6 00 00                            add    %al,(%eax)
                            CODE:00401cf8 00 00                            add    %al,(%eax)
                            CODE:00401cfa 00 00                            add    %al,(%eax)
                            CODE:00401cfc 00 00                            add    %al,(%eax)
                            CODE:00401cfe 00 00                            add    %al,(%eax)
                            CODE:00401d00 00 00                            add    %al,(%eax)
                            CODE:00401d02 00 00                            add    %al,(%eax)
                            CODE:00401d04 00 00                            add    %al,(%eax)
                            CODE:00401d06 00 00                            add    %al,(%eax)
                            CODE:00401d08 00 00                            add    %al,(%eax)
                            CODE:00401d0a 00 00                            add    %al,(%eax)
                            CODE:00401d0c 00 00                            add    %al,(%eax)
                            CODE:00401d0e 00 00                            add    %al,(%eax)
                            CODE:00401d10 00 00                            add    %al,(%eax)
                            CODE:00401d12 00 00                            add    %al,(%eax)
                            CODE:00401d14 00 00                            add    %al,(%eax)
                            CODE:00401d16 00 00                            add    %al,(%eax)
                            CODE:00401d18 00 00                            add    %al,(%eax)
                            CODE:00401d1a 00 00                            add    %al,(%eax)
                            CODE:00401d1c 00 00                            add    %al,(%eax)
                            CODE:00401d1e 00 00                            add    %al,(%eax)
                            CODE:00401d20 00 00                            add    %al,(%eax)
                            CODE:00401d22 00 00                            add    %al,(%eax)
                            CODE:00401d24 00 00                            add    %al,(%eax)
                            CODE:00401d26 00 00                            add    %al,(%eax)
                            CODE:00401d28 00 00                            add    %al,(%eax)
                            CODE:00401d2a 00 00                            add    %al,(%eax)
                            CODE:00401d2c 00 00                            add    %al,(%eax)
                            CODE:00401d2e 00 00                            add    %al,(%eax)
                            CODE:00401d30 00 00                            add    %al,(%eax)
                            CODE:00401d32 00 00                            add    %al,(%eax)
                            CODE:00401d34 00 00                            add    %al,(%eax)
                            CODE:00401d36 00 00                            add    %al,(%eax)
                            CODE:00401d38 00 00                            add    %al,(%eax)
                            CODE:00401d3a 00 00                            add    %al,(%eax)
                            CODE:00401d3c 00 00                            add    %al,(%eax)
                            CODE:00401d3e 00 00                            add    %al,(%eax)
                            CODE:00401d40 00 00                            add    %al,(%eax)
                            CODE:00401d42 00 00                            add    %al,(%eax)
                            CODE:00401d44 00 00                            add    %al,(%eax)
                            CODE:00401d46 00 00                            add    %al,(%eax)
                            CODE:00401d48 00 00                            add    %al,(%eax)
                            CODE:00401d4a 00 00                            add    %al,(%eax)
                            CODE:00401d4c 00 00                            add    %al,(%eax)
                            CODE:00401d4e 00 00                            add    %al,(%eax)
                            CODE:00401d50 00 00                            add    %al,(%eax)
                            CODE:00401d52 00 00                            add    %al,(%eax)
                            CODE:00401d54 00 00                            add    %al,(%eax)
                            CODE:00401d56 00 00                            add    %al,(%eax)
                            CODE:00401d58 00 00                            add    %al,(%eax)
                            CODE:00401d5a 00 00                            add    %al,(%eax)
                            CODE:00401d5c 00 00                            add    %al,(%eax)
                            CODE:00401d5e 00 00                            add    %al,(%eax)
                            CODE:00401d60 00 00                            add    %al,(%eax)
                            CODE:00401d62 00 00                            add    %al,(%eax)
                            CODE:00401d64 00 00                            add    %al,(%eax)
                            CODE:00401d66 00 00                            add    %al,(%eax)
                            CODE:00401d68 00 00                            add    %al,(%eax)
                            CODE:00401d6a 00 00                            add    %al,(%eax)
                            CODE:00401d6c 00 00                            add    %al,(%eax)
                            CODE:00401d6e 00 00                            add    %al,(%eax)
                            CODE:00401d70 00 00                            add    %al,(%eax)
                            CODE:00401d72 00 00                            add    %al,(%eax)
                            CODE:00401d74 00 00                            add    %al,(%eax)
                            CODE:00401d76 00 00                            add    %al,(%eax)
                            CODE:00401d78 00 00                            add    %al,(%eax)
                            CODE:00401d7a 00 00                            add    %al,(%eax)
                            CODE:00401d7c 00 00                            add    %al,(%eax)
                            CODE:00401d7e 00 00                            add    %al,(%eax)
                            CODE:00401d80 00 00                            add    %al,(%eax)
                            CODE:00401d82 00 00                            add    %al,(%eax)
                            CODE:00401d84 00 00                            add    %al,(%eax)
                            CODE:00401d86 00 00                            add    %al,(%eax)
                            CODE:00401d88 00 00                            add    %al,(%eax)
                            CODE:00401d8a 00 00                            add    %al,(%eax)
                            CODE:00401d8c 00 00                            add    %al,(%eax)
                            CODE:00401d8e 00 00                            add    %al,(%eax)
                            CODE:00401d90 00 00                            add    %al,(%eax)
                            CODE:00401d92 00 00                            add    %al,(%eax)
                            CODE:00401d94 00 00                            add    %al,(%eax)
                            CODE:00401d96 00 00                            add    %al,(%eax)
                            CODE:00401d98 00 00                            add    %al,(%eax)
                            CODE:00401d9a 00 00                            add    %al,(%eax)
                            CODE:00401d9c 00 00                            add    %al,(%eax)
                            CODE:00401d9e 00 00                            add    %al,(%eax)
                            CODE:00401da0 00 00                            add    %al,(%eax)
                            CODE:00401da2 00 00                            add    %al,(%eax)
                            CODE:00401da4 00 00                            add    %al,(%eax)
                            CODE:00401da6 00 00                            add    %al,(%eax)
                            CODE:00401da8 00 00                            add    %al,(%eax)
                            CODE:00401daa 00 00                            add    %al,(%eax)
                            CODE:00401dac 00 00                            add    %al,(%eax)
                            CODE:00401dae 00 00                            add    %al,(%eax)
                            CODE:00401db0 00 00                            add    %al,(%eax)
                            CODE:00401db2 00 00                            add    %al,(%eax)
                            CODE:00401db4 00 00                            add    %al,(%eax)
                            CODE:00401db6 00 00                            add    %al,(%eax)
                            CODE:00401db8 00 00                            add    %al,(%eax)
                            CODE:00401dba 00 00                            add    %al,(%eax)
                            CODE:00401dbc 00 00                            add    %al,(%eax)
                            CODE:00401dbe 00 00                            add    %al,(%eax)
                            CODE:00401dc0 00 00                            add    %al,(%eax)
                            CODE:00401dc2 00 00                            add    %al,(%eax)
                            CODE:00401dc4 00 00                            add    %al,(%eax)
                            CODE:00401dc6 00 00                            add    %al,(%eax)
                            CODE:00401dc8 00 00                            add    %al,(%eax)
                            CODE:00401dca 00 00                            add    %al,(%eax)
                            CODE:00401dcc 00 00                            add    %al,(%eax)
                            CODE:00401dce 00 00                            add    %al,(%eax)
                            CODE:00401dd0 00 00                            add    %al,(%eax)
                            CODE:00401dd2 00 00                            add    %al,(%eax)
                            CODE:00401dd4 00 00                            add    %al,(%eax)
                            CODE:00401dd6 00 00                            add    %al,(%eax)
                            CODE:00401dd8 00 00                            add    %al,(%eax)
                            CODE:00401dda 00 00                            add    %al,(%eax)
                            CODE:00401ddc 00 00                            add    %al,(%eax)
                            CODE:00401dde 00 00                            add    %al,(%eax)
                            CODE:00401de0 00 00                            add    %al,(%eax)
                            CODE:00401de2 00 00                            add    %al,(%eax)
                            CODE:00401de4 00 00                            add    %al,(%eax)
                            CODE:00401de6 00 00                            add    %al,(%eax)
                            CODE:00401de8 00 00                            add    %al,(%eax)
                            CODE:00401dea 00 00                            add    %al,(%eax)
                            CODE:00401dec 00 00                            add    %al,(%eax)
                            CODE:00401dee 00 00                            add    %al,(%eax)
                            CODE:00401df0 00 00                            add    %al,(%eax)
                            CODE:00401df2 00 00                            add    %al,(%eax)
                            CODE:00401df4 00 00                            add    %al,(%eax)
                            CODE:00401df6 00 00                            add    %al,(%eax)
                            CODE:00401df8 00 00                            add    %al,(%eax)
                            CODE:00401dfa 00 00                            add    %al,(%eax)
                            CODE:00401dfc 00 00                            add    %al,(%eax)
                            CODE:00401dfe 00 00                            add    %al,(%eax)
