                           .text:00401000 c3                               ret    
                           .text:00401001 00 00                            add    %al,(%eax)
                           .text:00401003 00 00                            add    %al,(%eax)
                           .text:00401005 00 00                            add    %al,(%eax)
                           .text:00401007 00 00                            add    %al,(%eax)
                           .text:00401009 00 00                            add    %al,(%eax)
                           .text:0040100b 00 e1                            add    %ah,%cl
                           .text:0040100d 04 00                            add    $0x0,%al
                           .text:0040100f 00 55 8d                         add    %dl,-0x73(%ebp)
                           .text:00401012 44                               inc    %esp
                           .text:00401013 24 f8                            and    $0xf8,%al
                           .text:00401015 33 db                            xor    %ebx,%ebx
                           .text:00401017 64 87 03                         xchg   %eax,%fs:(%ebx)
                           .text:0040101a e8 00 00 00 00                   call   0x0040101f
                           .text:0040101f 5b                               pop    %ebx
                           .text:00401020 8d 4b 51                         lea    0x51(%ebx),%ecx
                           .text:00401023 90                               nop
                           .text:00401024 90                               nop
                           .text:00401025 90                               nop
                           .text:00401026 51                               push   %ecx
                           .text:00401027 50                               push   %eax
                           .text:00401028 50                               push   %eax
                           .text:00401029 0f 01 4c 24 fe                   sidtl  -0x2(%esp)
                           .text:0040102e 5b                               pop    %ebx
                           .text:0040102f 83 c3 34                         add    $0x34,%ebx
                           .text:00401032 fa                               cli    
                           .text:00401033 8b 2b                            mov    (%ebx),%ebp
                           .text:00401035 66 8b 6b fc                      mov    -0x4(%ebx),%bp
                           .text:00401039 8d 71 12                         lea    0x12(%ecx),%esi
                           .text:0040103c 90                               nop
                           .text:0040103d 90                               nop
                           .text:0040103e 90                               nop
                           .text:0040103f 56                               push   %esi
                           .text:00401040 66 89 73 fc                      mov    %si,-0x4(%ebx)
                           .text:00401044 c1 ee 10                         shr    $0x10,%esi
                           .text:00401047 66 89 73 02                      mov    %si,0x2(%ebx)
                           .text:0040104b 5e                               pop    %esi
                           .text:0040104c cd 06                            int    $0x6
                           .text:0040104e 56                               push   %esi
                           .text:0040104f 8b f0                            mov    %eax,%esi
                           .text:00401051 8b 48 fc                         mov    -0x4(%eax),%ecx
                           .text:00401054 f3 a4                            rep movsb %ds:(%esi),%es:(%edi)
                           .text:00401056 83 e8 08                         sub    $0x8,%eax
                           .text:00401059 8b 30                            mov    (%eax),%esi
                           .text:0040105b 0b f6                            or     %esi,%esi
                           .text:0040105d 74 06                            je     0x00401065
                           .text:0040105f 90                               nop
                           .text:00401060 90                               nop
                           .text:00401061 90                               nop
                           .text:00401062 90                               nop
                           .text:00401063 eb ec                            jmp    0x00401051
                           .text:00401065 5e                               pop    %esi
                           .text:00401066 cd 06                            int    $0x6
                           .text:00401068 fb                               sti    
                           .text:00401069 33 db                            xor    %ebx,%ebx
                           .text:0040106b eb 0a                            jmp    0x00401077
                           .text:0040106d 90                               nop
                           .text:0040106e 90                               nop
                           .text:0040106f 90                               nop
                           .text:00401070 33 db                            xor    %ebx,%ebx
                           .text:00401072 64 8b 03                         mov    %fs:(%ebx),%eax
                           .text:00401075 8b 20                            mov    (%eax),%esp
                           .text:00401077 64 8f 03                         popl   %fs:(%ebx)
                           .text:0040107a 58                               pop    %eax
                           .text:0040107b 5d                               pop    %ebp
                           .text:0040107c 68 00 10 40 00                   push   $0x401000
                           .text:00401081 c3                               ret    
                           .text:00401082 74 36                            je     0x004010ba
                           .text:00401084 90                               nop
                           .text:00401085 90                               nop
                           .text:00401086 90                               nop
                           .text:00401087 90                               nop
                           .text:00401088 0f 21 c1                         mov    %db0,%ecx
                           .text:0040108b e3 10                            jecxz  0x0040109d
                           .text:0040108d 83 04 24 1a                      addl   $0x1a,(%esp)
                           .text:00401091 66 89 6b fc                      mov    %bp,-0x4(%ebx)
                           .text:00401095 c1 ed 10                         shr    $0x10,%ebp
                           .text:00401098 66 89 6b 02                      mov    %bp,0x2(%ebx)
                           .text:0040109c cf                               iret   
                           .text:0040109d 0f 23 c3                         mov    %ebx,%db0
                           .text:004010a0 6a 0f                            push   $0xf
                           .text:004010a2 51                               push   %ecx
                           .text:004010a3 6a ff                            push   $0xffffffff
                           .text:004010a5 51                               push   %ecx
                           .text:004010a6 51                               push   %ecx
                           .text:004010a7 51                               push   %ecx
                           .text:004010a8 6a 01                            push   $0x1
                           .text:004010aa 6a 02                            push   $0x2
                           .text:004010ac cd 20                            int    $0x20
                           .text:004010ae 53                               push   %ebx
                           .text:004010af 00 01                            add    %al,(%ecx)
                           .text:004010b1 00 83 c4 20 97 8d                add    %al,-0x7268df3c(%ebx)
                           .text:004010b7 46                               inc    %esi
                           .text:004010b8 8e cf                            mov    %edi,%cs
                           .text:004010ba 8d 87 23 fc ff ff                lea    -0x3dd(%edi),%eax
                           .text:004010c0 50                               push   %eax
                           .text:004010c1 cd 20                            int    $0x20
                           .text:004010c3 67 00 40 00                      add    %al,0x0(%bx,%si)
                           .text:004010c7 0f 23 c0                         mov    %eax,%db0
                           .text:004010ca 58                               pop    %eax
                           .text:004010cb 8b 4e 41                         mov    0x41(%esi),%ecx
                           .text:004010ce 8b 11                            mov    (%ecx),%edx
                           .text:004010d0 89 50 fc                         mov    %edx,-0x4(%eax)
                           .text:004010d3 90                               nop
                           .text:004010d4 90                               nop
                           .text:004010d5 90                               nop
                           .text:004010d6 8d 40 cd                         lea    -0x33(%eax),%eax
                           .text:004010d9 90                               nop
                           .text:004010da 90                               nop
                           .text:004010db 90                               nop
                           .text:004010dc 89 01                            mov    %eax,(%ecx)
                           .text:004010de fa                               cli    
                           .text:004010df eb b0                            jmp    0x00401091
                           .text:004010e1 53                               push   %ebx
                           .text:004010e2 e8 00 00 00 00                   call   0x004010e7
                           .text:004010e7 5b                               pop    %ebx
                           .text:004010e8 83 c3 2d                         add    $0x2d,%ebx
                           .text:004010eb 90                               nop
                           .text:004010ec 90                               nop
                           .text:004010ed 90                               nop
                           .text:004010ee 53                               push   %ebx
                           .text:004010ef cd 20                            int    $0x20
                           .text:004010f1 68 00 40 00 58                   push   $0x58004000
                           .text:004010f6 ff 74 24 08                      pushl  0x8(%esp)
                           .text:004010fa ff 53 fc                         call   *-0x4(%ebx)
                           .text:004010fd 90                               nop
                           .text:004010fe 90                               nop
                           .text:004010ff 90                               nop
                           .text:00401100 59                               pop    %ecx
                           .text:00401101 50                               push   %eax
                           .text:00401102 53                               push   %ebx
                           .text:00401103 ff 53 fc                         call   *-0x4(%ebx)
                           .text:00401106 90                               nop
                           .text:00401107 90                               nop
                           .text:00401108 90                               nop
                           .text:00401109 59                               pop    %ecx
                           .text:0040110a 0f 23 c0                         mov    %eax,%db0
                           .text:0040110d 58                               pop    %eax
                           .text:0040110e 5b                               pop    %ebx
                           .text:0040110f c3                               ret    
                           .text:00401110 00 00                            add    %al,(%eax)
                           .text:00401112 00 00                            add    %al,(%eax)
                           .text:00401114 60                               pusha  
                           .text:00401115 e8 00 00 00 00                   call   0x0040111a
                           .text:0040111a 5e                               pop    %esi
                           .text:0040111b 81 c6 d7 03 00 00                add    $0x3d7,%esi
                           .text:00401121 f6 06 01                         testb  $0x1,(%esi)
                           .text:00401124 90                               nop
                           .text:00401125 90                               nop
                           .text:00401126 90                               nop
                           .text:00401127 90                               nop
                           .text:00401128 0f 85 9e 02 00 00                jne    0x004013cc
                           .text:0040112e 8d 5c 24 28                      lea    0x28(%esp),%ebx
                           .text:00401132 83 3b 24                         cmpl   $0x24,(%ebx)
                           .text:00401135 0f 85 8b 02 00 00                jne    0x004013c6
                           .text:0040113b fe 06                            incb   (%esi)
                           .text:0040113d 90                               nop
                           .text:0040113e 90                               nop
                           .text:0040113f 90                               nop
                           .text:00401140 90                               nop
                           .text:00401141 83 c6 05                         add    $0x5,%esi
                           .text:00401144 90                               nop
                           .text:00401145 90                               nop
                           .text:00401146 90                               nop
                           .text:00401147 56                               push   %esi
                           .text:00401148 8a 43 04                         mov    0x4(%ebx),%al
                           .text:0040114b 3c ff                            cmp    $0xff,%al
                           .text:0040114d 74 0c                            je     0x0040115b
                           .text:0040114f 90                               nop
                           .text:00401150 90                               nop
                           .text:00401151 90                               nop
                           .text:00401152 90                               nop
                           .text:00401153 04 40                            add    $0x40,%al
                           .text:00401155 b4 3a                            mov    $0x3a,%ah
                           .text:00401157 89 06                            mov    %eax,(%esi)
                           .text:00401159 46                               inc    %esi
                           .text:0040115a 46                               inc    %esi
                           .text:0040115b 6a 00                            push   $0x0
                           .text:0040115d 6a 7f                            push   $0x7f
                           .text:0040115f 8b 5b 10                         mov    0x10(%ebx),%ebx
                           .text:00401162 8b 43 0c                         mov    0xc(%ebx),%eax
                           .text:00401165 83 c0 04                         add    $0x4,%eax
                           .text:00401168 50                               push   %eax
                           .text:00401169 56                               push   %esi
                           .text:0040116a cd 20                            int    $0x20
                           .text:0040116c 41                               inc    %ecx
                           .text:0040116d 00 40 00                         add    %al,0x0(%eax)
                           .text:00401170 83 c4 10                         add    $0x10,%esp
                           .text:00401173 81 7c 06 fc 2e 45 58 45          cmpl   $0x4558452e,-0x4(%esi,%eax,1)
                           .text:0040117b 5e                               pop    %esi
                           .text:0040117c 0f 85 3e 02 00 00                jne    0x004013c0
                           .text:00401182 81 7c 06 fa 46 55 43 4b          cmpl   $0x4b435546,-0x6(%esi,%eax,1)
                           .text:0040118a 0f 85 30 02 00 00                jne    0x004013c0
                           .text:00401190 66 83 7b 18 01                   cmpw   $0x1,0x18(%ebx)
                           .text:00401195 0f 85 25 02 00 00                jne    0x004013c0
                           .text:0040119b 66 b8 00 43                      mov    $0x4300,%ax
                           .text:0040119f cd 20                            int    $0x20
                           .text:004011a1 32 00                            xor    (%eax),%al
                           .text:004011a3 40                               inc    %eax
                           .text:004011a4 00 0f                            add    %cl,(%edi)
                           .text:004011a6 82                               (bad)  
                           .text:004011a7 15 02 00 00 51                   adc    $0x51000002,%eax
                           .text:004011ac 8b be ab fc ff ff                mov    -0x355(%esi),%edi
                           .text:004011b2 8b 3f                            mov    (%edi),%edi
                           .text:004011b4 f6 c1 01                         test   $0x1,%cl
                           .text:004011b7 74 0c                            je     0x004011c5
                           .text:004011b9 90                               nop
                           .text:004011ba 90                               nop
                           .text:004011bb 90                               nop
                           .text:004011bc 90                               nop
                           .text:004011bd 66 b8 01 43                      mov    $0x4301,%ax
                           .text:004011c1 33 c9                            xor    %ecx,%ecx
                           .text:004011c3 ff d7                            call   *%edi
                           .text:004011c5 33 c0                            xor    %eax,%eax
                           .text:004011c7 b4 d5                            mov    $0xd5,%ah
                           .text:004011c9 33 c9                            xor    %ecx,%ecx
                           .text:004011cb 33 d2                            xor    %edx,%edx
                           .text:004011cd 42                               inc    %edx
                           .text:004011ce 8b da                            mov    %edx,%ebx
                           .text:004011d0 43                               inc    %ebx
                           .text:004011d1 ff d7                            call   *%edi
                           .text:004011d3 93                               xchg   %eax,%ebx
                           .text:004011d4 59                               pop    %ecx
                           .text:004011d5 9c                               pushf  
                           .text:004011d6 f6 c1 01                         test   $0x1,%cl
                           .text:004011d9 74 0a                            je     0x004011e5
                           .text:004011db 90                               nop
                           .text:004011dc 90                               nop
                           .text:004011dd 90                               nop
                           .text:004011de 90                               nop
                           .text:004011df 66 b8 01 43                      mov    $0x4301,%ax
                           .text:004011e3 ff d7                            call   *%edi
                           .text:004011e5 9d                               popf   
                           .text:004011e6 0f 82 d4 01 00 00                jb     0x004013c0
                           .text:004011ec 56                               push   %esi
                           .text:004011ed 9c                               pushf  
                           .text:004011ee 83 c6 7f                         add    $0x7f,%esi
                           .text:004011f1 90                               nop
                           .text:004011f2 90                               nop
                           .text:004011f3 90                               nop
                           .text:004011f4 33 c0                            xor    %eax,%eax
                           .text:004011f6 b4 d6                            mov    $0xd6,%ah
                           .text:004011f8 8b e8                            mov    %eax,%ebp
                           .text:004011fa 6a 04                            push   $0x4
                           .text:004011fc 59                               pop    %ecx
                           .text:004011fd 6a 3c                            push   $0x3c
                           .text:004011ff 5a                               pop    %edx
                           .text:00401200 ff d7                            call   *%edi
                           .text:00401202 8b 16                            mov    (%esi),%edx
                           .text:00401204 4a                               dec    %edx
                           .text:00401205 8b c5                            mov    %ebp,%eax
                           .text:00401207 ff d7                            call   *%edi
                           .text:00401209 81 3e 00 50 45 00                cmpl   $0x455000,(%esi)
                           .text:0040120f 0f 85 89 01 00 00                jne    0x0040139e
                           .text:00401215 53                               push   %ebx
                           .text:00401216 6a 00                            push   $0x0
                           .text:00401218 6a 01                            push   $0x1
                           .text:0040121a 52                               push   %edx
                           .text:0040121b 57                               push   %edi
                           .text:0040121c 0f 23 cc                         mov    %esp,%db1
                           .text:0040121f 50                               push   %eax
                           .text:00401220 8b c5                            mov    %ebp,%eax
                           .text:00401222 b1 52                            mov    $0x52,%cl
                           .text:00401224 90                               nop
                           .text:00401225 90                               nop
                           .text:00401226 90                               nop
                           .text:00401227 90                               nop
                           .text:00401228 83 c2 07                         add    $0x7,%edx
                           .text:0040122b ff d7                            call   *%edi
                           .text:0040122d 8d 42 22                         lea    0x22(%edx),%eax
                           .text:00401230 90                               nop
                           .text:00401231 90                               nop
                           .text:00401232 90                               nop
                           .text:00401233 50                               push   %eax
                           .text:00401234 8d 06                            lea    (%esi),%eax
                           .text:00401236 90                               nop
                           .text:00401237 90                               nop
                           .text:00401238 90                               nop
                           .text:00401239 90                               nop
                           .text:0040123a 50                               push   %eax
                           .text:0040123b 0f b7 46 0e                      movzwl 0xe(%esi),%eax
                           .text:0040123f 90                               nop
                           .text:00401240 90                               nop
                           .text:00401241 90                               nop
                           .text:00401242 8d 54 10 12                      lea    0x12(%eax,%edx,1),%edx
                           .text:00401246 b0 28                            mov    $0x28,%al
                           .text:00401248 90                               nop
                           .text:00401249 90                               nop
                           .text:0040124a 90                               nop
                           .text:0040124b 8a 0e                            mov    (%esi),%cl
                           .text:0040124d 90                               nop
                           .text:0040124e 90                               nop
                           .text:0040124f 90                               nop
                           .text:00401250 90                               nop
                           .text:00401251 f6 e1                            mul    %cl
                           .text:00401253 8d 76 32                         lea    0x32(%esi),%esi
                           .text:00401256 90                               nop
                           .text:00401257 90                               nop
                           .text:00401258 90                               nop
                           .text:00401259 50                               push   %eax
                           .text:0040125a 52                               push   %edx
                           .text:0040125b 56                               push   %esi
                           .text:0040125c 41                               inc    %ecx
                           .text:0040125d 51                               push   %ecx
                           .text:0040125e c1 e1 03                         shl    $0x3,%ecx
                           .text:00401261 51                               push   %ecx
                           .text:00401262 03 c8                            add    %eax,%ecx
                           .text:00401264 03 ca                            add    %edx,%ecx
                           .text:00401266 2b 4e 1c                         sub    0x1c(%esi),%ecx
                           .text:00401269 90                               nop
                           .text:0040126a 90                               nop
                           .text:0040126b 90                               nop
                           .text:0040126c f7 d1                            not    %ecx
                           .text:0040126e 41                               inc    %ecx
                           .text:0040126f 51                               push   %ecx
                           .text:00401270 91                               xchg   %eax,%ecx
                           .text:00401271 8b 46 f0                         mov    -0x10(%esi),%eax
                           .text:00401274 90                               nop
                           .text:00401275 90                               nop
                           .text:00401276 90                               nop
                           .text:00401277 03 46 fc                         add    -0x4(%esi),%eax
                           .text:0040127a 90                               nop
                           .text:0040127b 90                               nop
                           .text:0040127c 90                               nop
                           .text:0040127d 89 86 d6 fa ff ff                mov    %eax,-0x52a(%esi)
                           .text:00401283 66 81 3c 24 d1 00                cmpw   $0xd1,(%esp)
                           .text:00401289 0f 8c b1 00 00 00                jl     0x00401340
                           .text:0040128f 8b c5                            mov    %ebp,%eax
                           .text:00401291 ff d7                            call   *%edi
                           .text:00401293 95                               xchg   %eax,%ebp
                           .text:00401294 6a 04                            push   $0x4
                           .text:00401296 59                               pop    %ecx
                           .text:00401297 52                               push   %edx
                           .text:00401298 8b 56 3c                         mov    0x3c(%esi),%edx
                           .text:0040129b 90                               nop
                           .text:0040129c 90                               nop
                           .text:0040129d 90                               nop
                           .text:0040129e 83 c2 12                         add    $0x12,%edx
                           .text:004012a1 ff d7                            call   *%edi
                           .text:004012a3 81 3e 57 69 6e 5a                cmpl   $0x5a6e6957,(%esi)
                           .text:004012a9 0f 84 99 00 00 00                je     0x00401348
                           .text:004012af 5a                               pop    %edx
                           .text:004012b0 5b                               pop    %ebx
                           .text:004012b1 5f                               pop    %edi
                           .text:004012b2 59                               pop    %ecx
                           .text:004012b3 57                               push   %edi
                           .text:004012b4 03 d5                            add    %ebp,%edx
                           .text:004012b6 52                               push   %edx
                           .text:004012b7 03 ee                            add    %esi,%ebp
                           .text:004012b9 55                               push   %ebp
                           .text:004012ba 8d 44 3d fc                      lea    -0x4(%ebp,%edi,1),%eax
                           .text:004012be 89 18                            mov    %ebx,(%eax)
                           .text:004012c0 53                               push   %ebx
                           .text:004012c1 03 d7                            add    %edi,%edx
                           .text:004012c3 52                               push   %edx
                           .text:004012c4 8d be 69 fa ff ff                lea    -0x597(%esi),%edi
                           .text:004012ca 57                               push   %edi
                           .text:004012cb 89 56 ce                         mov    %edx,-0x32(%esi)
                           .text:004012ce 90                               nop
                           .text:004012cf 90                               nop
                           .text:004012d0 90                               nop
                           .text:004012d1 8d 56 d8                         lea    -0x28(%esi),%edx
                           .text:004012d4 90                               nop
                           .text:004012d5 90                               nop
                           .text:004012d6 90                               nop
                           .text:004012d7 bd e1 04 00 00                   mov    $0x4e1,%ebp
                           .text:004012dc eb 56                            jmp    0x00401334
                           .text:004012de 90                               nop
                           .text:004012df 90                               nop
                           .text:004012e0 90                               nop
                           .text:004012e1 83 c2 28                         add    $0x28,%edx
                           .text:004012e4 90                               nop
                           .text:004012e5 90                               nop
                           .text:004012e6 90                               nop
                           .text:004012e7 8b 5a 10                         mov    0x10(%edx),%ebx
                           .text:004012ea 90                               nop
                           .text:004012eb 90                               nop
                           .text:004012ec 90                               nop
                           .text:004012ed 2b 5a 08                         sub    0x8(%edx),%ebx
                           .text:004012f0 90                               nop
                           .text:004012f1 90                               nop
                           .text:004012f2 90                               nop
                           .text:004012f3 76 49                            jbe    0x0040133e
                           .text:004012f5 90                               nop
                           .text:004012f6 90                               nop
                           .text:004012f7 90                               nop
                           .text:004012f8 90                               nop
                           .text:004012f9 53                               push   %ebx
                           .text:004012fa 83 e8 08                         sub    $0x8,%eax
                           .text:004012fd 89 18                            mov    %ebx,(%eax)
                           .text:004012ff 8b 5a 14                         mov    0x14(%edx),%ebx
                           .text:00401302 90                               nop
                           .text:00401303 90                               nop
                           .text:00401304 90                               nop
                           .text:00401305 03 5a 08                         add    0x8(%edx),%ebx
                           .text:00401308 90                               nop
                           .text:00401309 90                               nop
                           .text:0040130a 90                               nop
                           .text:0040130b 53                               push   %ebx
                           .text:0040130c 57                               push   %edi
                           .text:0040130d 8b 5a 08                         mov    0x8(%edx),%ebx
                           .text:00401310 90                               nop
                           .text:00401311 90                               nop
                           .text:00401312 90                               nop
                           .text:00401313 03 5a 0c                         add    0xc(%edx),%ebx
                           .text:00401316 90                               nop
                           .text:00401317 90                               nop
                           .text:00401318 90                               nop
                           .text:00401319 03 5e fc                         add    -0x4(%esi),%ebx
                           .text:0040131c 90                               nop
                           .text:0040131d 90                               nop
                           .text:0040131e 90                               nop
                           .text:0040131f 89 58 04                         mov    %ebx,0x4(%eax)
                           .text:00401322 8b 18                            mov    (%eax),%ebx
                           .text:00401324 01 5a 08                         add    %ebx,0x8(%edx)
                           .text:00401327 90                               nop
                           .text:00401328 90                               nop
                           .text:00401329 90                               nop
                           .text:0040132a 81 4a 24 40 00 00 40             orl    $0x40000040,0x24(%edx)
                           .text:00401331 90                               nop
                           .text:00401332 90                               nop
                           .text:00401333 90                               nop
                           .text:00401334 2b eb                            sub    %ebx,%ebp
                           .text:00401336 76 18                            jbe    0x00401350
                           .text:00401338 90                               nop
                           .text:00401339 90                               nop
                           .text:0040133a 90                               nop
                           .text:0040133b 90                               nop
                           .text:0040133c 03 fb                            add    %ebx,%edi
                           .text:0040133e e2 a1                            loop   0x004012e1
                           .text:00401340 0f 21 cc                         mov    %db1,%esp
                           .text:00401343 eb 3d                            jmp    0x00401382
                           .text:00401345 90                               nop
                           .text:00401346 90                               nop
                           .text:00401347 90                               nop
                           .text:00401348 83 c4 3c                         add    $0x3c,%esp
                           .text:0040134b eb 51                            jmp    0x0040139e
                           .text:0040134d 90                               nop
                           .text:0040134e 90                               nop
                           .text:0040134f 90                               nop
                           .text:00401350 01 28                            add    %ebp,(%eax)
                           .text:00401352 01 6c 24 08                      add    %ebp,0x8(%esp)
                           .text:00401356 33 db                            xor    %ebx,%ebx
                           .text:00401358 89 58 fc                         mov    %ebx,-0x4(%eax)
                           .text:0040135b 8d 86 f8 fb ff ff                lea    -0x408(%esi),%eax
                           .text:00401361 b1 04                            mov    $0x4,%cl
                           .text:00401363 90                               nop
                           .text:00401364 90                               nop
                           .text:00401365 90                               nop
                           .text:00401366 90                               nop
                           .text:00401367 66 c7 00 cd 20                   movw   $0x20cd,(%eax)
                           .text:0040136c 8b 94 8e 14 ff ff ff             mov    -0xec(%esi,%ecx,4),%edx
                           .text:00401373 89 50 02                         mov    %edx,0x2(%eax)
                           .text:00401376 0f b6 94 31 13 ff ff ff          movzbl -0xed(%ecx,%esi,1),%edx
                           .text:0040137e 2b c2                            sub    %edx,%eax
                           .text:00401380 e2 e5                            loop   0x00401367
                           .text:00401382 0f 21 c8                         mov    %db1,%eax
                           .text:00401385 8b 58 10                         mov    0x10(%eax),%ebx
                           .text:00401388 8b 38                            mov    (%eax),%edi
                           .text:0040138a 59                               pop    %ecx
                           .text:0040138b e3 0d                            jecxz  0x0040139a
                           .text:0040138d 8b f1                            mov    %ecx,%esi
                           .text:0040138f b8 01 d6 00 00                   mov    $0xd601,%eax
                           .text:00401394 5a                               pop    %edx
                           .text:00401395 59                               pop    %ecx
                           .text:00401396 ff d7                            call   *%edi
                           .text:00401398 eb f0                            jmp    0x0040138a
                           .text:0040139a 5b                               pop    %ebx
                           .text:0040139b 58                               pop    %eax
                           .text:0040139c f9                               stc    
                           .text:0040139d 9c                               pushf  
                           .text:0040139e 33 c0                            xor    %eax,%eax
                           .text:004013a0 b4 d7                            mov    $0xd7,%ah
                           .text:004013a2 ff d7                            call   *%edi
                           .text:004013a4 9d                               popf   
                           .text:004013a5 5e                               pop    %esi
                           .text:004013a6 73 45                            jae    0x004013ed
                           .text:004013a8 90                               nop
                           .text:004013a9 90                               nop
                           .text:004013aa 90                               nop
                           .text:004013ab 90                               nop
                           .text:004013ac 8b df                            mov    %edi,%ebx
                           .text:004013ae 66 b8 03 43                      mov    $0x4303,%ax
                           .text:004013b2 8b 4e fc                         mov    -0x4(%esi),%ecx
                           .text:004013b5 90                               nop
                           .text:004013b6 90                               nop
                           .text:004013b7 90                               nop
                           .text:004013b8 8b 7e fe                         mov    -0x2(%esi),%edi
                           .text:004013bb 90                               nop
                           .text:004013bc 90                               nop
                           .text:004013bd 90                               nop
                           .text:004013be ff d3                            call   *%ebx
                           .text:004013c0 fe 4e fb                         decb   -0x5(%esi)
                           .text:004013c3 90                               nop
                           .text:004013c4 90                               nop
                           .text:004013c5 90                               nop
                           .text:004013c6 61                               popa   
                           .text:004013c7 0f 21 c0                         mov    %db0,%eax
                           .text:004013ca ff 20                            jmp    *(%eax)
                           .text:004013cc 8b dc                            mov    %esp,%ebx
                           .text:004013ce ff 73 38                         pushl  0x38(%ebx)
                           .text:004013d1 ff 53 24                         call   *0x24(%ebx)
                           .text:004013d4 59                               pop    %ecx
                           .text:004013d5 89 43 1c                         mov    %eax,0x1c(%ebx)
                           .text:004013d8 83 7b 28 24                      cmpl   $0x24,0x28(%ebx)
                           .text:004013dc 75 0d                            jne    0x004013eb
                           .text:004013de 90                               nop
                           .text:004013df 90                               nop
                           .text:004013e0 90                               nop
                           .text:004013e1 90                               nop
                           .text:004013e2 8b 41 28                         mov    0x28(%ecx),%eax
                           .text:004013e5 89 46 01                         mov    %eax,0x1(%esi)
                           .text:004013e8 90                               nop
                           .text:004013e9 90                               nop
                           .text:004013ea 90                               nop
                           .text:004013eb 61                               popa   
                           .text:004013ec c3                               ret    
                           .text:004013ed b0 07                            mov    $0x7,%al
                           .text:004013ef e6 70                            out    %al,$0x70
                           .text:004013f1 e4 71                            in     $0x71,%al
                           .text:004013f3 34 01                            xor    $0x1,%al
                           .text:004013f5 eb c9                            jmp    0x004013c0
                           .text:004013f7 66 bd f8 0c                      mov    $0xcf8,%bp
                           .text:004013fb 8d 76 b2                         lea    -0x4e(%esi),%esi
                           .text:004013fe 90                               nop
                           .text:004013ff 90                               nop
                           .text:00401400 90                               nop
                           .text:00401401 bf 4c 38 00 80                   mov    $0x8000384c,%edi
                           .text:00401406 66 ba fe 0c                      mov    $0xcfe,%dx
                           .text:0040140a fa                               cli    
                           .text:0040140b ff d6                            call   *%esi
                           .text:0040140d 66 bf 58 00                      mov    $0x58,%di
                           .text:00401411 4a                               dec    %edx
                           .text:00401412 66 c7 46 08 24 0f                movw   $0xf24,0x8(%esi)
                           .text:00401418 90                               nop
                           .text:00401419 90                               nop
                           .text:0040141a 90                               nop
                           .text:0040141b ff d6                            call   *%esi
                           .text:0040141d 8d 5e f4                         lea    -0xc(%esi),%ebx
                           .text:00401420 90                               nop
                           .text:00401421 90                               nop
                           .text:00401422 90                               nop
                           .text:00401423 b8 55 55 0e 00                   mov    $0xe5555,%eax
                           .text:00401428 b9 aa 2a 0e 00                   mov    $0xe2aaa,%ecx
                           .text:0040142d ff d3                            call   *%ebx
                           .text:0040142f c6 00 60                         movb   $0x60,(%eax)
                           .text:00401432 51                               push   %ecx
                           .text:00401433 e2 fe                            loop   0x00401433
                           .text:00401435 32 e4                            xor    %ah,%ah
                           .text:00401437 88 00                            mov    %al,(%eax)
                           .text:00401439 91                               xchg   %eax,%ecx
                           .text:0040143a e2 fe                            loop   0x0040143a
                           .text:0040143c b8 55 55 0f 00                   mov    $0xf5555,%eax
                           .text:00401441 59                               pop    %ecx
                           .text:00401442 b5 aa                            mov    $0xaa,%ch
                           .text:00401444 ff d3                            call   *%ebx
                           .text:00401446 c6 00 20                         movb   $0x20,(%eax)
                           .text:00401449 e2 fe                            loop   0x00401449
                           .text:0040144b b4 e0                            mov    $0xe0,%ah
                           .text:0040144d 88 00                            mov    %al,(%eax)
                           .text:0040144f 66 c7 46 08 0c 10                movw   $0x100c,0x8(%esi)
                           .text:00401455 90                               nop
                           .text:00401456 90                               nop
                           .text:00401457 90                               nop
                           .text:00401458 ff d6                            call   *%esi
                           .text:0040145a 33 db                            xor    %ebx,%ebx
                           .text:0040145c b7 82                            mov    $0x82,%bh
                           .text:0040145e 53                               push   %ebx
                           .text:0040145f 83 ec 2c                         sub    $0x2c,%esp
                           .text:00401462 68 00 10 00 c0                   push   $0xc0001000
                           .text:00401467 b7 08                            mov    $0x8,%bh
                           .text:00401469 53                               push   %ebx
                           .text:0040146a 51                               push   %ecx
                           .text:0040146b 51                               push   %ecx
                           .text:0040146c 51                               push   %ecx
                           .text:0040146d 68 01 05 00 40                   push   $0x40000501
                           .text:00401472 41                               inc    %ecx
                           .text:00401473 51                               push   %ecx
                           .text:00401474 51                               push   %ecx
                           .text:00401475 8b f4                            mov    %esp,%esi
                           .text:00401477 81 ec ac 00 00 00                sub    $0xac,%esp
                           .text:0040147d cd 20                            int    $0x20
                           .text:0040147f 04 00                            add    $0x0,%al
                           .text:00401481 10 00                            adc    %al,(%eax)
                           .text:00401483 66 83 7e 06 17                   cmpw   $0x17,0x6(%esi)
                           .text:00401488 74 09                            je     0x00401493
                           .text:0040148a 90                               nop
                           .text:0040148b 90                               nop
                           .text:0040148c 90                               nop
                           .text:0040148d 90                               nop
                           .text:0040148e fe 46 4d                         incb   0x4d(%esi)
                           .text:00401491 eb ea                            jmp    0x0040147d
                           .text:00401493 01 5e 10                         add    %ebx,0x10(%esi)
                           .text:00401496 c6 46 4d 82                      movb   $0x82,0x4d(%esi)
                           .text:0040149a eb e1                            jmp    0x0040147d
                           .text:0040149c 88 08                            mov    %cl,(%eax)
                           .text:0040149e 88 01                            mov    %al,(%ecx)
                           .text:004014a0 c6 00 80                         movb   $0x80,(%eax)
                           .text:004014a3 88 08                            mov    %cl,(%eax)
                           .text:004014a5 88 01                            mov    %al,(%ecx)
                           .text:004014a7 c3                               ret    
                           .text:004014a8 97                               xchg   %eax,%edi
                           .text:004014a9 87 d5                            xchg   %edx,%ebp
                           .text:004014ab ef                               out    %eax,(%dx)
                           .text:004014ac 97                               xchg   %eax,%edi
                           .text:004014ad 87 d5                            xchg   %edx,%ebp
                           .text:004014af ec                               in     (%dx),%al
                           .text:004014b0 0c 44                            or     $0x44,%al
                           .text:004014b2 97                               xchg   %eax,%edi
                           .text:004014b3 87 d5                            xchg   %edx,%ebp
                           .text:004014b5 ef                               out    %eax,(%dx)
                           .text:004014b6 97                               xchg   %eax,%edi
                           .text:004014b7 87 d5                            xchg   %edx,%ebp
                           .text:004014b9 ee                               out    %al,(%dx)
                           .text:004014ba c3                               ret    
                           .text:004014bb 00 43 7b                         add    %al,0x7b(%ebx)
                           .text:004014be 35 53 00 01 00                   xor    $0x10053,%eax
                           .text:004014c3 68 00 40 00 41                   push   $0x41004000
                           .text:004014c8 00 40 00                         add    %al,0x0(%eax)
                           .text:004014cb 32 00                            xor    (%eax),%al
                           .text:004014cd 40                               inc    %eax
                           .text:004014ce 00 57 69                         add    %dl,0x69(%edi)
                           .text:004014d1 6e                               outsb  %ds:(%esi),(%dx)
                           .text:004014d2 43                               inc    %ebx
                           .text:004014d3 49                               dec    %ecx
                           .text:004014d4 48                               dec    %eax
                           .text:004014d5 20 76 65                         and    %dh,0x65(%esi)
                           .text:004014d8 72 20                            jb     0x004014fa
                           .text:004014da 31 2e                            xor    %ebp,(%esi)
                           .text:004014dc 35 20 62 79 20                   xor    $0x20796220,%eax
                           .text:004014e1 54                               push   %esp
                           .text:004014e2 41                               inc    %ecx
                           .text:004014e3 54                               push   %esp
                           .text:004014e4 55                               push   %ebp
                           .text:004014e5 4e                               dec    %esi
                           .text:004014e6 47                               inc    %edi
                           .text:004014e7 2c 20                            sub    $0x20,%al
                           .text:004014e9 54                               push   %esp
                           .text:004014ea 68 61 69 6c 61                   push   $0x616c6961
                           .text:004014ef 6e                               outsb  %ds:(%esi),(%dx)
                           .text:004014f0 64 00 00                         add    %al,%fs:(%eax)
                           .text:004014f3 00 00                            add    %al,(%eax)
                           .text:004014f5 00 00                            add    %al,(%eax)
                           .text:004014f7 00 00                            add    %al,(%eax)
                           .text:004014f9 00 00                            add    %al,(%eax)
                           .text:004014fb 00 00                            add    %al,(%eax)
                           .text:004014fd 00 00                            add    %al,(%eax)
                           .text:004014ff 00 00                            add    %al,(%eax)
                           .text:00401501 00 00                            add    %al,(%eax)
                           .text:00401503 00 00                            add    %al,(%eax)
                           .text:00401505 00 00                            add    %al,(%eax)
                           .text:00401507 00 00                            add    %al,(%eax)
                           .text:00401509 00 00                            add    %al,(%eax)
                           .text:0040150b 00 00                            add    %al,(%eax)
                           .text:0040150d 00 00                            add    %al,(%eax)
                           .text:0040150f 00 b6 ff b7 15 4e                add    %dh,0x4e15b7ff(%esi)
                           .text:00401515 bd f0 ab c0 9c                   mov    $0x9cc0abf0,%ebp
                           .text:0040151a 91                               xchg   %eax,%ecx
                           .text:0040151b b4 bf                            mov    $0xbf,%ah
                           .text:0040151d 7f 00                            jg     0x0040151f
                           .text:0040151f 00 08                            add    %cl,(%eax)
                           .text:00401521 55                               push   %ebp
                           .text:00401522 6d                               insl   (%dx),%es:(%edi)
                           .text:00401523 c5 bf 7f 00 00 00                lds    0x7f(%edi),%edi
                           .text:00401529 00 00                            add    %al,(%eax)
                           .text:0040152b 00 00                            add    %al,(%eax)
                           .text:0040152d 00 00                            add    %al,(%eax)
                           .text:0040152f 00 00                            add    %al,(%eax)
                           .text:00401531 00 00                            add    %al,(%eax)
                           .text:00401533 00 00                            add    %al,(%eax)
                           .text:00401535 00 00                            add    %al,(%eax)
                           .text:00401537 00 00                            add    %al,(%eax)
                           .text:00401539 00 00                            add    %al,(%eax)
                           .text:0040153b 00 00                            add    %al,(%eax)
                           .text:0040153d 00 00                            add    %al,(%eax)
                           .text:0040153f 00 00                            add    %al,(%eax)
                           .text:00401541 00 00                            add    %al,(%eax)
                           .text:00401543 00 00                            add    %al,(%eax)
                           .text:00401545 00 00                            add    %al,(%eax)
                           .text:00401547 00 00                            add    %al,(%eax)
                           .text:00401549 00 00                            add    %al,(%eax)
                           .text:0040154b 00 00                            add    %al,(%eax)
                           .text:0040154d 00 00                            add    %al,(%eax)
                           .text:0040154f 00 00                            add    %al,(%eax)
                           .text:00401551 00 00                            add    %al,(%eax)
                           .text:00401553 00 00                            add    %al,(%eax)
                           .text:00401555 00 00                            add    %al,(%eax)
                           .text:00401557 00 00                            add    %al,(%eax)
                           .text:00401559 00 00                            add    %al,(%eax)
                           .text:0040155b 00 00                            add    %al,(%eax)
                           .text:0040155d 00 00                            add    %al,(%eax)
                           .text:0040155f 00 00                            add    %al,(%eax)
                           .text:00401561 00 00                            add    %al,(%eax)
                           .text:00401563 00 00                            add    %al,(%eax)
                           .text:00401565 00 00                            add    %al,(%eax)
                           .text:00401567 00 00                            add    %al,(%eax)
                           .text:00401569 00 00                            add    %al,(%eax)
                           .text:0040156b 00 00                            add    %al,(%eax)
                           .text:0040156d 00 00                            add    %al,(%eax)
                           .text:0040156f 00 00                            add    %al,(%eax)
                           .text:00401571 00 00                            add    %al,(%eax)
                           .text:00401573 00 00                            add    %al,(%eax)
                           .text:00401575 00 00                            add    %al,(%eax)
                           .text:00401577 00 00                            add    %al,(%eax)
                           .text:00401579 00 00                            add    %al,(%eax)
                           .text:0040157b 00 00                            add    %al,(%eax)
                           .text:0040157d 00 00                            add    %al,(%eax)
                           .text:0040157f 00 00                            add    %al,(%eax)
                           .text:00401581 00 00                            add    %al,(%eax)
                           .text:00401583 00 00                            add    %al,(%eax)
                           .text:00401585 00 00                            add    %al,(%eax)
                           .text:00401587 00 00                            add    %al,(%eax)
                           .text:00401589 00 00                            add    %al,(%eax)
                           .text:0040158b 00 00                            add    %al,(%eax)
                           .text:0040158d 00 00                            add    %al,(%eax)
                           .text:0040158f 00 00                            add    %al,(%eax)
                           .text:00401591 00 00                            add    %al,(%eax)
                           .text:00401593 00 00                            add    %al,(%eax)
                           .text:00401595 00 00                            add    %al,(%eax)
                           .text:00401597 00 00                            add    %al,(%eax)
                           .text:00401599 00 00                            add    %al,(%eax)
                           .text:0040159b 00 00                            add    %al,(%eax)
                           .text:0040159d 00 00                            add    %al,(%eax)
                           .text:0040159f 00 00                            add    %al,(%eax)
                           .text:004015a1 00 00                            add    %al,(%eax)
                           .text:004015a3 00 00                            add    %al,(%eax)
                           .text:004015a5 00 00                            add    %al,(%eax)
                           .text:004015a7 00 00                            add    %al,(%eax)
                           .text:004015a9 00 00                            add    %al,(%eax)
                           .text:004015ab 00 00                            add    %al,(%eax)
                           .text:004015ad 00 00                            add    %al,(%eax)
                           .text:004015af 00 00                            add    %al,(%eax)
                           .text:004015b1 00 00                            add    %al,(%eax)
                           .text:004015b3 00 00                            add    %al,(%eax)
                           .text:004015b5 00 00                            add    %al,(%eax)
                           .text:004015b7 00 00                            add    %al,(%eax)
                           .text:004015b9 00 00                            add    %al,(%eax)
                           .text:004015bb 00 00                            add    %al,(%eax)
                           .text:004015bd 00 00                            add    %al,(%eax)
                           .text:004015bf 00 00                            add    %al,(%eax)
                           .text:004015c1 00 00                            add    %al,(%eax)
                           .text:004015c3 00 00                            add    %al,(%eax)
                           .text:004015c5 00 00                            add    %al,(%eax)
                           .text:004015c7 00 00                            add    %al,(%eax)
                           .text:004015c9 00 00                            add    %al,(%eax)
                           .text:004015cb 00 00                            add    %al,(%eax)
                           .text:004015cd 00 00                            add    %al,(%eax)
                           .text:004015cf 00 00                            add    %al,(%eax)
                           .text:004015d1 00 00                            add    %al,(%eax)
                           .text:004015d3 00 00                            add    %al,(%eax)
                           .text:004015d5 00 00                            add    %al,(%eax)
                           .text:004015d7 00 00                            add    %al,(%eax)
                           .text:004015d9 00 00                            add    %al,(%eax)
                           .text:004015db 00 00                            add    %al,(%eax)
                           .text:004015dd 00 00                            add    %al,(%eax)
                           .text:004015df 00 00                            add    %al,(%eax)
                           .text:004015e1 00 00                            add    %al,(%eax)
                           .text:004015e3 00 00                            add    %al,(%eax)
                           .text:004015e5 00 00                            add    %al,(%eax)
                           .text:004015e7 00 00                            add    %al,(%eax)
                           .text:004015e9 00 00                            add    %al,(%eax)
                           .text:004015eb 00 00                            add    %al,(%eax)
                           .text:004015ed 00 00                            add    %al,(%eax)
                           .text:004015ef 00 00                            add    %al,(%eax)
                           .text:004015f1 00 00                            add    %al,(%eax)
                           .text:004015f3 00 00                            add    %al,(%eax)
                           .text:004015f5 00 00                            add    %al,(%eax)
                           .text:004015f7 00 00                            add    %al,(%eax)
                           .text:004015f9 00 00                            add    %al,(%eax)
                           .text:004015fb 00 00                            add    %al,(%eax)
                           .text:004015fd 00 00                            add    %al,(%eax)
                           .text:004015ff 00 00                            add    %al,(%eax)
                           .text:00401601 00 00                            add    %al,(%eax)
                           .text:00401603 00 00                            add    %al,(%eax)
                           .text:00401605 00 00                            add    %al,(%eax)
                           .text:00401607 00 00                            add    %al,(%eax)
                           .text:00401609 00 00                            add    %al,(%eax)
                           .text:0040160b 00 00                            add    %al,(%eax)
                           .text:0040160d 00 00                            add    %al,(%eax)
                           .text:0040160f 00 00                            add    %al,(%eax)
                           .text:00401611 00 00                            add    %al,(%eax)
                           .text:00401613 00 00                            add    %al,(%eax)
                           .text:00401615 00 00                            add    %al,(%eax)
                           .text:00401617 00 41 2d                         add    %al,0x2d(%ecx)
                           .text:0040161a 47                               inc    %edi
                           .text:0040161b 9e                               sahf   
                           .text:0040161c 9e                               sahf   
                           .text:0040161d e9 3f 43 f8 b6                   jmp    0xb7385961
                           .text:00401622 51                               push   %ecx
                           .text:00401623 b7 bf                            mov    $0xbf,%bh
                           .text:00401625 7f 00                            jg     0x00401627
                           .text:00401627 00 60 58                         add    %ah,0x58(%eax)
                           .text:0040162a 70 00                            jo     0x0040162c
                           .text:0040162c 00 00                            add    %al,(%eax)
                           .text:0040162e 00 00                            add    %al,(%eax)
                           .text:00401630 00 00                            add    %al,(%eax)
                           .text:00401632 00 00                            add    %al,(%eax)
                           .text:00401634 00 00                            add    %al,(%eax)
                           .text:00401636 00 00                            add    %al,(%eax)
                           .text:00401638 00 00                            add    %al,(%eax)
                           .text:0040163a 00 00                            add    %al,(%eax)
                           .text:0040163c 00 00                            add    %al,(%eax)
                           .text:0040163e 00 00                            add    %al,(%eax)
                           .text:00401640 00 00                            add    %al,(%eax)
                           .text:00401642 00 00                            add    %al,(%eax)
                           .text:00401644 00 00                            add    %al,(%eax)
                           .text:00401646 00 00                            add    %al,(%eax)
                           .text:00401648 00 00                            add    %al,(%eax)
                           .text:0040164a 00 00                            add    %al,(%eax)
                           .text:0040164c 00 00                            add    %al,(%eax)
                           .text:0040164e 00 00                            add    %al,(%eax)
                           .text:00401650 00 00                            add    %al,(%eax)
                           .text:00401652 00 00                            add    %al,(%eax)
                           .text:00401654 00 00                            add    %al,(%eax)
                           .text:00401656 00 00                            add    %al,(%eax)
                           .text:00401658 00 00                            add    %al,(%eax)
                           .text:0040165a 00 00                            add    %al,(%eax)
                           .text:0040165c 00 00                            add    %al,(%eax)
                           .text:0040165e 00 00                            add    %al,(%eax)
                           .text:00401660 00 00                            add    %al,(%eax)
                           .text:00401662 00 00                            add    %al,(%eax)
                           .text:00401664 00 00                            add    %al,(%eax)
                           .text:00401666 00 00                            add    %al,(%eax)
                           .text:00401668 00 00                            add    %al,(%eax)
                           .text:0040166a 00 00                            add    %al,(%eax)
                           .text:0040166c 00 00                            add    %al,(%eax)
                           .text:0040166e 00 00                            add    %al,(%eax)
                           .text:00401670 00 00                            add    %al,(%eax)
                           .text:00401672 00 00                            add    %al,(%eax)
                           .text:00401674 00 00                            add    %al,(%eax)
                           .text:00401676 00 00                            add    %al,(%eax)
                           .text:00401678 00 00                            add    %al,(%eax)
                           .text:0040167a 00 00                            add    %al,(%eax)
                           .text:0040167c 00 00                            add    %al,(%eax)
                           .text:0040167e 00 00                            add    %al,(%eax)
                           .text:00401680 00 00                            add    %al,(%eax)
                           .text:00401682 00 00                            add    %al,(%eax)
                           .text:00401684 00 00                            add    %al,(%eax)
                           .text:00401686 00 00                            add    %al,(%eax)
                           .text:00401688 00 00                            add    %al,(%eax)
                           .text:0040168a 00 00                            add    %al,(%eax)
                           .text:0040168c 00 00                            add    %al,(%eax)
                           .text:0040168e 00 00                            add    %al,(%eax)
                           .text:00401690 46                               inc    %esi
                           .text:00401691 b1 34                            mov    $0x34,%cl
                           .text:00401693 ec                               in     (%dx),%al
                           .text:00401694 83 00 cf                         addl   $0xffffffcf,(%eax)
                           .text:00401697 30 80 94 91 b4 bf                xor    %al,-0x404b6e6c(%eax)
                           .text:0040169d 7f 00                            jg     0x0040169f
                           .text:0040169f 00 b0 58 70 00 00                add    %dh,0x7058(%eax)
                           .text:004016a5 00 00                            add    %al,(%eax)
                           .text:004016a7 00 00                            add    %al,(%eax)
                           .text:004016a9 00 00                            add    %al,(%eax)
                           .text:004016ab 00 00                            add    %al,(%eax)
                           .text:004016ad 00 00                            add    %al,(%eax)
                           .text:004016af 00 00                            add    %al,(%eax)
                           .text:004016b1 00 00                            add    %al,(%eax)
                           .text:004016b3 00 00                            add    %al,(%eax)
                           .text:004016b5 00 00                            add    %al,(%eax)
                           .text:004016b7 00 00                            add    %al,(%eax)
                           .text:004016b9 00 00                            add    %al,(%eax)
                           .text:004016bb 00 00                            add    %al,(%eax)
                           .text:004016bd 00 00                            add    %al,(%eax)
                           .text:004016bf 00 00                            add    %al,(%eax)
                           .text:004016c1 00 00                            add    %al,(%eax)
                           .text:004016c3 00 00                            add    %al,(%eax)
                           .text:004016c5 00 00                            add    %al,(%eax)
                           .text:004016c7 00 00                            add    %al,(%eax)
                           .text:004016c9 00 00                            add    %al,(%eax)
                           .text:004016cb 00 00                            add    %al,(%eax)
                           .text:004016cd 00 00                            add    %al,(%eax)
                           .text:004016cf 00 00                            add    %al,(%eax)
                           .text:004016d1 00 00                            add    %al,(%eax)
                           .text:004016d3 00 00                            add    %al,(%eax)
                           .text:004016d5 00 00                            add    %al,(%eax)
                           .text:004016d7 00 00                            add    %al,(%eax)
                           .text:004016d9 00 00                            add    %al,(%eax)
                           .text:004016db 00 00                            add    %al,(%eax)
                           .text:004016dd 00 00                            add    %al,(%eax)
                           .text:004016df 00 00                            add    %al,(%eax)
                           .text:004016e1 00 00                            add    %al,(%eax)
                           .text:004016e3 00 00                            add    %al,(%eax)
                           .text:004016e5 00 00                            add    %al,(%eax)
                           .text:004016e7 00 00                            add    %al,(%eax)
                           .text:004016e9 00 00                            add    %al,(%eax)
                           .text:004016eb 00 00                            add    %al,(%eax)
                           .text:004016ed 00 00                            add    %al,(%eax)
                           .text:004016ef 00 00                            add    %al,(%eax)
                           .text:004016f1 00 00                            add    %al,(%eax)
                           .text:004016f3 00 00                            add    %al,(%eax)
                           .text:004016f5 00 00                            add    %al,(%eax)
                           .text:004016f7 00 00                            add    %al,(%eax)
                           .text:004016f9 00 00                            add    %al,(%eax)
                           .text:004016fb 00 00                            add    %al,(%eax)
                           .text:004016fd 00 00                            add    %al,(%eax)
                           .text:004016ff 00 00                            add    %al,(%eax)
                           .text:00401701 00 00                            add    %al,(%eax)
                           .text:00401703 00 00                            add    %al,(%eax)
                           .text:00401705 00 00                            add    %al,(%eax)
                           .text:00401707 00 00                            add    %al,(%eax)
                           .text:00401709 00 00                            add    %al,(%eax)
                           .text:0040170b 00 00                            add    %al,(%eax)
                           .text:0040170d 00 00                            add    %al,(%eax)
                           .text:0040170f 00 00                            add    %al,(%eax)
                           .text:00401711 00 00                            add    %al,(%eax)
                           .text:00401713 00 00                            add    %al,(%eax)
                           .text:00401715 00 00                            add    %al,(%eax)
                           .text:00401717 00 00                            add    %al,(%eax)
                           .text:00401719 00 00                            add    %al,(%eax)
                           .text:0040171b 00 00                            add    %al,(%eax)
                           .text:0040171d 00 00                            add    %al,(%eax)
                           .text:0040171f 00 00                            add    %al,(%eax)
                           .text:00401721 00 00                            add    %al,(%eax)
                           .text:00401723 00 00                            add    %al,(%eax)
                           .text:00401725 00 00                            add    %al,(%eax)
                           .text:00401727 00 00                            add    %al,(%eax)
                           .text:00401729 00 00                            add    %al,(%eax)
                           .text:0040172b 00 00                            add    %al,(%eax)
                           .text:0040172d 00 00                            add    %al,(%eax)
                           .text:0040172f 00 00                            add    %al,(%eax)
                           .text:00401731 00 00                            add    %al,(%eax)
                           .text:00401733 00 00                            add    %al,(%eax)
                           .text:00401735 00 00                            add    %al,(%eax)
                           .text:00401737 00 00                            add    %al,(%eax)
                           .text:00401739 00 00                            add    %al,(%eax)
                           .text:0040173b 00 00                            add    %al,(%eax)
                           .text:0040173d 00 00                            add    %al,(%eax)
                           .text:0040173f 00 00                            add    %al,(%eax)
                           .text:00401741 00 00                            add    %al,(%eax)
                           .text:00401743 00 00                            add    %al,(%eax)
                           .text:00401745 00 00                            add    %al,(%eax)
                           .text:00401747 00 00                            add    %al,(%eax)
                           .text:00401749 00 00                            add    %al,(%eax)
                           .text:0040174b 00 00                            add    %al,(%eax)
                           .text:0040174d 00 00                            add    %al,(%eax)
                           .text:0040174f 00 00                            add    %al,(%eax)
                           .text:00401751 00 00                            add    %al,(%eax)
                           .text:00401753 00 00                            add    %al,(%eax)
                           .text:00401755 00 00                            add    %al,(%eax)
                           .text:00401757 00 00                            add    %al,(%eax)
                           .text:00401759 00 00                            add    %al,(%eax)
                           .text:0040175b 00 00                            add    %al,(%eax)
                           .text:0040175d 00 00                            add    %al,(%eax)
                           .text:0040175f 00 00                            add    %al,(%eax)
                           .text:00401761 00 00                            add    %al,(%eax)
                           .text:00401763 00 00                            add    %al,(%eax)
                           .text:00401765 00 00                            add    %al,(%eax)
                           .text:00401767 00 00                            add    %al,(%eax)
                           .text:00401769 00 00                            add    %al,(%eax)
                           .text:0040176b 00 00                            add    %al,(%eax)
                           .text:0040176d 00 00                            add    %al,(%eax)
                           .text:0040176f 00 00                            add    %al,(%eax)
                           .text:00401771 00 00                            add    %al,(%eax)
                           .text:00401773 00 00                            add    %al,(%eax)
                           .text:00401775 00 00                            add    %al,(%eax)
                           .text:00401777 00 00                            add    %al,(%eax)
                           .text:00401779 00 00                            add    %al,(%eax)
                           .text:0040177b 00 00                            add    %al,(%eax)
                           .text:0040177d 00 00                            add    %al,(%eax)
                           .text:0040177f 00 50 e8                         add    %dl,-0x18(%eax)
                           .text:00401782 a8 25                            test   $0x25,%al
                           .text:00401784 8f                               (bad)  
                           .text:00401785 f3 5d                            repz pop %ebp
                           .text:00401787 53                               push   %ebx
                           .text:00401788 10 98 91 b4 bf 7f                adc    %bl,0x7fbfb491(%eax)
                           .text:0040178e 00 00                            add    %al,(%eax)
                           .text:00401790 80 58 70 00                      sbbb   $0x0,0x70(%eax)
                           .text:00401794 00 00                            add    %al,(%eax)
                           .text:00401796 00 00                            add    %al,(%eax)
                           .text:00401798 00 00                            add    %al,(%eax)
                           .text:0040179a 00 00                            add    %al,(%eax)
                           .text:0040179c 00 00                            add    %al,(%eax)
                           .text:0040179e 00 00                            add    %al,(%eax)
                           .text:004017a0 00 00                            add    %al,(%eax)
                           .text:004017a2 00 00                            add    %al,(%eax)
                           .text:004017a4 00 00                            add    %al,(%eax)
                           .text:004017a6 00 00                            add    %al,(%eax)
                           .text:004017a8 00 00                            add    %al,(%eax)
                           .text:004017aa 00 00                            add    %al,(%eax)
                           .text:004017ac 00 00                            add    %al,(%eax)
                           .text:004017ae 00 00                            add    %al,(%eax)
                           .text:004017b0 00 00                            add    %al,(%eax)
                           .text:004017b2 00 00                            add    %al,(%eax)
                           .text:004017b4 00 00                            add    %al,(%eax)
                           .text:004017b6 00 00                            add    %al,(%eax)
                           .text:004017b8 00 00                            add    %al,(%eax)
                           .text:004017ba 00 00                            add    %al,(%eax)
                           .text:004017bc 00 00                            add    %al,(%eax)
                           .text:004017be 00 00                            add    %al,(%eax)
                           .text:004017c0 00 00                            add    %al,(%eax)
                           .text:004017c2 00 00                            add    %al,(%eax)
                           .text:004017c4 00 00                            add    %al,(%eax)
                           .text:004017c6 00 00                            add    %al,(%eax)
                           .text:004017c8 d3 88 a6 73 f8 10                rorl   %cl,0x10f873a6(%eax)
                           .text:004017ce 10 46 70                         adc    %al,0x70(%esi)
                           .text:004017d1 95                               xchg   %eax,%ebp
                           .text:004017d2 91                               xchg   %eax,%ecx
                           .text:004017d3 b4 bf                            mov    $0xbf,%ah
                           .text:004017d5 7f 00                            jg     0x004017d7
                           .text:004017d7 00 b0 58 70 00 00                add    %dh,0x7058(%eax)
                           .text:004017dd 00 00                            add    %al,(%eax)
                           .text:004017df 00 00                            add    %al,(%eax)
                           .text:004017e1 00 00                            add    %al,(%eax)
                           .text:004017e3 00 00                            add    %al,(%eax)
                           .text:004017e5 00 00                            add    %al,(%eax)
                           .text:004017e7 00 00                            add    %al,(%eax)
                           .text:004017e9 00 00                            add    %al,(%eax)
                           .text:004017eb 00 00                            add    %al,(%eax)
                           .text:004017ed 00 00                            add    %al,(%eax)
                           .text:004017ef 00 00                            add    %al,(%eax)
                           .text:004017f1 00 00                            add    %al,(%eax)
                           .text:004017f3 00 00                            add    %al,(%eax)
                           .text:004017f5 00 00                            add    %al,(%eax)
                           .text:004017f7 00 55 27                         add    %dl,0x27(%ebp)
                           .text:004017fa b1 76                            mov    $0x76,%cl
                           .text:004017fc 2a f8                            sub    %al,%bh
                           .text:004017fe 61                               popa   
                           .text:004017ff df d8                            fnop   
                           .text:00401801 b7 51                            mov    $0x51,%bh
                           .text:00401803 b7 bf                            mov    $0xbf,%bh
                           .text:00401805 7f 00                            jg     0x00401807
                           .text:00401807 00 08                            add    %cl,(%eax)
                           .text:00401809 55                               push   %ebp
                           .text:0040180a 6d                               insl   (%dx),%es:(%edi)
                           .text:0040180b c5 bf 7f 00 00 00                lds    0x7f(%edi),%edi
                           .text:00401811 00 00                            add    %al,(%eax)
                           .text:00401813 00 00                            add    %al,(%eax)
                           .text:00401815 00 00                            add    %al,(%eax)
                           .text:00401817 00 00                            add    %al,(%eax)
                           .text:00401819 00 00                            add    %al,(%eax)
                           .text:0040181b 00 00                            add    %al,(%eax)
                           .text:0040181d 00 00                            add    %al,(%eax)
                           .text:0040181f 00 00                            add    %al,(%eax)
                           .text:00401821 00 00                            add    %al,(%eax)
                           .text:00401823 00 00                            add    %al,(%eax)
                           .text:00401825 00 00                            add    %al,(%eax)
                           .text:00401827 00 d7                            add    %dl,%bh
                           .text:00401829 be a7 51 6b b7                   mov    $0xb76b51a7,%esi
                           .text:0040182e 9b                               fwait
                           .text:0040182f 56                               push   %esi
                           .text:00401830 60                               pusha  
                           .text:00401831 f6 91 b4 bf 7f 00                notb   0x7fbfb4(%ecx)
                           .text:00401837 00 d0                            add    %dl,%al
                           .text:00401839 c6                               (bad)  
                           .text:0040183a dc b9 bf 7f 00 00                fdivrl 0x7fbf(%ecx)
                           .text:00401840 00 00                            add    %al,(%eax)
                           .text:00401842 00 00                            add    %al,(%eax)
                           .text:00401844 00 00                            add    %al,(%eax)
                           .text:00401846 00 00                            add    %al,(%eax)
                           .text:00401848 00 00                            add    %al,(%eax)
                           .text:0040184a 00 00                            add    %al,(%eax)
                           .text:0040184c 00 00                            add    %al,(%eax)
                           .text:0040184e 00 00                            add    %al,(%eax)
                           .text:00401850 00 00                            add    %al,(%eax)
                           .text:00401852 00 00                            add    %al,(%eax)
                           .text:00401854 00 00                            add    %al,(%eax)
                           .text:00401856 00 00                            add    %al,(%eax)
                           .text:00401858 00 00                            add    %al,(%eax)
                           .text:0040185a 00 00                            add    %al,(%eax)
                           .text:0040185c 00 00                            add    %al,(%eax)
                           .text:0040185e 00 00                            add    %al,(%eax)
                           .text:00401860 00 00                            add    %al,(%eax)
                           .text:00401862 00 00                            add    %al,(%eax)
                           .text:00401864 00 00                            add    %al,(%eax)
                           .text:00401866 00 00                            add    %al,(%eax)
                           .text:00401868 00 00                            add    %al,(%eax)
                           .text:0040186a 00 00                            add    %al,(%eax)
                           .text:0040186c 00 00                            add    %al,(%eax)
                           .text:0040186e 00 00                            add    %al,(%eax)
                           .text:00401870 00 00                            add    %al,(%eax)
                           .text:00401872 00 00                            add    %al,(%eax)
                           .text:00401874 00 00                            add    %al,(%eax)
                           .text:00401876 00 00                            add    %al,(%eax)
                           .text:00401878 00 00                            add    %al,(%eax)
                           .text:0040187a 00 00                            add    %al,(%eax)
                           .text:0040187c 00 00                            add    %al,(%eax)
                           .text:0040187e 00 00                            add    %al,(%eax)
                           .text:00401880 00 00                            add    %al,(%eax)
                           .text:00401882 00 00                            add    %al,(%eax)
                           .text:00401884 00 00                            add    %al,(%eax)
                           .text:00401886 00 00                            add    %al,(%eax)
                           .text:00401888 5b                               pop    %ebx
                           .text:00401889 7f ea                            jg     0x00401875
                           .text:0040188b 4c                               dec    %esp
                           .text:0040188c 6b 75 32 a2                      imul   $0xffffffa2,0x32(%ebp),%esi
                           .text:00401890 30 be 51 b7 bf 7f                xor    %bh,0x7fbfb751(%esi)
                           .text:00401896 00 00                            add    %al,(%eax)
                           .text:00401898 08 55 6d                         or     %dl,0x6d(%ebp)
                           .text:0040189b c5 bf 7f 00 00 00                lds    0x7f(%edi),%edi
                           .text:004018a1 00 00                            add    %al,(%eax)
                           .text:004018a3 00 00                            add    %al,(%eax)
                           .text:004018a5 00 00                            add    %al,(%eax)
                           .text:004018a7 00 00                            add    %al,(%eax)
                           .text:004018a9 00 00                            add    %al,(%eax)
                           .text:004018ab 00 00                            add    %al,(%eax)
                           .text:004018ad 00 00                            add    %al,(%eax)
                           .text:004018af 00 00                            add    %al,(%eax)
                           .text:004018b1 00 00                            add    %al,(%eax)
                           .text:004018b3 00 00                            add    %al,(%eax)
                           .text:004018b5 00 00                            add    %al,(%eax)
                           .text:004018b7 00 dd                            add    %bl,%ch
                           .text:004018b9 14 de                            adc    $0xde,%al
                           .text:004018bb 7f 8a                            jg     0x00401847
                           .text:004018bd b5 b0                            mov    $0xb0,%ch
                           .text:004018bf 69 30 96 91 b4 bf                imul   $0xbfb49196,(%eax),%esi
                           .text:004018c5 7f 00                            jg     0x004018c7
                           .text:004018c7 00 80 58 70 00 00                add    %al,0x7058(%eax)
                           .text:004018cd 00 00                            add    %al,(%eax)
                           .text:004018cf 00 00                            add    %al,(%eax)
                           .text:004018d1 00 00                            add    %al,(%eax)
                           .text:004018d3 00 00                            add    %al,(%eax)
                           .text:004018d5 00 00                            add    %al,(%eax)
                           .text:004018d7 00 00                            add    %al,(%eax)
                           .text:004018d9 00 00                            add    %al,(%eax)
                           .text:004018db 00 00                            add    %al,(%eax)
                           .text:004018dd 00 00                            add    %al,(%eax)
                           .text:004018df 00 00                            add    %al,(%eax)
                           .text:004018e1 00 00                            add    %al,(%eax)
                           .text:004018e3 00 00                            add    %al,(%eax)
                           .text:004018e5 00 00                            add    %al,(%eax)
                           .text:004018e7 00 00                            add    %al,(%eax)
                           .text:004018e9 00 00                            add    %al,(%eax)
                           .text:004018eb 00 00                            add    %al,(%eax)
                           .text:004018ed 00 00                            add    %al,(%eax)
                           .text:004018ef 00 00                            add    %al,(%eax)
                           .text:004018f1 00 00                            add    %al,(%eax)
                           .text:004018f3 00 00                            add    %al,(%eax)
                           .text:004018f5 00 00                            add    %al,(%eax)
                           .text:004018f7 00 00                            add    %al,(%eax)
                           .text:004018f9 00 00                            add    %al,(%eax)
                           .text:004018fb 00 00                            add    %al,(%eax)
                           .text:004018fd 00 00                            add    %al,(%eax)
                           .text:004018ff 00 00                            add    %al,(%eax)
                           .text:00401901 00 00                            add    %al,(%eax)
                           .text:00401903 00 00                            add    %al,(%eax)
                           .text:00401905 00 00                            add    %al,(%eax)
                           .text:00401907 00 00                            add    %al,(%eax)
                           .text:00401909 00 00                            add    %al,(%eax)
                           .text:0040190b 00 00                            add    %al,(%eax)
                           .text:0040190d 00 00                            add    %al,(%eax)
                           .text:0040190f 00 00                            add    %al,(%eax)
                           .text:00401911 00 00                            add    %al,(%eax)
                           .text:00401913 00 00                            add    %al,(%eax)
                           .text:00401915 00 00                            add    %al,(%eax)
                           .text:00401917 00 00                            add    %al,(%eax)
                           .text:00401919 00 00                            add    %al,(%eax)
                           .text:0040191b 00 00                            add    %al,(%eax)
                           .text:0040191d 00 00                            add    %al,(%eax)
                           .text:0040191f 00 00                            add    %al,(%eax)
                           .text:00401921 00 00                            add    %al,(%eax)
                           .text:00401923 00 00                            add    %al,(%eax)
                           .text:00401925 00 00                            add    %al,(%eax)
                           .text:00401927 00 00                            add    %al,(%eax)
                           .text:00401929 00 00                            add    %al,(%eax)
                           .text:0040192b 00 00                            add    %al,(%eax)
                           .text:0040192d 00 00                            add    %al,(%eax)
                           .text:0040192f 00 00                            add    %al,(%eax)
                           .text:00401931 00 00                            add    %al,(%eax)
                           .text:00401933 00 00                            add    %al,(%eax)
                           .text:00401935 00 00                            add    %al,(%eax)
                           .text:00401937 00 00                            add    %al,(%eax)
                           .text:00401939 00 00                            add    %al,(%eax)
                           .text:0040193b 00 00                            add    %al,(%eax)
                           .text:0040193d 00 00                            add    %al,(%eax)
                           .text:0040193f 00 00                            add    %al,(%eax)
                           .text:00401941 00 00                            add    %al,(%eax)
                           .text:00401943 00 00                            add    %al,(%eax)
                           .text:00401945 00 00                            add    %al,(%eax)
                           .text:00401947 00 00                            add    %al,(%eax)
                           .text:00401949 00 00                            add    %al,(%eax)
                           .text:0040194b 00 00                            add    %al,(%eax)
                           .text:0040194d 00 00                            add    %al,(%eax)
                           .text:0040194f 00 00                            add    %al,(%eax)
                           .text:00401951 00 00                            add    %al,(%eax)
                           .text:00401953 00 00                            add    %al,(%eax)
                           .text:00401955 00 00                            add    %al,(%eax)
                           .text:00401957 00 00                            add    %al,(%eax)
                           .text:00401959 00 00                            add    %al,(%eax)
                           .text:0040195b 00 00                            add    %al,(%eax)
                           .text:0040195d 00 00                            add    %al,(%eax)
                           .text:0040195f 00 00                            add    %al,(%eax)
                           .text:00401961 00 00                            add    %al,(%eax)
                           .text:00401963 00 00                            add    %al,(%eax)
                           .text:00401965 00 00                            add    %al,(%eax)
                           .text:00401967 00 00                            add    %al,(%eax)
                           .text:00401969 00 00                            add    %al,(%eax)
                           .text:0040196b 00 00                            add    %al,(%eax)
                           .text:0040196d 00 00                            add    %al,(%eax)
                           .text:0040196f 00 00                            add    %al,(%eax)
                           .text:00401971 00 00                            add    %al,(%eax)
                           .text:00401973 00 00                            add    %al,(%eax)
                           .text:00401975 00 00                            add    %al,(%eax)
                           .text:00401977 00 00                            add    %al,(%eax)
                           .text:00401979 00 00                            add    %al,(%eax)
                           .text:0040197b 00 00                            add    %al,(%eax)
                           .text:0040197d 00 00                            add    %al,(%eax)
                           .text:0040197f 00 00                            add    %al,(%eax)
                           .text:00401981 00 00                            add    %al,(%eax)
                           .text:00401983 00 00                            add    %al,(%eax)
                           .text:00401985 00 00                            add    %al,(%eax)
                           .text:00401987 00 00                            add    %al,(%eax)
                           .text:00401989 00 00                            add    %al,(%eax)
                           .text:0040198b 00 00                            add    %al,(%eax)
                           .text:0040198d 00 00                            add    %al,(%eax)
                           .text:0040198f 00 e6                            add    %ah,%dh
                           .text:00401991 a5                               movsl  %ds:(%esi),%es:(%edi)
                           .text:00401992 dd 69 d2                         (bad)  -0x2e(%ecx)
                           .text:00401995 a3 8a 8a 00 99                   mov    %eax,0x99008a8a
                           .text:0040199a 91                               xchg   %eax,%ecx
                           .text:0040199b b4 bf                            mov    $0xbf,%ah
                           .text:0040199d 7f 00                            jg     0x0040199f
                           .text:0040199f 00 30                            add    %dh,(%eax)
                           .text:004019a1 80 91 b4 bf 7f 00 00             adcb   $0x0,0x7fbfb4(%ecx)
                           .text:004019a8 e7 32                            out    %eax,$0x32
                           .text:004019aa 3a 79 02                         cmp    0x2(%ecx),%bh
                           .text:004019ad 5c                               pop    %esp
                           .text:004019ae 9f                               lahf   
                           .text:004019af 8a 40 92                         mov    -0x6e(%eax),%al
                           .text:004019b2 91                               xchg   %eax,%ecx
                           .text:004019b3 b4 bf                            mov    $0xbf,%ah
                           .text:004019b5 7f 00                            jg     0x004019b7
                           .text:004019b7 00 08                            add    %cl,(%eax)
                           .text:004019b9 55                               push   %ebp
                           .text:004019ba 6d                               insl   (%dx),%es:(%edi)
                           .text:004019bb c5 bf 7f 00 00 68                lds    0x6800007f(%edi),%edi
                           .text:004019c1 19 74 74 a6                      sbb    %esi,-0x5a(%esp,%esi,2)
                           .text:004019c5 1b 75 71                         sbb    0x71(%ebp),%esi
                           .text:004019c8 d0 95 91 b4 bf 7f                rclb   0x7fbfb491(%ebp)
                           .text:004019ce 00 00                            add    %al,(%eax)
                           .text:004019d0 08 ca                            or     %cl,%dl
                           .text:004019d2 be 02 00 00 00                   mov    $0x2,%esi
                           .text:004019d7 00 00                            add    %al,(%eax)
                           .text:004019d9 00 00                            add    %al,(%eax)
                           .text:004019db 00 00                            add    %al,(%eax)
                           .text:004019dd 00 00                            add    %al,(%eax)
                           .text:004019df 00 00                            add    %al,(%eax)
                           .text:004019e1 00 00                            add    %al,(%eax)
                           .text:004019e3 00 00                            add    %al,(%eax)
                           .text:004019e5 00 00                            add    %al,(%eax)
                           .text:004019e7 00 00                            add    %al,(%eax)
                           .text:004019e9 00 00                            add    %al,(%eax)
                           .text:004019eb 00 00                            add    %al,(%eax)
                           .text:004019ed 00 00                            add    %al,(%eax)
                           .text:004019ef 00 00                            add    %al,(%eax)
                           .text:004019f1 00 00                            add    %al,(%eax)
                           .text:004019f3 00 00                            add    %al,(%eax)
                           .text:004019f5 00 00                            add    %al,(%eax)
                           .text:004019f7 00 00                            add    %al,(%eax)
                           .text:004019f9 00 00                            add    %al,(%eax)
                           .text:004019fb 00 00                            add    %al,(%eax)
                           .text:004019fd 00 00                            add    %al,(%eax)
                           .text:004019ff 00 00                            add    %al,(%eax)
                           .text:00401a01 00 00                            add    %al,(%eax)
                           .text:00401a03 00 00                            add    %al,(%eax)
                           .text:00401a05 00 00                            add    %al,(%eax)
                           .text:00401a07 00 00                            add    %al,(%eax)
                           .text:00401a09 00 00                            add    %al,(%eax)
                           .text:00401a0b 00 00                            add    %al,(%eax)
                           .text:00401a0d 00 00                            add    %al,(%eax)
                           .text:00401a0f 00 00                            add    %al,(%eax)
                           .text:00401a11 00 00                            add    %al,(%eax)
                           .text:00401a13 00 00                            add    %al,(%eax)
                           .text:00401a15 00 00                            add    %al,(%eax)
                           .text:00401a17 00 00                            add    %al,(%eax)
                           .text:00401a19 00 00                            add    %al,(%eax)
                           .text:00401a1b 00 00                            add    %al,(%eax)
                           .text:00401a1d 00 00                            add    %al,(%eax)
                           .text:00401a1f 00 00                            add    %al,(%eax)
                           .text:00401a21 00 00                            add    %al,(%eax)
                           .text:00401a23 00 00                            add    %al,(%eax)
                           .text:00401a25 00 00                            add    %al,(%eax)
                           .text:00401a27 00 00                            add    %al,(%eax)
                           .text:00401a29 00 00                            add    %al,(%eax)
                           .text:00401a2b 00 00                            add    %al,(%eax)
                           .text:00401a2d 00 00                            add    %al,(%eax)
                           .text:00401a2f 00 00                            add    %al,(%eax)
                           .text:00401a31 00 00                            add    %al,(%eax)
                           .text:00401a33 00 00                            add    %al,(%eax)
                           .text:00401a35 00 00                            add    %al,(%eax)
                           .text:00401a37 00 00                            add    %al,(%eax)
                           .text:00401a39 00 00                            add    %al,(%eax)
                           .text:00401a3b 00 00                            add    %al,(%eax)
                           .text:00401a3d 00 00                            add    %al,(%eax)
                           .text:00401a3f 00 00                            add    %al,(%eax)
                           .text:00401a41 00 00                            add    %al,(%eax)
                           .text:00401a43 00 00                            add    %al,(%eax)
                           .text:00401a45 00 00                            add    %al,(%eax)
                           .text:00401a47 00 00                            add    %al,(%eax)
                           .text:00401a49 00 00                            add    %al,(%eax)
                           .text:00401a4b 00 00                            add    %al,(%eax)
                           .text:00401a4d 00 00                            add    %al,(%eax)
                           .text:00401a4f 00 00                            add    %al,(%eax)
                           .text:00401a51 00 00                            add    %al,(%eax)
                           .text:00401a53 00 00                            add    %al,(%eax)
                           .text:00401a55 00 00                            add    %al,(%eax)
                           .text:00401a57 00 00                            add    %al,(%eax)
                           .text:00401a59 00 00                            add    %al,(%eax)
                           .text:00401a5b 00 00                            add    %al,(%eax)
                           .text:00401a5d 00 00                            add    %al,(%eax)
                           .text:00401a5f 00 00                            add    %al,(%eax)
                           .text:00401a61 00 00                            add    %al,(%eax)
                           .text:00401a63 00 00                            add    %al,(%eax)
                           .text:00401a65 00 00                            add    %al,(%eax)
                           .text:00401a67 00 00                            add    %al,(%eax)
                           .text:00401a69 00 00                            add    %al,(%eax)
                           .text:00401a6b 00 00                            add    %al,(%eax)
                           .text:00401a6d 00 00                            add    %al,(%eax)
                           .text:00401a6f 00 00                            add    %al,(%eax)
                           .text:00401a71 00 00                            add    %al,(%eax)
                           .text:00401a73 00 00                            add    %al,(%eax)
                           .text:00401a75 00 00                            add    %al,(%eax)
                           .text:00401a77 00 00                            add    %al,(%eax)
                           .text:00401a79 00 00                            add    %al,(%eax)
                           .text:00401a7b 00 00                            add    %al,(%eax)
                           .text:00401a7d 00 00                            add    %al,(%eax)
                           .text:00401a7f 00 00                            add    %al,(%eax)
                           .text:00401a81 00 00                            add    %al,(%eax)
                           .text:00401a83 00 00                            add    %al,(%eax)
                           .text:00401a85 00 00                            add    %al,(%eax)
                           .text:00401a87 00 00                            add    %al,(%eax)
                           .text:00401a89 00 00                            add    %al,(%eax)
                           .text:00401a8b 00 00                            add    %al,(%eax)
                           .text:00401a8d 00 00                            add    %al,(%eax)
                           .text:00401a8f 00 00                            add    %al,(%eax)
                           .text:00401a91 00 00                            add    %al,(%eax)
                           .text:00401a93 00 00                            add    %al,(%eax)
                           .text:00401a95 00 00                            add    %al,(%eax)
                           .text:00401a97 00 00                            add    %al,(%eax)
                           .text:00401a99 00 00                            add    %al,(%eax)
                           .text:00401a9b 00 00                            add    %al,(%eax)
                           .text:00401a9d 00 00                            add    %al,(%eax)
                           .text:00401a9f 00 00                            add    %al,(%eax)
                           .text:00401aa1 00 00                            add    %al,(%eax)
                           .text:00401aa3 00 00                            add    %al,(%eax)
                           .text:00401aa5 00 00                            add    %al,(%eax)
                           .text:00401aa7 00 00                            add    %al,(%eax)
                           .text:00401aa9 00 00                            add    %al,(%eax)
                           .text:00401aab 00 00                            add    %al,(%eax)
                           .text:00401aad 00 00                            add    %al,(%eax)
                           .text:00401aaf 00 00                            add    %al,(%eax)
                           .text:00401ab1 00 00                            add    %al,(%eax)
                           .text:00401ab3 00 00                            add    %al,(%eax)
                           .text:00401ab5 00 00                            add    %al,(%eax)
                           .text:00401ab7 00 00                            add    %al,(%eax)
                           .text:00401ab9 00 00                            add    %al,(%eax)
                           .text:00401abb 00 00                            add    %al,(%eax)
                           .text:00401abd 00 00                            add    %al,(%eax)
                           .text:00401abf 00 00                            add    %al,(%eax)
                           .text:00401ac1 00 00                            add    %al,(%eax)
                           .text:00401ac3 00 00                            add    %al,(%eax)
                           .text:00401ac5 00 00                            add    %al,(%eax)
                           .text:00401ac7 00 f3                            add    %dh,%bl
                           .text:00401ac9 e9 92 d0 38 b1                   jmp    0xb178eb60
                           .text:00401ace fb                               sti    
                           .text:00401acf 44                               inc    %esp
                           .text:00401ad0 60                               pusha  
                           .text:00401ad1 96                               xchg   %eax,%esi
                           .text:00401ad2 91                               xchg   %eax,%ecx
                           .text:00401ad3 b4 bf                            mov    $0xbf,%ah
                           .text:00401ad5 7f 00                            jg     0x00401ad7
                           .text:00401ad7 00 b0 58 70 00 00                add    %dh,0x7058(%eax)
                           .text:00401add 00 00                            add    %al,(%eax)
                           .text:00401adf 00 f4                            add    %dh,%ah
                           .text:00401ae1 2c 85                            sub    $0x85,%al
                           .text:00401ae3 bc 6d 52 ad 0b                   mov    $0xbad526d,%esp
                           .text:00401ae8 f0 96                            lock xchg %eax,%esi
                           .text:00401aea 91                               xchg   %eax,%ecx
                           .text:00401aeb b4 bf                            mov    $0xbf,%ah
                           .text:00401aed 7f 00                            jg     0x00401aef
                           .text:00401aef 00 10                            add    %dl,(%eax)
                           .text:00401af1 77 a2                            ja     0x00401a95
                           .text:00401af3 ba bf 7f 00 00                   mov    $0x7fbf,%edx
                           .text:00401af8 00 00                            add    %al,(%eax)
                           .text:00401afa 00 00                            add    %al,(%eax)
                           .text:00401afc 00 00                            add    %al,(%eax)
                           .text:00401afe 00 00                            add    %al,(%eax)
                           .text:00401b00 00 00                            add    %al,(%eax)
                           .text:00401b02 00 00                            add    %al,(%eax)
                           .text:00401b04 00 00                            add    %al,(%eax)
                           .text:00401b06 00 00                            add    %al,(%eax)
                           .text:00401b08 00 00                            add    %al,(%eax)
                           .text:00401b0a 00 00                            add    %al,(%eax)
                           .text:00401b0c 00 00                            add    %al,(%eax)
                           .text:00401b0e 00 00                            add    %al,(%eax)
                           .text:00401b10 00 00                            add    %al,(%eax)
                           .text:00401b12 00 00                            add    %al,(%eax)
                           .text:00401b14 00 00                            add    %al,(%eax)
                           .text:00401b16 00 00                            add    %al,(%eax)
                           .text:00401b18 00 00                            add    %al,(%eax)
                           .text:00401b1a 00 00                            add    %al,(%eax)
                           .text:00401b1c 00 00                            add    %al,(%eax)
                           .text:00401b1e 00 00                            add    %al,(%eax)
                           .text:00401b20 00 00                            add    %al,(%eax)
                           .text:00401b22 00 00                            add    %al,(%eax)
                           .text:00401b24 00 00                            add    %al,(%eax)
                           .text:00401b26 00 00                            add    %al,(%eax)
                           .text:00401b28 00 00                            add    %al,(%eax)
                           .text:00401b2a 00 00                            add    %al,(%eax)
                           .text:00401b2c 00 00                            add    %al,(%eax)
                           .text:00401b2e 00 00                            add    %al,(%eax)
                           .text:00401b30 00 00                            add    %al,(%eax)
                           .text:00401b32 00 00                            add    %al,(%eax)
                           .text:00401b34 00 00                            add    %al,(%eax)
                           .text:00401b36 00 00                            add    %al,(%eax)
                           .text:00401b38 00 00                            add    %al,(%eax)
                           .text:00401b3a 00 00                            add    %al,(%eax)
                           .text:00401b3c 00 00                            add    %al,(%eax)
                           .text:00401b3e 00 00                            add    %al,(%eax)
                           .text:00401b40 00 00                            add    %al,(%eax)
                           .text:00401b42 00 00                            add    %al,(%eax)
                           .text:00401b44 00 00                            add    %al,(%eax)
                           .text:00401b46 00 00                            add    %al,(%eax)
                           .text:00401b48 00 00                            add    %al,(%eax)
                           .text:00401b4a 00 00                            add    %al,(%eax)
                           .text:00401b4c 00 00                            add    %al,(%eax)
                           .text:00401b4e 00 00                            add    %al,(%eax)
                           .text:00401b50 00 00                            add    %al,(%eax)
                           .text:00401b52 00 00                            add    %al,(%eax)
                           .text:00401b54 00 00                            add    %al,(%eax)
                           .text:00401b56 00 00                            add    %al,(%eax)
                           .text:00401b58 f9                               stc    
                           .text:00401b59 15 c7 b7 d9 5a                   adc    $0x5ad9b7c7,%eax
                           .text:00401b5e 91                               xchg   %eax,%ecx
                           .text:00401b5f 4b                               dec    %ebx
                           .text:00401b60 b0 97                            mov    $0x97,%al
                           .text:00401b62 91                               xchg   %eax,%ecx
                           .text:00401b63 b4 bf                            mov    $0xbf,%ah
                           .text:00401b65 7f 00                            jg     0x00401b67
                           .text:00401b67 00 60 58                         add    %ah,0x58(%eax)
                           .text:00401b6a 70 00                            jo     0x00401b6c
                           .text:00401b6c 00 00                            add    %al,(%eax)
                           .text:00401b6e 00 00                            add    %al,(%eax)
                           .text:00401b70 00 00                            add    %al,(%eax)
                           .text:00401b72 00 00                            add    %al,(%eax)
                           .text:00401b74 00 00                            add    %al,(%eax)
                           .text:00401b76 00 00                            add    %al,(%eax)
                           .text:00401b78 00 00                            add    %al,(%eax)
                           .text:00401b7a 00 00                            add    %al,(%eax)
                           .text:00401b7c 00 00                            add    %al,(%eax)
                           .text:00401b7e 00 00                            add    %al,(%eax)
                           .text:00401b80 00 00                            add    %al,(%eax)
                           .text:00401b82 00 00                            add    %al,(%eax)
                           .text:00401b84 00 00                            add    %al,(%eax)
                           .text:00401b86 00 00                            add    %al,(%eax)
                           .text:00401b88 00 00                            add    %al,(%eax)
                           .text:00401b8a 00 00                            add    %al,(%eax)
                           .text:00401b8c 00 00                            add    %al,(%eax)
                           .text:00401b8e 00 00                            add    %al,(%eax)
                           .text:00401b90 00 00                            add    %al,(%eax)
                           .text:00401b92 00 00                            add    %al,(%eax)
                           .text:00401b94 00 00                            add    %al,(%eax)
                           .text:00401b96 00 00                            add    %al,(%eax)
                           .text:00401b98 00 00                            add    %al,(%eax)
                           .text:00401b9a 00 00                            add    %al,(%eax)
                           .text:00401b9c 00 00                            add    %al,(%eax)
                           .text:00401b9e 00 00                            add    %al,(%eax)
                           .text:00401ba0 00 00                            add    %al,(%eax)
                           .text:00401ba2 00 00                            add    %al,(%eax)
                           .text:00401ba4 00 00                            add    %al,(%eax)
                           .text:00401ba6 00 00                            add    %al,(%eax)
                           .text:00401ba8 00 00                            add    %al,(%eax)
                           .text:00401baa 00 00                            add    %al,(%eax)
                           .text:00401bac 00 00                            add    %al,(%eax)
                           .text:00401bae 00 00                            add    %al,(%eax)
                           .text:00401bb0 00 00                            add    %al,(%eax)
                           .text:00401bb2 00 00                            add    %al,(%eax)
                           .text:00401bb4 00 00                            add    %al,(%eax)
                           .text:00401bb6 00 00                            add    %al,(%eax)
                           .text:00401bb8 00 00                            add    %al,(%eax)
                           .text:00401bba 00 00                            add    %al,(%eax)
                           .text:00401bbc 00 00                            add    %al,(%eax)
                           .text:00401bbe 00 00                            add    %al,(%eax)
                           .text:00401bc0 00 00                            add    %al,(%eax)
                           .text:00401bc2 00 00                            add    %al,(%eax)
                           .text:00401bc4 00 00                            add    %al,(%eax)
                           .text:00401bc6 00 00                            add    %al,(%eax)
                           .text:00401bc8 00 00                            add    %al,(%eax)
                           .text:00401bca 00 00                            add    %al,(%eax)
                           .text:00401bcc 00 00                            add    %al,(%eax)
                           .text:00401bce 00 00                            add    %al,(%eax)
                           .text:00401bd0 00 00                            add    %al,(%eax)
                           .text:00401bd2 00 00                            add    %al,(%eax)
                           .text:00401bd4 00 00                            add    %al,(%eax)
                           .text:00401bd6 00 00                            add    %al,(%eax)
                           .text:00401bd8 00 00                            add    %al,(%eax)
                           .text:00401bda 00 00                            add    %al,(%eax)
                           .text:00401bdc 00 00                            add    %al,(%eax)
                           .text:00401bde 00 00                            add    %al,(%eax)
                           .text:00401be0 00 00                            add    %al,(%eax)
                           .text:00401be2 00 00                            add    %al,(%eax)
                           .text:00401be4 00 00                            add    %al,(%eax)
                           .text:00401be6 00 00                            add    %al,(%eax)
                           .text:00401be8 7f 3f                            jg     0x00401c29
                           .text:00401bea 50                               push   %eax
                           .text:00401beb 36 57                            ss push %edi
                           .text:00401bed a6                               cmpsb  %es:(%edi),%ds:(%esi)
                           .text:00401bee b0 07                            mov    $0x7,%al
                           .text:00401bf0 40                               inc    %eax
                           .text:00401bf1 98                               cwtl   
                           .text:00401bf2 91                               xchg   %eax,%ecx
                           .text:00401bf3 b4 bf                            mov    $0xbf,%ah
                           .text:00401bf5 7f 00                            jg     0x00401bf7
                           .text:00401bf7 00 40 0d                         add    %al,0xd(%eax)
                           .text:00401bfa 55                               push   %ebp
                           .text:00401bfb b4 bf                            mov    $0xbf,%ah
                           .text:00401bfd 7f 00                            jg     0x00401bff
                           .text:00401bff 00 00                            add    %al,(%eax)
                           .text:00401c01 00 00                            add    %al,(%eax)
                           .text:00401c03 00 00                            add    %al,(%eax)
                           .text:00401c05 00 00                            add    %al,(%eax)
                           .text:00401c07 00 71 04                         add    %dh,0x4(%ecx)
                           .text:00401c0a 00 00                            add    %al,(%eax)
                           .text:00401c0c 00 00                            add    %al,(%eax)
                           .text:00401c0e 00 00                            add    %al,(%eax)
                           .text:00401c10 50                               push   %eax
                           .text:00401c11 b4 f1                            mov    $0xf1,%ah
                           .text:00401c13 0a 00                            or     (%eax),%al
                           .text:00401c15 00 00                            add    %al,(%eax)
                           .text:00401c17 00 78 1b                         add    %bh,0x1b(%eax)
                           .text:00401c1a c0 c3 bf                         rol    $0xbf,%bl
                           .text:00401c1d 7f 00                            jg     0x00401c1f
                           .text:00401c1f 00 00                            add    %al,(%eax)
                           .text:00401c21 00 00                            add    %al,(%eax)
                           .text:00401c23 00 00                            add    %al,(%eax)
                           .text:00401c25 00 00                            add    %al,(%eax)
                           .text:00401c27 00 00                            add    %al,(%eax)
                           .text:00401c29 00 00                            add    %al,(%eax)
                           .text:00401c2b 00 00                            add    %al,(%eax)
                           .text:00401c2d 00 00                            add    %al,(%eax)
                           .text:00401c2f 00 80 ad dd b9 bf                add    %al,-0x40462253(%eax)
                           .text:00401c35 7f 00                            jg     0x00401c37
                           .text:00401c37 00 20                            add    %ah,(%eax)
                           .text:00401c39 ca be 02                         lret   $0x2be
                           .text:00401c3c 00 00                            add    %al,(%eax)
                           .text:00401c3e 00 00                            add    %al,(%eax)
                           .text:00401c40 00 00                            add    %al,(%eax)
                           .text:00401c42 00 00                            add    %al,(%eax)
                           .text:00401c44 00 00                            add    %al,(%eax)
                           .text:00401c46 00 00                            add    %al,(%eax)
                           .text:00401c48 00 00                            add    %al,(%eax)
                           .text:00401c4a 00 00                            add    %al,(%eax)
                           .text:00401c4c 00 00                            add    %al,(%eax)
                           .text:00401c4e 00 00                            add    %al,(%eax)
                           .text:00401c50 00 00                            add    %al,(%eax)
                           .text:00401c52 00 00                            add    %al,(%eax)
                           .text:00401c54 00 00                            add    %al,(%eax)
                           .text:00401c56 00 00                            add    %al,(%eax)
                           .text:00401c58 00 00                            add    %al,(%eax)
                           .text:00401c5a 00 00                            add    %al,(%eax)
                           .text:00401c5c 00 00                            add    %al,(%eax)
                           .text:00401c5e 00 00                            add    %al,(%eax)
                           .text:00401c60 00 00                            add    %al,(%eax)
                           .text:00401c62 00 00                            add    %al,(%eax)
                           .text:00401c64 00 00                            add    %al,(%eax)
                           .text:00401c66 00 00                            add    %al,(%eax)
                           .text:00401c68 00 00                            add    %al,(%eax)
                           .text:00401c6a 00 00                            add    %al,(%eax)
                           .text:00401c6c 00 00                            add    %al,(%eax)
                           .text:00401c6e 00 00                            add    %al,(%eax)
                           .text:00401c70 24 17                            and    $0x17,%al
                           .text:00401c72 f6 60 38                         mulb   0x38(%eax)
                           .text:00401c75 9e                               sahf   
                           .text:00401c76 75 e6                            jne    0x00401c5e
                           .text:00401c78 40                               inc    %eax
                           .text:00401c79 9b                               fwait
                           .text:00401c7a 91                               xchg   %eax,%ecx
                           .text:00401c7b b4 bf                            mov    $0xbf,%ah
                           .text:00401c7d 7f 00                            jg     0x00401c7f
                           .text:00401c7f 00 b0 c6 dc b9 bf                add    %dh,-0x4046233a(%eax)
                           .text:00401c85 7f 00                            jg     0x00401c87
                           .text:00401c87 00 00                            add    %al,(%eax)
                           .text:00401c89 00 00                            add    %al,(%eax)
                           .text:00401c8b 00 00                            add    %al,(%eax)
                           .text:00401c8d 00 00                            add    %al,(%eax)
                           .text:00401c8f 00 00                            add    %al,(%eax)
                           .text:00401c91 00 00                            add    %al,(%eax)
                           .text:00401c93 00 00                            add    %al,(%eax)
                           .text:00401c95 00 00                            add    %al,(%eax)
                           .text:00401c97 00 00                            add    %al,(%eax)
                           .text:00401c99 00 00                            add    %al,(%eax)
                           .text:00401c9b 00 00                            add    %al,(%eax)
                           .text:00401c9d 00 00                            add    %al,(%eax)
                           .text:00401c9f 00 00                            add    %al,(%eax)
                           .text:00401ca1 00 00                            add    %al,(%eax)
                           .text:00401ca3 00 00                            add    %al,(%eax)
                           .text:00401ca5 00 00                            add    %al,(%eax)
                           .text:00401ca7 00 00                            add    %al,(%eax)
                           .text:00401ca9 00 00                            add    %al,(%eax)
                           .text:00401cab 00 00                            add    %al,(%eax)
                           .text:00401cad 00 00                            add    %al,(%eax)
                           .text:00401caf 00 00                            add    %al,(%eax)
                           .text:00401cb1 00 00                            add    %al,(%eax)
                           .text:00401cb3 00 00                            add    %al,(%eax)
                           .text:00401cb5 00 00                            add    %al,(%eax)
                           .text:00401cb7 00 07                            add    %al,(%edi)
                           .text:00401cb9 21 90 ff 32 7a 0a                and    %edx,0xa7a32ff(%eax)
                           .text:00401cbf 8f                               (bad)  
                           .text:00401cc0 b0 91                            mov    $0x91,%al
                           .text:00401cc2 91                               xchg   %eax,%ecx
                           .text:00401cc3 b4 bf                            mov    $0xbf,%ah
                           .text:00401cc5 7f 00                            jg     0x00401cc7
                           .text:00401cc7 00 d0                            add    %dl,%al
                           .text:00401cc9 97                               xchg   %eax,%edi
                           .text:00401cca 0e                               push   %cs
                           .text:00401ccb ba bf 7f 00 00                   mov    $0x7fbf,%edx
                           .text:00401cd0 68 19 74 74 a6                   push   $0xa6747419
                           .text:00401cd5 1b 75 71                         sbb    0x71(%ebp),%esi
                           .text:00401cd8 d0 95 91 b4 bf 7f                rclb   0x7fbfb491(%ebp)
                           .text:00401cde 00 00                            add    %al,(%eax)
                           .text:00401ce0 f0 c9                            lock leave 
                           .text:00401ce2 be 02 00 00 00                   mov    $0x2,%esi
                           .text:00401ce7 00 00                            add    %al,(%eax)
                           .text:00401ce9 00 00                            add    %al,(%eax)
                           .text:00401ceb 00 00                            add    %al,(%eax)
                           .text:00401ced 00 00                            add    %al,(%eax)
                           .text:00401cef 00 00                            add    %al,(%eax)
                           .text:00401cf1 00 00                            add    %al,(%eax)
                           .text:00401cf3 00 00                            add    %al,(%eax)
                           .text:00401cf5 00 00                            add    %al,(%eax)
                           .text:00401cf7 00 00                            add    %al,(%eax)
                           .text:00401cf9 00 00                            add    %al,(%eax)
                           .text:00401cfb 00 00                            add    %al,(%eax)
                           .text:00401cfd 00 00                            add    %al,(%eax)
                           .text:00401cff 00 00                            add    %al,(%eax)
                           .text:00401d01 00 00                            add    %al,(%eax)
                           .text:00401d03 00 00                            add    %al,(%eax)
                           .text:00401d05 00 00                            add    %al,(%eax)
                           .text:00401d07 00 00                            add    %al,(%eax)
                           .text:00401d09 00 00                            add    %al,(%eax)
                           .text:00401d0b 00 00                            add    %al,(%eax)
                           .text:00401d0d 00 00                            add    %al,(%eax)
                           .text:00401d0f 00 00                            add    %al,(%eax)
                           .text:00401d11 00 00                            add    %al,(%eax)
                           .text:00401d13 00 00                            add    %al,(%eax)
                           .text:00401d15 00 00                            add    %al,(%eax)
                           .text:00401d17 00 00                            add    %al,(%eax)
                           .text:00401d19 00 00                            add    %al,(%eax)
                           .text:00401d1b 00 00                            add    %al,(%eax)
                           .text:00401d1d 00 00                            add    %al,(%eax)
                           .text:00401d1f 00 00                            add    %al,(%eax)
                           .text:00401d21 00 00                            add    %al,(%eax)
                           .text:00401d23 00 00                            add    %al,(%eax)
                           .text:00401d25 00 00                            add    %al,(%eax)
                           .text:00401d27 00 00                            add    %al,(%eax)
                           .text:00401d29 00 00                            add    %al,(%eax)
                           .text:00401d2b 00 00                            add    %al,(%eax)
                           .text:00401d2d 00 00                            add    %al,(%eax)
                           .text:00401d2f 00 0c 28                         add    %cl,(%eax,%ebp,1)
                           .text:00401d32 9e                               sahf   
                           .text:00401d33 e5 a4                            in     $0xa4,%eax
                           .text:00401d35 b6 fc                            mov    $0xfc,%dh
                           .text:00401d37 35 70 98 91 b4                   xor    $0xb4919870,%eax
                           .text:00401d3c bf 7f 00 00 f0                   mov    $0xf000007f,%edi
                           .text:00401d41 c6                               (bad)  
                           .text:00401d42 dc b9 bf 7f 00 00                fdivrl 0x7fbf(%ecx)
                           .text:00401d48 00 00                            add    %al,(%eax)
                           .text:00401d4a 00 00                            add    %al,(%eax)
                           .text:00401d4c 00 00                            add    %al,(%eax)
                           .text:00401d4e 00 00                            add    %al,(%eax)
                           .text:00401d50 00 00                            add    %al,(%eax)
                           .text:00401d52 00 00                            add    %al,(%eax)
                           .text:00401d54 00 00                            add    %al,(%eax)
                           .text:00401d56 00 00                            add    %al,(%eax)
                           .text:00401d58 00 00                            add    %al,(%eax)
                           .text:00401d5a 00 00                            add    %al,(%eax)
                           .text:00401d5c 00 00                            add    %al,(%eax)
                           .text:00401d5e 00 00                            add    %al,(%eax)
                           .text:00401d60 ce                               into   
                           .text:00401d61 11 c6                            adc    %eax,%esi
                           .text:00401d63 f6 d0                            not    %al
                           .text:00401d65 28 d7                            sub    %dl,%bh
                           .text:00401d67 25 30 99 91 b4                   and    $0xb4919930,%eax
                           .text:00401d6c bf 7f 00 00 60                   mov    $0x6000007f,%edi
                           .text:00401d71 58                               pop    %eax
                           .text:00401d72 70 00                            jo     0x00401d74
                           .text:00401d74 00 00                            add    %al,(%eax)
                           .text:00401d76 00 00                            add    %al,(%eax)
                           .text:00401d78 00 00                            add    %al,(%eax)
                           .text:00401d7a 00 00                            add    %al,(%eax)
                           .text:00401d7c 00 00                            add    %al,(%eax)
                           .text:00401d7e 00 00                            add    %al,(%eax)
                           .text:00401d80 00 00                            add    %al,(%eax)
                           .text:00401d82 00 00                            add    %al,(%eax)
                           .text:00401d84 00 00                            add    %al,(%eax)
                           .text:00401d86 00 00                            add    %al,(%eax)
                           .text:00401d88 00 00                            add    %al,(%eax)
                           .text:00401d8a 00 00                            add    %al,(%eax)
                           .text:00401d8c 00 00                            add    %al,(%eax)
                           .text:00401d8e 00 00                            add    %al,(%eax)
                           .text:00401d90 f0 85 d8                         lock test %ebx,%eax
                           .text:00401d93 e0 1d                            loopne 0x00401db2
                           .text:00401d95 65 80 00 c0                      addb   $0xc0,%gs:(%eax)
                           .text:00401d99 99                               cltd   
                           .text:00401d9a 91                               xchg   %eax,%ecx
                           .text:00401d9b b4 bf                            mov    $0xbf,%ah
                           .text:00401d9d 7f 00                            jg     0x00401d9f
                           .text:00401d9f 00 10                            add    %dl,(%eax)
                           .text:00401da1 c7                               (bad)  
                           .text:00401da2 dc b9 bf 7f 00 00                fdivrl 0x7fbf(%ecx)
                           .text:00401da8 00 00                            add    %al,(%eax)
                           .text:00401daa 00 00                            add    %al,(%eax)
                           .text:00401dac 00 00                            add    %al,(%eax)
                           .text:00401dae 00 00                            add    %al,(%eax)
                           .text:00401db0 00 00                            add    %al,(%eax)
                           .text:00401db2 00 00                            add    %al,(%eax)
                           .text:00401db4 00 00                            add    %al,(%eax)
                           .text:00401db6 00 00                            add    %al,(%eax)
                           .text:00401db8 00 00                            add    %al,(%eax)
                           .text:00401dba 00 00                            add    %al,(%eax)
                           .text:00401dbc 00 00                            add    %al,(%eax)
                           .text:00401dbe 00 00                            add    %al,(%eax)
                           .text:00401dc0 00 00                            add    %al,(%eax)
                           .text:00401dc2 00 00                            add    %al,(%eax)
                           .text:00401dc4 00 00                            add    %al,(%eax)
                           .text:00401dc6 00 00                            add    %al,(%eax)
                           .text:00401dc8 00 00                            add    %al,(%eax)
                           .text:00401dca 00 00                            add    %al,(%eax)
                           .text:00401dcc 00 00                            add    %al,(%eax)
                           .text:00401dce 00 00                            add    %al,(%eax)
                           .text:00401dd0 00 00                            add    %al,(%eax)
                           .text:00401dd2 00 00                            add    %al,(%eax)
                           .text:00401dd4 00 00                            add    %al,(%eax)
                           .text:00401dd6 00 00                            add    %al,(%eax)
                           .text:00401dd8 93                               xchg   %eax,%ebx
                           .text:00401dd9 f9                               stc    
                           .text:00401dda 57                               push   %edi
                           .text:00401ddb 14 63                            adc    $0x63,%al
                           .text:00401ddd df 3f                            fistpll (%edi)
                           .text:00401ddf eb 88                            jmp    0x00401d69
                           .text:00401de1 22 48 ba                         and    -0x46(%eax),%cl
                           .text:00401de4 bf 7f 00 00 b0                   mov    $0xb000007f,%edi
                           .text:00401de9 58                               pop    %eax
                           .text:00401dea 70 00                            jo     0x00401dec
                           .text:00401dec 00 00                            add    %al,(%eax)
                           .text:00401dee 00 00                            add    %al,(%eax)
                           .text:00401df0 00 00                            add    %al,(%eax)
                           .text:00401df2 00 00                            add    %al,(%eax)
                           .text:00401df4 00 00                            add    %al,(%eax)
                           .text:00401df6 00 00                            add    %al,(%eax)
                           .text:00401df8 00 00                            add    %al,(%eax)
                           .text:00401dfa 00 00                            add    %al,(%eax)
                           .text:00401dfc 00 00                            add    %al,(%eax)
                           .text:00401dfe 00 00                            add    %al,(%eax)
                           .text:00401e00 00 00                            add    %al,(%eax)
                           .text:00401e02 00 00                            add    %al,(%eax)
                           .text:00401e04 00 00                            add    %al,(%eax)
                           .text:00401e06 00 00                            add    %al,(%eax)
                           .text:00401e08 ae                               scas   %es:(%edi),%al
                           .text:00401e09 0b 37                            or     (%edi),%esi
                           .text:00401e0b 0c 59                            or     $0x59,%al
                           .text:00401e0d f3 03 fd                         repz add %ebp,%edi
                           .text:00401e10 c0 6f eb b9                      shrb   $0xb9,-0x15(%edi)
                           .text:00401e14 bf 7f 00 00 e0                   mov    $0xe000007f,%edi
                           .text:00401e19 92                               xchg   %eax,%edx
                           .text:00401e1a 4c                               dec    %esp
                           .text:00401e1b 01 00                            add    %eax,(%eax)
                           .text:00401e1d 00 00                            add    %al,(%eax)
                           .text:00401e1f 00 00                            add    %al,(%eax)
                           .text:00401e21 00 00                            add    %al,(%eax)
                           .text:00401e23 00 00                            add    %al,(%eax)
                           .text:00401e25 00 00                            add    %al,(%eax)
                           .text:00401e27 00 00                            add    %al,(%eax)
                           .text:00401e29 00 00                            add    %al,(%eax)
                           .text:00401e2b 00 00                            add    %al,(%eax)
                           .text:00401e2d 00 00                            add    %al,(%eax)
                           .text:00401e2f 00 00                            add    %al,(%eax)
                           .text:00401e31 00 00                            add    %al,(%eax)
                           .text:00401e33 00 00                            add    %al,(%eax)
                           .text:00401e35 00 00                            add    %al,(%eax)
                           .text:00401e37 00 00                            add    %al,(%eax)
                           .text:00401e39 00 00                            add    %al,(%eax)
                           .text:00401e3b 00 00                            add    %al,(%eax)
                           .text:00401e3d 00 00                            add    %al,(%eax)
                           .text:00401e3f 00 00                            add    %al,(%eax)
                           .text:00401e41 00 00                            add    %al,(%eax)
                           .text:00401e43 00 00                            add    %al,(%eax)
                           .text:00401e45 00 00                            add    %al,(%eax)
                           .text:00401e47 00 00                            add    %al,(%eax)
                           .text:00401e49 00 00                            add    %al,(%eax)
                           .text:00401e4b 00 00                            add    %al,(%eax)
                           .text:00401e4d 00 00                            add    %al,(%eax)
                           .text:00401e4f 00 00                            add    %al,(%eax)
                           .text:00401e51 00 00                            add    %al,(%eax)
                           .text:00401e53 00 00                            add    %al,(%eax)
                           .text:00401e55 00 00                            add    %al,(%eax)
                           .text:00401e57 00 00                            add    %al,(%eax)
                           .text:00401e59 00 00                            add    %al,(%eax)
                           .text:00401e5b 00 00                            add    %al,(%eax)
                           .text:00401e5d 00 00                            add    %al,(%eax)
                           .text:00401e5f 00 00                            add    %al,(%eax)
                           .text:00401e61 00 00                            add    %al,(%eax)
                           .text:00401e63 00 00                            add    %al,(%eax)
                           .text:00401e65 00 00                            add    %al,(%eax)
                           .text:00401e67 00 00                            add    %al,(%eax)
                           .text:00401e69 00 00                            add    %al,(%eax)
                           .text:00401e6b 00 00                            add    %al,(%eax)
                           .text:00401e6d 00 00                            add    %al,(%eax)
                           .text:00401e6f 00 00                            add    %al,(%eax)
                           .text:00401e71 00 00                            add    %al,(%eax)
                           .text:00401e73 00 00                            add    %al,(%eax)
                           .text:00401e75 00 00                            add    %al,(%eax)
                           .text:00401e77 00 00                            add    %al,(%eax)
                           .text:00401e79 00 00                            add    %al,(%eax)
                           .text:00401e7b 00 00                            add    %al,(%eax)
                           .text:00401e7d 00 00                            add    %al,(%eax)
                           .text:00401e7f 00 00                            add    %al,(%eax)
                           .text:00401e81 00 00                            add    %al,(%eax)
                           .text:00401e83 00 00                            add    %al,(%eax)
                           .text:00401e85 00 00                            add    %al,(%eax)
                           .text:00401e87 00 00                            add    %al,(%eax)
                           .text:00401e89 00 00                            add    %al,(%eax)
                           .text:00401e8b 00 00                            add    %al,(%eax)
                           .text:00401e8d 00 00                            add    %al,(%eax)
                           .text:00401e8f 00 00                            add    %al,(%eax)
                           .text:00401e91 00 00                            add    %al,(%eax)
                           .text:00401e93 00 00                            add    %al,(%eax)
                           .text:00401e95 00 00                            add    %al,(%eax)
                           .text:00401e97 00 00                            add    %al,(%eax)
                           .text:00401e99 00 00                            add    %al,(%eax)
                           .text:00401e9b 00 00                            add    %al,(%eax)
                           .text:00401e9d 00 00                            add    %al,(%eax)
                           .text:00401e9f 00 00                            add    %al,(%eax)
                           .text:00401ea1 00 00                            add    %al,(%eax)
                           .text:00401ea3 00 00                            add    %al,(%eax)
                           .text:00401ea5 00 00                            add    %al,(%eax)
                           .text:00401ea7 00 00                            add    %al,(%eax)
                           .text:00401ea9 00 00                            add    %al,(%eax)
                           .text:00401eab 00 00                            add    %al,(%eax)
                           .text:00401ead 00 00                            add    %al,(%eax)
                           .text:00401eaf 00 00                            add    %al,(%eax)
                           .text:00401eb1 00 00                            add    %al,(%eax)
                           .text:00401eb3 00 00                            add    %al,(%eax)
                           .text:00401eb5 00 00                            add    %al,(%eax)
                           .text:00401eb7 00 00                            add    %al,(%eax)
                           .text:00401eb9 00 00                            add    %al,(%eax)
                           .text:00401ebb 00 00                            add    %al,(%eax)
                           .text:00401ebd 00 00                            add    %al,(%eax)
                           .text:00401ebf 00 00                            add    %al,(%eax)
                           .text:00401ec1 00 00                            add    %al,(%eax)
                           .text:00401ec3 00 00                            add    %al,(%eax)
                           .text:00401ec5 00 00                            add    %al,(%eax)
                           .text:00401ec7 00 00                            add    %al,(%eax)
                           .text:00401ec9 00 00                            add    %al,(%eax)
                           .text:00401ecb 00 00                            add    %al,(%eax)
                           .text:00401ecd 00 00                            add    %al,(%eax)
                           .text:00401ecf 00 00                            add    %al,(%eax)
                           .text:00401ed1 00 00                            add    %al,(%eax)
                           .text:00401ed3 00 00                            add    %al,(%eax)
                           .text:00401ed5 00 00                            add    %al,(%eax)
                           .text:00401ed7 00 00                            add    %al,(%eax)
                           .text:00401ed9 00 00                            add    %al,(%eax)
                           .text:00401edb 00 00                            add    %al,(%eax)
                           .text:00401edd 00 00                            add    %al,(%eax)
                           .text:00401edf 00 00                            add    %al,(%eax)
                           .text:00401ee1 00 00                            add    %al,(%eax)
                           .text:00401ee3 00 00                            add    %al,(%eax)
                           .text:00401ee5 00 00                            add    %al,(%eax)
                           .text:00401ee7 00 00                            add    %al,(%eax)
                           .text:00401ee9 00 00                            add    %al,(%eax)
                           .text:00401eeb 00 00                            add    %al,(%eax)
                           .text:00401eed 00 00                            add    %al,(%eax)
                           .text:00401eef 00 00                            add    %al,(%eax)
                           .text:00401ef1 00 00                            add    %al,(%eax)
                           .text:00401ef3 00 00                            add    %al,(%eax)
                           .text:00401ef5 00 00                            add    %al,(%eax)
                           .text:00401ef7 00 00                            add    %al,(%eax)
                           .text:00401ef9 00 00                            add    %al,(%eax)
                           .text:00401efb 00 00                            add    %al,(%eax)
                           .text:00401efd 00 00                            add    %al,(%eax)
                           .text:00401eff 00 00                            add    %al,(%eax)
                           .text:00401f01 00 00                            add    %al,(%eax)
                           .text:00401f03 00 00                            add    %al,(%eax)
                           .text:00401f05 00 00                            add    %al,(%eax)
                           .text:00401f07 00 00                            add    %al,(%eax)
                           .text:00401f09 00 00                            add    %al,(%eax)
                           .text:00401f0b 00 00                            add    %al,(%eax)
                           .text:00401f0d 00 00                            add    %al,(%eax)
                           .text:00401f0f 00 00                            add    %al,(%eax)
                           .text:00401f11 00 00                            add    %al,(%eax)
                           .text:00401f13 00 00                            add    %al,(%eax)
                           .text:00401f15 00 00                            add    %al,(%eax)
                           .text:00401f17 00 61 01                         add    %ah,0x1(%ecx)
                           .text:00401f1a 00 00                            add    %al,(%eax)
                           .text:00401f1c 00 00                            add    %al,(%eax)
                           .text:00401f1e 00 00                            add    %al,(%eax)
                           .text:00401f20 80 c1 37                         add    $0x37,%cl
                           .text:00401f23 03 00                            add    (%eax),%eax
                           .text:00401f25 00 00                            add    %al,(%eax)
                           .text:00401f27 00 c8                            add    %cl,%al
                           .text:00401f29 1c c0                            sbb    $0xc0,%al
                           .text:00401f2b c3                               ret    
                           .text:00401f2c bf 7f 00 00 08                   mov    $0x800007f,%edi
                           .text:00401f31 5a                               pop    %edx
                           .text:00401f32 6d                               insl   (%dx),%es:(%edi)
                           .text:00401f33 c5 bf 7f 00 00 c0                lds    -0x3fffff81(%edi),%edi
                           .text:00401f39 99                               cltd   
                           .text:00401f3a 91                               xchg   %eax,%ecx
                           .text:00401f3b b4 bf                            mov    $0xbf,%ah
                           .text:00401f3d 7f 00                            jg     0x00401f3f
                           .text:00401f3f 00 c8                            add    %cl,%al
                           .text:00401f41 d8 6b c5                         fsubrs -0x3b(%ebx)
                           .text:00401f44 bf 7f 00 00 28                   mov    $0x2800007f,%edi
                           .text:00401f49 c3                               ret    
                           .text:00401f4a 52                               push   %edx
                           .text:00401f4b c0 bf 7f 00 00 a0 d8             sarb   $0xd8,-0x5fffff81(%edi)
                           .text:00401f52 6b c5 bf                         imul   $0xffffffbf,%ebp,%eax
                           .text:00401f55 7f 00                            jg     0x00401f57
                           .text:00401f57 00 f0                            add    %dh,%al
                           .text:00401f59 99                               cltd   
                           .text:00401f5a 91                               xchg   %eax,%ecx
                           .text:00401f5b b4 bf                            mov    $0xbf,%ah
                           .text:00401f5d 7f 00                            jg     0x00401f5f
                           .text:00401f5f 00 08                            add    %cl,(%eax)
                           .text:00401f61 5a                               pop    %edx
                           .text:00401f62 6d                               insl   (%dx),%es:(%edi)
                           .text:00401f63 c5 bf 7f 00 00 50                lds    0x5000007f(%edi),%edi
                           .text:00401f69 9a 91 b4 bf 7f 00 00             lcall  $0x0,$0x7fbfb491
                           .text:00401f70 28 c3                            sub    %al,%bl
                           .text:00401f72 52                               push   %edx
                           .text:00401f73 c0 bf 7f 00 00 b0 9a             sarb   $0x9a,-0x4fffff81(%edi)
                           .text:00401f7a 91                               xchg   %eax,%ecx
                           .text:00401f7b b4 bf                            mov    $0xbf,%ah
                           .text:00401f7d 7f 00                            jg     0x00401f7f
                           .text:00401f7f 00 08                            add    %cl,(%eax)
                           .text:00401f81 5a                               pop    %edx
                           .text:00401f82 6d                               insl   (%dx),%es:(%edi)
                           .text:00401f83 c5 bf 7f 00 00 10                lds    0x1000007f(%edi),%edi
                           .text:00401f89 9b                               fwait
                           .text:00401f8a 91                               xchg   %eax,%ecx
                           .text:00401f8b b4 bf                            mov    $0xbf,%ah
                           .text:00401f8d 7f 00                            jg     0x00401f8f
                           .text:00401f8f 00 c8                            add    %cl,%al
                           .text:00401f91 d8 6b c5                         fsubrs -0x3b(%ebx)
                           .text:00401f94 bf 7f 00 00 28                   mov    $0x2800007f,%edi
                           .text:00401f99 c3                               ret    
                           .text:00401f9a 52                               push   %edx
                           .text:00401f9b c0 bf 7f 00 00 a0 d8             sarb   $0xd8,-0x5fffff81(%edi)
                           .text:00401fa2 6b c5 bf                         imul   $0xffffffbf,%ebp,%eax
                           .text:00401fa5 7f 00                            jg     0x00401fa7
                           .text:00401fa7 00 70 9b                         add    %dh,-0x65(%eax)
                           .text:00401faa 91                               xchg   %eax,%ecx
                           .text:00401fab b4 bf                            mov    $0xbf,%ah
                           .text:00401fad 7f 00                            jg     0x00401faf
                           .text:00401faf 00 08                            add    %cl,(%eax)
                           .text:00401fb1 5a                               pop    %edx
                           .text:00401fb2 6d                               insl   (%dx),%es:(%edi)
                           .text:00401fb3 c5 bf 7f 00 00 00                lds    0x7f(%edi),%edi
                           .text:00401fb9 9c                               pushf  
                           .text:00401fba 91                               xchg   %eax,%ecx
                           .text:00401fbb b4 bf                            mov    $0xbf,%ah
                           .text:00401fbd 7f 00                            jg     0x00401fbf
                           .text:00401fbf 00 28                            add    %ch,(%eax)
                           .text:00401fc1 c3                               ret    
                           .text:00401fc2 52                               push   %edx
                           .text:00401fc3 c0 bf 7f 00 00 30 9c             sarb   $0x9c,0x3000007f(%edi)
                           .text:00401fca 91                               xchg   %eax,%ecx
                           .text:00401fcb b4 bf                            mov    $0xbf,%ah
                           .text:00401fcd 7f 00                            jg     0x00401fcf
                           .text:00401fcf 00 08                            add    %cl,(%eax)
                           .text:00401fd1 5a                               pop    %edx
                           .text:00401fd2 6d                               insl   (%dx),%es:(%edi)
                           .text:00401fd3 c5 bf 7f 00 00 90                lds    -0x6fffff81(%edi),%edi
                           .text:00401fd9 9c                               pushf  
                           .text:00401fda 91                               xchg   %eax,%ecx
                           .text:00401fdb b4 bf                            mov    $0xbf,%ah
                           .text:00401fdd 7f 00                            jg     0x00401fdf
                           .text:00401fdf 00 c8                            add    %cl,%al
                           .text:00401fe1 d8 6b c5                         fsubrs -0x3b(%ebx)
                           .text:00401fe4 bf 7f 00 00 28                   mov    $0x2800007f,%edi
                           .text:00401fe9 c3                               ret    
                           .text:00401fea 52                               push   %edx
                           .text:00401feb c0 bf 7f 00 00 a0 d8             sarb   $0xd8,-0x5fffff81(%edi)
                           .text:00401ff2 6b c5 bf                         imul   $0xffffffbf,%ebp,%eax
                           .text:00401ff5 7f 00                            jg     0x00401ff7
                           .text:00401ff7 00 f0                            add    %dh,%al
                           .text:00401ff9 9c                               pushf  
                           .text:00401ffa 91                               xchg   %eax,%ecx
                           .text:00401ffb b4 bf                            mov    $0xbf,%ah
                           .text:00401ffd 7f 00                            jg     0x00401fff
                           .text:00401fff 00                               .byte 0x0
