                            CODE:00401000 60                               pusha  
                            CODE:00401001 50                               push   %eax
                            CODE:00401002 ba 51 04 00 00                   mov    $0x451,%edx
                            CODE:00401007 03 d0                            add    %eax,%edx
                            CODE:00401009 8b 02                            mov    (%edx),%eax
                            CODE:0040100b 05 00 00 40 00                   add    $0x400000,%eax
                            CODE:00401010 89 44 24 20                      mov    %eax,0x20(%esp)
                            CODE:00401014 e8 bf 02 00 00                   call   0x004012d8
                            CODE:00401019 0b f6                            or     %esi,%esi
                            CODE:0040101b 0f 84 94 00 00 00                je     0x004010b5
                            CODE:00401021 8f 06                            popl   (%esi)
                            CODE:00401023 56                               push   %esi
                            CODE:00401024 5d                               pop    %ebp
                            CODE:00401025 e8 13 03 00 00                   call   0x0040133d
                            CODE:0040102a e9 82 00 00 00                   jmp    0x004010b1
                            CODE:0040102f 43                               inc    %ebx
                            CODE:00401030 72 65                            jb     0x00401097
                            CODE:00401032 61                               popa   
                            CODE:00401033 74 65                            je     0x0040109a
                            CODE:00401035 46                               inc    %esi
                            CODE:00401036 69 6c 65 41 00 5f 6c 63          imul   $0x636c5f00,0x41(%ebp,%eiz,2),%ebp
                            CODE:0040103e 6c                               insb   (%dx),%es:(%edi)
                            CODE:0040103f 6f                               outsl  %ds:(%esi),(%dx)
                            CODE:00401040 73 65                            jae    0x004010a7
                            CODE:00401042 00 52 65                         add    %dl,0x65(%edx)
                            CODE:00401045 61                               popa   
                            CODE:00401046 64 46                            fs inc %esi
                            CODE:00401048 69 6c 65 00 46 69 6e 64          imul   $0x646e6946,0x0(%ebp,%eiz,2),%ebp
                            CODE:00401050 46                               inc    %esi
                            CODE:00401051 69 72 73 74 46 69 6c             imul   $0x6c694674,0x73(%edx),%esi
                            CODE:00401058 65 41                            gs inc %ecx
                            CODE:0040105a 00 46 69                         add    %al,0x69(%esi)
                            CODE:0040105d 6e                               outsb  %ds:(%esi),(%dx)
                            CODE:0040105e 64 4e                            fs dec %esi
                            CODE:00401060 65 78 74                         gs js  0x004010d7
                            CODE:00401063 46                               inc    %esi
                            CODE:00401064 69 6c 65 41 00 57 72 69          imul   $0x69725700,0x41(%ebp,%eiz,2),%ebp
                            CODE:0040106c 74 65                            je     0x004010d3
                            CODE:0040106e 46                               inc    %esi
                            CODE:0040106f 69 6c 65 00 53 65 74 46          imul   $0x46746553,0x0(%ebp,%eiz,2),%ebp
                            CODE:00401077 69 6c 65 50 6f 69 6e 74          imul   $0x746e696f,0x50(%ebp,%eiz,2),%ebp
                            CODE:0040107f 65 72 00                         gs jb  0x00401082
                            CODE:00401082 4c                               dec    %esp
                            CODE:00401083 6f                               outsl  %ds:(%esi),(%dx)
                            CODE:00401084 61                               popa   
                            CODE:00401085 64 4c                            fs dec %esp
                            CODE:00401087 69 62 72 61 72 79 41             imul   $0x41797261,0x72(%edx),%esp
                            CODE:0040108e 00 47 65                         add    %al,0x65(%edi)
                            CODE:00401091 74 50                            je     0x004010e3
                            CODE:00401093 72 6f                            jb     0x00401104
                            CODE:00401095 63 41 64                         arpl   %ax,0x64(%ecx)
                            CODE:00401098 64 72 65                         fs jb  0x00401100
                            CODE:0040109b 73 73                            jae    0x00401110
                            CODE:0040109d 00 55 53                         add    %dl,0x53(%ebp)
                            CODE:004010a0 45                               inc    %ebp
                            CODE:004010a1 52                               push   %edx
                            CODE:004010a2 33 32                            xor    (%edx),%esi
                            CODE:004010a4 00 4d 65                         add    %cl,0x65(%ebp)
                            CODE:004010a7 73 73                            jae    0x0040111c
                            CODE:004010a9 61                               popa   
                            CODE:004010aa 67 65 42                         addr16 gs inc %edx
                            CODE:004010ad 6f                               outsl  %ds:(%esi),(%dx)
                            CODE:004010ae 78 41                            js     0x004010f1
                            CODE:004010b0 00 0b                            add    %cl,(%ebx)
                            CODE:004010b2 f6 75 03                         divb   0x3(%ebp)
                            CODE:004010b5 58                               pop    %eax
                            CODE:004010b6 eb 31                            jmp    0x004010e9
                            CODE:004010b8 e8 d0 01 00 00                   call   0x0040128d
                            CODE:004010bd eb 05                            jmp    0x004010c4
                            CODE:004010bf e8 01 02 00 00                   call   0x004012c5
                            CODE:004010c4 83 f8 00                         cmp    $0x0,%eax
                            CODE:004010c7 74 20                            je     0x004010e9
                            CODE:004010c9 e8 31 01 00 00                   call   0x004011ff
                            CODE:004010ce 83 f8 00                         cmp    $0x0,%eax
                            CODE:004010d1 75 07                            jne    0x004010da
                            CODE:004010d3 e8 0f 01 00 00                   call   0x004011e7
                            CODE:004010d8 eb e5                            jmp    0x004010bf
                            CODE:004010da e8 0d 00 00 00                   call   0x004010ec
                            CODE:004010df 83 f8 00                         cmp    $0x0,%eax
                            CODE:004010e2 74 db                            je     0x004010bf
                            CODE:004010e4 e8 fe 00 00 00                   call   0x004011e7
                            CODE:004010e9 61                               popa   
                            CODE:004010ea ff e0                            jmp    *%eax
                            CODE:004010ec 8b 85 e0 00 00 00                mov    0xe0(%ebp),%eax
                            CODE:004010f2 e8 e4 00 00 00                   call   0x004011db
                            CODE:004010f7 8b 75 18                         mov    0x18(%ebp),%esi
                            CODE:004010fa 8b 46 28                         mov    0x28(%esi),%eax
                            CODE:004010fd 89 45 20                         mov    %eax,0x20(%ebp)
                            CODE:00401100 b8 50 04 00 00                   mov    $0x450,%eax
                            CODE:00401105 8b 4e 3c                         mov    0x3c(%esi),%ecx
                            CODE:00401108 03 c1                            add    %ecx,%eax
                            CODE:0040110a 33 d2                            xor    %edx,%edx
                            CODE:0040110c f7 f1                            div    %ecx
                            CODE:0040110e f7 e1                            mul    %ecx
                            CODE:00401110 50                               push   %eax
                            CODE:00401111 59                               pop    %ecx
                            CODE:00401112 89 4d 14                         mov    %ecx,0x14(%ebp)
                            CODE:00401115 01 4e 50                         add    %ecx,0x50(%esi)
                            CODE:00401118 b9 51 04 00 00                   mov    $0x451,%ecx
                            CODE:0040111d 8b 55 00                         mov    0x0(%ebp),%edx
                            CODE:00401120 e8 c9 00 00 00                   call   0x004011ee
                            CODE:00401125 b9 08 00 00 00                   mov    $0x8,%ecx
                            CODE:0040112a 8b d5                            mov    %ebp,%edx
                            CODE:0040112c 83 c2 20                         add    $0x20,%edx
                            CODE:0040112f e8 ba 00 00 00                   call   0x004011ee
                            CODE:00401134 ba 00 04 40 00                   mov    $0x400400,%edx
                            CODE:00401139 8b 4d 14                         mov    0x14(%ebp),%ecx
                            CODE:0040113c 81 e9 59 04 00 00                sub    $0x459,%ecx
                            CODE:00401142 e8 a7 00 00 00                   call   0x004011ee
                            CODE:00401147 66 8b 46 06                      mov    0x6(%esi),%ax
                            CODE:0040114b 98                               cwtl   
                            CODE:0040114c 48                               dec    %eax
                            CODE:0040114d b9 28 00 00 00                   mov    $0x28,%ecx
                            CODE:00401152 f7 e1                            mul    %ecx
                            CODE:00401154 05 f8 00 00 00                   add    $0xf8,%eax
                            CODE:00401159 56                               push   %esi
                            CODE:0040115a 5f                               pop    %edi
                            CODE:0040115b 03 f0                            add    %eax,%esi
                            CODE:0040115d 3d d8 03 00 00                   cmp    $0x3d8,%eax
                            CODE:00401162 7f 74                            jg     0x004011d8
                            CODE:00401164 8b 85 e0 00 00 00                mov    0xe0(%ebp),%eax
                            CODE:0040116a 8b 4f 3c                         mov    0x3c(%edi),%ecx
                            CODE:0040116d 33 d2                            xor    %edx,%edx
                            CODE:0040116f f7 f1                            div    %ecx
                            CODE:00401171 52                               push   %edx
                            CODE:00401172 50                               push   %eax
                            CODE:00401173 8b 46 14                         mov    0x14(%esi),%eax
                            CODE:00401176 f7 f1                            div    %ecx
                            CODE:00401178 5b                               pop    %ebx
                            CODE:00401179 2b d8                            sub    %eax,%ebx
                            CODE:0040117b 53                               push   %ebx
                            CODE:0040117c 8b 46 10                         mov    0x10(%esi),%eax
                            CODE:0040117f 48                               dec    %eax
                            CODE:00401180 03 c1                            add    %ecx,%eax
                            CODE:00401182 f7 f1                            div    %ecx
                            CODE:00401184 50                               push   %eax
                            CODE:00401185 5b                               pop    %ebx
                            CODE:00401186 58                               pop    %eax
                            CODE:00401187 2b c3                            sub    %ebx,%eax
                            CODE:00401189 f7 e1                            mul    %ecx
                            CODE:0040118b 5b                               pop    %ebx
                            CODE:0040118c 03 c3                            add    %ebx,%eax
                            CODE:0040118e 89 45 7c                         mov    %eax,0x7c(%ebp)
                            CODE:00401191 01 47 50                         add    %eax,0x50(%edi)
                            CODE:00401194 8b 46 0c                         mov    0xc(%esi),%eax
                            CODE:00401197 03 46 10                         add    0x10(%esi),%eax
                            CODE:0040119a 03 45 7c                         add    0x7c(%ebp),%eax
                            CODE:0040119d 89 47 28                         mov    %eax,0x28(%edi)
                            CODE:004011a0 8b 45 14                         mov    0x14(%ebp),%eax
                            CODE:004011a3 03 45 7c                         add    0x7c(%ebp),%eax
                            CODE:004011a6 01 46 08                         add    %eax,0x8(%esi)
                            CODE:004011a9 01 46 10                         add    %eax,0x10(%esi)
                            CODE:004011ac 81 4e 24 20 00 00 20             orl    $0x20000020,0x24(%esi)
                            CODE:004011b3 66 b8 4c 54                      mov    $0x544c,%ax
                            CODE:004011b7 66 89 85 12 02 00 00             mov    %ax,0x212(%ebp)
                            CODE:004011be 33 c0                            xor    %eax,%eax
                            CODE:004011c0 e8 16 00 00 00                   call   0x004011db
                            CODE:004011c5 b9 00 04 00 00                   mov    $0x400,%ecx
                            CODE:004011ca 8b d5                            mov    %ebp,%edx
                            CODE:004011cc 81 c2 00 02 00 00                add    $0x200,%edx
                            CODE:004011d2 e8 17 00 00 00                   call   0x004011ee
                            CODE:004011d7 c3                               ret    
                            CODE:004011d8 33 c0                            xor    %eax,%eax
                            CODE:004011da c3                               ret    
                            CODE:004011db 6a 00                            push   $0x0
                            CODE:004011dd 6a 00                            push   $0x0
                            CODE:004011df 50                               push   %eax
                            CODE:004011e0 ff 75 10                         pushl  0x10(%ebp)
                            CODE:004011e3 ff 55 44                         call   *0x44(%ebp)
                            CODE:004011e6 c3                               ret    
                            CODE:004011e7 ff 75 10                         pushl  0x10(%ebp)
                            CODE:004011ea ff 55 30                         call   *0x30(%ebp)
                            CODE:004011ed c3                               ret    
                            CODE:004011ee 6a 00                            push   $0x0
                            CODE:004011f0 8d 45 78                         lea    0x78(%ebp),%eax
                            CODE:004011f3 50                               push   %eax
                            CODE:004011f4 51                               push   %ecx
                            CODE:004011f5 52                               push   %edx
                            CODE:004011f6 ff 75 10                         pushl  0x10(%ebp)
                            CODE:004011f9 ff 55 40                         call   *0x40(%ebp)
                            CODE:004011fc 0b c0                            or     %eax,%eax
                            CODE:004011fe c3                               ret    
                            CODE:004011ff e8 6e 00 00 00                   call   0x00401272
                            CODE:00401204 83 f8 ff                         cmp    $0xffffffff,%eax
                            CODE:00401207 74 55                            je     0x0040125e
                            CODE:00401209 b9 00 04 00 00                   mov    $0x400,%ecx
                            CODE:0040120e 8d 95 00 02 00 00                lea    0x200(%ebp),%edx
                            CODE:00401214 e8 48 00 00 00                   call   0x00401261
                            CODE:00401219 74 43                            je     0x0040125e
                            CODE:0040121b 8b 85 00 02 00 00                mov    0x200(%ebp),%eax
                            CODE:00401221 66 3d 4d 5a                      cmp    $0x5a4d,%ax
                            CODE:00401225 75 37                            jne    0x0040125e
                            CODE:00401227 66 8b 85 3c 02 00 00             mov    0x23c(%ebp),%ax
                            CODE:0040122e 98                               cwtl   
                            CODE:0040122f 05 00 02 00 00                   add    $0x200,%eax
                            CODE:00401234 03 c5                            add    %ebp,%eax
                            CODE:00401236 89 45 18                         mov    %eax,0x18(%ebp)
                            CODE:00401239 50                               push   %eax
                            CODE:0040123a 5e                               pop    %esi
                            CODE:0040123b 8b 06                            mov    (%esi),%eax
                            CODE:0040123d 3d 50 45 00 00                   cmp    $0x4550,%eax
                            CODE:00401242 75 1a                            jne    0x0040125e
                            CODE:00401244 66 8b 85 12 02 00 00             mov    0x212(%ebp),%ax
                            CODE:0040124b 66 3d 4c 54                      cmp    $0x544c,%ax
                            CODE:0040124f 74 0d                            je     0x0040125e
                            CODE:00401251 8b 46 34                         mov    0x34(%esi),%eax
                            CODE:00401254 3d 00 00 40 00                   cmp    $0x400000,%eax
                            CODE:00401259 75 03                            jne    0x0040125e
                            CODE:0040125b 66 40                            inc    %ax
                            CODE:0040125d c3                               ret    
                            CODE:0040125e 33 c0                            xor    %eax,%eax
                            CODE:00401260 c3                               ret    
                            CODE:00401261 6a 00                            push   $0x0
                            CODE:00401263 8d 45 78                         lea    0x78(%ebp),%eax
                            CODE:00401266 50                               push   %eax
                            CODE:00401267 51                               push   %ecx
                            CODE:00401268 52                               push   %edx
                            CODE:00401269 ff 75 10                         pushl  0x10(%ebp)
                            CODE:0040126c ff 55 34                         call   *0x34(%ebp)
                            CODE:0040126f 0b c0                            or     %eax,%eax
                            CODE:00401271 c3                               ret    
                            CODE:00401272 33 c0                            xor    %eax,%eax
                            CODE:00401274 50                               push   %eax
                            CODE:00401275 50                               push   %eax
                            CODE:00401276 6a 03                            push   $0x3
                            CODE:00401278 50                               push   %eax
                            CODE:00401279 50                               push   %eax
                            CODE:0040127a 68 00 00 00 c0                   push   $0xc0000000
                            CODE:0040127f 8d 85 ec 00 00 00                lea    0xec(%ebp),%eax
                            CODE:00401285 50                               push   %eax
                            CODE:00401286 ff 55 2c                         call   *0x2c(%ebp)
                            CODE:00401289 89 45 10                         mov    %eax,0x10(%ebp)
                            CODE:0040128c c3                               ret    
                            CODE:0040128d 8d 85 c0 00 00 00                lea    0xc0(%ebp),%eax
                            CODE:00401293 50                               push   %eax
                            CODE:00401294 8d 7d 70                         lea    0x70(%ebp),%edi
                            CODE:00401297 57                               push   %edi
                            CODE:00401298 b0 2a                            mov    $0x2a,%al
                            CODE:0040129a a6                               cmpsb  %es:(%edi),%ds:(%esi)
                            CODE:0040129b 74 1a                            je     0x004012b7
                            CODE:0040129d 4f                               dec    %edi
                            CODE:0040129e e8 00 00 00 00                   call   0x004012a3
                            CODE:004012a3 58                               pop    %eax
                            CODE:004012a4 83 e8 16                         sub    $0x16,%eax
                            CODE:004012a7 50                               push   %eax
                            CODE:004012a8 5e                               pop    %esi
                            CODE:004012a9 ad                               lods   %ds:(%esi),%eax
                            CODE:004012aa 05 9d a8 84 57                   add    $0x5784a89d,%eax
                            CODE:004012af ab                               stos   %eax,%es:(%edi)
                            CODE:004012b0 ad                               lods   %ds:(%esi),%eax
                            CODE:004012b1 2d bb ff 4f e8                   sub    $0xe84fffbb,%eax
                            CODE:004012b6 ab                               stos   %eax,%es:(%edi)
                            CODE:004012b7 ff 55 38                         call   *0x38(%ebp)
                            CODE:004012ba 89 45 0c                         mov    %eax,0xc(%ebp)
                            CODE:004012bd 83 f8 ff                         cmp    $0xffffffff,%eax
                            CODE:004012c0 75 02                            jne    0x004012c4
                            CODE:004012c2 33 c0                            xor    %eax,%eax
                            CODE:004012c4 c3                               ret    
                            CODE:004012c5 ff 45 08                         incl   0x8(%ebp)
                            CODE:004012c8 8d 85 c0 00 00 00                lea    0xc0(%ebp),%eax
                            CODE:004012ce 50                               push   %eax
                            CODE:004012cf 8b 45 0c                         mov    0xc(%ebp),%eax
                            CODE:004012d2 50                               push   %eax
                            CODE:004012d3 ff 55 3c                         call   *0x3c(%ebp)
                            CODE:004012d6 eb ec                            jmp    0x004012c4
                            CODE:004012d8 b8 50 45 00 00                   mov    $0x4550,%eax
                            CODE:004012dd bf 00 00 40 00                   mov    $0x400000,%edi
                            CODE:004012e2 f2 af                            repnz scas %es:(%edi),%eax
                            CODE:004012e4 75 54                            jne    0x0040133a
                            CODE:004012e6 87 fe                            xchg   %edi,%esi
                            CODE:004012e8 66 ad                            lods   %ds:(%esi),%ax
                            CODE:004012ea 66 ad                            lods   %ds:(%esi),%ax
                            CODE:004012ec 33 c9                            xor    %ecx,%ecx
                            CODE:004012ee 8b c8                            mov    %eax,%ecx
                            CODE:004012f0 81 c6 f0 00 00 00                add    $0xf0,%esi
                            CODE:004012f6 83 f9 00                         cmp    $0x0,%ecx
                            CODE:004012f9 74 3f                            je     0x0040133a
                            CODE:004012fb 8b 46 24                         mov    0x24(%esi),%eax
                            CODE:004012fe 25 00 00 00 c0                   and    $0xc0000000,%eax
                            CODE:00401303 3d 00 00 00 c0                   cmp    $0xc0000000,%eax
                            CODE:00401308 75 1b                            jne    0x00401325
                            CODE:0040130a 8b 46 08                         mov    0x8(%esi),%eax
                            CODE:0040130d 33 d2                            xor    %edx,%edx
                            CODE:0040130f bb ff 0f 00 00                   mov    $0xfff,%ebx
                            CODE:00401314 03 c3                            add    %ebx,%eax
                            CODE:00401316 43                               inc    %ebx
                            CODE:00401317 f7 f3                            div    %ebx
                            CODE:00401319 f7 e3                            mul    %ebx
                            CODE:0040131b 2b 46 10                         sub    0x10(%esi),%eax
                            CODE:0040131e 3d 00 06 00 00                   cmp    $0x600,%eax
                            CODE:00401323 7d 07                            jge    0x0040132c
                            CODE:00401325 83 c6 28                         add    $0x28,%esi
                            CODE:00401328 e2 cc                            loop   0x004012f6
                            CODE:0040132a eb 0e                            jmp    0x0040133a
                            CODE:0040132c 8b 46 0c                         mov    0xc(%esi),%eax
                            CODE:0040132f 03 46 10                         add    0x10(%esi),%eax
                            CODE:00401332 05 00 00 40 00                   add    $0x400000,%eax
                            CODE:00401337 50                               push   %eax
                            CODE:00401338 5e                               pop    %esi
                            CODE:00401339 c3                               ret    
                            CODE:0040133a 33 f6                            xor    %esi,%esi
                            CODE:0040133c c3                               ret    
                            CODE:0040133d 33 c0                            xor    %eax,%eax
                            CODE:0040133f be 3c 00 f7 bf                   mov    $0xbff7003c,%esi
                            CODE:00401344 66 ad                            lods   %ds:(%esi),%ax
                            CODE:00401346 05 00 00 f7 bf                   add    $0xbff70000,%eax
                            CODE:0040134b 81 38 50 45 00 00                cmpl   $0x4550,(%eax)
                            CODE:00401351 74 02                            je     0x00401355
                            CODE:00401353 eb e5                            jmp    0x0040133a
                            CODE:00401355 8b 70 78                         mov    0x78(%eax),%esi
                            CODE:00401358 81 c6 00 00 f7 bf                add    $0xbff70000,%esi
                            CODE:0040135e 89 75 60                         mov    %esi,0x60(%ebp)
                            CODE:00401361 83 c6 10                         add    $0x10,%esi
                            CODE:00401364 ad                               lods   %ds:(%esi),%eax
                            CODE:00401365 89 45 5c                         mov    %eax,0x5c(%ebp)
                            CODE:00401368 ad                               lods   %ds:(%esi),%eax
                            CODE:00401369 ad                               lods   %ds:(%esi),%eax
                            CODE:0040136a 05 00 00 f7 bf                   add    $0xbff70000,%eax
                            CODE:0040136f 89 45 68                         mov    %eax,0x68(%ebp)
                            CODE:00401372 ad                               lods   %ds:(%esi),%eax
                            CODE:00401373 05 00 00 f7 bf                   add    $0xbff70000,%eax
                            CODE:00401378 89 45 50                         mov    %eax,0x50(%ebp)
                            CODE:0040137b ad                               lods   %ds:(%esi),%eax
                            CODE:0040137c 05 00 00 f7 bf                   add    $0xbff70000,%eax
                            CODE:00401381 89 45 54                         mov    %eax,0x54(%ebp)
                            CODE:00401384 ad                               lods   %ds:(%esi),%eax
                            CODE:00401385 05 00 00 f7 bf                   add    $0xbff70000,%eax
                            CODE:0040138a 89 45 58                         mov    %eax,0x58(%ebp)
                            CODE:0040138d 8b 75 50                         mov    0x50(%ebp),%esi
                            CODE:00401390 ad                               lods   %ds:(%esi),%eax
                            CODE:00401391 05 00 00 f7 bf                   add    $0xbff70000,%eax
                            CODE:00401396 89 45 28                         mov    %eax,0x28(%ebp)
                            CODE:00401399 bb 8f 00 00 00                   mov    $0x8f,%ebx
                            CODE:0040139e 03 5d 00                         add    0x0(%ebp),%ebx
                            CODE:004013a1 8b 75 54                         mov    0x54(%ebp),%esi
                            CODE:004013a4 89 75 64                         mov    %esi,0x64(%ebp)
                            CODE:004013a7 8b 3e                            mov    (%esi),%edi
                            CODE:004013a9 81 c7 00 00 f7 bf                add    $0xbff70000,%edi
                            CODE:004013af b9 00 00 00 00                   mov    $0x0,%ecx
                            CODE:004013b4 8b f3                            mov    %ebx,%esi
                            CODE:004013b6 a6                               cmpsb  %es:(%edi),%ds:(%esi)
                            CODE:004013b7 75 07                            jne    0x004013c0
                            CODE:004013b9 80 3f 00                         cmpb   $0x0,(%edi)
                            CODE:004013bc 74 1b                            je     0x004013d9
                            CODE:004013be eb f6                            jmp    0x004013b6
                            CODE:004013c0 66 41                            inc    %cx
                            CODE:004013c2 66 3b 4d 68                      cmp    0x68(%ebp),%cx
                            CODE:004013c6 7d 37                            jge    0x004013ff
                            CODE:004013c8 83 45 64 04                      addl   $0x4,0x64(%ebp)
                            CODE:004013cc 8b 75 64                         mov    0x64(%ebp),%esi
                            CODE:004013cf 8b 3e                            mov    (%esi),%edi
                            CODE:004013d1 81 c7 00 00 f7 bf                add    $0xbff70000,%edi
                            CODE:004013d7 eb db                            jmp    0x004013b4
                            CODE:004013d9 8b de                            mov    %esi,%ebx
                            CODE:004013db 43                               inc    %ebx
                            CODE:004013dc d1 e1                            shl    %ecx
                            CODE:004013de 8b 75 58                         mov    0x58(%ebp),%esi
                            CODE:004013e1 03 f1                            add    %ecx,%esi
                            CODE:004013e3 33 c0                            xor    %eax,%eax
                            CODE:004013e5 66 8b 06                         mov    (%esi),%ax
                            CODE:004013e8 c1 e0 02                         shl    $0x2,%eax
                            CODE:004013eb 8b 75 50                         mov    0x50(%ebp),%esi
                            CODE:004013ee 03 f0                            add    %eax,%esi
                            CODE:004013f0 8b 3e                            mov    (%esi),%edi
                            CODE:004013f2 81 c7 00 00 f7 bf                add    $0xbff70000,%edi
                            CODE:004013f8 89 7d 4c                         mov    %edi,0x4c(%ebp)
                            CODE:004013fb eb 04                            jmp    0x00401401
                            CODE:004013fd 33 f6                            xor    %esi,%esi
                            CODE:004013ff 33 ff                            xor    %edi,%edi
                            CODE:00401401 bb 2c 00 00 00                   mov    $0x2c,%ebx
                            CODE:00401406 bf 2f 00 00 00                   mov    $0x2f,%edi
                            CODE:0040140b 03 7d 00                         add    0x0(%ebp),%edi
                            CODE:0040140e 57                               push   %edi
                            CODE:0040140f 68 00 00 f7 bf                   push   $0xbff70000
                            CODE:00401414 ff 55 4c                         call   *0x4c(%ebp)
                            CODE:00401417 89 44 1d 00                      mov    %eax,0x0(%ebp,%ebx,1)
                            CODE:0040141b 83 c3 04                         add    $0x4,%ebx
                            CODE:0040141e 83 fb 4c                         cmp    $0x4c,%ebx
                            CODE:00401421 74 06                            je     0x00401429
                            CODE:00401423 b0 00                            mov    $0x0,%al
                            CODE:00401425 f2 ae                            repnz scas %es:(%edi),%al
                            CODE:00401427 eb e5                            jmp    0x0040140e
                            CODE:00401429 90                               nop
                            CODE:0040142a 90                               nop
                            CODE:0040142b 90                               nop
                            CODE:0040142c b8 9e 00 00 00                   mov    $0x9e,%eax
                            CODE:00401431 03 45 00                         add    0x0(%ebp),%eax
                            CODE:00401434 50                               push   %eax
                            CODE:00401435 ff 55 48                         call   *0x48(%ebp)
                            CODE:00401438 bf a5 00 00 00                   mov    $0xa5,%edi
                            CODE:0040143d 03 7d 00                         add    0x0(%ebp),%edi
                            CODE:00401440 57                               push   %edi
                            CODE:00401441 50                               push   %eax
                            CODE:00401442 ff 55 4c                         call   *0x4c(%ebp)
                            CODE:00401445 89 45 6c                         mov    %eax,0x6c(%ebp)
                            CODE:00401448 c3                               ret    
                            CODE:00401449 44                               inc    %esp
                            CODE:0040144a 61                               popa   
                            CODE:0040144b 72 4b                            jb     0x00401498
                            CODE:0040144d 53                               push   %ebx
                            CODE:0040144e 69 64 65 55 14 00 00 33          imul   $0x33000014,0x55(%ebp,%eiz,2),%esp
                            CODE:00401456 c0 50 50 e8                      rclb   $0xe8,0x50(%eax)
                            CODE:0040145a 0d 00 00 00 6a                   or     $0x6a000000,%eax
                            CODE:0040145f ff                               (bad)  
                            CODE:00401460 e8 00 00 00 00                   call   0x00401465
                            CODE:00401465 ff 25 34 30 40 00                jmp    *0x403034
                            CODE:0040146b ff 25 38 30 40 00                jmp    *0x403038
                            CODE:00401471 00 00                            add    %al,(%eax)
                            CODE:00401473 00 00                            add    %al,(%eax)
                            CODE:00401475 00 00                            add    %al,(%eax)
                            CODE:00401477 00 00                            add    %al,(%eax)
                            CODE:00401479 00 00                            add    %al,(%eax)
                            CODE:0040147b 00 00                            add    %al,(%eax)
                            CODE:0040147d 00 00                            add    %al,(%eax)
                            CODE:0040147f 00 00                            add    %al,(%eax)
                            CODE:00401481 00 00                            add    %al,(%eax)
                            CODE:00401483 00 00                            add    %al,(%eax)
                            CODE:00401485 00 00                            add    %al,(%eax)
                            CODE:00401487 00 00                            add    %al,(%eax)
                            CODE:00401489 00 00                            add    %al,(%eax)
                            CODE:0040148b 00 00                            add    %al,(%eax)
                            CODE:0040148d 00 00                            add    %al,(%eax)
                            CODE:0040148f 00 00                            add    %al,(%eax)
                            CODE:00401491 00 00                            add    %al,(%eax)
                            CODE:00401493 00 00                            add    %al,(%eax)
                            CODE:00401495 00 00                            add    %al,(%eax)
                            CODE:00401497 00 00                            add    %al,(%eax)
                            CODE:00401499 00 00                            add    %al,(%eax)
                            CODE:0040149b 00 00                            add    %al,(%eax)
                            CODE:0040149d 00 00                            add    %al,(%eax)
                            CODE:0040149f 00 00                            add    %al,(%eax)
                            CODE:004014a1 00 00                            add    %al,(%eax)
                            CODE:004014a3 00 00                            add    %al,(%eax)
                            CODE:004014a5 00 00                            add    %al,(%eax)
                            CODE:004014a7 00 00                            add    %al,(%eax)
                            CODE:004014a9 00 00                            add    %al,(%eax)
                            CODE:004014ab 00 00                            add    %al,(%eax)
                            CODE:004014ad 00 00                            add    %al,(%eax)
                            CODE:004014af 00 00                            add    %al,(%eax)
                            CODE:004014b1 00 00                            add    %al,(%eax)
                            CODE:004014b3 00 00                            add    %al,(%eax)
                            CODE:004014b5 00 00                            add    %al,(%eax)
                            CODE:004014b7 00 00                            add    %al,(%eax)
                            CODE:004014b9 00 00                            add    %al,(%eax)
                            CODE:004014bb 00 00                            add    %al,(%eax)
                            CODE:004014bd 00 00                            add    %al,(%eax)
                            CODE:004014bf 00 00                            add    %al,(%eax)
                            CODE:004014c1 00 00                            add    %al,(%eax)
                            CODE:004014c3 00 00                            add    %al,(%eax)
                            CODE:004014c5 00 00                            add    %al,(%eax)
                            CODE:004014c7 00 00                            add    %al,(%eax)
                            CODE:004014c9 00 00                            add    %al,(%eax)
                            CODE:004014cb 00 00                            add    %al,(%eax)
                            CODE:004014cd 00 00                            add    %al,(%eax)
                            CODE:004014cf 00 00                            add    %al,(%eax)
                            CODE:004014d1 00 00                            add    %al,(%eax)
                            CODE:004014d3 00 00                            add    %al,(%eax)
                            CODE:004014d5 00 00                            add    %al,(%eax)
                            CODE:004014d7 00 00                            add    %al,(%eax)
                            CODE:004014d9 00 00                            add    %al,(%eax)
                            CODE:004014db 00 00                            add    %al,(%eax)
                            CODE:004014dd 00 00                            add    %al,(%eax)
                            CODE:004014df 00 00                            add    %al,(%eax)
                            CODE:004014e1 00 00                            add    %al,(%eax)
                            CODE:004014e3 00 00                            add    %al,(%eax)
                            CODE:004014e5 00 00                            add    %al,(%eax)
                            CODE:004014e7 00 00                            add    %al,(%eax)
                            CODE:004014e9 00 00                            add    %al,(%eax)
                            CODE:004014eb 00 00                            add    %al,(%eax)
                            CODE:004014ed 00 00                            add    %al,(%eax)
                            CODE:004014ef 00 00                            add    %al,(%eax)
                            CODE:004014f1 00 00                            add    %al,(%eax)
                            CODE:004014f3 00 00                            add    %al,(%eax)
                            CODE:004014f5 00 00                            add    %al,(%eax)
                            CODE:004014f7 00 00                            add    %al,(%eax)
                            CODE:004014f9 00 00                            add    %al,(%eax)
                            CODE:004014fb 00 00                            add    %al,(%eax)
                            CODE:004014fd 00 00                            add    %al,(%eax)
                            CODE:004014ff 00 00                            add    %al,(%eax)
                            CODE:00401501 00 00                            add    %al,(%eax)
                            CODE:00401503 00 00                            add    %al,(%eax)
                            CODE:00401505 00 00                            add    %al,(%eax)
                            CODE:00401507 00 00                            add    %al,(%eax)
                            CODE:00401509 00 00                            add    %al,(%eax)
                            CODE:0040150b 00 00                            add    %al,(%eax)
                            CODE:0040150d 00 00                            add    %al,(%eax)
                            CODE:0040150f 00 00                            add    %al,(%eax)
                            CODE:00401511 00 00                            add    %al,(%eax)
                            CODE:00401513 00 00                            add    %al,(%eax)
                            CODE:00401515 00 00                            add    %al,(%eax)
                            CODE:00401517 00 00                            add    %al,(%eax)
                            CODE:00401519 00 00                            add    %al,(%eax)
                            CODE:0040151b 00 00                            add    %al,(%eax)
                            CODE:0040151d 00 00                            add    %al,(%eax)
                            CODE:0040151f 00 00                            add    %al,(%eax)
                            CODE:00401521 00 00                            add    %al,(%eax)
                            CODE:00401523 00 00                            add    %al,(%eax)
                            CODE:00401525 00 00                            add    %al,(%eax)
                            CODE:00401527 00 00                            add    %al,(%eax)
                            CODE:00401529 00 00                            add    %al,(%eax)
                            CODE:0040152b 00 00                            add    %al,(%eax)
                            CODE:0040152d 00 00                            add    %al,(%eax)
                            CODE:0040152f 00 00                            add    %al,(%eax)
                            CODE:00401531 00 00                            add    %al,(%eax)
                            CODE:00401533 00 00                            add    %al,(%eax)
                            CODE:00401535 00 00                            add    %al,(%eax)
                            CODE:00401537 00 00                            add    %al,(%eax)
                            CODE:00401539 00 00                            add    %al,(%eax)
                            CODE:0040153b 00 00                            add    %al,(%eax)
                            CODE:0040153d 00 00                            add    %al,(%eax)
                            CODE:0040153f 00 00                            add    %al,(%eax)
                            CODE:00401541 00 00                            add    %al,(%eax)
                            CODE:00401543 00 00                            add    %al,(%eax)
                            CODE:00401545 00 00                            add    %al,(%eax)
                            CODE:00401547 00 00                            add    %al,(%eax)
                            CODE:00401549 00 00                            add    %al,(%eax)
                            CODE:0040154b 00 00                            add    %al,(%eax)
                            CODE:0040154d 00 00                            add    %al,(%eax)
                            CODE:0040154f 00 00                            add    %al,(%eax)
                            CODE:00401551 00 00                            add    %al,(%eax)
                            CODE:00401553 00 00                            add    %al,(%eax)
                            CODE:00401555 00 00                            add    %al,(%eax)
                            CODE:00401557 00 00                            add    %al,(%eax)
                            CODE:00401559 00 00                            add    %al,(%eax)
                            CODE:0040155b 00 00                            add    %al,(%eax)
                            CODE:0040155d 00 00                            add    %al,(%eax)
                            CODE:0040155f 00 00                            add    %al,(%eax)
                            CODE:00401561 00 00                            add    %al,(%eax)
                            CODE:00401563 00 00                            add    %al,(%eax)
                            CODE:00401565 00 00                            add    %al,(%eax)
                            CODE:00401567 00 00                            add    %al,(%eax)
                            CODE:00401569 00 00                            add    %al,(%eax)
                            CODE:0040156b 00 00                            add    %al,(%eax)
                            CODE:0040156d 00 00                            add    %al,(%eax)
                            CODE:0040156f 00 00                            add    %al,(%eax)
                            CODE:00401571 00 00                            add    %al,(%eax)
                            CODE:00401573 00 00                            add    %al,(%eax)
                            CODE:00401575 00 00                            add    %al,(%eax)
                            CODE:00401577 00 00                            add    %al,(%eax)
                            CODE:00401579 00 00                            add    %al,(%eax)
                            CODE:0040157b 00 00                            add    %al,(%eax)
                            CODE:0040157d 00 00                            add    %al,(%eax)
                            CODE:0040157f 00 00                            add    %al,(%eax)
                            CODE:00401581 00 00                            add    %al,(%eax)
                            CODE:00401583 00 00                            add    %al,(%eax)
                            CODE:00401585 00 00                            add    %al,(%eax)
                            CODE:00401587 00 00                            add    %al,(%eax)
                            CODE:00401589 00 00                            add    %al,(%eax)
                            CODE:0040158b 00 00                            add    %al,(%eax)
                            CODE:0040158d 00 00                            add    %al,(%eax)
                            CODE:0040158f 00 00                            add    %al,(%eax)
                            CODE:00401591 00 00                            add    %al,(%eax)
                            CODE:00401593 00 00                            add    %al,(%eax)
                            CODE:00401595 00 00                            add    %al,(%eax)
                            CODE:00401597 00 00                            add    %al,(%eax)
                            CODE:00401599 00 00                            add    %al,(%eax)
                            CODE:0040159b 00 00                            add    %al,(%eax)
                            CODE:0040159d 00 00                            add    %al,(%eax)
                            CODE:0040159f 00 00                            add    %al,(%eax)
                            CODE:004015a1 00 00                            add    %al,(%eax)
                            CODE:004015a3 00 00                            add    %al,(%eax)
                            CODE:004015a5 00 00                            add    %al,(%eax)
                            CODE:004015a7 00 00                            add    %al,(%eax)
                            CODE:004015a9 00 00                            add    %al,(%eax)
                            CODE:004015ab 00 00                            add    %al,(%eax)
                            CODE:004015ad 00 00                            add    %al,(%eax)
                            CODE:004015af 00 00                            add    %al,(%eax)
                            CODE:004015b1 00 00                            add    %al,(%eax)
                            CODE:004015b3 00 00                            add    %al,(%eax)
                            CODE:004015b5 00 00                            add    %al,(%eax)
                            CODE:004015b7 00 00                            add    %al,(%eax)
                            CODE:004015b9 00 00                            add    %al,(%eax)
                            CODE:004015bb 00 00                            add    %al,(%eax)
                            CODE:004015bd 00 00                            add    %al,(%eax)
                            CODE:004015bf 00 00                            add    %al,(%eax)
                            CODE:004015c1 00 00                            add    %al,(%eax)
                            CODE:004015c3 00 00                            add    %al,(%eax)
                            CODE:004015c5 00 00                            add    %al,(%eax)
                            CODE:004015c7 00 00                            add    %al,(%eax)
                            CODE:004015c9 00 00                            add    %al,(%eax)
                            CODE:004015cb 00 00                            add    %al,(%eax)
                            CODE:004015cd 00 00                            add    %al,(%eax)
                            CODE:004015cf 00 00                            add    %al,(%eax)
                            CODE:004015d1 00 00                            add    %al,(%eax)
                            CODE:004015d3 00 00                            add    %al,(%eax)
                            CODE:004015d5 00 00                            add    %al,(%eax)
                            CODE:004015d7 00 00                            add    %al,(%eax)
                            CODE:004015d9 00 00                            add    %al,(%eax)
                            CODE:004015db 00 00                            add    %al,(%eax)
                            CODE:004015dd 00 00                            add    %al,(%eax)
                            CODE:004015df 00 00                            add    %al,(%eax)
                            CODE:004015e1 00 00                            add    %al,(%eax)
                            CODE:004015e3 00 00                            add    %al,(%eax)
                            CODE:004015e5 00 00                            add    %al,(%eax)
                            CODE:004015e7 00 00                            add    %al,(%eax)
                            CODE:004015e9 00 00                            add    %al,(%eax)
                            CODE:004015eb 00 00                            add    %al,(%eax)
                            CODE:004015ed 00 00                            add    %al,(%eax)
                            CODE:004015ef 00 00                            add    %al,(%eax)
                            CODE:004015f1 00 00                            add    %al,(%eax)
                            CODE:004015f3 00 00                            add    %al,(%eax)
                            CODE:004015f5 00 00                            add    %al,(%eax)
                            CODE:004015f7 00 00                            add    %al,(%eax)
                            CODE:004015f9 00 00                            add    %al,(%eax)
                            CODE:004015fb 00 00                            add    %al,(%eax)
                            CODE:004015fd 00 00                            add    %al,(%eax)
                            CODE:004015ff 00                               .byte 0x0
                            DATA:00402000 00                               0x00 
                            DATA:00402001 00                               0x00 
                            DATA:00402002 00                               0x00 
                            DATA:00402003 00                               0x00 
                            DATA:00402004 00                               0x00 
                            DATA:00402005 00                               0x00 
                            DATA:00402006 00                               0x00 
                            DATA:00402007 00                               0x00 
                            DATA:00402008 00                               0x00 
                            DATA:00402009 00                               0x00 
                            DATA:0040200a 00                               0x00 
                            DATA:0040200b 00                               0x00 
                            DATA:0040200c 00                               0x00 
                            DATA:0040200d 00                               0x00 
                            DATA:0040200e 00                               0x00 
                            DATA:0040200f 00                               0x00 
                            DATA:00402010 00                               0x00 
                            DATA:00402011 00                               0x00 
                            DATA:00402012 00                               0x00 
                            DATA:00402013 00                               0x00 
                            DATA:00402014 00                               0x00 
                            DATA:00402015 00                               0x00 
                            DATA:00402016 00                               0x00 
                            DATA:00402017 00                               0x00 
                            DATA:00402018 00                               0x00 
                            DATA:00402019 00                               0x00 
                            DATA:0040201a 00                               0x00 
                            DATA:0040201b 00                               0x00 
                            DATA:0040201c 00                               0x00 
                            DATA:0040201d 00                               0x00 
                            DATA:0040201e 00                               0x00 
                            DATA:0040201f 00                               0x00 
                            DATA:00402020 00                               0x00 
                            DATA:00402021 00                               0x00 
                            DATA:00402022 00                               0x00 
                            DATA:00402023 00                               0x00 
                            DATA:00402024 00                               0x00 
                            DATA:00402025 00                               0x00 
                            DATA:00402026 00                               0x00 
                            DATA:00402027 00                               0x00 
                            DATA:00402028 00                               0x00 
                            DATA:00402029 00                               0x00 
                            DATA:0040202a 00                               0x00 
                            DATA:0040202b 00                               0x00 
                            DATA:0040202c 00                               0x00 
                            DATA:0040202d 00                               0x00 
                            DATA:0040202e 00                               0x00 
                            DATA:0040202f 00                               0x00 
                            DATA:00402030 00                               0x00 
                            DATA:00402031 00                               0x00 
                            DATA:00402032 00                               0x00 
                            DATA:00402033 00                               0x00 
                            DATA:00402034 00                               0x00 
                            DATA:00402035 00                               0x00 
                            DATA:00402036 00                               0x00 
                            DATA:00402037 00                               0x00 
                            DATA:00402038 00                               0x00 
                            DATA:00402039 00                               0x00 
                            DATA:0040203a 00                               0x00 
                            DATA:0040203b 00                               0x00 
                            DATA:0040203c 00                               0x00 
                            DATA:0040203d 00                               0x00 
                            DATA:0040203e 00                               0x00 
                            DATA:0040203f 00                               0x00 
                            DATA:00402040 00                               0x00 
                            DATA:00402041 00                               0x00 
                            DATA:00402042 00                               0x00 
                            DATA:00402043 00                               0x00 
                            DATA:00402044 00                               0x00 
                            DATA:00402045 00                               0x00 
                            DATA:00402046 00                               0x00 
                            DATA:00402047 00                               0x00 
                            DATA:00402048 00                               0x00 
                            DATA:00402049 00                               0x00 
                            DATA:0040204a 00                               0x00 
                            DATA:0040204b 00                               0x00 
                            DATA:0040204c 00                               0x00 
                            DATA:0040204d 00                               0x00 
                            DATA:0040204e 00                               0x00 
                            DATA:0040204f 00                               0x00 
                            DATA:00402050 00                               0x00 
                            DATA:00402051 00                               0x00 
                            DATA:00402052 00                               0x00 
                            DATA:00402053 00                               0x00 
                            DATA:00402054 00                               0x00 
                            DATA:00402055 00                               0x00 
                            DATA:00402056 00                               0x00 
                            DATA:00402057 00                               0x00 
                            DATA:00402058 00                               0x00 
                            DATA:00402059 00                               0x00 
                            DATA:0040205a 00                               0x00 
                            DATA:0040205b 00                               0x00 
                            DATA:0040205c 00                               0x00 
                            DATA:0040205d 00                               0x00 
                            DATA:0040205e 00                               0x00 
                            DATA:0040205f 00                               0x00 
                            DATA:00402060 00                               0x00 
                            DATA:00402061 00                               0x00 
                            DATA:00402062 00                               0x00 
                            DATA:00402063 00                               0x00 
                            DATA:00402064 00                               0x00 
                            DATA:00402065 00                               0x00 
                            DATA:00402066 00                               0x00 
                            DATA:00402067 00                               0x00 
                            DATA:00402068 00                               0x00 
                            DATA:00402069 00                               0x00 
                            DATA:0040206a 00                               0x00 
                            DATA:0040206b 00                               0x00 
                            DATA:0040206c 00                               0x00 
                            DATA:0040206d 00                               0x00 
                            DATA:0040206e 00                               0x00 
                            DATA:0040206f 00                               0x00 
                            DATA:00402070 00                               0x00 
                            DATA:00402071 00                               0x00 
                            DATA:00402072 00                               0x00 
                            DATA:00402073 00                               0x00 
                            DATA:00402074 00                               0x00 
                            DATA:00402075 00                               0x00 
                            DATA:00402076 00                               0x00 
                            DATA:00402077 00                               0x00 
                            DATA:00402078 00                               0x00 
                            DATA:00402079 00                               0x00 
                            DATA:0040207a 00                               0x00 
                            DATA:0040207b 00                               0x00 
                            DATA:0040207c 00                               0x00 
                            DATA:0040207d 00                               0x00 
                            DATA:0040207e 00                               0x00 
                            DATA:0040207f 00                               0x00 
                            DATA:00402080 00                               0x00 
                            DATA:00402081 00                               0x00 
                            DATA:00402082 00                               0x00 
                            DATA:00402083 00                               0x00 
                            DATA:00402084 00                               0x00 
                            DATA:00402085 00                               0x00 
                            DATA:00402086 00                               0x00 
                            DATA:00402087 00                               0x00 
                            DATA:00402088 00                               0x00 
                            DATA:00402089 00                               0x00 
                            DATA:0040208a 00                               0x00 
                            DATA:0040208b 00                               0x00 
                            DATA:0040208c 00                               0x00 
                            DATA:0040208d 00                               0x00 
                            DATA:0040208e 00                               0x00 
                            DATA:0040208f 00                               0x00 
                            DATA:00402090 00                               0x00 
                            DATA:00402091 00                               0x00 
                            DATA:00402092 00                               0x00 
                            DATA:00402093 00                               0x00 
                            DATA:00402094 00                               0x00 
                            DATA:00402095 00                               0x00 
                            DATA:00402096 00                               0x00 
                            DATA:00402097 00                               0x00 
                            DATA:00402098 00                               0x00 
                            DATA:00402099 00                               0x00 
                            DATA:0040209a 00                               0x00 
                            DATA:0040209b 00                               0x00 
                            DATA:0040209c 00                               0x00 
                            DATA:0040209d 00                               0x00 
                            DATA:0040209e 00                               0x00 
                            DATA:0040209f 00                               0x00 
                            DATA:004020a0 00                               0x00 
                            DATA:004020a1 00                               0x00 
                            DATA:004020a2 00                               0x00 
                            DATA:004020a3 00                               0x00 
                            DATA:004020a4 00                               0x00 
                            DATA:004020a5 00                               0x00 
                            DATA:004020a6 00                               0x00 
                            DATA:004020a7 00                               0x00 
                            DATA:004020a8 00                               0x00 
                            DATA:004020a9 00                               0x00 
                            DATA:004020aa 00                               0x00 
                            DATA:004020ab 00                               0x00 
                            DATA:004020ac 00                               0x00 
                            DATA:004020ad 00                               0x00 
                            DATA:004020ae 00                               0x00 
                            DATA:004020af 00                               0x00 
                            DATA:004020b0 00                               0x00 
                            DATA:004020b1 00                               0x00 
                            DATA:004020b2 00                               0x00 
                            DATA:004020b3 00                               0x00 
                            DATA:004020b4 00                               0x00 
                            DATA:004020b5 00                               0x00 
                            DATA:004020b6 00                               0x00 
                            DATA:004020b7 00                               0x00 
                            DATA:004020b8 00                               0x00 
                            DATA:004020b9 00                               0x00 
                            DATA:004020ba 00                               0x00 
                            DATA:004020bb 00                               0x00 
                            DATA:004020bc 00                               0x00 
                            DATA:004020bd 00                               0x00 
                            DATA:004020be 00                               0x00 
                            DATA:004020bf 00                               0x00 
                            DATA:004020c0 00                               0x00 
                            DATA:004020c1 00                               0x00 
                            DATA:004020c2 00                               0x00 
                            DATA:004020c3 00                               0x00 
                            DATA:004020c4 00                               0x00 
                            DATA:004020c5 00                               0x00 
                            DATA:004020c6 00                               0x00 
                            DATA:004020c7 00                               0x00 
                            DATA:004020c8 00                               0x00 
                            DATA:004020c9 00                               0x00 
                            DATA:004020ca 00                               0x00 
                            DATA:004020cb 00                               0x00 
                            DATA:004020cc 00                               0x00 
                            DATA:004020cd 00                               0x00 
                            DATA:004020ce 00                               0x00 
                            DATA:004020cf 00                               0x00 
                            DATA:004020d0 00                               0x00 
                            DATA:004020d1 00                               0x00 
                            DATA:004020d2 00                               0x00 
                            DATA:004020d3 00                               0x00 
                            DATA:004020d4 00                               0x00 
                            DATA:004020d5 00                               0x00 
                            DATA:004020d6 00                               0x00 
                            DATA:004020d7 00                               0x00 
                            DATA:004020d8 00                               0x00 
                            DATA:004020d9 00                               0x00 
                            DATA:004020da 00                               0x00 
                            DATA:004020db 00                               0x00 
                            DATA:004020dc 00                               0x00 
                            DATA:004020dd 00                               0x00 
                            DATA:004020de 00                               0x00 
                            DATA:004020df 00                               0x00 
                            DATA:004020e0 00                               0x00 
                            DATA:004020e1 00                               0x00 
                            DATA:004020e2 00                               0x00 
                            DATA:004020e3 00                               0x00 
                            DATA:004020e4 00                               0x00 
                            DATA:004020e5 00                               0x00 
                            DATA:004020e6 00                               0x00 
                            DATA:004020e7 00                               0x00 
                            DATA:004020e8 00                               0x00 
                            DATA:004020e9 00                               0x00 
                            DATA:004020ea 00                               0x00 
                            DATA:004020eb 00                               0x00 
                            DATA:004020ec 00                               0x00 
                            DATA:004020ed 00                               0x00 
                            DATA:004020ee 00                               0x00 
                            DATA:004020ef 00                               0x00 
                            DATA:004020f0 00                               0x00 
                            DATA:004020f1 00                               0x00 
                            DATA:004020f2 00                               0x00 
                            DATA:004020f3 00                               0x00 
                            DATA:004020f4 00                               0x00 
                            DATA:004020f5 00                               0x00 
                            DATA:004020f6 00                               0x00 
                            DATA:004020f7 00                               0x00 
                            DATA:004020f8 00                               0x00 
                            DATA:004020f9 00                               0x00 
                            DATA:004020fa 00                               0x00 
                            DATA:004020fb 00                               0x00 
                            DATA:004020fc 00                               0x00 
                            DATA:004020fd 00                               0x00 
                            DATA:004020fe 00                               0x00 
                            DATA:004020ff 00                               0x00 
                            DATA:00402100 00                               0x00 
                            DATA:00402101 00                               0x00 
                            DATA:00402102 00                               0x00 
                            DATA:00402103 00                               0x00 
                            DATA:00402104 00                               0x00 
                            DATA:00402105 00                               0x00 
                            DATA:00402106 00                               0x00 
                            DATA:00402107 00                               0x00 
                            DATA:00402108 00                               0x00 
                            DATA:00402109 00                               0x00 
                            DATA:0040210a 00                               0x00 
                            DATA:0040210b 00                               0x00 
                            DATA:0040210c 00                               0x00 
                            DATA:0040210d 00                               0x00 
                            DATA:0040210e 00                               0x00 
                            DATA:0040210f 00                               0x00 
                            DATA:00402110 00                               0x00 
                            DATA:00402111 00                               0x00 
                            DATA:00402112 00                               0x00 
                            DATA:00402113 00                               0x00 
                            DATA:00402114 00                               0x00 
                            DATA:00402115 00                               0x00 
                            DATA:00402116 00                               0x00 
                            DATA:00402117 00                               0x00 
                            DATA:00402118 00                               0x00 
                            DATA:00402119 00                               0x00 
                            DATA:0040211a 00                               0x00 
                            DATA:0040211b 00                               0x00 
                            DATA:0040211c 00                               0x00 
                            DATA:0040211d 00                               0x00 
                            DATA:0040211e 00                               0x00 
                            DATA:0040211f 00                               0x00 
                            DATA:00402120 00                               0x00 
                            DATA:00402121 00                               0x00 
                            DATA:00402122 00                               0x00 
                            DATA:00402123 00                               0x00 
                            DATA:00402124 00                               0x00 
                            DATA:00402125 00                               0x00 
                            DATA:00402126 00                               0x00 
                            DATA:00402127 00                               0x00 
                            DATA:00402128 00                               0x00 
                            DATA:00402129 00                               0x00 
                            DATA:0040212a 00                               0x00 
                            DATA:0040212b 00                               0x00 
                            DATA:0040212c 00                               0x00 
                            DATA:0040212d 00                               0x00 
                            DATA:0040212e 00                               0x00 
                            DATA:0040212f 00                               0x00 
                            DATA:00402130 00                               0x00 
                            DATA:00402131 00                               0x00 
                            DATA:00402132 00                               0x00 
                            DATA:00402133 00                               0x00 
                            DATA:00402134 00                               0x00 
                            DATA:00402135 00                               0x00 
                            DATA:00402136 00                               0x00 
                            DATA:00402137 00                               0x00 
                            DATA:00402138 00                               0x00 
                            DATA:00402139 00                               0x00 
                            DATA:0040213a 00                               0x00 
                            DATA:0040213b 00                               0x00 
                            DATA:0040213c 00                               0x00 
                            DATA:0040213d 00                               0x00 
                            DATA:0040213e 00                               0x00 
                            DATA:0040213f 00                               0x00 
                            DATA:00402140 00                               0x00 
                            DATA:00402141 00                               0x00 
                            DATA:00402142 00                               0x00 
                            DATA:00402143 00                               0x00 
                            DATA:00402144 00                               0x00 
                            DATA:00402145 00                               0x00 
                            DATA:00402146 00                               0x00 
                            DATA:00402147 00                               0x00 
                            DATA:00402148 00                               0x00 
                            DATA:00402149 00                               0x00 
                            DATA:0040214a 00                               0x00 
                            DATA:0040214b 00                               0x00 
                            DATA:0040214c 00                               0x00 
                            DATA:0040214d 00                               0x00 
                            DATA:0040214e 00                               0x00 
                            DATA:0040214f 00                               0x00 
                            DATA:00402150 00                               0x00 
                            DATA:00402151 00                               0x00 
                            DATA:00402152 00                               0x00 
                            DATA:00402153 00                               0x00 
                            DATA:00402154 00                               0x00 
                            DATA:00402155 00                               0x00 
                            DATA:00402156 00                               0x00 
                            DATA:00402157 00                               0x00 
                            DATA:00402158 00                               0x00 
                            DATA:00402159 00                               0x00 
                            DATA:0040215a 00                               0x00 
                            DATA:0040215b 00                               0x00 
                            DATA:0040215c 00                               0x00 
                            DATA:0040215d 00                               0x00 
                            DATA:0040215e 00                               0x00 
                            DATA:0040215f 00                               0x00 
                            DATA:00402160 00                               0x00 
                            DATA:00402161 00                               0x00 
                            DATA:00402162 00                               0x00 
                            DATA:00402163 00                               0x00 
                            DATA:00402164 00                               0x00 
                            DATA:00402165 00                               0x00 
                            DATA:00402166 00                               0x00 
                            DATA:00402167 00                               0x00 
                            DATA:00402168 00                               0x00 
                            DATA:00402169 00                               0x00 
                            DATA:0040216a 00                               0x00 
                            DATA:0040216b 00                               0x00 
                            DATA:0040216c 00                               0x00 
                            DATA:0040216d 00                               0x00 
                            DATA:0040216e 00                               0x00 
                            DATA:0040216f 00                               0x00 
                            DATA:00402170 00                               0x00 
                            DATA:00402171 00                               0x00 
                            DATA:00402172 00                               0x00 
                            DATA:00402173 00                               0x00 
                            DATA:00402174 00                               0x00 
                            DATA:00402175 00                               0x00 
                            DATA:00402176 00                               0x00 
                            DATA:00402177 00                               0x00 
                            DATA:00402178 00                               0x00 
                            DATA:00402179 00                               0x00 
                            DATA:0040217a 00                               0x00 
                            DATA:0040217b 00                               0x00 
                            DATA:0040217c 00                               0x00 
                            DATA:0040217d 00                               0x00 
                            DATA:0040217e 00                               0x00 
                            DATA:0040217f 00                               0x00 
                            DATA:00402180 00                               0x00 
                            DATA:00402181 00                               0x00 
                            DATA:00402182 00                               0x00 
                            DATA:00402183 00                               0x00 
                            DATA:00402184 00                               0x00 
                            DATA:00402185 00                               0x00 
                            DATA:00402186 00                               0x00 
                            DATA:00402187 00                               0x00 
                            DATA:00402188 00                               0x00 
                            DATA:00402189 00                               0x00 
                            DATA:0040218a 00                               0x00 
                            DATA:0040218b 00                               0x00 
                            DATA:0040218c 00                               0x00 
                            DATA:0040218d 00                               0x00 
                            DATA:0040218e 00                               0x00 
                            DATA:0040218f 00                               0x00 
                            DATA:00402190 00                               0x00 
                            DATA:00402191 00                               0x00 
                            DATA:00402192 00                               0x00 
                            DATA:00402193 00                               0x00 
                            DATA:00402194 00                               0x00 
                            DATA:00402195 00                               0x00 
                            DATA:00402196 00                               0x00 
                            DATA:00402197 00                               0x00 
                            DATA:00402198 00                               0x00 
                            DATA:00402199 00                               0x00 
                            DATA:0040219a 00                               0x00 
                            DATA:0040219b 00                               0x00 
                            DATA:0040219c 00                               0x00 
                            DATA:0040219d 00                               0x00 
                            DATA:0040219e 00                               0x00 
                            DATA:0040219f 00                               0x00 
                            DATA:004021a0 00                               0x00 
                            DATA:004021a1 00                               0x00 
                            DATA:004021a2 00                               0x00 
                            DATA:004021a3 00                               0x00 
                            DATA:004021a4 00                               0x00 
                            DATA:004021a5 00                               0x00 
                            DATA:004021a6 00                               0x00 
                            DATA:004021a7 00                               0x00 
                            DATA:004021a8 00                               0x00 
                            DATA:004021a9 00                               0x00 
                            DATA:004021aa 00                               0x00 
                            DATA:004021ab 00                               0x00 
                            DATA:004021ac 00                               0x00 
                            DATA:004021ad 00                               0x00 
                            DATA:004021ae 00                               0x00 
                            DATA:004021af 00                               0x00 
                            DATA:004021b0 00                               0x00 
                            DATA:004021b1 00                               0x00 
                            DATA:004021b2 00                               0x00 
                            DATA:004021b3 00                               0x00 
                            DATA:004021b4 00                               0x00 
                            DATA:004021b5 00                               0x00 
                            DATA:004021b6 00                               0x00 
                            DATA:004021b7 00                               0x00 
                            DATA:004021b8 00                               0x00 
                            DATA:004021b9 00                               0x00 
                            DATA:004021ba 00                               0x00 
                            DATA:004021bb 00                               0x00 
                            DATA:004021bc 00                               0x00 
                            DATA:004021bd 00                               0x00 
                            DATA:004021be 00                               0x00 
                            DATA:004021bf 00                               0x00 
                            DATA:004021c0 00                               0x00 
                            DATA:004021c1 00                               0x00 
                            DATA:004021c2 00                               0x00 
                            DATA:004021c3 00                               0x00 
                            DATA:004021c4 00                               0x00 
                            DATA:004021c5 00                               0x00 
                            DATA:004021c6 00                               0x00 
                            DATA:004021c7 00                               0x00 
                            DATA:004021c8 00                               0x00 
                            DATA:004021c9 00                               0x00 
                            DATA:004021ca 00                               0x00 
                            DATA:004021cb 00                               0x00 
                            DATA:004021cc 00                               0x00 
                            DATA:004021cd 00                               0x00 
                            DATA:004021ce 00                               0x00 
                            DATA:004021cf 00                               0x00 
                            DATA:004021d0 00                               0x00 
                            DATA:004021d1 00                               0x00 
                            DATA:004021d2 00                               0x00 
                            DATA:004021d3 00                               0x00 
                            DATA:004021d4 00                               0x00 
                            DATA:004021d5 00                               0x00 
                            DATA:004021d6 00                               0x00 
                            DATA:004021d7 00                               0x00 
                            DATA:004021d8 00                               0x00 
                            DATA:004021d9 00                               0x00 
                            DATA:004021da 00                               0x00 
                            DATA:004021db 00                               0x00 
                            DATA:004021dc 00                               0x00 
                            DATA:004021dd 00                               0x00 
                            DATA:004021de 00                               0x00 
                            DATA:004021df 00                               0x00 
                            DATA:004021e0 00                               0x00 
                            DATA:004021e1 00                               0x00 
                            DATA:004021e2 00                               0x00 
                            DATA:004021e3 00                               0x00 
                            DATA:004021e4 00                               0x00 
                            DATA:004021e5 00                               0x00 
                            DATA:004021e6 00                               0x00 
                            DATA:004021e7 00                               0x00 
                            DATA:004021e8 00                               0x00 
                            DATA:004021e9 00                               0x00 
                            DATA:004021ea 00                               0x00 
                            DATA:004021eb 00                               0x00 
                            DATA:004021ec 00                               0x00 
                            DATA:004021ed 00                               0x00 
                            DATA:004021ee 00                               0x00 
                            DATA:004021ef 00                               0x00 
                            DATA:004021f0 00                               0x00 
                            DATA:004021f1 00                               0x00 
                            DATA:004021f2 00                               0x00 
                            DATA:004021f3 00                               0x00 
                            DATA:004021f4 00                               0x00 
                            DATA:004021f5 00                               0x00 
                            DATA:004021f6 00                               0x00 
                            DATA:004021f7 00                               0x00 
                            DATA:004021f8 00                               0x00 
                            DATA:004021f9 00                               0x00 
                            DATA:004021fa 00                               0x00 
                            DATA:004021fb 00                               0x00 
                            DATA:004021fc 00                               0x00 
                            DATA:004021fd 00                               0x00 
                            DATA:004021fe 00                               0x00 
                            DATA:004021ff 00                               0x00 
                          .idata:00403000 28                               0x28 '('
                          .idata:00403001 30                               0x30 '0'
                          .idata:00403002 00                               0x00 
                          .idata:00403003 00                               0x00 
                          .idata:00403004 00                               0x00 
                          .idata:00403005 00                               0x00 
                          .idata:00403006 00                               0x00 
                          .idata:00403007 00                               0x00 
                          .idata:00403008 00                               0x00 
                          .idata:00403009 00                               0x00 
                          .idata:0040300a 00                               0x00 
                          .idata:0040300b 00                               0x00 
                          .idata:0040300c 40                               0x40 '@'
                          .idata:0040300d 30                               0x30 '0'
                          .idata:0040300e 00                               0x00 
                          .idata:0040300f 00                               0x00 
                          .idata:00403010 34                               0x34 '4'
                          .idata:00403011 30                               0x30 '0'
                          .idata:00403012 00                               0x00 
                          .idata:00403013 00                               0x00 
                          .idata:00403014 00                               0x00 
                          .idata:00403015 00                               0x00 
                          .idata:00403016 00                               0x00 
                          .idata:00403017 00                               0x00 
                          .idata:00403018 00                               0x00 
                          .idata:00403019 00                               0x00 
                          .idata:0040301a 00                               0x00 
                          .idata:0040301b 00                               0x00 
                          .idata:0040301c 00                               0x00 
                          .idata:0040301d 00                               0x00 
                          .idata:0040301e 00                               0x00 
                          .idata:0040301f 00                               0x00 
                          .idata:00403020 00                               0x00 
                          .idata:00403021 00                               0x00 
                          .idata:00403022 00                               0x00 
                          .idata:00403023 00                               0x00 
                          .idata:00403024 00                               0x00 
                          .idata:00403025 00                               0x00 
                          .idata:00403026 00                               0x00 
                          .idata:00403027 00                               0x00 
                          .idata:00403028 4e                               0x4e 'N'
                          .idata:00403029 30                               0x30 '0'
                          .idata:0040302a 00                               0x00 
                          .idata:0040302b 00                               0x00 
                          .idata:0040302c 5c                               0x5c '\'
                          .idata:0040302d 30                               0x30 '0'
                          .idata:0040302e 00                               0x00 
                          .idata:0040302f 00                               0x00 
                          .idata:00403030 00                               0x00 
                          .idata:00403031 00                               0x00 
                          .idata:00403032 00                               0x00 
                          .idata:00403033 00                               0x00 
                          .idata:00403034 4e                               0x4e 'N'
                          .idata:00403035 30                               0x30 '0'
                          .idata:00403036 00                               0x00 
                          .idata:00403037 00                               0x00 
                          .idata:00403038 5c                               0x5c '\'
                          .idata:00403039 30                               0x30 '0'
                          .idata:0040303a 00                               0x00 
                          .idata:0040303b 00                               0x00 
                          .idata:0040303c 00                               0x00 
                          .idata:0040303d 00                               0x00 
                          .idata:0040303e 00                               0x00 
                          .idata:0040303f 00                               0x00 
                          .idata:00403040 4b                               0x4b 'K'
                          .idata:00403041 45                               0x45 'E'
                          .idata:00403042 52                               0x52 'R'
                          .idata:00403043 4e                               0x4e 'N'
                          .idata:00403044 45                               0x45 'E'
                          .idata:00403045 4c                               0x4c 'L'
                          .idata:00403046 33                               0x33 '3'
                          .idata:00403047 32                               0x32 '2'
                          .idata:00403048 2e                               0x2e '.'
                          .idata:00403049 64                               0x64 'd'
                          .idata:0040304a 6c                               0x6c 'l'
                          .idata:0040304b 6c                               0x6c 'l'
                          .idata:0040304c 00                               0x00 
                          .idata:0040304d 00                               0x00 
                          .idata:0040304e 00                               0x00 
                          .idata:0040304f 00                               0x00 
                          .idata:00403050 45                               0x45 'E'
                          .idata:00403051 78                               0x78 'x'
                          .idata:00403052 69                               0x69 'i'
                          .idata:00403053 74                               0x74 't'
                          .idata:00403054 50                               0x50 'P'
                          .idata:00403055 72                               0x72 'r'
                          .idata:00403056 6f                               0x6f 'o'
                          .idata:00403057 63                               0x63 'c'
                          .idata:00403058 65                               0x65 'e'
                          .idata:00403059 73                               0x73 's'
                          .idata:0040305a 73                               0x73 's'
                          .idata:0040305b 00                               0x00 
                          .idata:0040305c 00                               0x00 
                          .idata:0040305d 00                               0x00 
                          .idata:0040305e 42                               0x42 'B'
                          .idata:0040305f 65                               0x65 'e'
                          .idata:00403060 65                               0x65 'e'
                          .idata:00403061 70                               0x70 'p'
                          .idata:00403062 00                               0x00 
                          .idata:00403063 00                               0x00 
                          .idata:00403064 00                               0x00 
                          .idata:00403065 00                               0x00 
                          .idata:00403066 00                               0x00 
                          .idata:00403067 00                               0x00 
                          .idata:00403068 00                               0x00 
                          .idata:00403069 00                               0x00 
                          .idata:0040306a 00                               0x00 
                          .idata:0040306b 00                               0x00 
                          .idata:0040306c 00                               0x00 
                          .idata:0040306d 00                               0x00 
                          .idata:0040306e 00                               0x00 
                          .idata:0040306f 00                               0x00 
                          .idata:00403070 00                               0x00 
                          .idata:00403071 00                               0x00 
                          .idata:00403072 00                               0x00 
                          .idata:00403073 00                               0x00 
                          .idata:00403074 00                               0x00 
                          .idata:00403075 00                               0x00 
                          .idata:00403076 00                               0x00 
                          .idata:00403077 00                               0x00 
                          .idata:00403078 00                               0x00 
                          .idata:00403079 00                               0x00 
                          .idata:0040307a 00                               0x00 
                          .idata:0040307b 00                               0x00 
                          .idata:0040307c 00                               0x00 
                          .idata:0040307d 00                               0x00 
                          .idata:0040307e 00                               0x00 
                          .idata:0040307f 00                               0x00 
                          .idata:00403080 00                               0x00 
                          .idata:00403081 00                               0x00 
                          .idata:00403082 00                               0x00 
                          .idata:00403083 00                               0x00 
                          .idata:00403084 00                               0x00 
                          .idata:00403085 00                               0x00 
                          .idata:00403086 00                               0x00 
                          .idata:00403087 00                               0x00 
                          .idata:00403088 00                               0x00 
                          .idata:00403089 00                               0x00 
                          .idata:0040308a 00                               0x00 
                          .idata:0040308b 00                               0x00 
                          .idata:0040308c 00                               0x00 
                          .idata:0040308d 00                               0x00 
                          .idata:0040308e 00                               0x00 
                          .idata:0040308f 00                               0x00 
                          .idata:00403090 00                               0x00 
                          .idata:00403091 00                               0x00 
                          .idata:00403092 00                               0x00 
                          .idata:00403093 00                               0x00 
                          .idata:00403094 00                               0x00 
                          .idata:00403095 00                               0x00 
                          .idata:00403096 00                               0x00 
                          .idata:00403097 00                               0x00 
                          .idata:00403098 00                               0x00 
                          .idata:00403099 00                               0x00 
                          .idata:0040309a 00                               0x00 
                          .idata:0040309b 00                               0x00 
                          .idata:0040309c 00                               0x00 
                          .idata:0040309d 00                               0x00 
                          .idata:0040309e 00                               0x00 
                          .idata:0040309f 00                               0x00 
                          .idata:004030a0 00                               0x00 
                          .idata:004030a1 00                               0x00 
                          .idata:004030a2 00                               0x00 
                          .idata:004030a3 00                               0x00 
                          .idata:004030a4 00                               0x00 
                          .idata:004030a5 00                               0x00 
                          .idata:004030a6 00                               0x00 
                          .idata:004030a7 00                               0x00 
                          .idata:004030a8 00                               0x00 
                          .idata:004030a9 00                               0x00 
                          .idata:004030aa 00                               0x00 
                          .idata:004030ab 00                               0x00 
                          .idata:004030ac 00                               0x00 
                          .idata:004030ad 00                               0x00 
                          .idata:004030ae 00                               0x00 
                          .idata:004030af 00                               0x00 
                          .idata:004030b0 00                               0x00 
                          .idata:004030b1 00                               0x00 
                          .idata:004030b2 00                               0x00 
                          .idata:004030b3 00                               0x00 
                          .idata:004030b4 00                               0x00 
                          .idata:004030b5 00                               0x00 
                          .idata:004030b6 00                               0x00 
                          .idata:004030b7 00                               0x00 
                          .idata:004030b8 00                               0x00 
                          .idata:004030b9 00                               0x00 
                          .idata:004030ba 00                               0x00 
                          .idata:004030bb 00                               0x00 
                          .idata:004030bc 00                               0x00 
                          .idata:004030bd 00                               0x00 
                          .idata:004030be 00                               0x00 
                          .idata:004030bf 00                               0x00 
                          .idata:004030c0 00                               0x00 
                          .idata:004030c1 00                               0x00 
                          .idata:004030c2 00                               0x00 
                          .idata:004030c3 00                               0x00 
                          .idata:004030c4 00                               0x00 
                          .idata:004030c5 00                               0x00 
                          .idata:004030c6 00                               0x00 
                          .idata:004030c7 00                               0x00 
                          .idata:004030c8 00                               0x00 
                          .idata:004030c9 00                               0x00 
                          .idata:004030ca 00                               0x00 
                          .idata:004030cb 00                               0x00 
                          .idata:004030cc 00                               0x00 
                          .idata:004030cd 00                               0x00 
                          .idata:004030ce 00                               0x00 
                          .idata:004030cf 00                               0x00 
                          .idata:004030d0 00                               0x00 
                          .idata:004030d1 00                               0x00 
                          .idata:004030d2 00                               0x00 
                          .idata:004030d3 00                               0x00 
                          .idata:004030d4 00                               0x00 
                          .idata:004030d5 00                               0x00 
                          .idata:004030d6 00                               0x00 
                          .idata:004030d7 00                               0x00 
                          .idata:004030d8 00                               0x00 
                          .idata:004030d9 00                               0x00 
                          .idata:004030da 00                               0x00 
                          .idata:004030db 00                               0x00 
                          .idata:004030dc 00                               0x00 
                          .idata:004030dd 00                               0x00 
                          .idata:004030de 00                               0x00 
                          .idata:004030df 00                               0x00 
                          .idata:004030e0 00                               0x00 
                          .idata:004030e1 00                               0x00 
                          .idata:004030e2 00                               0x00 
                          .idata:004030e3 00                               0x00 
                          .idata:004030e4 00                               0x00 
                          .idata:004030e5 00                               0x00 
                          .idata:004030e6 00                               0x00 
                          .idata:004030e7 00                               0x00 
                          .idata:004030e8 00                               0x00 
                          .idata:004030e9 00                               0x00 
                          .idata:004030ea 00                               0x00 
                          .idata:004030eb 00                               0x00 
                          .idata:004030ec 00                               0x00 
                          .idata:004030ed 00                               0x00 
                          .idata:004030ee 00                               0x00 
                          .idata:004030ef 00                               0x00 
                          .idata:004030f0 00                               0x00 
                          .idata:004030f1 00                               0x00 
                          .idata:004030f2 00                               0x00 
                          .idata:004030f3 00                               0x00 
                          .idata:004030f4 00                               0x00 
                          .idata:004030f5 00                               0x00 
                          .idata:004030f6 00                               0x00 
                          .idata:004030f7 00                               0x00 
                          .idata:004030f8 00                               0x00 
                          .idata:004030f9 00                               0x00 
                          .idata:004030fa 00                               0x00 
                          .idata:004030fb 00                               0x00 
                          .idata:004030fc 00                               0x00 
                          .idata:004030fd 00                               0x00 
                          .idata:004030fe 00                               0x00 
                          .idata:004030ff 00                               0x00 
                          .idata:00403100 00                               0x00 
                          .idata:00403101 00                               0x00 
                          .idata:00403102 00                               0x00 
                          .idata:00403103 00                               0x00 
                          .idata:00403104 00                               0x00 
                          .idata:00403105 00                               0x00 
                          .idata:00403106 00                               0x00 
                          .idata:00403107 00                               0x00 
                          .idata:00403108 00                               0x00 
                          .idata:00403109 00                               0x00 
                          .idata:0040310a 00                               0x00 
                          .idata:0040310b 00                               0x00 
                          .idata:0040310c 00                               0x00 
                          .idata:0040310d 00                               0x00 
                          .idata:0040310e 00                               0x00 
                          .idata:0040310f 00                               0x00 
                          .idata:00403110 00                               0x00 
                          .idata:00403111 00                               0x00 
                          .idata:00403112 00                               0x00 
                          .idata:00403113 00                               0x00 
                          .idata:00403114 00                               0x00 
                          .idata:00403115 00                               0x00 
                          .idata:00403116 00                               0x00 
                          .idata:00403117 00                               0x00 
                          .idata:00403118 00                               0x00 
                          .idata:00403119 00                               0x00 
                          .idata:0040311a 00                               0x00 
                          .idata:0040311b 00                               0x00 
                          .idata:0040311c 00                               0x00 
                          .idata:0040311d 00                               0x00 
                          .idata:0040311e 00                               0x00 
                          .idata:0040311f 00                               0x00 
                          .idata:00403120 00                               0x00 
                          .idata:00403121 00                               0x00 
                          .idata:00403122 00                               0x00 
                          .idata:00403123 00                               0x00 
                          .idata:00403124 00                               0x00 
                          .idata:00403125 00                               0x00 
                          .idata:00403126 00                               0x00 
                          .idata:00403127 00                               0x00 
                          .idata:00403128 00                               0x00 
                          .idata:00403129 00                               0x00 
                          .idata:0040312a 00                               0x00 
                          .idata:0040312b 00                               0x00 
                          .idata:0040312c 00                               0x00 
                          .idata:0040312d 00                               0x00 
                          .idata:0040312e 00                               0x00 
                          .idata:0040312f 00                               0x00 
                          .idata:00403130 00                               0x00 
                          .idata:00403131 00                               0x00 
                          .idata:00403132 00                               0x00 
                          .idata:00403133 00                               0x00 
                          .idata:00403134 00                               0x00 
                          .idata:00403135 00                               0x00 
                          .idata:00403136 00                               0x00 
                          .idata:00403137 00                               0x00 
                          .idata:00403138 00                               0x00 
                          .idata:00403139 00                               0x00 
                          .idata:0040313a 00                               0x00 
                          .idata:0040313b 00                               0x00 
                          .idata:0040313c 00                               0x00 
                          .idata:0040313d 00                               0x00 
                          .idata:0040313e 00                               0x00 
                          .idata:0040313f 00                               0x00 
                          .idata:00403140 00                               0x00 
                          .idata:00403141 00                               0x00 
                          .idata:00403142 00                               0x00 
                          .idata:00403143 00                               0x00 
                          .idata:00403144 00                               0x00 
                          .idata:00403145 00                               0x00 
                          .idata:00403146 00                               0x00 
                          .idata:00403147 00                               0x00 
                          .idata:00403148 00                               0x00 
                          .idata:00403149 00                               0x00 
                          .idata:0040314a 00                               0x00 
                          .idata:0040314b 00                               0x00 
                          .idata:0040314c 00                               0x00 
                          .idata:0040314d 00                               0x00 
                          .idata:0040314e 00                               0x00 
                          .idata:0040314f 00                               0x00 
                          .idata:00403150 00                               0x00 
                          .idata:00403151 00                               0x00 
                          .idata:00403152 00                               0x00 
                          .idata:00403153 00                               0x00 
                          .idata:00403154 00                               0x00 
                          .idata:00403155 00                               0x00 
                          .idata:00403156 00                               0x00 
                          .idata:00403157 00                               0x00 
                          .idata:00403158 00                               0x00 
                          .idata:00403159 00                               0x00 
                          .idata:0040315a 00                               0x00 
                          .idata:0040315b 00                               0x00 
                          .idata:0040315c 00                               0x00 
                          .idata:0040315d 00                               0x00 
                          .idata:0040315e 00                               0x00 
                          .idata:0040315f 00                               0x00 
                          .idata:00403160 00                               0x00 
                          .idata:00403161 00                               0x00 
                          .idata:00403162 00                               0x00 
                          .idata:00403163 00                               0x00 
                          .idata:00403164 00                               0x00 
                          .idata:00403165 00                               0x00 
                          .idata:00403166 00                               0x00 
                          .idata:00403167 00                               0x00 
                          .idata:00403168 00                               0x00 
                          .idata:00403169 00                               0x00 
                          .idata:0040316a 00                               0x00 
                          .idata:0040316b 00                               0x00 
                          .idata:0040316c 00                               0x00 
                          .idata:0040316d 00                               0x00 
                          .idata:0040316e 00                               0x00 
                          .idata:0040316f 00                               0x00 
                          .idata:00403170 00                               0x00 
                          .idata:00403171 00                               0x00 
                          .idata:00403172 00                               0x00 
                          .idata:00403173 00                               0x00 
                          .idata:00403174 00                               0x00 
                          .idata:00403175 00                               0x00 
                          .idata:00403176 00                               0x00 
                          .idata:00403177 00                               0x00 
                          .idata:00403178 00                               0x00 
                          .idata:00403179 00                               0x00 
                          .idata:0040317a 00                               0x00 
                          .idata:0040317b 00                               0x00 
                          .idata:0040317c 00                               0x00 
                          .idata:0040317d 00                               0x00 
                          .idata:0040317e 00                               0x00 
                          .idata:0040317f 00                               0x00 
                          .idata:00403180 00                               0x00 
                          .idata:00403181 00                               0x00 
                          .idata:00403182 00                               0x00 
                          .idata:00403183 00                               0x00 
                          .idata:00403184 00                               0x00 
                          .idata:00403185 00                               0x00 
                          .idata:00403186 00                               0x00 
                          .idata:00403187 00                               0x00 
                          .idata:00403188 00                               0x00 
                          .idata:00403189 00                               0x00 
                          .idata:0040318a 00                               0x00 
                          .idata:0040318b 00                               0x00 
                          .idata:0040318c 00                               0x00 
                          .idata:0040318d 00                               0x00 
                          .idata:0040318e 00                               0x00 
                          .idata:0040318f 00                               0x00 
                          .idata:00403190 00                               0x00 
                          .idata:00403191 00                               0x00 
                          .idata:00403192 00                               0x00 
                          .idata:00403193 00                               0x00 
                          .idata:00403194 00                               0x00 
                          .idata:00403195 00                               0x00 
                          .idata:00403196 00                               0x00 
                          .idata:00403197 00                               0x00 
                          .idata:00403198 00                               0x00 
                          .idata:00403199 00                               0x00 
                          .idata:0040319a 00                               0x00 
                          .idata:0040319b 00                               0x00 
                          .idata:0040319c 00                               0x00 
                          .idata:0040319d 00                               0x00 
                          .idata:0040319e 00                               0x00 
                          .idata:0040319f 00                               0x00 
                          .idata:004031a0 00                               0x00 
                          .idata:004031a1 00                               0x00 
                          .idata:004031a2 00                               0x00 
                          .idata:004031a3 00                               0x00 
                          .idata:004031a4 00                               0x00 
                          .idata:004031a5 00                               0x00 
                          .idata:004031a6 00                               0x00 
                          .idata:004031a7 00                               0x00 
                          .idata:004031a8 00                               0x00 
                          .idata:004031a9 00                               0x00 
                          .idata:004031aa 00                               0x00 
                          .idata:004031ab 00                               0x00 
                          .idata:004031ac 00                               0x00 
                          .idata:004031ad 00                               0x00 
                          .idata:004031ae 00                               0x00 
                          .idata:004031af 00                               0x00 
                          .idata:004031b0 00                               0x00 
                          .idata:004031b1 00                               0x00 
                          .idata:004031b2 00                               0x00 
                          .idata:004031b3 00                               0x00 
                          .idata:004031b4 00                               0x00 
                          .idata:004031b5 00                               0x00 
                          .idata:004031b6 00                               0x00 
                          .idata:004031b7 00                               0x00 
                          .idata:004031b8 00                               0x00 
                          .idata:004031b9 00                               0x00 
                          .idata:004031ba 00                               0x00 
                          .idata:004031bb 00                               0x00 
                          .idata:004031bc 00                               0x00 
                          .idata:004031bd 00                               0x00 
                          .idata:004031be 00                               0x00 
                          .idata:004031bf 00                               0x00 
                          .idata:004031c0 00                               0x00 
                          .idata:004031c1 00                               0x00 
                          .idata:004031c2 00                               0x00 
                          .idata:004031c3 00                               0x00 
                          .idata:004031c4 00                               0x00 
                          .idata:004031c5 00                               0x00 
                          .idata:004031c6 00                               0x00 
                          .idata:004031c7 00                               0x00 
                          .idata:004031c8 00                               0x00 
                          .idata:004031c9 00                               0x00 
                          .idata:004031ca 00                               0x00 
                          .idata:004031cb 00                               0x00 
                          .idata:004031cc 00                               0x00 
                          .idata:004031cd 00                               0x00 
                          .idata:004031ce 00                               0x00 
                          .idata:004031cf 00                               0x00 
                          .idata:004031d0 00                               0x00 
                          .idata:004031d1 00                               0x00 
                          .idata:004031d2 00                               0x00 
                          .idata:004031d3 00                               0x00 
                          .idata:004031d4 00                               0x00 
                          .idata:004031d5 00                               0x00 
                          .idata:004031d6 00                               0x00 
                          .idata:004031d7 00                               0x00 
                          .idata:004031d8 00                               0x00 
                          .idata:004031d9 00                               0x00 
                          .idata:004031da 00                               0x00 
                          .idata:004031db 00                               0x00 
                          .idata:004031dc 00                               0x00 
                          .idata:004031dd 00                               0x00 
                          .idata:004031de 00                               0x00 
                          .idata:004031df 00                               0x00 
                          .idata:004031e0 00                               0x00 
                          .idata:004031e1 00                               0x00 
                          .idata:004031e2 00                               0x00 
                          .idata:004031e3 00                               0x00 
                          .idata:004031e4 00                               0x00 
                          .idata:004031e5 00                               0x00 
                          .idata:004031e6 00                               0x00 
                          .idata:004031e7 00                               0x00 
                          .idata:004031e8 00                               0x00 
                          .idata:004031e9 00                               0x00 
                          .idata:004031ea 00                               0x00 
                          .idata:004031eb 00                               0x00 
                          .idata:004031ec 00                               0x00 
                          .idata:004031ed 00                               0x00 
                          .idata:004031ee 00                               0x00 
                          .idata:004031ef 00                               0x00 
                          .idata:004031f0 00                               0x00 
                          .idata:004031f1 00                               0x00 
                          .idata:004031f2 00                               0x00 
                          .idata:004031f3 00                               0x00 
                          .idata:004031f4 00                               0x00 
                          .idata:004031f5 00                               0x00 
                          .idata:004031f6 00                               0x00 
                          .idata:004031f7 00                               0x00 
                          .idata:004031f8 00                               0x00 
                          .idata:004031f9 00                               0x00 
                          .idata:004031fa 00                               0x00 
                          .idata:004031fb 00                               0x00 
                          .idata:004031fc 00                               0x00 
                          .idata:004031fd 00                               0x00 
                          .idata:004031fe 00                               0x00 
                          .idata:004031ff 00                               0x00 
                          .reloc:00404000 00                               0x00 
                          .reloc:00404001 10                               0x10 
                          .reloc:00404002 00                               0x00 
                          .reloc:00404003 00                               0x00 
                          .reloc:00404004 10                               0x10 
                          .reloc:00404005 00                               0x00 
                          .reloc:00404006 00                               0x00 
                          .reloc:00404007 00                               0x00 
                          .reloc:00404008 51                               0x51 'Q'
                          .reloc:00404009 34                               0x34 '4'
                          .reloc:0040400a 67                               0x67 'g'
                          .reloc:0040400b 34                               0x34 '4'
                          .reloc:0040400c 6d                               0x6d 'm'
                          .reloc:0040400d 34                               0x34 '4'
                          .reloc:0040400e 00                               0x00 
                          .reloc:0040400f 00                               0x00 
                          .reloc:00404010 00                               0x00 
                          .reloc:00404011 00                               0x00 
                          .reloc:00404012 00                               0x00 
                          .reloc:00404013 00                               0x00 
                          .reloc:00404014 00                               0x00 
                          .reloc:00404015 00                               0x00 
                          .reloc:00404016 00                               0x00 
                          .reloc:00404017 00                               0x00 
                          .reloc:00404018 00                               0x00 
                          .reloc:00404019 00                               0x00 
                          .reloc:0040401a 00                               0x00 
                          .reloc:0040401b 00                               0x00 
                          .reloc:0040401c 00                               0x00 
                          .reloc:0040401d 00                               0x00 
                          .reloc:0040401e 00                               0x00 
                          .reloc:0040401f 00                               0x00 
                          .reloc:00404020 00                               0x00 
                          .reloc:00404021 00                               0x00 
                          .reloc:00404022 00                               0x00 
                          .reloc:00404023 00                               0x00 
                          .reloc:00404024 00                               0x00 
                          .reloc:00404025 00                               0x00 
                          .reloc:00404026 00                               0x00 
                          .reloc:00404027 00                               0x00 
                          .reloc:00404028 00                               0x00 
                          .reloc:00404029 00                               0x00 
                          .reloc:0040402a 00                               0x00 
                          .reloc:0040402b 00                               0x00 
                          .reloc:0040402c 00                               0x00 
                          .reloc:0040402d 00                               0x00 
                          .reloc:0040402e 00                               0x00 
                          .reloc:0040402f 00                               0x00 
                          .reloc:00404030 00                               0x00 
                          .reloc:00404031 00                               0x00 
                          .reloc:00404032 00                               0x00 
                          .reloc:00404033 00                               0x00 
                          .reloc:00404034 00                               0x00 
                          .reloc:00404035 00                               0x00 
                          .reloc:00404036 00                               0x00 
                          .reloc:00404037 00                               0x00 
                          .reloc:00404038 00                               0x00 
                          .reloc:00404039 00                               0x00 
                          .reloc:0040403a 00                               0x00 
                          .reloc:0040403b 00                               0x00 
                          .reloc:0040403c 00                               0x00 
                          .reloc:0040403d 00                               0x00 
                          .reloc:0040403e 00                               0x00 
                          .reloc:0040403f 00                               0x00 
                          .reloc:00404040 00                               0x00 
                          .reloc:00404041 00                               0x00 
                          .reloc:00404042 00                               0x00 
                          .reloc:00404043 00                               0x00 
                          .reloc:00404044 00                               0x00 
                          .reloc:00404045 00                               0x00 
                          .reloc:00404046 00                               0x00 
                          .reloc:00404047 00                               0x00 
                          .reloc:00404048 00                               0x00 
                          .reloc:00404049 00                               0x00 
                          .reloc:0040404a 00                               0x00 
                          .reloc:0040404b 00                               0x00 
                          .reloc:0040404c 00                               0x00 
                          .reloc:0040404d 00                               0x00 
                          .reloc:0040404e 00                               0x00 
                          .reloc:0040404f 00                               0x00 
                          .reloc:00404050 00                               0x00 
                          .reloc:00404051 00                               0x00 
                          .reloc:00404052 00                               0x00 
                          .reloc:00404053 00                               0x00 
                          .reloc:00404054 00                               0x00 
                          .reloc:00404055 00                               0x00 
                          .reloc:00404056 00                               0x00 
                          .reloc:00404057 00                               0x00 
                          .reloc:00404058 00                               0x00 
                          .reloc:00404059 00                               0x00 
                          .reloc:0040405a 00                               0x00 
                          .reloc:0040405b 00                               0x00 
                          .reloc:0040405c 00                               0x00 
                          .reloc:0040405d 00                               0x00 
                          .reloc:0040405e 00                               0x00 
                          .reloc:0040405f 00                               0x00 
                          .reloc:00404060 00                               0x00 
                          .reloc:00404061 00                               0x00 
                          .reloc:00404062 00                               0x00 
                          .reloc:00404063 00                               0x00 
                          .reloc:00404064 00                               0x00 
                          .reloc:00404065 00                               0x00 
                          .reloc:00404066 00                               0x00 
                          .reloc:00404067 00                               0x00 
                          .reloc:00404068 00                               0x00 
                          .reloc:00404069 00                               0x00 
                          .reloc:0040406a 00                               0x00 
                          .reloc:0040406b 00                               0x00 
                          .reloc:0040406c 00                               0x00 
                          .reloc:0040406d 00                               0x00 
                          .reloc:0040406e 00                               0x00 
                          .reloc:0040406f 00                               0x00 
                          .reloc:00404070 00                               0x00 
                          .reloc:00404071 00                               0x00 
                          .reloc:00404072 00                               0x00 
                          .reloc:00404073 00                               0x00 
                          .reloc:00404074 00                               0x00 
                          .reloc:00404075 00                               0x00 
                          .reloc:00404076 00                               0x00 
                          .reloc:00404077 00                               0x00 
                          .reloc:00404078 00                               0x00 
                          .reloc:00404079 00                               0x00 
                          .reloc:0040407a 00                               0x00 
                          .reloc:0040407b 00                               0x00 
                          .reloc:0040407c 00                               0x00 
                          .reloc:0040407d 00                               0x00 
                          .reloc:0040407e 00                               0x00 
                          .reloc:0040407f 00                               0x00 
                          .reloc:00404080 00                               0x00 
                          .reloc:00404081 00                               0x00 
                          .reloc:00404082 00                               0x00 
                          .reloc:00404083 00                               0x00 
                          .reloc:00404084 00                               0x00 
                          .reloc:00404085 00                               0x00 
                          .reloc:00404086 00                               0x00 
                          .reloc:00404087 00                               0x00 
                          .reloc:00404088 00                               0x00 
                          .reloc:00404089 00                               0x00 
                          .reloc:0040408a 00                               0x00 
                          .reloc:0040408b 00                               0x00 
                          .reloc:0040408c 00                               0x00 
                          .reloc:0040408d 00                               0x00 
                          .reloc:0040408e 00                               0x00 
                          .reloc:0040408f 00                               0x00 
                          .reloc:00404090 00                               0x00 
                          .reloc:00404091 00                               0x00 
                          .reloc:00404092 00                               0x00 
                          .reloc:00404093 00                               0x00 
                          .reloc:00404094 00                               0x00 
                          .reloc:00404095 00                               0x00 
                          .reloc:00404096 00                               0x00 
                          .reloc:00404097 00                               0x00 
                          .reloc:00404098 00                               0x00 
                          .reloc:00404099 00                               0x00 
                          .reloc:0040409a 00                               0x00 
                          .reloc:0040409b 00                               0x00 
                          .reloc:0040409c 00                               0x00 
                          .reloc:0040409d 00                               0x00 
                          .reloc:0040409e 00                               0x00 
                          .reloc:0040409f 00                               0x00 
                          .reloc:004040a0 00                               0x00 
                          .reloc:004040a1 00                               0x00 
                          .reloc:004040a2 00                               0x00 
                          .reloc:004040a3 00                               0x00 
                          .reloc:004040a4 00                               0x00 
                          .reloc:004040a5 00                               0x00 
                          .reloc:004040a6 00                               0x00 
                          .reloc:004040a7 00                               0x00 
                          .reloc:004040a8 00                               0x00 
                          .reloc:004040a9 00                               0x00 
                          .reloc:004040aa 00                               0x00 
                          .reloc:004040ab 00                               0x00 
                          .reloc:004040ac 00                               0x00 
                          .reloc:004040ad 00                               0x00 
                          .reloc:004040ae 00                               0x00 
                          .reloc:004040af 00                               0x00 
                          .reloc:004040b0 00                               0x00 
                          .reloc:004040b1 00                               0x00 
                          .reloc:004040b2 00                               0x00 
                          .reloc:004040b3 00                               0x00 
                          .reloc:004040b4 00                               0x00 
                          .reloc:004040b5 00                               0x00 
                          .reloc:004040b6 00                               0x00 
                          .reloc:004040b7 00                               0x00 
                          .reloc:004040b8 00                               0x00 
                          .reloc:004040b9 00                               0x00 
                          .reloc:004040ba 00                               0x00 
                          .reloc:004040bb 00                               0x00 
                          .reloc:004040bc 00                               0x00 
                          .reloc:004040bd 00                               0x00 
                          .reloc:004040be 00                               0x00 
                          .reloc:004040bf 00                               0x00 
                          .reloc:004040c0 00                               0x00 
                          .reloc:004040c1 00                               0x00 
                          .reloc:004040c2 00                               0x00 
                          .reloc:004040c3 00                               0x00 
                          .reloc:004040c4 00                               0x00 
                          .reloc:004040c5 00                               0x00 
                          .reloc:004040c6 00                               0x00 
                          .reloc:004040c7 00                               0x00 
                          .reloc:004040c8 00                               0x00 
                          .reloc:004040c9 00                               0x00 
                          .reloc:004040ca 00                               0x00 
                          .reloc:004040cb 00                               0x00 
                          .reloc:004040cc 00                               0x00 
                          .reloc:004040cd 00                               0x00 
                          .reloc:004040ce 00                               0x00 
                          .reloc:004040cf 00                               0x00 
                          .reloc:004040d0 00                               0x00 
                          .reloc:004040d1 00                               0x00 
                          .reloc:004040d2 00                               0x00 
                          .reloc:004040d3 00                               0x00 
                          .reloc:004040d4 00                               0x00 
                          .reloc:004040d5 00                               0x00 
                          .reloc:004040d6 00                               0x00 
                          .reloc:004040d7 00                               0x00 
                          .reloc:004040d8 00                               0x00 
                          .reloc:004040d9 00                               0x00 
                          .reloc:004040da 00                               0x00 
                          .reloc:004040db 00                               0x00 
                          .reloc:004040dc 00                               0x00 
                          .reloc:004040dd 00                               0x00 
                          .reloc:004040de 00                               0x00 
                          .reloc:004040df 00                               0x00 
                          .reloc:004040e0 00                               0x00 
                          .reloc:004040e1 00                               0x00 
                          .reloc:004040e2 00                               0x00 
                          .reloc:004040e3 00                               0x00 
                          .reloc:004040e4 00                               0x00 
                          .reloc:004040e5 00                               0x00 
                          .reloc:004040e6 00                               0x00 
                          .reloc:004040e7 00                               0x00 
                          .reloc:004040e8 00                               0x00 
                          .reloc:004040e9 00                               0x00 
                          .reloc:004040ea 00                               0x00 
                          .reloc:004040eb 00                               0x00 
                          .reloc:004040ec 00                               0x00 
                          .reloc:004040ed 00                               0x00 
                          .reloc:004040ee 00                               0x00 
                          .reloc:004040ef 00                               0x00 
                          .reloc:004040f0 00                               0x00 
                          .reloc:004040f1 00                               0x00 
                          .reloc:004040f2 00                               0x00 
                          .reloc:004040f3 00                               0x00 
                          .reloc:004040f4 00                               0x00 
                          .reloc:004040f5 00                               0x00 
                          .reloc:004040f6 00                               0x00 
                          .reloc:004040f7 00                               0x00 
                          .reloc:004040f8 00                               0x00 
                          .reloc:004040f9 00                               0x00 
                          .reloc:004040fa 00                               0x00 
                          .reloc:004040fb 00                               0x00 
                          .reloc:004040fc 00                               0x00 
                          .reloc:004040fd 00                               0x00 
                          .reloc:004040fe 00                               0x00 
                          .reloc:004040ff 00                               0x00 
                          .reloc:00404100 00                               0x00 
                          .reloc:00404101 00                               0x00 
                          .reloc:00404102 00                               0x00 
                          .reloc:00404103 00                               0x00 
                          .reloc:00404104 00                               0x00 
                          .reloc:00404105 00                               0x00 
                          .reloc:00404106 00                               0x00 
                          .reloc:00404107 00                               0x00 
                          .reloc:00404108 00                               0x00 
                          .reloc:00404109 00                               0x00 
                          .reloc:0040410a 00                               0x00 
                          .reloc:0040410b 00                               0x00 
                          .reloc:0040410c 00                               0x00 
                          .reloc:0040410d 00                               0x00 
                          .reloc:0040410e 00                               0x00 
                          .reloc:0040410f 00                               0x00 
                          .reloc:00404110 00                               0x00 
                          .reloc:00404111 00                               0x00 
                          .reloc:00404112 00                               0x00 
                          .reloc:00404113 00                               0x00 
                          .reloc:00404114 00                               0x00 
                          .reloc:00404115 00                               0x00 
                          .reloc:00404116 00                               0x00 
                          .reloc:00404117 00                               0x00 
                          .reloc:00404118 00                               0x00 
                          .reloc:00404119 00                               0x00 
                          .reloc:0040411a 00                               0x00 
                          .reloc:0040411b 00                               0x00 
                          .reloc:0040411c 00                               0x00 
                          .reloc:0040411d 00                               0x00 
                          .reloc:0040411e 00                               0x00 
                          .reloc:0040411f 00                               0x00 
                          .reloc:00404120 00                               0x00 
                          .reloc:00404121 00                               0x00 
                          .reloc:00404122 00                               0x00 
                          .reloc:00404123 00                               0x00 
                          .reloc:00404124 00                               0x00 
                          .reloc:00404125 00                               0x00 
                          .reloc:00404126 00                               0x00 
                          .reloc:00404127 00                               0x00 
                          .reloc:00404128 00                               0x00 
                          .reloc:00404129 00                               0x00 
                          .reloc:0040412a 00                               0x00 
                          .reloc:0040412b 00                               0x00 
                          .reloc:0040412c 00                               0x00 
                          .reloc:0040412d 00                               0x00 
                          .reloc:0040412e 00                               0x00 
                          .reloc:0040412f 00                               0x00 
                          .reloc:00404130 00                               0x00 
                          .reloc:00404131 00                               0x00 
                          .reloc:00404132 00                               0x00 
                          .reloc:00404133 00                               0x00 
                          .reloc:00404134 00                               0x00 
                          .reloc:00404135 00                               0x00 
                          .reloc:00404136 00                               0x00 
                          .reloc:00404137 00                               0x00 
                          .reloc:00404138 00                               0x00 
                          .reloc:00404139 00                               0x00 
                          .reloc:0040413a 00                               0x00 
                          .reloc:0040413b 00                               0x00 
                          .reloc:0040413c 00                               0x00 
                          .reloc:0040413d 00                               0x00 
                          .reloc:0040413e 00                               0x00 
                          .reloc:0040413f 00                               0x00 
                          .reloc:00404140 00                               0x00 
                          .reloc:00404141 00                               0x00 
                          .reloc:00404142 00                               0x00 
                          .reloc:00404143 00                               0x00 
                          .reloc:00404144 00                               0x00 
                          .reloc:00404145 00                               0x00 
                          .reloc:00404146 00                               0x00 
                          .reloc:00404147 00                               0x00 
                          .reloc:00404148 00                               0x00 
                          .reloc:00404149 00                               0x00 
                          .reloc:0040414a 00                               0x00 
                          .reloc:0040414b 00                               0x00 
                          .reloc:0040414c 00                               0x00 
                          .reloc:0040414d 00                               0x00 
                          .reloc:0040414e 00                               0x00 
                          .reloc:0040414f 00                               0x00 
                          .reloc:00404150 00                               0x00 
                          .reloc:00404151 00                               0x00 
                          .reloc:00404152 00                               0x00 
                          .reloc:00404153 00                               0x00 
                          .reloc:00404154 00                               0x00 
                          .reloc:00404155 00                               0x00 
                          .reloc:00404156 00                               0x00 
                          .reloc:00404157 00                               0x00 
                          .reloc:00404158 00                               0x00 
                          .reloc:00404159 00                               0x00 
                          .reloc:0040415a 00                               0x00 
                          .reloc:0040415b 00                               0x00 
                          .reloc:0040415c 00                               0x00 
                          .reloc:0040415d 00                               0x00 
                          .reloc:0040415e 00                               0x00 
                          .reloc:0040415f 00                               0x00 
                          .reloc:00404160 00                               0x00 
                          .reloc:00404161 00                               0x00 
                          .reloc:00404162 00                               0x00 
                          .reloc:00404163 00                               0x00 
                          .reloc:00404164 00                               0x00 
                          .reloc:00404165 00                               0x00 
                          .reloc:00404166 00                               0x00 
                          .reloc:00404167 00                               0x00 
                          .reloc:00404168 00                               0x00 
                          .reloc:00404169 00                               0x00 
                          .reloc:0040416a 00                               0x00 
                          .reloc:0040416b 00                               0x00 
                          .reloc:0040416c 00                               0x00 
                          .reloc:0040416d 00                               0x00 
                          .reloc:0040416e 00                               0x00 
                          .reloc:0040416f 00                               0x00 
                          .reloc:00404170 00                               0x00 
                          .reloc:00404171 00                               0x00 
                          .reloc:00404172 00                               0x00 
                          .reloc:00404173 00                               0x00 
                          .reloc:00404174 00                               0x00 
                          .reloc:00404175 00                               0x00 
                          .reloc:00404176 00                               0x00 
                          .reloc:00404177 00                               0x00 
                          .reloc:00404178 00                               0x00 
                          .reloc:00404179 00                               0x00 
                          .reloc:0040417a 00                               0x00 
                          .reloc:0040417b 00                               0x00 
                          .reloc:0040417c 00                               0x00 
                          .reloc:0040417d 00                               0x00 
                          .reloc:0040417e 00                               0x00 
                          .reloc:0040417f 00                               0x00 
                          .reloc:00404180 00                               0x00 
                          .reloc:00404181 00                               0x00 
                          .reloc:00404182 00                               0x00 
                          .reloc:00404183 00                               0x00 
                          .reloc:00404184 00                               0x00 
                          .reloc:00404185 00                               0x00 
                          .reloc:00404186 00                               0x00 
                          .reloc:00404187 00                               0x00 
                          .reloc:00404188 00                               0x00 
                          .reloc:00404189 00                               0x00 
                          .reloc:0040418a 00                               0x00 
                          .reloc:0040418b 00                               0x00 
                          .reloc:0040418c 00                               0x00 
                          .reloc:0040418d 00                               0x00 
                          .reloc:0040418e 00                               0x00 
                          .reloc:0040418f 00                               0x00 
                          .reloc:00404190 00                               0x00 
                          .reloc:00404191 00                               0x00 
                          .reloc:00404192 00                               0x00 
                          .reloc:00404193 00                               0x00 
                          .reloc:00404194 00                               0x00 
                          .reloc:00404195 00                               0x00 
                          .reloc:00404196 00                               0x00 
                          .reloc:00404197 00                               0x00 
                          .reloc:00404198 00                               0x00 
                          .reloc:00404199 00                               0x00 
                          .reloc:0040419a 00                               0x00 
                          .reloc:0040419b 00                               0x00 
                          .reloc:0040419c 00                               0x00 
                          .reloc:0040419d 00                               0x00 
                          .reloc:0040419e 00                               0x00 
                          .reloc:0040419f 00                               0x00 
                          .reloc:004041a0 00                               0x00 
                          .reloc:004041a1 00                               0x00 
                          .reloc:004041a2 00                               0x00 
                          .reloc:004041a3 00                               0x00 
                          .reloc:004041a4 00                               0x00 
                          .reloc:004041a5 00                               0x00 
                          .reloc:004041a6 00                               0x00 
                          .reloc:004041a7 00                               0x00 
                          .reloc:004041a8 00                               0x00 
                          .reloc:004041a9 00                               0x00 
                          .reloc:004041aa 00                               0x00 
                          .reloc:004041ab 00                               0x00 
                          .reloc:004041ac 00                               0x00 
                          .reloc:004041ad 00                               0x00 
                          .reloc:004041ae 00                               0x00 
                          .reloc:004041af 00                               0x00 
                          .reloc:004041b0 00                               0x00 
                          .reloc:004041b1 00                               0x00 
                          .reloc:004041b2 00                               0x00 
                          .reloc:004041b3 00                               0x00 
                          .reloc:004041b4 00                               0x00 
                          .reloc:004041b5 00                               0x00 
                          .reloc:004041b6 00                               0x00 
                          .reloc:004041b7 00                               0x00 
                          .reloc:004041b8 00                               0x00 
                          .reloc:004041b9 00                               0x00 
                          .reloc:004041ba 00                               0x00 
                          .reloc:004041bb 00                               0x00 
                          .reloc:004041bc 00                               0x00 
                          .reloc:004041bd 00                               0x00 
                          .reloc:004041be 00                               0x00 
                          .reloc:004041bf 00                               0x00 
                          .reloc:004041c0 00                               0x00 
                          .reloc:004041c1 00                               0x00 
                          .reloc:004041c2 00                               0x00 
                          .reloc:004041c3 00                               0x00 
                          .reloc:004041c4 00                               0x00 
                          .reloc:004041c5 00                               0x00 
                          .reloc:004041c6 00                               0x00 
                          .reloc:004041c7 00                               0x00 
                          .reloc:004041c8 00                               0x00 
                          .reloc:004041c9 00                               0x00 
                          .reloc:004041ca 00                               0x00 
                          .reloc:004041cb 00                               0x00 
                          .reloc:004041cc 00                               0x00 
                          .reloc:004041cd 00                               0x00 
                          .reloc:004041ce 00                               0x00 
                          .reloc:004041cf 00                               0x00 
                          .reloc:004041d0 00                               0x00 
                          .reloc:004041d1 00                               0x00 
                          .reloc:004041d2 00                               0x00 
                          .reloc:004041d3 00                               0x00 
                          .reloc:004041d4 00                               0x00 
                          .reloc:004041d5 00                               0x00 
                          .reloc:004041d6 00                               0x00 
                          .reloc:004041d7 00                               0x00 
                          .reloc:004041d8 00                               0x00 
                          .reloc:004041d9 00                               0x00 
                          .reloc:004041da 00                               0x00 
                          .reloc:004041db 00                               0x00 
                          .reloc:004041dc 00                               0x00 
                          .reloc:004041dd 00                               0x00 
                          .reloc:004041de 00                               0x00 
                          .reloc:004041df 00                               0x00 
                          .reloc:004041e0 00                               0x00 
                          .reloc:004041e1 00                               0x00 
                          .reloc:004041e2 00                               0x00 
                          .reloc:004041e3 00                               0x00 
                          .reloc:004041e4 00                               0x00 
                          .reloc:004041e5 00                               0x00 
                          .reloc:004041e6 00                               0x00 
                          .reloc:004041e7 00                               0x00 
                          .reloc:004041e8 00                               0x00 
                          .reloc:004041e9 00                               0x00 
                          .reloc:004041ea 00                               0x00 
                          .reloc:004041eb 00                               0x00 
                          .reloc:004041ec 00                               0x00 
                          .reloc:004041ed 00                               0x00 
                          .reloc:004041ee 00                               0x00 
                          .reloc:004041ef 00                               0x00 
                          .reloc:004041f0 00                               0x00 
                          .reloc:004041f1 00                               0x00 
                          .reloc:004041f2 00                               0x00 
                          .reloc:004041f3 00                               0x00 
                          .reloc:004041f4 00                               0x00 
                          .reloc:004041f5 00                               0x00 
                          .reloc:004041f6 00                               0x00 
                          .reloc:004041f7 00                               0x00 
                          .reloc:004041f8 00                               0x00 
                          .reloc:004041f9 00                               0x00 
                          .reloc:004041fa 00                               0x00 
                          .reloc:004041fb 00                               0x00 
                          .reloc:004041fc 00                               0x00 
                          .reloc:004041fd 00                               0x00 
                          .reloc:004041fe 00                               0x00 
                          .reloc:004041ff 00                               0x00 
