                           .text:00401000 c3                               ret    
                           .text:00401001 00 00                            add    %al,(%eax)
                           .text:00401003 00 00                            add    %al,(%eax)
                           .text:00401005 00 00                            add    %al,(%eax)
                           .text:00401007 00 00                            add    %al,(%eax)
                           .text:00401009 00 00                            add    %al,(%eax)
                           .text:0040100b 00 87 06 00 00 90                add    %al,-0x6ffffffa(%edi)
                           .text:00401011 55                               push   %ebp
                           .text:00401012 90                               nop
                           .text:00401013 8d 44 24 f8                      lea    -0x8(%esp),%eax
                           .text:00401017 33 db                            xor    %ebx,%ebx
                           .text:00401019 64 87 03                         xchg   %eax,%fs:(%ebx)
                           .text:0040101c 66 05 ae 00                      add    $0xae,%ax
                           .text:00401020 66 2d ae 00                      sub    $0xae,%ax
                           .text:00401024 e8 00 00 00 00                   call   0x00401029
                           .text:00401029 66 35 0b 00                      xor    $0xb,%ax
                           .text:0040102d 66 35 0b 00                      xor    $0xb,%ax
                           .text:00401031 5b                               pop    %ebx
                           .text:00401032 8d 8b 83 00 00 00                lea    0x83(%ebx),%ecx
                           .text:00401038 66 81 f1 a2 00                   xor    $0xa2,%cx
                           .text:0040103d 66 81 f1 a2 00                   xor    $0xa2,%cx
                           .text:00401042 51                               push   %ecx
                           .text:00401043 66 83 c1 55                      add    $0x55,%cx
                           .text:00401047 66 83 e9 55                      sub    $0x55,%cx
                           .text:0040104b 50                               push   %eax
                           .text:0040104c 50                               push   %eax
                           .text:0040104d eb 00                            jmp    0x0040104f
                           .text:0040104f 0f 01 4c 24 fe                   sidtl  -0x2(%esp)
                           .text:00401054 5b                               pop    %ebx
                           .text:00401055 83 c3 2c                         add    $0x2c,%ebx
                           .text:00401058 fa                               cli    
                           .text:00401059 8b 2b                            mov    (%ebx),%ebp
                           .text:0040105b 66 8b 6b fc                      mov    -0x4(%ebx),%bp
                           .text:0040105f eb 00                            jmp    0x00401061
                           .text:00401061 8d 71 21                         lea    0x21(%ecx),%esi
                           .text:00401064 56                               push   %esi
                           .text:00401065 66 89 73 fc                      mov    %si,-0x4(%ebx)
                           .text:00401069 eb 00                            jmp    0x0040106b
                           .text:0040106b c1 ee 10                         shr    $0x10,%esi
                           .text:0040106e 66 89 73 02                      mov    %si,0x2(%ebx)
                           .text:00401072 80 c6 56                         add    $0x56,%dh
                           .text:00401075 80 ee 56                         sub    $0x56,%dh
                           .text:00401078 5e                               pop    %esi
                           .text:00401079 cd 05                            int    $0x5
                           .text:0040107b eb 00                            jmp    0x0040107d
                           .text:0040107d 56                               push   %esi
                           .text:0040107e 8b f0                            mov    %eax,%esi
                           .text:00401080 66 b9 5f 00                      mov    $0x5f,%cx
                           .text:00401084 8b 48 fc                         mov    -0x4(%eax),%ecx
                           .text:00401087 f3 a4                            rep movsb %ds:(%esi),%es:(%edi)
                           .text:00401089 83 e8 08                         sub    $0x8,%eax
                           .text:0040108c 8b 30                            mov    (%eax),%esi
                           .text:0040108e 0b f6                            or     %esi,%esi
                           .text:00401090 74 02                            je     0x00401094
                           .text:00401092 eb ec                            jmp    0x00401080
                           .text:00401094 66 83 f1 73                      xor    $0x73,%cx
                           .text:00401098 66 83 f1 73                      xor    $0x73,%cx
                           .text:0040109c 5e                               pop    %esi
                           .text:0040109d cd 05                            int    $0x5
                           .text:0040109f 90                               nop
                           .text:004010a0 90                               nop
                           .text:004010a1 fb                               sti    
                           .text:004010a2 80 c2 59                         add    $0x59,%dl
                           .text:004010a5 80 ea 59                         sub    $0x59,%dl
                           .text:004010a8 33 db                            xor    %ebx,%ebx
                           .text:004010aa eb 0d                            jmp    0x004010b9
                           .text:004010ac eb 00                            jmp    0x004010ae
                           .text:004010ae 33 db                            xor    %ebx,%ebx
                           .text:004010b0 66 b8 51 00                      mov    $0x51,%ax
                           .text:004010b4 64 8b 03                         mov    %fs:(%ebx),%eax
                           .text:004010b7 8b 20                            mov    (%eax),%esp
                           .text:004010b9 64 8f 03                         popl   %fs:(%ebx)
                           .text:004010bc 58                               pop    %eax
                           .text:004010bd eb 00                            jmp    0x004010bf
                           .text:004010bf 5d                               pop    %ebp
                           .text:004010c0 04 03                            add    $0x3,%al
                           .text:004010c2 2c 03                            sub    $0x3,%al
                           .text:004010c4 68 00 10 40 00                   push   $0x401000
                           .text:004010c9 90                               nop
                           .text:004010ca eb 00                            jmp    0x004010cc
                           .text:004010cc c3                               ret    
                           .text:004010cd 74 73                            je     0x00401142
                           .text:004010cf 0f 21 c1                         mov    %db0,%ecx
                           .text:004010d2 e3 11                            jecxz  0x004010e5
                           .text:004010d4 83 04 24 24                      addl   $0x24,(%esp)
                           .text:004010d8 66 89 6b fc                      mov    %bp,-0x4(%ebx)
                           .text:004010dc c1 ed 10                         shr    $0x10,%ebp
                           .text:004010df 66 89 6b 02                      mov    %bp,0x2(%ebx)
                           .text:004010e3 90                               nop
                           .text:004010e4 cf                               iret   
                           .text:004010e5 0f 23 c3                         mov    %ebx,%db0
                           .text:004010e8 6a 0f                            push   $0xf
                           .text:004010ea 51                               push   %ecx
                           .text:004010eb 66 81 f2 db 00                   xor    $0xdb,%dx
                           .text:004010f0 66 81 f2 db 00                   xor    $0xdb,%dx
                           .text:004010f5 6a ff                            push   $0xffffffff
                           .text:004010f7 80 c1 4c                         add    $0x4c,%cl
                           .text:004010fa 80 e9 4c                         sub    $0x4c,%cl
                           .text:004010fd 51                               push   %ecx
                           .text:004010fe 66 35 2c 00                      xor    $0x2c,%ax
                           .text:00401102 66 35 2c 00                      xor    $0x2c,%ax
                           .text:00401106 51                               push   %ecx
                           .text:00401107 eb 00                            jmp    0x00401109
                           .text:00401109 51                               push   %ecx
                           .text:0040110a eb 00                            jmp    0x0040110c
                           .text:0040110c 6a 01                            push   $0x1
                           .text:0040110e 6a 02                            push   $0x2
                           .text:00401110 66 83 f3 23                      xor    $0x23,%bx
                           .text:00401114 66 83 f3 23                      xor    $0x23,%bx
                           .text:00401118 cd 20                            int    $0x20
                           .text:0040111a 90                               nop
                           .text:0040111b 53                               push   %ebx
                           .text:0040111c 00 01                            add    %al,(%ecx)
                           .text:0040111e 00 66 35                         add    %ah,0x35(%esi)
                           .text:00401121 51                               push   %ecx
                           .text:00401122 00 66 35                         add    %ah,0x35(%esi)
                           .text:00401125 51                               push   %ecx
                           .text:00401126 00 83 c4 20 66 83                add    %al,-0x7c99df3c(%ebx)
                           .text:0040112c c3                               ret    
                           .text:0040112d 13 66 83                         adc    -0x7d(%esi),%esp
                           .text:00401130 eb 13                            jmp    0x00401145
                           .text:00401132 97                               xchg   %eax,%edi
                           .text:00401133 66 05 06 00                      add    $0x6,%ax
                           .text:00401137 66 2d 06 00                      sub    $0x6,%ax
                           .text:0040113b 8d 86 44 ff ff ff                lea    -0xbc(%esi),%eax
                           .text:00401141 cf                               iret   
                           .text:00401142 8d 87 2a fb ff ff                lea    -0x4d6(%edi),%eax
                           .text:00401148 50                               push   %eax
                           .text:00401149 cd 20                            int    $0x20
                           .text:0040114b 80 c7 91                         add    $0x91,%bh
                           .text:0040114e 80 ef 91                         sub    $0x91,%bh
                           .text:00401151 67 00 40 00                      add    %al,0x0(%bx,%si)
                           .text:00401155 0f 23 c0                         mov    %eax,%db0
                           .text:00401158 66 81 f1 85 00                   xor    $0x85,%cx
                           .text:0040115d 66 81 f1 85 00                   xor    $0x85,%cx
                           .text:00401162 58                               pop    %eax
                           .text:00401163 8b 8e 84 00 00 00                mov    0x84(%esi),%ecx
                           .text:00401169 8b 11                            mov    (%ecx),%edx
                           .text:0040116b 89 50 fc                         mov    %edx,-0x4(%eax)
                           .text:0040116e 8d 40 bc                         lea    -0x44(%eax),%eax
                           .text:00401171 89 01                            mov    %eax,(%ecx)
                           .text:00401173 eb 00                            jmp    0x00401175
                           .text:00401175 fa                               cli    
                           .text:00401176 eb 00                            jmp    0x00401178
                           .text:00401178 e9 5b ff ff ff                   jmp    0x004010d8
                           .text:0040117d 66 83 f1 51                      xor    $0x51,%cx
                           .text:00401181 66 83 f1 51                      xor    $0x51,%cx
                           .text:00401185 53                               push   %ebx
                           .text:00401186 e8 06 00 00 00                   call   0x00401191
                           .text:0040118b 80 c6 96                         add    $0x96,%dh
                           .text:0040118e 80 ee 96                         sub    $0x96,%dh
                           .text:00401191 5b                               pop    %ebx
                           .text:00401192 83 c3 30                         add    $0x30,%ebx
                           .text:00401195 80 c1 f8                         add    $0xf8,%cl
                           .text:00401198 80 e9 f8                         sub    $0xf8,%cl
                           .text:0040119b 53                               push   %ebx
                           .text:0040119c cd 20                            int    $0x20
                           .text:0040119e 68 00 40 00 58                   push   $0x58004000
                           .text:004011a3 ff 74 24 08                      pushl  0x8(%esp)
                           .text:004011a7 ff 53 fc                         call   *-0x4(%ebx)
                           .text:004011aa 59                               pop    %ecx
                           .text:004011ab 50                               push   %eax
                           .text:004011ac 53                               push   %ebx
                           .text:004011ad ff 53 fc                         call   *-0x4(%ebx)
                           .text:004011b0 59                               pop    %ecx
                           .text:004011b1 0f 23 c0                         mov    %eax,%db0
                           .text:004011b4 80 c1 a3                         add    $0xa3,%cl
                           .text:004011b7 80 e9 a3                         sub    $0xa3,%cl
                           .text:004011ba 58                               pop    %eax
                           .text:004011bb 5b                               pop    %ebx
                           .text:004011bc c3                               ret    
                           .text:004011bd 00 00                            add    %al,(%eax)
                           .text:004011bf 00 00                            add    %al,(%eax)
                           .text:004011c1 60                               pusha  
                           .text:004011c2 e8 08 00 00 00                   call   0x004011cf
                           .text:004011c7 66 05 23 00                      add    $0x23,%ax
                           .text:004011cb 66 2d 23 00                      sub    $0x23,%ax
                           .text:004011cf 5e                               pop    %esi
                           .text:004011d0 81 c6 c8 04 00 00                add    $0x4c8,%esi
                           .text:004011d6 66 05 9e 00                      add    $0x9e,%ax
                           .text:004011da 66 2d 9e 00                      sub    $0x9e,%ax
                           .text:004011de f6 06 01                         testb  $0x1,(%esi)
                           .text:004011e1 0f 85 3d 03 00 00                jne    0x00401524
                           .text:004011e7 8d 5c 24 28                      lea    0x28(%esp),%ebx
                           .text:004011eb 83 3b 24                         cmpl   $0x24,(%ebx)
                           .text:004011ee 0f 85 2a 03 00 00                jne    0x0040151e
                           .text:004011f4 fe 06                            incb   (%esi)
                           .text:004011f6 83 c6 07                         add    $0x7,%esi
                           .text:004011f9 56                               push   %esi
                           .text:004011fa b0 80                            mov    $0x80,%al
                           .text:004011fc 8a 43 04                         mov    0x4(%ebx),%al
                           .text:004011ff eb 00                            jmp    0x00401201
                           .text:00401201 3c ff                            cmp    $0xff,%al
                           .text:00401203 80 c7 62                         add    $0x62,%bh
                           .text:00401206 80 ef 62                         sub    $0x62,%bh
                           .text:00401209 74 0c                            je     0x00401217
                           .text:0040120b 04 10                            add    $0x10,%al
                           .text:0040120d 2c 10                            sub    $0x10,%al
                           .text:0040120f 04 40                            add    $0x40,%al
                           .text:00401211 b4 3a                            mov    $0x3a,%ah
                           .text:00401213 89 06                            mov    %eax,(%esi)
                           .text:00401215 46                               inc    %esi
                           .text:00401216 46                               inc    %esi
                           .text:00401217 6a 00                            push   $0x0
                           .text:00401219 66 81 c2 aa 00                   add    $0xaa,%dx
                           .text:0040121e 66 81 ea aa 00                   sub    $0xaa,%dx
                           .text:00401223 6a 7f                            push   $0x7f
                           .text:00401225 8b 5b 10                         mov    0x10(%ebx),%ebx
                           .text:00401228 66 b8 f3 00                      mov    $0xf3,%ax
                           .text:0040122c 8b 43 0c                         mov    0xc(%ebx),%eax
                           .text:0040122f 66 83 f1 10                      xor    $0x10,%cx
                           .text:00401233 66 83 f1 10                      xor    $0x10,%cx
                           .text:00401237 83 c0 04                         add    $0x4,%eax
                           .text:0040123a 80 c4 6b                         add    $0x6b,%ah
                           .text:0040123d 80 ec 6b                         sub    $0x6b,%ah
                           .text:00401240 50                               push   %eax
                           .text:00401241 56                               push   %esi
                           .text:00401242 cd 20                            int    $0x20
                           .text:00401244 41                               inc    %ecx
                           .text:00401245 00 40 00                         add    %al,0x0(%eax)
                           .text:00401248 eb 00                            jmp    0x0040124a
                           .text:0040124a 83 c4 10                         add    $0x10,%esp
                           .text:0040124d 81 7c 06 fc 2e 45 58 45          cmpl   $0x4558452e,-0x4(%esi,%eax,1)
                           .text:00401255 5e                               pop    %esi
                           .text:00401256 80 c2 cb                         add    $0xcb,%dl
                           .text:00401259 80 ea cb                         sub    $0xcb,%dl
                           .text:0040125c 0f 85 b9 02 00 00                jne    0x0040151b
                           .text:00401262 eb 00                            jmp    0x00401264
                           .text:00401264 81 7c 06 fa 46 55 43 4b          cmpl   $0x4b435546,-0x6(%esi,%eax,1)
                           .text:0040126c 0f 85 a9 02 00 00                jne    0x0040151b
                           .text:00401272 66 83 7b 18 01                   cmpw   $0x1,0x18(%ebx)
                           .text:00401277 66 35 3e 00                      xor    $0x3e,%ax
                           .text:0040127b 66 35 3e 00                      xor    $0x3e,%ax
                           .text:0040127f 0f 85 96 02 00 00                jne    0x0040151b
                           .text:00401285 66 b8 2a 00                      mov    $0x2a,%ax
                           .text:00401289 66 b8 00 43                      mov    $0x4300,%ax
                           .text:0040128d cd 20                            int    $0x20
                           .text:0040128f 32 00                            xor    (%eax),%al
                           .text:00401291 40                               inc    %eax
                           .text:00401292 00 90 90 90 90 0f                add    %dl,0xf909090(%eax)
                           .text:00401298 82                               (bad)  
                           .text:00401299 7e 02                            jle    0x0040129d
                           .text:0040129b 00 00                            add    %al,(%eax)
                           .text:0040129d 66 81 f3 eb 00                   xor    $0xeb,%bx
                           .text:004012a2 66 81 f3 eb 00                   xor    $0xeb,%bx
                           .text:004012a7 51                               push   %ecx
                           .text:004012a8 8b be f1 fb ff ff                mov    -0x40f(%esi),%edi
                           .text:004012ae 8b 3f                            mov    (%edi),%edi
                           .text:004012b0 eb 00                            jmp    0x004012b2
                           .text:004012b2 f6 c1 01                         test   $0x1,%cl
                           .text:004012b5 eb 00                            jmp    0x004012b7
                           .text:004012b7 74 0c                            je     0x004012c5
                           .text:004012b9 66 b8 7f 00                      mov    $0x7f,%ax
                           .text:004012bd 66 b8 01 43                      mov    $0x4301,%ax
                           .text:004012c1 33 c9                            xor    %ecx,%ecx
                           .text:004012c3 ff d7                            call   *%edi
                           .text:004012c5 eb 00                            jmp    0x004012c7
                           .text:004012c7 33 c0                            xor    %eax,%eax
                           .text:004012c9 b4 c5                            mov    $0xc5,%ah
                           .text:004012cb b4 d5                            mov    $0xd5,%ah
                           .text:004012cd 80 c7 b5                         add    $0xb5,%bh
                           .text:004012d0 80 ef b5                         sub    $0xb5,%bh
                           .text:004012d3 33 c9                            xor    %ecx,%ecx
                           .text:004012d5 33 d2                            xor    %edx,%edx
                           .text:004012d7 42                               inc    %edx
                           .text:004012d8 8b da                            mov    %edx,%ebx
                           .text:004012da 43                               inc    %ebx
                           .text:004012db ff d7                            call   *%edi
                           .text:004012dd 66 bb 06 00                      mov    $0x6,%bx
                           .text:004012e1 93                               xchg   %eax,%ebx
                           .text:004012e2 66 83 f1 57                      xor    $0x57,%cx
                           .text:004012e6 66 83 f1 57                      xor    $0x57,%cx
                           .text:004012ea 59                               pop    %ecx
                           .text:004012eb 80 c1 51                         add    $0x51,%cl
                           .text:004012ee 80 e9 51                         sub    $0x51,%cl
                           .text:004012f1 9c                               pushf  
                           .text:004012f2 f6 c1 01                         test   $0x1,%cl
                           .text:004012f5 74 06                            je     0x004012fd
                           .text:004012f7 66 b8 01 43                      mov    $0x4301,%ax
                           .text:004012fb ff d7                            call   *%edi
                           .text:004012fd 9d                               popf   
                           .text:004012fe 0f 82 17 02 00 00                jb     0x0040151b
                           .text:00401304 56                               push   %esi
                           .text:00401305 eb 00                            jmp    0x00401307
                           .text:00401307 9c                               pushf  
                           .text:00401308 81 c6 81 00 00 00                add    $0x81,%esi
                           .text:0040130e 33 c0                            xor    %eax,%eax
                           .text:00401310 b4 0f                            mov    $0xf,%ah
                           .text:00401312 b4 d6                            mov    $0xd6,%ah
                           .text:00401314 8b e8                            mov    %eax,%ebp
                           .text:00401316 6a 04                            push   $0x4
                           .text:00401318 59                               pop    %ecx
                           .text:00401319 6a 3c                            push   $0x3c
                           .text:0040131b 5a                               pop    %edx
                           .text:0040131c ff d7                            call   *%edi
                           .text:0040131e 66 ba 19 00                      mov    $0x19,%dx
                           .text:00401322 8b 16                            mov    (%esi),%edx
                           .text:00401324 66 81 f3 cf 00                   xor    $0xcf,%bx
                           .text:00401329 66 81 f3 cf 00                   xor    $0xcf,%bx
                           .text:0040132e 4a                               dec    %edx
                           .text:0040132f 66 b8 82 00                      mov    $0x82,%ax
                           .text:00401333 8b c5                            mov    %ebp,%eax
                           .text:00401335 90                               nop
                           .text:00401336 ff d7                            call   *%edi
                           .text:00401338 90                               nop
                           .text:00401339 81 3e 00 50 45 00                cmpl   $0x455000,(%esi)
                           .text:0040133f 90                               nop
                           .text:00401340 0f 85 b1 01 00 00                jne    0x004014f7
                           .text:00401346 66 81 f2 e5 00                   xor    $0xe5,%dx
                           .text:0040134b 66 81 f2 e5 00                   xor    $0xe5,%dx
                           .text:00401350 53                               push   %ebx
                           .text:00401351 6a 00                            push   $0x0
                           .text:00401353 6a 01                            push   $0x1
                           .text:00401355 52                               push   %edx
                           .text:00401356 57                               push   %edi
                           .text:00401357 0f 23 cc                         mov    %esp,%db1
                           .text:0040135a 50                               push   %eax
                           .text:0040135b 66 b8 33 00                      mov    $0x33,%ax
                           .text:0040135f 8b c5                            mov    %ebp,%eax
                           .text:00401361 b1 56                            mov    $0x56,%cl
                           .text:00401363 83 c2 07                         add    $0x7,%edx
                           .text:00401366 ff d7                            call   *%edi
                           .text:00401368 8d 42 24                         lea    0x24(%edx),%eax
                           .text:0040136b eb 00                            jmp    0x0040136d
                           .text:0040136d 50                               push   %eax
                           .text:0040136e 8d 06                            lea    (%esi),%eax
                           .text:00401370 50                               push   %eax
                           .text:00401371 0f b7 46 0e                      movzwl 0xe(%esi),%eax
                           .text:00401375 8d 54 10 12                      lea    0x12(%eax,%edx,1),%edx
                           .text:00401379 b0 28                            mov    $0x28,%al
                           .text:0040137b 8a 0e                            mov    (%esi),%cl
                           .text:0040137d eb 00                            jmp    0x0040137f
                           .text:0040137f f6 e1                            mul    %cl
                           .text:00401381 8d 76 34                         lea    0x34(%esi),%esi
                           .text:00401384 90                               nop
                           .text:00401385 50                               push   %eax
                           .text:00401386 52                               push   %edx
                           .text:00401387 56                               push   %esi
                           .text:00401388 41                               inc    %ecx
                           .text:00401389 66 81 f2 8c 00                   xor    $0x8c,%dx
                           .text:0040138e 66 81 f2 8c 00                   xor    $0x8c,%dx
                           .text:00401393 51                               push   %ecx
                           .text:00401394 66 83 f3 71                      xor    $0x71,%bx
                           .text:00401398 66 83 f3 71                      xor    $0x71,%bx
                           .text:0040139c c1 e1 03                         shl    $0x3,%ecx
                           .text:0040139f 90                               nop
                           .text:004013a0 51                               push   %ecx
                           .text:004013a1 03 c8                            add    %eax,%ecx
                           .text:004013a3 03 ca                            add    %edx,%ecx
                           .text:004013a5 2b 4e 1e                         sub    0x1e(%esi),%ecx
                           .text:004013a8 90                               nop
                           .text:004013a9 f7 d1                            not    %ecx
                           .text:004013ab 41                               inc    %ecx
                           .text:004013ac 80 c7 b6                         add    $0xb6,%bh
                           .text:004013af 80 ef b6                         sub    $0xb6,%bh
                           .text:004013b2 51                               push   %ecx
                           .text:004013b3 91                               xchg   %eax,%ecx
                           .text:004013b4 8b 46 f0                         mov    -0x10(%esi),%eax
                           .text:004013b7 03 46 fc                         add    -0x4(%esi),%eax
                           .text:004013ba 89 86 73 f9 ff ff                mov    %eax,-0x68d(%esi)
                           .text:004013c0 66 81 3c 24 6d 01                cmpw   $0x16d,(%esp)
                           .text:004013c6 0f 8c b9 00 00 00                jl     0x00401485
                           .text:004013cc 8b c5                            mov    %ebp,%eax
                           .text:004013ce eb 00                            jmp    0x004013d0
                           .text:004013d0 ff d7                            call   *%edi
                           .text:004013d2 66 83 c3 63                      add    $0x63,%bx
                           .text:004013d6 66 83 eb 63                      sub    $0x63,%bx
                           .text:004013da 95                               xchg   %eax,%ebp
                           .text:004013db 6a 04                            push   $0x4
                           .text:004013dd 80 c5 b7                         add    $0xb7,%ch
                           .text:004013e0 80 ed b7                         sub    $0xb7,%ch
                           .text:004013e3 59                               pop    %ecx
                           .text:004013e4 52                               push   %edx
                           .text:004013e5 66 ba 66 00                      mov    $0x66,%dx
                           .text:004013e9 8b 56 3c                         mov    0x3c(%esi),%edx
                           .text:004013ec 90                               nop
                           .text:004013ed 83 c2 12                         add    $0x12,%edx
                           .text:004013f0 90                               nop
                           .text:004013f1 ff d7                            call   *%edi
                           .text:004013f3 81 3e 6e 5a 69 70                cmpl   $0x70695a6e,(%esi)
                           .text:004013f9 0f 84 8b 00 00 00                je     0x0040148a
                           .text:004013ff 66 35 80 00                      xor    $0x80,%ax
                           .text:00401403 66 35 80 00                      xor    $0x80,%ax
                           .text:00401407 5a                               pop    %edx
                           .text:00401408 5b                               pop    %ebx
                           .text:00401409 5f                               pop    %edi
                           .text:0040140a 59                               pop    %ecx
                           .text:0040140b 57                               push   %edi
                           .text:0040140c 03 d5                            add    %ebp,%edx
                           .text:0040140e eb 00                            jmp    0x00401410
                           .text:00401410 52                               push   %edx
                           .text:00401411 eb 00                            jmp    0x00401413
                           .text:00401413 03 ee                            add    %esi,%ebp
                           .text:00401415 90                               nop
                           .text:00401416 55                               push   %ebp
                           .text:00401417 8d 44 3d fc                      lea    -0x4(%ebp,%edi,1),%eax
                           .text:0040141b 89 18                            mov    %ebx,(%eax)
                           .text:0040141d 53                               push   %ebx
                           .text:0040141e 03 d7                            add    %edi,%edx
                           .text:00401420 52                               push   %edx
                           .text:00401421 8d be be f8 ff ff                lea    -0x742(%esi),%edi
                           .text:00401427 57                               push   %edi
                           .text:00401428 89 56 cc                         mov    %edx,-0x34(%esi)
                           .text:0040142b 8d 56 d8                         lea    -0x28(%esi),%edx
                           .text:0040142e bd 87 06 00 00                   mov    $0x687,%ebp
                           .text:00401433 eb 48                            jmp    0x0040147d
                           .text:00401435 83 c2 28                         add    $0x28,%edx
                           .text:00401438 8b 5a 10                         mov    0x10(%edx),%ebx
                           .text:0040143b 2b 5a 08                         sub    0x8(%edx),%ebx
                           .text:0040143e 76 43                            jbe    0x00401483
                           .text:00401440 90                               nop
                           .text:00401441 53                               push   %ebx
                           .text:00401442 90                               nop
                           .text:00401443 83 e8 08                         sub    $0x8,%eax
                           .text:00401446 89 18                            mov    %ebx,(%eax)
                           .text:00401448 66 bb d4 00                      mov    $0xd4,%bx
                           .text:0040144c 8b 5a 14                         mov    0x14(%edx),%ebx
                           .text:0040144f 03 5a 08                         add    0x8(%edx),%ebx
                           .text:00401452 eb 00                            jmp    0x00401454
                           .text:00401454 53                               push   %ebx
                           .text:00401455 80 c1 50                         add    $0x50,%cl
                           .text:00401458 80 e9 50                         sub    $0x50,%cl
                           .text:0040145b 57                               push   %edi
                           .text:0040145c 66 bb aa 00                      mov    $0xaa,%bx
                           .text:00401460 8b 5a 08                         mov    0x8(%edx),%ebx
                           .text:00401463 03 5a 0c                         add    0xc(%edx),%ebx
                           .text:00401466 90                               nop
                           .text:00401467 03 5e fc                         add    -0x4(%esi),%ebx
                           .text:0040146a 89 58 04                         mov    %ebx,0x4(%eax)
                           .text:0040146d 66 bb 88 00                      mov    $0x88,%bx
                           .text:00401471 8b 18                            mov    (%eax),%ebx
                           .text:00401473 01 5a 08                         add    %ebx,0x8(%edx)
                           .text:00401476 81 4a 24 40 00 00 40             orl    $0x40000040,0x24(%edx)
                           .text:0040147d 2b eb                            sub    %ebx,%ebp
                           .text:0040147f 76 0e                            jbe    0x0040148f
                           .text:00401481 03 fb                            add    %ebx,%edi
                           .text:00401483 e2 b0                            loop   0x00401435
                           .text:00401485 0f 21 cc                         mov    %db1,%esp
                           .text:00401488 eb 4b                            jmp    0x004014d5
                           .text:0040148a 83 c4 3c                         add    $0x3c,%esp
                           .text:0040148d eb 68                            jmp    0x004014f7
                           .text:0040148f 01 28                            add    %ebp,(%eax)
                           .text:00401491 01 6c 24 08                      add    %ebp,0x8(%esp)
                           .text:00401495 80 c4 f5                         add    $0xf5,%ah
                           .text:00401498 80 ec f5                         sub    $0xf5,%ah
                           .text:0040149b 33 db                            xor    %ebx,%ebx
                           .text:0040149d 89 58 fc                         mov    %ebx,-0x4(%eax)
                           .text:004014a0 90                               nop
                           .text:004014a1 8d 86 3a fb ff ff                lea    -0x4c6(%esi),%eax
                           .text:004014a7 90                               nop
                           .text:004014a8 b1 04                            mov    $0x4,%cl
                           .text:004014aa 66 c7 00 cd 20                   movw   $0x20cd,(%eax)
                           .text:004014af 66 ba 46 00                      mov    $0x46,%dx
                           .text:004014b3 8b 94 8e 29 ff ff ff             mov    -0xd7(%esi,%ecx,4),%edx
                           .text:004014ba 89 50 02                         mov    %edx,0x2(%eax)
                           .text:004014bd 66 ba c1 00                      mov    $0xc1,%dx
                           .text:004014c1 0f b6 94 31 28 ff ff ff          movzbl -0xd8(%ecx,%esi,1),%edx
                           .text:004014c9 2b c2                            sub    %edx,%eax
                           .text:004014cb 66 83 c2 27                      add    $0x27,%dx
                           .text:004014cf 66 83 ea 27                      sub    $0x27,%dx
                           .text:004014d3 e2 d5                            loop   0x004014aa
                           .text:004014d5 0f 21 c8                         mov    %db1,%eax
                           .text:004014d8 8b 58 10                         mov    0x10(%eax),%ebx
                           .text:004014db 8b 38                            mov    (%eax),%edi
                           .text:004014dd 59                               pop    %ecx
                           .text:004014de e3 10                            jecxz  0x004014f0
                           .text:004014e0 8b f1                            mov    %ecx,%esi
                           .text:004014e2 b8 01 d6 00 00                   mov    $0xd601,%eax
                           .text:004014e7 eb 00                            jmp    0x004014e9
                           .text:004014e9 5a                               pop    %edx
                           .text:004014ea 90                               nop
                           .text:004014eb 59                               pop    %ecx
                           .text:004014ec ff d7                            call   *%edi
                           .text:004014ee eb ed                            jmp    0x004014dd
                           .text:004014f0 5b                               pop    %ebx
                           .text:004014f1 90                               nop
                           .text:004014f2 58                               pop    %eax
                           .text:004014f3 eb 00                            jmp    0x004014f5
                           .text:004014f5 f9                               stc    
                           .text:004014f6 9c                               pushf  
                           .text:004014f7 33 c0                            xor    %eax,%eax
                           .text:004014f9 b4 d7                            mov    $0xd7,%ah
                           .text:004014fb ff d7                            call   *%edi
                           .text:004014fd 9d                               popf   
                           .text:004014fe eb 00                            jmp    0x00401500
                           .text:00401500 5e                               pop    %esi
                           .text:00401501 66 81 c3 91 00                   add    $0x91,%bx
                           .text:00401506 66 81 eb 91 00                   sub    $0x91,%bx
                           .text:0040150b 73 41                            jae    0x0040154e
                           .text:0040150d 8b df                            mov    %edi,%ebx
                           .text:0040150f 66 b8 03 43                      mov    $0x4303,%ax
                           .text:00401513 8b 4e fc                         mov    -0x4(%esi),%ecx
                           .text:00401516 8b 7e fe                         mov    -0x2(%esi),%edi
                           .text:00401519 ff d3                            call   *%ebx
                           .text:0040151b fe 4e f9                         decb   -0x7(%esi)
                           .text:0040151e 61                               popa   
                           .text:0040151f 0f 21 c0                         mov    %db0,%eax
                           .text:00401522 ff 20                            jmp    *(%eax)
                           .text:00401524 8b dc                            mov    %esp,%ebx
                           .text:00401526 ff 73 38                         pushl  0x38(%ebx)
                           .text:00401529 ff 53 24                         call   *0x24(%ebx)
                           .text:0040152c 59                               pop    %ecx
                           .text:0040152d 89 43 1c                         mov    %eax,0x1c(%ebx)
                           .text:00401530 83 7b 28 24                      cmpl   $0x24,0x28(%ebx)
                           .text:00401534 eb 00                            jmp    0x00401536
                           .text:00401536 75 0a                            jne    0x00401542
                           .text:00401538 66 b8 f3 00                      mov    $0xf3,%ax
                           .text:0040153c 8b 41 28                         mov    0x28(%ecx),%eax
                           .text:0040153f 89 46 03                         mov    %eax,0x3(%esi)
                           .text:00401542 eb 00                            jmp    0x00401544
                           .text:00401544 61                               popa   
                           .text:00401545 66 83 f3 20                      xor    $0x20,%bx
                           .text:00401549 66 83 f3 20                      xor    $0x20,%bx
                           .text:0040154d c3                               ret    
                           .text:0040154e b0 07                            mov    $0x7,%al
                           .text:00401550 80 c5 e9                         add    $0xe9,%ch
                           .text:00401553 80 ed e9                         sub    $0xe9,%ch
                           .text:00401556 e6 70                            out    %al,$0x70
                           .text:00401558 e4 71                            in     $0x71,%al
                           .text:0040155a 34 26                            xor    $0x26,%al
                           .text:0040155c eb bd                            jmp    0x0040151b
                           .text:0040155e 66 bd f8 0c                      mov    $0xcf8,%bp
                           .text:00401562 8d 76 bd                         lea    -0x43(%esi),%esi
                           .text:00401565 bf 4c 38 00 80                   mov    $0x8000384c,%edi
                           .text:0040156a 66 ba fe 0c                      mov    $0xcfe,%dx
                           .text:0040156e fa                               cli    
                           .text:0040156f ff d6                            call   *%esi
                           .text:00401571 66 bf 58 00                      mov    $0x58,%di
                           .text:00401575 66 35 15 00                      xor    $0x15,%ax
                           .text:00401579 66 35 15 00                      xor    $0x15,%ax
                           .text:0040157d 4a                               dec    %edx
                           .text:0040157e 66 c7 46 16 24 0f                movw   $0xf24,0x16(%esi)
                           .text:00401584 ff d6                            call   *%esi
                           .text:00401586 8d 5e f2                         lea    -0xe(%esi),%ebx
                           .text:00401589 b8 55 55 0e 00                   mov    $0xe5555,%eax
                           .text:0040158e b9 aa 2a 0e 00                   mov    $0xe2aaa,%ecx
                           .text:00401593 eb 00                            jmp    0x00401595
                           .text:00401595 ff d3                            call   *%ebx
                           .text:00401597 c6 00 60                         movb   $0x60,(%eax)
                           .text:0040159a eb 00                            jmp    0x0040159c
                           .text:0040159c 51                               push   %ecx
                           .text:0040159d e2 fe                            loop   0x0040159d
                           .text:0040159f 32 e4                            xor    %ah,%ah
                           .text:004015a1 88 00                            mov    %al,(%eax)
                           .text:004015a3 eb 00                            jmp    0x004015a5
                           .text:004015a5 91                               xchg   %eax,%ecx
                           .text:004015a6 90                               nop
                           .text:004015a7 e2 fe                            loop   0x004015a7
                           .text:004015a9 66 b8 9d 00                      mov    $0x9d,%ax
                           .text:004015ad b8 55 55 0f 00                   mov    $0xf5555,%eax
                           .text:004015b2 66 83 c2 17                      add    $0x17,%dx
                           .text:004015b6 66 83 ea 17                      sub    $0x17,%dx
                           .text:004015ba 59                               pop    %ecx
                           .text:004015bb b5 5a                            mov    $0x5a,%ch
                           .text:004015bd b5 aa                            mov    $0xaa,%ch
                           .text:004015bf ff d3                            call   *%ebx
                           .text:004015c1 c6 00 20                         movb   $0x20,(%eax)
                           .text:004015c4 eb 00                            jmp    0x004015c6
                           .text:004015c6 e2 fe                            loop   0x004015c6
                           .text:004015c8 b4 e0                            mov    $0xe0,%ah
                           .text:004015ca 88 00                            mov    %al,(%eax)
                           .text:004015cc 66 c7 46 16 0c 10                movw   $0x100c,0x16(%esi)
                           .text:004015d2 ff d6                            call   *%esi
                           .text:004015d4 80 c2 fc                         add    $0xfc,%dl
                           .text:004015d7 80 ea fc                         sub    $0xfc,%dl
                           .text:004015da 33 db                            xor    %ebx,%ebx
                           .text:004015dc b7 1e                            mov    $0x1e,%bh
                           .text:004015de b7 81                            mov    $0x81,%bh
                           .text:004015e0 53                               push   %ebx
                           .text:004015e1 90                               nop
                           .text:004015e2 83 ec 2c                         sub    $0x2c,%esp
                           .text:004015e5 66 83 c1 09                      add    $0x9,%cx
                           .text:004015e9 66 83 e9 09                      sub    $0x9,%cx
                           .text:004015ed 68 00 10 00 c0                   push   $0xc0001000
                           .text:004015f2 b7 08                            mov    $0x8,%bh
                           .text:004015f4 66 81 f2 a1 00                   xor    $0xa1,%dx
                           .text:004015f9 66 81 f2 a1 00                   xor    $0xa1,%dx
                           .text:004015fe 53                               push   %ebx
                           .text:004015ff 90                               nop
                           .text:00401600 51                               push   %ecx
                           .text:00401601 51                               push   %ecx
                           .text:00401602 80 c2 aa                         add    $0xaa,%dl
                           .text:00401605 80 ea aa                         sub    $0xaa,%dl
                           .text:00401608 51                               push   %ecx
                           .text:00401609 eb 00                            jmp    0x0040160b
                           .text:0040160b 68 01 05 00 40                   push   $0x40000501
                           .text:00401610 41                               inc    %ecx
                           .text:00401611 51                               push   %ecx
                           .text:00401612 51                               push   %ecx
                           .text:00401613 8b f4                            mov    %esp,%esi
                           .text:00401615 81 ec ac 00 00 00                sub    $0xac,%esp
                           .text:0040161b cd 20                            int    $0x20
                           .text:0040161d 80 c4 42                         add    $0x42,%ah
                           .text:00401620 80 ec 42                         sub    $0x42,%ah
                           .text:00401623 04 00                            add    $0x0,%al
                           .text:00401625 10 00                            adc    %al,(%eax)
                           .text:00401627 80 c6 2f                         add    $0x2f,%dh
                           .text:0040162a 80 ee 2f                         sub    $0x2f,%dh
                           .text:0040162d 66 83 7e 06 17                   cmpw   $0x17,0x6(%esi)
                           .text:00401632 66 35 bf 00                      xor    $0xbf,%ax
                           .text:00401636 66 35 bf 00                      xor    $0xbf,%ax
                           .text:0040163a 74 07                            je     0x00401643
                           .text:0040163c fe 46 4d                         incb   0x4d(%esi)
                           .text:0040163f eb 00                            jmp    0x00401641
                           .text:00401641 eb d8                            jmp    0x0040161b
                           .text:00401643 01 5e 10                         add    %ebx,0x10(%esi)
                           .text:00401646 c6 46 4d 81                      movb   $0x81,0x4d(%esi)
                           .text:0040164a 90                               nop
                           .text:0040164b eb ce                            jmp    0x0040161b
                           .text:0040164d 88 08                            mov    %cl,(%eax)
                           .text:0040164f 88 01                            mov    %al,(%ecx)
                           .text:00401651 c6 00 80                         movb   $0x80,(%eax)
                           .text:00401654 88 08                            mov    %cl,(%eax)
                           .text:00401656 88 01                            mov    %al,(%ecx)
                           .text:00401658 eb 00                            jmp    0x0040165a
                           .text:0040165a c3                               ret    
                           .text:0040165b 66 81 c2 b3 00                   add    $0xb3,%dx
                           .text:00401660 66 81 ea b3 00                   sub    $0xb3,%dx
                           .text:00401665 97                               xchg   %eax,%edi
                           .text:00401666 87 d5                            xchg   %edx,%ebp
                           .text:00401668 90                               nop
                           .text:00401669 ef                               out    %eax,(%dx)
                           .text:0040166a 90                               nop
                           .text:0040166b 97                               xchg   %eax,%edi
                           .text:0040166c eb 00                            jmp    0x0040166e
                           .text:0040166e 87 d5                            xchg   %edx,%ebp
                           .text:00401670 ec                               in     (%dx),%al
                           .text:00401671 0c 44                            or     $0x44,%al
                           .text:00401673 97                               xchg   %eax,%edi
                           .text:00401674 87 d5                            xchg   %edx,%ebp
                           .text:00401676 ef                               out    %eax,(%dx)
                           .text:00401677 97                               xchg   %eax,%edi
                           .text:00401678 87 d5                            xchg   %edx,%ebp
                           .text:0040167a ee                               out    %al,(%dx)
                           .text:0040167b c3                               ret    
                           .text:0040167c 00 83 a6 4b 53 00                add    %al,0x534ba6(%ebx)
                           .text:00401682 01 00                            add    %eax,(%eax)
                           .text:00401684 68 00 40 00 41                   push   $0x41004000
                           .text:00401689 00 40 00                         add    %al,0x0(%eax)
                           .text:0040168c 32 00                            xor    (%eax),%al
                           .text:0040168e 40                               inc    %eax
                           .text:0040168f 00 eb                            add    %ch,%bl
                           .text:00401691 00 43 49                         add    %al,0x49(%ebx)
                           .text:00401694 48                               dec    %eax
                           .text:00401695 20 32                            and    %dh,(%edx)
                           .text:00401697 00 eb                            add    %ch,%bl
                           .text:00401699 00 01                            add    %al,(%ecx)
                           .text:0040169b 00 00                            add    %al,(%eax)
                           .text:0040169d 00 00                            add    %al,(%eax)
                           .text:0040169f 00 00                            add    %al,(%eax)
                           .text:004016a1 00 00                            add    %al,(%eax)
                           .text:004016a3 00 00                            add    %al,(%eax)
                           .text:004016a5 00 00                            add    %al,(%eax)
                           .text:004016a7 00 00                            add    %al,(%eax)
                           .text:004016a9 00 00                            add    %al,(%eax)
                           .text:004016ab 00 00                            add    %al,(%eax)
                           .text:004016ad 00 00                            add    %al,(%eax)
                           .text:004016af 00 00                            add    %al,(%eax)
                           .text:004016b1 00 00                            add    %al,(%eax)
                           .text:004016b3 00 00                            add    %al,(%eax)
                           .text:004016b5 00 00                            add    %al,(%eax)
                           .text:004016b7 00 00                            add    %al,(%eax)
                           .text:004016b9 00 00                            add    %al,(%eax)
                           .text:004016bb 00 00                            add    %al,(%eax)
                           .text:004016bd 00 00                            add    %al,(%eax)
                           .text:004016bf 00 00                            add    %al,(%eax)
                           .text:004016c1 00 00                            add    %al,(%eax)
                           .text:004016c3 00 00                            add    %al,(%eax)
                           .text:004016c5 00 00                            add    %al,(%eax)
                           .text:004016c7 00 00                            add    %al,(%eax)
                           .text:004016c9 00 00                            add    %al,(%eax)
                           .text:004016cb 00 00                            add    %al,(%eax)
                           .text:004016cd 00 00                            add    %al,(%eax)
                           .text:004016cf 00 00                            add    %al,(%eax)
                           .text:004016d1 00 00                            add    %al,(%eax)
                           .text:004016d3 00 00                            add    %al,(%eax)
                           .text:004016d5 00 00                            add    %al,(%eax)
                           .text:004016d7 00 00                            add    %al,(%eax)
                           .text:004016d9 00 00                            add    %al,(%eax)
                           .text:004016db 00 00                            add    %al,(%eax)
                           .text:004016dd 00 00                            add    %al,(%eax)
                           .text:004016df 00 00                            add    %al,(%eax)
                           .text:004016e1 00 00                            add    %al,(%eax)
                           .text:004016e3 00 00                            add    %al,(%eax)
                           .text:004016e5 00 00                            add    %al,(%eax)
                           .text:004016e7 00 00                            add    %al,(%eax)
                           .text:004016e9 00 00                            add    %al,(%eax)
                           .text:004016eb 00 00                            add    %al,(%eax)
                           .text:004016ed 00 00                            add    %al,(%eax)
                           .text:004016ef 00 00                            add    %al,(%eax)
                           .text:004016f1 00 00                            add    %al,(%eax)
                           .text:004016f3 00 00                            add    %al,(%eax)
                           .text:004016f5 00 00                            add    %al,(%eax)
                           .text:004016f7 00 00                            add    %al,(%eax)
                           .text:004016f9 00 00                            add    %al,(%eax)
                           .text:004016fb 00 00                            add    %al,(%eax)
                           .text:004016fd 00 00                            add    %al,(%eax)
                           .text:004016ff 00 00                            add    %al,(%eax)
                           .text:00401701 00 00                            add    %al,(%eax)
                           .text:00401703 00 00                            add    %al,(%eax)
                           .text:00401705 00 00                            add    %al,(%eax)
                           .text:00401707 00 00                            add    %al,(%eax)
                           .text:00401709 00 00                            add    %al,(%eax)
                           .text:0040170b 00 00                            add    %al,(%eax)
                           .text:0040170d 00 00                            add    %al,(%eax)
                           .text:0040170f 00 00                            add    %al,(%eax)
                           .text:00401711 00 00                            add    %al,(%eax)
                           .text:00401713 00 00                            add    %al,(%eax)
                           .text:00401715 00 00                            add    %al,(%eax)
                           .text:00401717 00 00                            add    %al,(%eax)
                           .text:00401719 00 00                            add    %al,(%eax)
                           .text:0040171b 00 00                            add    %al,(%eax)
                           .text:0040171d eb 00                            jmp    0x0040171f
                           .text:0040171f 01 00                            add    %eax,(%eax)
                           .text:00401721 00 00                            add    %al,(%eax)
                           .text:00401723 00 00                            add    %al,(%eax)
                           .text:00401725 00 00                            add    %al,(%eax)
                           .text:00401727 00 00                            add    %al,(%eax)
                           .text:00401729 00 00                            add    %al,(%eax)
                           .text:0040172b 00 00                            add    %al,(%eax)
                           .text:0040172d 00 00                            add    %al,(%eax)
                           .text:0040172f 00 00                            add    %al,(%eax)
                           .text:00401731 00 00                            add    %al,(%eax)
                           .text:00401733 00 00                            add    %al,(%eax)
                           .text:00401735 00 00                            add    %al,(%eax)
                           .text:00401737 00 00                            add    %al,(%eax)
                           .text:00401739 00 00                            add    %al,(%eax)
                           .text:0040173b 00 00                            add    %al,(%eax)
                           .text:0040173d 00 00                            add    %al,(%eax)
                           .text:0040173f 00 00                            add    %al,(%eax)
                           .text:00401741 eb 00                            jmp    0x00401743
                           .text:00401743 01 00                            add    %eax,(%eax)
                           .text:00401745 00 00                            add    %al,(%eax)
                           .text:00401747 00 00                            add    %al,(%eax)
                           .text:00401749 00 00                            add    %al,(%eax)
                           .text:0040174b 00 00                            add    %al,(%eax)
                           .text:0040174d 00 00                            add    %al,(%eax)
                           .text:0040174f 00 00                            add    %al,(%eax)
                           .text:00401751 00 00                            add    %al,(%eax)
                           .text:00401753 00 00                            add    %al,(%eax)
                           .text:00401755 00 00                            add    %al,(%eax)
                           .text:00401757 00 00                            add    %al,(%eax)
                           .text:00401759 00 00                            add    %al,(%eax)
                           .text:0040175b 00 00                            add    %al,(%eax)
                           .text:0040175d 00 00                            add    %al,(%eax)
                           .text:0040175f 00 00                            add    %al,(%eax)
                           .text:00401761 00 00                            add    %al,(%eax)
                           .text:00401763 00 00                            add    %al,(%eax)
                           .text:00401765 00 00                            add    %al,(%eax)
                           .text:00401767 eb 00                            jmp    0x00401769
                           .text:00401769 01 00                            add    %eax,(%eax)
                           .text:0040176b 00 00                            add    %al,(%eax)
                           .text:0040176d 00 00                            add    %al,(%eax)
                           .text:0040176f 00 00                            add    %al,(%eax)
                           .text:00401771 00 00                            add    %al,(%eax)
                           .text:00401773 00 00                            add    %al,(%eax)
                           .text:00401775 eb 00                            jmp    0x00401777
                           .text:00401777 01 00                            add    %eax,(%eax)
                           .text:00401779 00 00                            add    %al,(%eax)
                           .text:0040177b 00 00                            add    %al,(%eax)
                           .text:0040177d 00 00                            add    %al,(%eax)
                           .text:0040177f 00 00                            add    %al,(%eax)
                           .text:00401781 00 00                            add    %al,(%eax)
                           .text:00401783 00 00                            add    %al,(%eax)
                           .text:00401785 00 00                            add    %al,(%eax)
                           .text:00401787 00 00                            add    %al,(%eax)
                           .text:00401789 00 00                            add    %al,(%eax)
                           .text:0040178b 00 00                            add    %al,(%eax)
                           .text:0040178d 00 00                            add    %al,(%eax)
                           .text:0040178f 00 00                            add    %al,(%eax)
                           .text:00401791 00 00                            add    %al,(%eax)
                           .text:00401793 00 00                            add    %al,(%eax)
                           .text:00401795 00 00                            add    %al,(%eax)
                           .text:00401797 00 00                            add    %al,(%eax)
                           .text:00401799 00 00                            add    %al,(%eax)
                           .text:0040179b 00 00                            add    %al,(%eax)
                           .text:0040179d 00 00                            add    %al,(%eax)
                           .text:0040179f 00 50 e8                         add    %dl,-0x18(%eax)
                           .text:004017a2 a8 25                            test   $0x25,%al
                           .text:004017a4 8f                               (bad)  
                           .text:004017a5 f3 5d                            repz pop %ebp
                           .text:004017a7 53                               push   %ebx
                           .text:004017a8 b0 aa                            mov    $0xaa,%al
                           .text:004017aa 56                               push   %esi
                           .text:004017ab bc bf 7f 00 00                   mov    $0x7fbf,%esp
                           .text:004017b0 80 58 70 00                      sbbb   $0x0,0x70(%eax)
                           .text:004017b4 00 00                            add    %al,(%eax)
                           .text:004017b6 00 00                            add    %al,(%eax)
                           .text:004017b8 00 00                            add    %al,(%eax)
                           .text:004017ba 00 00                            add    %al,(%eax)
                           .text:004017bc 00 00                            add    %al,(%eax)
                           .text:004017be 00 00                            add    %al,(%eax)
                           .text:004017c0 00 00                            add    %al,(%eax)
                           .text:004017c2 00 00                            add    %al,(%eax)
                           .text:004017c4 00 00                            add    %al,(%eax)
                           .text:004017c6 00 00                            add    %al,(%eax)
                           .text:004017c8 00 00                            add    %al,(%eax)
                           .text:004017ca 00 00                            add    %al,(%eax)
                           .text:004017cc 00 00                            add    %al,(%eax)
                           .text:004017ce 00 00                            add    %al,(%eax)
                           .text:004017d0 00 00                            add    %al,(%eax)
                           .text:004017d2 00 00                            add    %al,(%eax)
                           .text:004017d4 00 00                            add    %al,(%eax)
                           .text:004017d6 00 00                            add    %al,(%eax)
                           .text:004017d8 00 00                            add    %al,(%eax)
                           .text:004017da 00 00                            add    %al,(%eax)
                           .text:004017dc 00 00                            add    %al,(%eax)
                           .text:004017de 00 00                            add    %al,(%eax)
                           .text:004017e0 00 00                            add    %al,(%eax)
                           .text:004017e2 00 00                            add    %al,(%eax)
                           .text:004017e4 00 00                            add    %al,(%eax)
                           .text:004017e6 00 00                            add    %al,(%eax)
                           .text:004017e8 f3 e9 92 d0 38 b1                repz jmp 0xb178e880
                           .text:004017ee fb                               sti    
                           .text:004017ef 44                               inc    %esp
                           .text:004017f0 10 ab 56 bc bf 7f                adc    %ch,0x7fbfbc56(%ebx)
                           .text:004017f6 00 00                            add    %al,(%eax)
                           .text:004017f8 b0 58                            mov    $0x58,%al
                           .text:004017fa 70 00                            jo     0x004017fc
                           .text:004017fc 00 00                            add    %al,(%eax)
                           .text:004017fe 00 00                            add    %al,(%eax)
                           .text:00401800 f4                               hlt    
                           .text:00401801 2c 85                            sub    $0x85,%al
                           .text:00401803 bc 6d 52 ad 0b                   mov    $0xbad526d,%esp
                           .text:00401808 b0 a4                            mov    $0xa4,%al
                           .text:0040180a 56                               push   %esi
                           .text:0040180b bc bf 7f 00 00                   mov    $0x7fbf,%esp
                           .text:00401810 20 07                            and    %al,(%edi)
                           .text:00401812 96                               xchg   %eax,%esi
                           .text:00401813 b5 bf                            mov    $0xbf,%ch
                           .text:00401815 7f 00                            jg     0x00401817
                           .text:00401817 00 55 27                         add    %dl,0x27(%ebp)
                           .text:0040181a b1 76                            mov    $0x76,%cl
                           .text:0040181c 2a f8                            sub    %al,%bh
                           .text:0040181e 61                               popa   
                           .text:0040181f df 80 48 57 bc bf                fild   -0x4043a8b8(%eax)
                           .text:00401825 7f 00                            jg     0x00401827
                           .text:00401827 00 30                            add    %dh,(%eax)
                           .text:00401829 0f 96 b5 bf 7f 00 00             setbe  0x7fbf(%ebp)
                           .text:00401830 b6 ff                            mov    $0xff,%dh
                           .text:00401832 b7 15                            mov    $0x15,%bh
                           .text:00401834 4e                               dec    %esi
                           .text:00401835 bd f0 ab c0 8c                   mov    $0x8cc0abf0,%ebp
                           .text:0040183a 5a                               pop    %edx
                           .text:0040183b c0 bf 7f 00 00 10 02             sarb   $0x2,0x1000007f(%edi)
                           .text:00401842 96                               xchg   %eax,%esi
                           .text:00401843 b5 bf                            mov    $0xbf,%ch
                           .text:00401845 7f 00                            jg     0x00401847
                           .text:00401847 00 d7                            add    %dl,%bh
                           .text:00401849 be a7 51 6b b7                   mov    $0xb76b51a7,%esi
                           .text:0040184e 9b                               fwait
                           .text:0040184f 56                               push   %esi
                           .text:00401850 c0                               (bad)  
                           .text:00401851 33 69 c5                         xor    -0x3b(%ecx),%ebp
                           .text:00401854 bf 7f 00 00 40                   mov    $0x4000007f,%edi
                           .text:00401859 07                               pop    %es
                           .text:0040185a 09 03                            or     %eax,(%ebx)
                           .text:0040185c 00 00                            add    %al,(%eax)
                           .text:0040185e 00 00                            add    %al,(%eax)
                           .text:00401860 00 00                            add    %al,(%eax)
                           .text:00401862 00 00                            add    %al,(%eax)
                           .text:00401864 00 00                            add    %al,(%eax)
                           .text:00401866 00 00                            add    %al,(%eax)
                           .text:00401868 00 00                            add    %al,(%eax)
                           .text:0040186a 00 00                            add    %al,(%eax)
                           .text:0040186c 00 00                            add    %al,(%eax)
                           .text:0040186e 00 00                            add    %al,(%eax)
                           .text:00401870 00 00                            add    %al,(%eax)
                           .text:00401872 00 00                            add    %al,(%eax)
                           .text:00401874 00 00                            add    %al,(%eax)
                           .text:00401876 00 00                            add    %al,(%eax)
                           .text:00401878 f9                               stc    
                           .text:00401879 15 c7 b7 d9 5a                   adc    $0x5ad9b7c7,%eax
                           .text:0040187e 91                               xchg   %eax,%ecx
                           .text:0040187f 4b                               dec    %ebx
                           .text:00401880 00 ac 56 bc bf 7f 00             add    %ch,0x7fbfbc(%esi,%edx,2)
                           .text:00401887 00 60 58                         add    %ah,0x58(%eax)
                           .text:0040188a 70 00                            jo     0x0040188c
                           .text:0040188c 00 00                            add    %al,(%eax)
                           .text:0040188e 00 00                            add    %al,(%eax)
                           .text:00401890 9a 8b 14 e5 8e e6 27             lcall  $0x27e6,$0x8ee5148b
                           .text:00401897 27                               daa    
                           .text:00401898 80 aa 56 bc bf 7f 00             subb   $0x0,0x7fbfbc56(%edx)
                           .text:0040189f 00 80 58 70 00 00                add    %al,0x7058(%eax)
                           .text:004018a5 00 00                            add    %al,(%eax)
                           .text:004018a7 00 5b 7f                         add    %bl,0x7f(%ebx)
                           .text:004018aa ea 4c 6b 75 32 a2 b8             ljmp   $0xb8a2,$0x32756b4c
                           .text:004018b1 48                               dec    %eax
                           .text:004018b2 57                               push   %edi
                           .text:004018b3 bc bf 7f 00 00                   mov    $0x7fbf,%esp
                           .text:004018b8 e0 07                            loopne 0x004018c1
                           .text:004018ba 96                               xchg   %eax,%esi
                           .text:004018bb b5 bf                            mov    $0xbf,%ch
                           .text:004018bd 7f 00                            jg     0x004018bf
                           .text:004018bf 00 00                            add    %al,(%eax)
                           .text:004018c1 00 00                            add    %al,(%eax)
                           .text:004018c3 00 00                            add    %al,(%eax)
                           .text:004018c5 00 00                            add    %al,(%eax)
                           .text:004018c7 00 00                            add    %al,(%eax)
                           .text:004018c9 00 00                            add    %al,(%eax)
                           .text:004018cb 00 00                            add    %al,(%eax)
                           .text:004018cd 00 00                            add    %al,(%eax)
                           .text:004018cf 00 00                            add    %al,(%eax)
                           .text:004018d1 00 00                            add    %al,(%eax)
                           .text:004018d3 00 00                            add    %al,(%eax)
                           .text:004018d5 00 00                            add    %al,(%eax)
                           .text:004018d7 00 00                            add    %al,(%eax)
                           .text:004018d9 00 00                            add    %al,(%eax)
                           .text:004018db 00 00                            add    %al,(%eax)
                           .text:004018dd 00 00                            add    %al,(%eax)
                           .text:004018df 00 00                            add    %al,(%eax)
                           .text:004018e1 00 00                            add    %al,(%eax)
                           .text:004018e3 00 00                            add    %al,(%eax)
                           .text:004018e5 00 00                            add    %al,(%eax)
                           .text:004018e7 00 00                            add    %al,(%eax)
                           .text:004018e9 00 00                            add    %al,(%eax)
                           .text:004018eb 00 00                            add    %al,(%eax)
                           .text:004018ed 00 00                            add    %al,(%eax)
                           .text:004018ef 00 00                            add    %al,(%eax)
                           .text:004018f1 00 00                            add    %al,(%eax)
                           .text:004018f3 00 00                            add    %al,(%eax)
                           .text:004018f5 00 00                            add    %al,(%eax)
                           .text:004018f7 00 00                            add    %al,(%eax)
                           .text:004018f9 00 00                            add    %al,(%eax)
                           .text:004018fb 00 00                            add    %al,(%eax)
                           .text:004018fd 00 00                            add    %al,(%eax)
                           .text:004018ff 00 00                            add    %al,(%eax)
                           .text:00401901 00 00                            add    %al,(%eax)
                           .text:00401903 00 00                            add    %al,(%eax)
                           .text:00401905 00 00                            add    %al,(%eax)
                           .text:00401907 00 7f 3f                         add    %bh,0x3f(%edi)
                           .text:0040190a 50                               push   %eax
                           .text:0040190b 36 57                            ss push %edi
                           .text:0040190d a6                               cmpsb  %es:(%edi),%ds:(%esi)
                           .text:0040190e b0 07                            mov    $0x7,%al
                           .text:00401910 70 ab                            jo     0x004018bd
                           .text:00401912 56                               push   %esi
                           .text:00401913 bc bf 7f 00 00                   mov    $0x7fbf,%esp
                           .text:00401918 00 5b 81                         add    %bl,-0x7f(%ebx)
                           .text:0040191b b5 bf                            mov    $0xbf,%ch
                           .text:0040191d 7f 00                            jg     0x0040191f
                           .text:0040191f 00 30                            add    %dh,(%eax)
                           .text:00401921 09 00                            or     %eax,(%eax)
                           .text:00401923 00 00                            add    %al,(%eax)
                           .text:00401925 00 00                            add    %al,(%eax)
                           .text:00401927 00 20                            add    %ah,(%eax)
                           .text:00401929 00 00                            add    %al,(%eax)
                           .text:0040192b 00 00                            add    %al,(%eax)
                           .text:0040192d 00 00                            add    %al,(%eax)
                           .text:0040192f 00 d0                            add    %dl,%al
                           .text:00401931 81 24 03 00 00 00 00             andl   $0x0,(%ebx,%eax,1)
                           .text:00401938 70 2a                            jo     0x00401964
                           .text:0040193a ea b6 bf 7f 00 00 50             ljmp   $0x5000,$0x7fbfb6
                           .text:00401941 09 00                            or     %eax,(%eax)
                           .text:00401943 00 00                            add    %al,(%eax)
                           .text:00401945 00 00                            add    %al,(%eax)
                           .text:00401947 00 40 00                         add    %al,0x0(%eax)
                           .text:0040194a 00 00                            add    %al,(%eax)
                           .text:0040194c 00 00                            add    %al,(%eax)
                           .text:0040194e 00 00                            add    %al,(%eax)
                           .text:00401950 f0 81 24 03 00 00 00 00          lock andl $0x0,(%ebx,%eax,1)
                           .text:00401958 48                               dec    %eax
                           .text:00401959 2b ea                            sub    %edx,%ebp
                           .text:0040195b b6 bf                            mov    $0xbf,%dh
                           .text:0040195d 7f 00                            jg     0x0040195f
                           .text:0040195f 00 b0 58 70 00 00                add    %dh,0x7058(%eax)
                           .text:00401965 00 00                            add    %al,(%eax)
                           .text:00401967 00 00                            add    %al,(%eax)
                           .text:00401969 00 00                            add    %al,(%eax)
                           .text:0040196b 00 00                            add    %al,(%eax)
                           .text:0040196d 00 00                            add    %al,(%eax)
                           .text:0040196f 00 2a                            add    %ch,(%edx)
                           .text:00401971 6f                               outsl  %ds:(%esi),(%dx)
                           .text:00401972 7f c6                            jg     0x0040193a
                           .text:00401974 66 92                            xchg   %ax,%dx
                           .text:00401976 ae                               scas   %es:(%edi),%al
                           .text:00401977 92                               xchg   %eax,%edx
                           .text:00401978 70 1c                            jo     0x00401996
                           .text:0040197a 42                               inc    %edx
                           .text:0040197b bc bf 7f 00 00                   mov    $0x7fbf,%esp
                           .text:00401980 88 74 94 ba                      mov    %dh,-0x46(%esp,%edx,4)
                           .text:00401984 bf 7f 00 00 f1                   mov    $0xf100007f,%edi
                           .text:00401989 1b 00                            sbb    (%eax),%eax
                           .text:0040198b 00 00                            add    %al,(%eax)
                           .text:0040198d 00 00                            add    %al,(%eax)
                           .text:0040198f 00 60 6e                         add    %ah,0x6e(%eax)
                           .text:00401992 eb 02                            jmp    0x00401996
                           .text:00401994 00 00                            add    %al,(%eax)
                           .text:00401996 00 00                            add    %al,(%eax)
                           .text:00401998 78 1b                            js     0x004019b5
                           .text:0040199a c0 c3 bf                         rol    $0xbf,%bl
                           .text:0040199d 7f 00                            jg     0x0040199f
                           .text:0040199f 00 00                            add    %al,(%eax)
                           .text:004019a1 00 00                            add    %al,(%eax)
                           .text:004019a3 00 00                            add    %al,(%eax)
                           .text:004019a5 00 00                            add    %al,(%eax)
                           .text:004019a7 00 00                            add    %al,(%eax)
                           .text:004019a9 00 00                            add    %al,(%eax)
                           .text:004019ab 00 00                            add    %al,(%eax)
                           .text:004019ad 00 00                            add    %al,(%eax)
                           .text:004019af 00 80 e6 f4 03 00                add    %al,0x3f4e6(%eax)
                           .text:004019b5 00 00                            add    %al,(%eax)
                           .text:004019b7 00 78 1b                         add    %bh,0x1b(%eax)
                           .text:004019ba c0 c3 bf                         rol    $0xbf,%bl
                           .text:004019bd 7f 00                            jg     0x004019bf
                           .text:004019bf 00 20                            add    %ah,(%eax)
                           .text:004019c1 aa                               stos   %al,%es:(%edi)
                           .text:004019c2 56                               push   %esi
                           .text:004019c3 bc bf 7f 00 00                   mov    $0x7fbf,%esp
                           .text:004019c8 41                               inc    %ecx
                           .text:004019c9 01 00                            add    %eax,(%eax)
                           .text:004019cb 00 00                            add    %al,(%eax)
                           .text:004019cd 00 00                            add    %al,(%eax)
                           .text:004019cf 00 80 e6 f4 03 00                add    %al,0x3f4e6(%eax)
                           .text:004019d5 00 00                            add    %al,(%eax)
                           .text:004019d7 00 78 1b                         add    %bh,0x1b(%eax)
                           .text:004019da c0 c3 bf                         rol    $0xbf,%bl
                           .text:004019dd 7f 00                            jg     0x004019df
                           .text:004019df 00 50 aa                         add    %dl,-0x56(%eax)
                           .text:004019e2 56                               push   %esi
                           .text:004019e3 bc bf 7f 00 00                   mov    $0x7fbf,%esp
                           .text:004019e8 21 01                            and    %eax,(%ecx)
                           .text:004019ea 00 00                            add    %al,(%eax)
                           .text:004019ec 00 00                            add    %al,(%eax)
                           .text:004019ee 00 00                            add    %al,(%eax)
                           .text:004019f0 80 e6 f4                         and    $0xf4,%dh
                           .text:004019f3 03 00                            add    (%eax),%eax
                           .text:004019f5 00 00                            add    %al,(%eax)
                           .text:004019f7 00 78 1b                         add    %bh,0x1b(%eax)
                           .text:004019fa c0 c3 bf                         rol    $0xbf,%bl
                           .text:004019fd 7f 00                            jg     0x004019ff
                           .text:004019ff 00 c0                            add    %al,%al
                           .text:00401a01 8c 5a c0                         mov    %ds,-0x40(%edx)
                           .text:00401a04 bf 7f 00 00 01                   mov    $0x100007f,%edi
                           .text:00401a09 01 00                            add    %eax,(%eax)
                           .text:00401a0b 00 00                            add    %al,(%eax)
                           .text:00401a0d 00 00                            add    %al,(%eax)
                           .text:00401a0f 00 80 e6 f4 03 00                add    %al,0x3f4e6(%eax)
                           .text:00401a15 00 00                            add    %al,(%eax)
                           .text:00401a17 00 78 1b                         add    %bh,0x1b(%eax)
                           .text:00401a1a c0 c3 bf                         rol    $0xbf,%bl
                           .text:00401a1d 7f 00                            jg     0x00401a1f
                           .text:00401a1f 00 b8 48 57 bc bf                add    %bh,-0x4043a8b8(%eax)
                           .text:00401a25 7f 00                            jg     0x00401a27
                           .text:00401a27 00 e1                            add    %ah,%cl
                           .text:00401a29 00 00                            add    %al,(%eax)
                           .text:00401a2b 00 00                            add    %al,(%eax)
                           .text:00401a2d 00 00                            add    %al,(%eax)
                           .text:00401a2f 00 80 14 16 03 00                add    %al,0x31614(%eax)
                           .text:00401a35 00 00                            add    %al,(%eax)
                           .text:00401a37 00 c0                            add    %al,%al
                           .text:00401a39 08 6e 04                         or     %ch,0x4(%esi)
                           .text:00401a3c 00 00                            add    %al,(%eax)
                           .text:00401a3e 00 00                            add    %al,(%eax)
                           .text:00401a40 40                               inc    %eax
                           .text:00401a41 ab                               stos   %eax,%es:(%edi)
                           .text:00401a42 56                               push   %esi
                           .text:00401a43 bc bf 7f 00 00                   mov    $0x7fbf,%esp
                           .text:00401a48 c1 00 00                         roll   $0x0,(%eax)
                           .text:00401a4b 00 00                            add    %al,(%eax)
                           .text:00401a4d 00 00                            add    %al,(%eax)
                           .text:00401a4f 00 80 14 16 03 00                add    %al,0x31614(%eax)
                           .text:00401a55 00 00                            add    %al,(%eax)
                           .text:00401a57 00 78 1b                         add    %bh,0x1b(%eax)
                           .text:00401a5a c0 c3 bf                         rol    $0xbf,%bl
                           .text:00401a5d 7f 00                            jg     0x00401a5f
                           .text:00401a5f 00 70 ab                         add    %dh,-0x55(%eax)
                           .text:00401a62 56                               push   %esi
                           .text:00401a63 bc bf 7f 00 00                   mov    $0x7fbf,%esp
                           .text:00401a68 a1 00 00 00 00                   mov    0x0,%eax
                           .text:00401a6d 00 00                            add    %al,(%eax)
                           .text:00401a6f 00 80 14 16 03 00                add    %al,0x31614(%eax)
                           .text:00401a75 00 00                            add    %al,(%eax)
                           .text:00401a77 00 78 1b                         add    %bh,0x1b(%eax)
                           .text:00401a7a c0 c3 bf                         rol    $0xbf,%bl
                           .text:00401a7d 7f 00                            jg     0x00401a7f
                           .text:00401a7f 00 b0 aa 56 bc bf                add    %dh,-0x4043a956(%eax)
                           .text:00401a85 7f 00                            jg     0x00401a87
                           .text:00401a87 00 81 00 00 00 00                add    %al,0x0(%ecx)
                           .text:00401a8d 00 00                            add    %al,(%eax)
                           .text:00401a8f 00 80 14 16 03 00                add    %al,0x31614(%eax)
                           .text:00401a95 00 00                            add    %al,(%eax)
                           .text:00401a97 00 78 1b                         add    %bh,0x1b(%eax)
                           .text:00401a9a c0 c3 bf                         rol    $0xbf,%bl
                           .text:00401a9d 7f 00                            jg     0x00401a9f
                           .text:00401a9f 00 80 aa 56 bc bf                add    %al,-0x4043a956(%eax)
                           .text:00401aa5 7f 00                            jg     0x00401aa7
                           .text:00401aa7 00 61 00                         add    %ah,0x0(%ecx)
                           .text:00401aaa 00 00                            add    %al,(%eax)
                           .text:00401aac 00 00                            add    %al,(%eax)
                           .text:00401aae 00 00                            add    %al,(%eax)
                           .text:00401ab0 80 14 16 03                      adcb   $0x3,(%esi,%edx,1)
                           .text:00401ab4 00 00                            add    %al,(%eax)
                           .text:00401ab6 00 00                            add    %al,(%eax)
                           .text:00401ab8 78 1b                            js     0x00401ad5
                           .text:00401aba c0 c3 bf                         rol    $0xbf,%bl
                           .text:00401abd 7f 00                            jg     0x00401abf
                           .text:00401abf 00 d0                            add    %dl,%al
                           .text:00401ac1 ab                               stos   %eax,%es:(%edi)
                           .text:00401ac2 56                               push   %esi
                           .text:00401ac3 bc bf 7f 00 00                   mov    $0x7fbf,%esp
                           .text:00401ac8 41                               inc    %ecx
                           .text:00401ac9 00 00                            add    %al,(%eax)
                           .text:00401acb 00 00                            add    %al,(%eax)
                           .text:00401acd 00 00                            add    %al,(%eax)
                           .text:00401acf 00 80 14 16 03 00                add    %al,0x31614(%eax)
                           .text:00401ad5 00 00                            add    %al,(%eax)
                           .text:00401ad7 00 78 1b                         add    %bh,0x1b(%eax)
                           .text:00401ada c0 c3 bf                         rol    $0xbf,%bl
                           .text:00401add 7f 00                            jg     0x00401adf
                           .text:00401adf 00 00                            add    %al,(%eax)
                           .text:00401ae1 ac                               lods   %ds:(%esi),%al
                           .text:00401ae2 56                               push   %esi
                           .text:00401ae3 bc bf 7f 00 00                   mov    $0x7fbf,%esp
                           .text:00401ae8 21 00                            and    %eax,(%eax)
                           .text:00401aea 00 00                            add    %al,(%eax)
                           .text:00401aec 00 00                            add    %al,(%eax)
                           .text:00401aee 00 00                            add    %al,(%eax)
                           .text:00401af0 00 bf 60 04 00 00                add    %bh,0x460(%edi)
                           .text:00401af6 00 00                            add    %al,(%eax)
                           .text:00401af8 30 09                            xor    %cl,(%ecx)
                           .text:00401afa 16                               push   %ss
                           .text:00401afb 03 00                            add    (%eax),%eax
                           .text:00401afd 00 00                            add    %al,(%eax)
                           .text:00401aff 00 80 01 00 00 00                add    %al,0x1(%eax)
                           .text:00401b05 00 00                            add    %al,(%eax)
                           .text:00401b07 00 40 00                         add    %al,0x0(%eax)
                           .text:00401b0a 00 00                            add    %al,(%eax)
                           .text:00401b0c 00 00                            add    %al,(%eax)
                           .text:00401b0e 00 00                            add    %al,(%eax)
                           .text:00401b10 80 12 16                         adcb   $0x16,(%edx)
                           .text:00401b13 03 00                            add    (%eax),%eax
                           .text:00401b15 00 00                            add    %al,(%eax)
                           .text:00401b17 00 e0                            add    %ah,%al
                           .text:00401b19 c0 ec b6                         shr    $0xb6,%ah
                           .text:00401b1c bf 7f 00 00 b0                   mov    $0xb000007f,%edi
                           .text:00401b21 58                               pop    %eax
                           .text:00401b22 70 00                            jo     0x00401b24
                           .text:00401b24 00 00                            add    %al,(%eax)
                           .text:00401b26 00 00                            add    %al,(%eax)
                           .text:00401b28 00 00                            add    %al,(%eax)
                           .text:00401b2a 00 00                            add    %al,(%eax)
                           .text:00401b2c 00 00                            add    %al,(%eax)
                           .text:00401b2e 00 00                            add    %al,(%eax)
                           .text:00401b30 00 00                            add    %al,(%eax)
                           .text:00401b32 00 00                            add    %al,(%eax)
                           .text:00401b34 00 00                            add    %al,(%eax)
                           .text:00401b36 00 00                            add    %al,(%eax)
                           .text:00401b38 ca 16 ca                         lret   $0xca16
                           .text:00401b3b d0 d6                            rcl    %dh
                           .text:00401b3d 38 c1                            cmp    %al,%cl
                           .text:00401b3f 10 08                            adc    %cl,(%eax)
                           .text:00401b41 f3 42                            repz inc %edx
                           .text:00401b43 bc bf 7f 00 00                   mov    $0x7fbf,%esp
                           .text:00401b48 31 1a                            xor    %ebx,(%edx)
                           .text:00401b4a 00 00                            add    %al,(%eax)
                           .text:00401b4c 00 00                            add    %al,(%eax)
                           .text:00401b4e 00 00                            add    %al,(%eax)
                           .text:00401b50 10 32                            adc    %dh,(%edx)
                           .text:00401b52 a0 02 00 00 00                   mov    0x2,%al
                           .text:00401b57 00 80 e6 f4 03 00                add    %al,0x3f4e6(%eax)
                           .text:00401b5d 00 00                            add    %al,(%eax)
                           .text:00401b5f 00 00                            add    %al,(%eax)
                           .text:00401b61 00 00                            add    %al,(%eax)
                           .text:00401b63 00 00                            add    %al,(%eax)
                           .text:00401b65 00 00                            add    %al,(%eax)
                           .text:00401b67 00 00                            add    %al,(%eax)
                           .text:00401b69 00 00                            add    %al,(%eax)
                           .text:00401b6b 00 00                            add    %al,(%eax)
                           .text:00401b6d 00 00                            add    %al,(%eax)
                           .text:00401b6f 00 d0                            add    %dl,%al
                           .text:00401b71 71 eb                            jno    0x00401b5e
                           .text:00401b73 02 00                            add    (%eax),%al
                           .text:00401b75 00 00                            add    %al,(%eax)
                           .text:00401b77 00 78 1b                         add    %bh,0x1b(%eax)
                           .text:00401b7a c0 c3 bf                         rol    $0xbf,%bl
                           .text:00401b7d 7f 00                            jg     0x00401b7f
                           .text:00401b7f 00 00                            add    %al,(%eax)
                           .text:00401b81 00 00                            add    %al,(%eax)
                           .text:00401b83 00 00                            add    %al,(%eax)
                           .text:00401b85 00 00                            add    %al,(%eax)
                           .text:00401b87 00 00                            add    %al,(%eax)
                           .text:00401b89 00 00                            add    %al,(%eax)
                           .text:00401b8b 00 00                            add    %al,(%eax)
                           .text:00401b8d 00 00                            add    %al,(%eax)
                           .text:00401b8f 00 10                            add    %dl,(%eax)
                           .text:00401b91 9b                               fwait
                           .text:00401b92 58                               pop    %eax
                           .text:00401b93 02 00                            add    (%eax),%al
                           .text:00401b95 00 00                            add    %al,(%eax)
                           .text:00401b97 00 80 9f 94 04 00                add    %al,0x4949f(%eax)
                           .text:00401b9d 00 00                            add    %al,(%eax)
                           .text:00401b9f 00 00                            add    %al,(%eax)
                           .text:00401ba1 00 00                            add    %al,(%eax)
                           .text:00401ba3 00 00                            add    %al,(%eax)
                           .text:00401ba5 00 00                            add    %al,(%eax)
                           .text:00401ba7 00 00                            add    %al,(%eax)
                           .text:00401ba9 00 00                            add    %al,(%eax)
                           .text:00401bab 00 00                            add    %al,(%eax)
                           .text:00401bad 00 00                            add    %al,(%eax)
                           .text:00401baf 00 20                            add    %ah,(%eax)
                           .text:00401bb1 9f                               lahf   
                           .text:00401bb2 72 02                            jb     0x00401bb6
                           .text:00401bb4 00 00                            add    %al,(%eax)
                           .text:00401bb6 00 00                            add    %al,(%eax)
                           .text:00401bb8 78 1b                            js     0x00401bd5
                           .text:00401bba c0 c3 bf                         rol    $0xbf,%bl
                           .text:00401bbd 7f 00                            jg     0x00401bbf
                           .text:00401bbf 00 00                            add    %al,(%eax)
                           .text:00401bc1 00 00                            add    %al,(%eax)
                           .text:00401bc3 00 00                            add    %al,(%eax)
                           .text:00401bc5 00 00                            add    %al,(%eax)
                           .text:00401bc7 00 00                            add    %al,(%eax)
                           .text:00401bc9 00 00                            add    %al,(%eax)
                           .text:00401bcb 00 00                            add    %al,(%eax)
                           .text:00401bcd 00 00                            add    %al,(%eax)
                           .text:00401bcf 00 c0                            add    %al,%al
                           .text:00401bd1 14 16                            adc    $0x16,%al
                           .text:00401bd3 03 00                            add    (%eax),%eax
                           .text:00401bd5 00 00                            add    %al,(%eax)
                           .text:00401bd7 00 b0 53 df b6 bf                add    %dh,-0x404920ad(%eax)
                           .text:00401bdd 7f 00                            jg     0x00401bdf
                           .text:00401bdf 00 c0                            add    %al,%al
                           .text:00401be1 33 69 c5                         xor    -0x3b(%ecx),%ebp
                           .text:00401be4 bf 7f 00 00 41                   mov    $0x4100007f,%edi
                           .text:00401be9 18 00                            sbb    %al,(%eax)
                           .text:00401beb 00 00                            add    %al,(%eax)
                           .text:00401bed 00 00                            add    %al,(%eax)
                           .text:00401bef 00 e0                            add    %ah,%al
                           .text:00401bf1 4f                               dec    %edi
                           .text:00401bf2 22 04 00                         and    (%eax,%eax,1),%al
                           .text:00401bf5 00 00                            add    %al,(%eax)
                           .text:00401bf7 00 80 ab 59 05 00                add    %al,0x559ab(%eax)
                           .text:00401bfd 00 00                            add    %al,(%eax)
                           .text:00401bff 00 00                            add    %al,(%eax)
                           .text:00401c01 00 00                            add    %al,(%eax)
                           .text:00401c03 00 00                            add    %al,(%eax)
                           .text:00401c05 00 00                            add    %al,(%eax)
                           .text:00401c07 00 00                            add    %al,(%eax)
                           .text:00401c09 00 00                            add    %al,(%eax)
                           .text:00401c0b 00 00                            add    %al,(%eax)
                           .text:00401c0d 00 00                            add    %al,(%eax)
                           .text:00401c0f 00 10                            add    %dl,(%eax)
                           .text:00401c11 f9                               stc    
                           .text:00401c12 8d 04 00                         lea    (%eax,%eax,1),%eax
                           .text:00401c15 00 00                            add    %al,(%eax)
                           .text:00401c17 00 60 b8                         add    %ah,-0x48(%eax)
                           .text:00401c1a b9 04 00 00 00                   mov    $0x4,%ecx
                           .text:00401c1f 00 00                            add    %al,(%eax)
                           .text:00401c21 00 00                            add    %al,(%eax)
                           .text:00401c23 00 00                            add    %al,(%eax)
                           .text:00401c25 00 00                            add    %al,(%eax)
                           .text:00401c27 00 00                            add    %al,(%eax)
                           .text:00401c29 00 00                            add    %al,(%eax)
                           .text:00401c2b 00 00                            add    %al,(%eax)
                           .text:00401c2d 00 00                            add    %al,(%eax)
                           .text:00401c2f 00 00                            add    %al,(%eax)
                           .text:00401c31 00 00                            add    %al,(%eax)
                           .text:00401c33 00 00                            add    %al,(%eax)
                           .text:00401c35 00 00                            add    %al,(%eax)
                           .text:00401c37 00 00                            add    %al,(%eax)
                           .text:00401c39 00 00                            add    %al,(%eax)
                           .text:00401c3b 00 00                            add    %al,(%eax)
                           .text:00401c3d 00 00                            add    %al,(%eax)
                           .text:00401c3f 00 00                            add    %al,(%eax)
                           .text:00401c41 00 00                            add    %al,(%eax)
                           .text:00401c43 00 00                            add    %al,(%eax)
                           .text:00401c45 00 00                            add    %al,(%eax)
                           .text:00401c47 00 00                            add    %al,(%eax)
                           .text:00401c49 00 00                            add    %al,(%eax)
                           .text:00401c4b 00 00                            add    %al,(%eax)
                           .text:00401c4d 00 00                            add    %al,(%eax)
                           .text:00401c4f 00 00                            add    %al,(%eax)
                           .text:00401c51 00 00                            add    %al,(%eax)
                           .text:00401c53 00 00                            add    %al,(%eax)
                           .text:00401c55 00 00                            add    %al,(%eax)
                           .text:00401c57 00 00                            add    %al,(%eax)
                           .text:00401c59 00 00                            add    %al,(%eax)
                           .text:00401c5b 00 00                            add    %al,(%eax)
                           .text:00401c5d 00 00                            add    %al,(%eax)
                           .text:00401c5f 00 00                            add    %al,(%eax)
                           .text:00401c61 00 00                            add    %al,(%eax)
                           .text:00401c63 00 00                            add    %al,(%eax)
                           .text:00401c65 00 00                            add    %al,(%eax)
                           .text:00401c67 00 00                            add    %al,(%eax)
                           .text:00401c69 00 00                            add    %al,(%eax)
                           .text:00401c6b 00 00                            add    %al,(%eax)
                           .text:00401c6d 00 00                            add    %al,(%eax)
                           .text:00401c6f 00 00                            add    %al,(%eax)
                           .text:00401c71 00 00                            add    %al,(%eax)
                           .text:00401c73 00 00                            add    %al,(%eax)
                           .text:00401c75 00 00                            add    %al,(%eax)
                           .text:00401c77 00 00                            add    %al,(%eax)
                           .text:00401c79 00 00                            add    %al,(%eax)
                           .text:00401c7b 00 00                            add    %al,(%eax)
                           .text:00401c7d 00 00                            add    %al,(%eax)
                           .text:00401c7f 00 00                            add    %al,(%eax)
                           .text:00401c81 00 00                            add    %al,(%eax)
                           .text:00401c83 00 00                            add    %al,(%eax)
                           .text:00401c85 00 00                            add    %al,(%eax)
                           .text:00401c87 00 00                            add    %al,(%eax)
                           .text:00401c89 00 00                            add    %al,(%eax)
                           .text:00401c8b 00 00                            add    %al,(%eax)
                           .text:00401c8d 00 00                            add    %al,(%eax)
                           .text:00401c8f 00 00                            add    %al,(%eax)
                           .text:00401c91 00 00                            add    %al,(%eax)
                           .text:00401c93 00 00                            add    %al,(%eax)
                           .text:00401c95 00 00                            add    %al,(%eax)
                           .text:00401c97 00 00                            add    %al,(%eax)
                           .text:00401c99 00 00                            add    %al,(%eax)
                           .text:00401c9b 00 00                            add    %al,(%eax)
                           .text:00401c9d 00 00                            add    %al,(%eax)
                           .text:00401c9f 00 00                            add    %al,(%eax)
                           .text:00401ca1 00 00                            add    %al,(%eax)
                           .text:00401ca3 00 00                            add    %al,(%eax)
                           .text:00401ca5 00 00                            add    %al,(%eax)
                           .text:00401ca7 00 00                            add    %al,(%eax)
                           .text:00401ca9 00 00                            add    %al,(%eax)
                           .text:00401cab 00 00                            add    %al,(%eax)
                           .text:00401cad 00 00                            add    %al,(%eax)
                           .text:00401caf 00 00                            add    %al,(%eax)
                           .text:00401cb1 00 00                            add    %al,(%eax)
                           .text:00401cb3 00 00                            add    %al,(%eax)
                           .text:00401cb5 00 00                            add    %al,(%eax)
                           .text:00401cb7 00 00                            add    %al,(%eax)
                           .text:00401cb9 00 00                            add    %al,(%eax)
                           .text:00401cbb 00 00                            add    %al,(%eax)
                           .text:00401cbd 00 00                            add    %al,(%eax)
                           .text:00401cbf 00 00                            add    %al,(%eax)
                           .text:00401cc1 00 00                            add    %al,(%eax)
                           .text:00401cc3 00 00                            add    %al,(%eax)
                           .text:00401cc5 00 00                            add    %al,(%eax)
                           .text:00401cc7 00 00                            add    %al,(%eax)
                           .text:00401cc9 00 00                            add    %al,(%eax)
                           .text:00401ccb 00 00                            add    %al,(%eax)
                           .text:00401ccd 00 00                            add    %al,(%eax)
                           .text:00401ccf 00 00                            add    %al,(%eax)
                           .text:00401cd1 00 00                            add    %al,(%eax)
                           .text:00401cd3 00 00                            add    %al,(%eax)
                           .text:00401cd5 00 00                            add    %al,(%eax)
                           .text:00401cd7 00 00                            add    %al,(%eax)
                           .text:00401cd9 00 00                            add    %al,(%eax)
                           .text:00401cdb 00 00                            add    %al,(%eax)
                           .text:00401cdd 00 00                            add    %al,(%eax)
                           .text:00401cdf 00 00                            add    %al,(%eax)
                           .text:00401ce1 00 00                            add    %al,(%eax)
                           .text:00401ce3 00 00                            add    %al,(%eax)
                           .text:00401ce5 00 00                            add    %al,(%eax)
                           .text:00401ce7 00 00                            add    %al,(%eax)
                           .text:00401ce9 00 00                            add    %al,(%eax)
                           .text:00401ceb 00 00                            add    %al,(%eax)
                           .text:00401ced 00 00                            add    %al,(%eax)
                           .text:00401cef 00 00                            add    %al,(%eax)
                           .text:00401cf1 00 00                            add    %al,(%eax)
                           .text:00401cf3 00 00                            add    %al,(%eax)
                           .text:00401cf5 00 00                            add    %al,(%eax)
                           .text:00401cf7 00 00                            add    %al,(%eax)
                           .text:00401cf9 00 00                            add    %al,(%eax)
                           .text:00401cfb 00 00                            add    %al,(%eax)
                           .text:00401cfd 00 00                            add    %al,(%eax)
                           .text:00401cff 00 00                            add    %al,(%eax)
                           .text:00401d01 00 00                            add    %al,(%eax)
                           .text:00401d03 00 00                            add    %al,(%eax)
                           .text:00401d05 00 00                            add    %al,(%eax)
                           .text:00401d07 00 00                            add    %al,(%eax)
                           .text:00401d09 00 00                            add    %al,(%eax)
                           .text:00401d0b 00 00                            add    %al,(%eax)
                           .text:00401d0d 00 00                            add    %al,(%eax)
                           .text:00401d0f 00 00                            add    %al,(%eax)
                           .text:00401d11 00 00                            add    %al,(%eax)
                           .text:00401d13 00 00                            add    %al,(%eax)
                           .text:00401d15 00 00                            add    %al,(%eax)
                           .text:00401d17 00 00                            add    %al,(%eax)
                           .text:00401d19 00 00                            add    %al,(%eax)
                           .text:00401d1b 00 00                            add    %al,(%eax)
                           .text:00401d1d 00 00                            add    %al,(%eax)
                           .text:00401d1f 00 00                            add    %al,(%eax)
                           .text:00401d21 00 00                            add    %al,(%eax)
                           .text:00401d23 00 00                            add    %al,(%eax)
                           .text:00401d25 00 00                            add    %al,(%eax)
                           .text:00401d27 00 00                            add    %al,(%eax)
                           .text:00401d29 00 00                            add    %al,(%eax)
                           .text:00401d2b 00 00                            add    %al,(%eax)
                           .text:00401d2d 00 00                            add    %al,(%eax)
                           .text:00401d2f 00 00                            add    %al,(%eax)
                           .text:00401d31 00 00                            add    %al,(%eax)
                           .text:00401d33 00 00                            add    %al,(%eax)
                           .text:00401d35 00 00                            add    %al,(%eax)
                           .text:00401d37 00 00                            add    %al,(%eax)
                           .text:00401d39 00 00                            add    %al,(%eax)
                           .text:00401d3b 00 00                            add    %al,(%eax)
                           .text:00401d3d 00 00                            add    %al,(%eax)
                           .text:00401d3f 00 00                            add    %al,(%eax)
                           .text:00401d41 00 00                            add    %al,(%eax)
                           .text:00401d43 00 00                            add    %al,(%eax)
                           .text:00401d45 00 00                            add    %al,(%eax)
                           .text:00401d47 00 00                            add    %al,(%eax)
                           .text:00401d49 00 00                            add    %al,(%eax)
                           .text:00401d4b 00 00                            add    %al,(%eax)
                           .text:00401d4d 00 00                            add    %al,(%eax)
                           .text:00401d4f 00 00                            add    %al,(%eax)
                           .text:00401d51 00 00                            add    %al,(%eax)
                           .text:00401d53 00 00                            add    %al,(%eax)
                           .text:00401d55 00 00                            add    %al,(%eax)
                           .text:00401d57 00 00                            add    %al,(%eax)
                           .text:00401d59 00 00                            add    %al,(%eax)
                           .text:00401d5b 00 00                            add    %al,(%eax)
                           .text:00401d5d 00 00                            add    %al,(%eax)
                           .text:00401d5f 00 00                            add    %al,(%eax)
                           .text:00401d61 00 00                            add    %al,(%eax)
                           .text:00401d63 00 00                            add    %al,(%eax)
                           .text:00401d65 00 00                            add    %al,(%eax)
                           .text:00401d67 00 00                            add    %al,(%eax)
                           .text:00401d69 00 00                            add    %al,(%eax)
                           .text:00401d6b 00 00                            add    %al,(%eax)
                           .text:00401d6d 00 00                            add    %al,(%eax)
                           .text:00401d6f 00 00                            add    %al,(%eax)
                           .text:00401d71 00 00                            add    %al,(%eax)
                           .text:00401d73 00 00                            add    %al,(%eax)
                           .text:00401d75 00 00                            add    %al,(%eax)
                           .text:00401d77 00 00                            add    %al,(%eax)
                           .text:00401d79 00 00                            add    %al,(%eax)
                           .text:00401d7b 00 00                            add    %al,(%eax)
                           .text:00401d7d 00 00                            add    %al,(%eax)
                           .text:00401d7f 00 00                            add    %al,(%eax)
                           .text:00401d81 00 00                            add    %al,(%eax)
                           .text:00401d83 00 00                            add    %al,(%eax)
                           .text:00401d85 00 00                            add    %al,(%eax)
                           .text:00401d87 00 00                            add    %al,(%eax)
                           .text:00401d89 00 00                            add    %al,(%eax)
                           .text:00401d8b 00 00                            add    %al,(%eax)
                           .text:00401d8d 00 00                            add    %al,(%eax)
                           .text:00401d8f 00 00                            add    %al,(%eax)
                           .text:00401d91 00 00                            add    %al,(%eax)
                           .text:00401d93 00 00                            add    %al,(%eax)
                           .text:00401d95 00 00                            add    %al,(%eax)
                           .text:00401d97 00 00                            add    %al,(%eax)
                           .text:00401d99 00 00                            add    %al,(%eax)
                           .text:00401d9b 00 00                            add    %al,(%eax)
                           .text:00401d9d 00 00                            add    %al,(%eax)
                           .text:00401d9f 00 00                            add    %al,(%eax)
                           .text:00401da1 00 00                            add    %al,(%eax)
                           .text:00401da3 00 00                            add    %al,(%eax)
                           .text:00401da5 00 00                            add    %al,(%eax)
                           .text:00401da7 00 00                            add    %al,(%eax)
                           .text:00401da9 00 00                            add    %al,(%eax)
                           .text:00401dab 00 00                            add    %al,(%eax)
                           .text:00401dad 00 00                            add    %al,(%eax)
                           .text:00401daf 00 00                            add    %al,(%eax)
                           .text:00401db1 00 00                            add    %al,(%eax)
                           .text:00401db3 00 00                            add    %al,(%eax)
                           .text:00401db5 00 00                            add    %al,(%eax)
                           .text:00401db7 00 00                            add    %al,(%eax)
                           .text:00401db9 00 00                            add    %al,(%eax)
                           .text:00401dbb 00 00                            add    %al,(%eax)
                           .text:00401dbd 00 00                            add    %al,(%eax)
                           .text:00401dbf 00 00                            add    %al,(%eax)
                           .text:00401dc1 00 00                            add    %al,(%eax)
                           .text:00401dc3 00 00                            add    %al,(%eax)
                           .text:00401dc5 00 00                            add    %al,(%eax)
                           .text:00401dc7 00 00                            add    %al,(%eax)
                           .text:00401dc9 00 00                            add    %al,(%eax)
                           .text:00401dcb 00 00                            add    %al,(%eax)
                           .text:00401dcd 00 00                            add    %al,(%eax)
                           .text:00401dcf 00 00                            add    %al,(%eax)
                           .text:00401dd1 00 00                            add    %al,(%eax)
                           .text:00401dd3 00 00                            add    %al,(%eax)
                           .text:00401dd5 00 00                            add    %al,(%eax)
                           .text:00401dd7 00 00                            add    %al,(%eax)
                           .text:00401dd9 00 00                            add    %al,(%eax)
                           .text:00401ddb 00 00                            add    %al,(%eax)
                           .text:00401ddd 00 00                            add    %al,(%eax)
                           .text:00401ddf 00 00                            add    %al,(%eax)
                           .text:00401de1 00 00                            add    %al,(%eax)
                           .text:00401de3 00 00                            add    %al,(%eax)
                           .text:00401de5 00 00                            add    %al,(%eax)
                           .text:00401de7 00 00                            add    %al,(%eax)
                           .text:00401de9 00 00                            add    %al,(%eax)
                           .text:00401deb 00 00                            add    %al,(%eax)
                           .text:00401ded 00 00                            add    %al,(%eax)
                           .text:00401def 00 00                            add    %al,(%eax)
                           .text:00401df1 00 00                            add    %al,(%eax)
                           .text:00401df3 00 00                            add    %al,(%eax)
                           .text:00401df5 00 00                            add    %al,(%eax)
                           .text:00401df7 00 00                            add    %al,(%eax)
                           .text:00401df9 00 00                            add    %al,(%eax)
                           .text:00401dfb 00 00                            add    %al,(%eax)
                           .text:00401dfd 00 00                            add    %al,(%eax)
                           .text:00401dff 00 00                            add    %al,(%eax)
                           .text:00401e01 00 00                            add    %al,(%eax)
                           .text:00401e03 00 00                            add    %al,(%eax)
                           .text:00401e05 00 00                            add    %al,(%eax)
                           .text:00401e07 00 00                            add    %al,(%eax)
                           .text:00401e09 00 00                            add    %al,(%eax)
                           .text:00401e0b 00 00                            add    %al,(%eax)
                           .text:00401e0d 00 00                            add    %al,(%eax)
                           .text:00401e0f 00 00                            add    %al,(%eax)
                           .text:00401e11 00 00                            add    %al,(%eax)
                           .text:00401e13 00 00                            add    %al,(%eax)
                           .text:00401e15 00 00                            add    %al,(%eax)
                           .text:00401e17 00 00                            add    %al,(%eax)
                           .text:00401e19 00 00                            add    %al,(%eax)
                           .text:00401e1b 00 00                            add    %al,(%eax)
                           .text:00401e1d 00 00                            add    %al,(%eax)
                           .text:00401e1f 00 96 d7 fc 92 d6                add    %dl,-0x296d0329(%esi)
                           .text:00401e25 4e                               dec    %esi
                           .text:00401e26 e3 51                            jecxz  0x00401e79
                           .text:00401e28 d0 ab 56 bc bf 7f                shrb   0x7fbfbc56(%ebx)
                           .text:00401e2e 00 00                            add    %al,(%eax)
                           .text:00401e30 e8 56 53 ba bf                   call   0xbffa718b
                           .text:00401e35 7f 00                            jg     0x00401e37
                           .text:00401e37 00 00                            add    %al,(%eax)
                           .text:00401e39 00 00                            add    %al,(%eax)
                           .text:00401e3b 00 00                            add    %al,(%eax)
                           .text:00401e3d 00 00                            add    %al,(%eax)
                           .text:00401e3f 00 00                            add    %al,(%eax)
                           .text:00401e41 00 00                            add    %al,(%eax)
                           .text:00401e43 00 00                            add    %al,(%eax)
                           .text:00401e45 00 00                            add    %al,(%eax)
                           .text:00401e47 00 00                            add    %al,(%eax)
                           .text:00401e49 00 00                            add    %al,(%eax)
                           .text:00401e4b 00 00                            add    %al,(%eax)
                           .text:00401e4d 00 00                            add    %al,(%eax)
                           .text:00401e4f 00 00                            add    %al,(%eax)
                           .text:00401e51 00 00                            add    %al,(%eax)
                           .text:00401e53 00 00                            add    %al,(%eax)
                           .text:00401e55 00 00                            add    %al,(%eax)
                           .text:00401e57 00 00                            add    %al,(%eax)
                           .text:00401e59 00 00                            add    %al,(%eax)
                           .text:00401e5b 00 00                            add    %al,(%eax)
                           .text:00401e5d 00 00                            add    %al,(%eax)
                           .text:00401e5f 00 00                            add    %al,(%eax)
                           .text:00401e61 00 00                            add    %al,(%eax)
                           .text:00401e63 00 00                            add    %al,(%eax)
                           .text:00401e65 00 00                            add    %al,(%eax)
                           .text:00401e67 00 00                            add    %al,(%eax)
                           .text:00401e69 00 00                            add    %al,(%eax)
                           .text:00401e6b 00 00                            add    %al,(%eax)
                           .text:00401e6d 00 00                            add    %al,(%eax)
                           .text:00401e6f 00 00                            add    %al,(%eax)
                           .text:00401e71 00 00                            add    %al,(%eax)
                           .text:00401e73 00 00                            add    %al,(%eax)
                           .text:00401e75 00 00                            add    %al,(%eax)
                           .text:00401e77 00 00                            add    %al,(%eax)
                           .text:00401e79 00 00                            add    %al,(%eax)
                           .text:00401e7b 00 00                            add    %al,(%eax)
                           .text:00401e7d 00 00                            add    %al,(%eax)
                           .text:00401e7f 00 9a 8b 14 e5 8e                add    %bl,-0x711aeb75(%edx)
                           .text:00401e85 e6 27                            out    %al,$0x27
                           .text:00401e87 27                               daa    
                           .text:00401e88 80 aa 56 bc bf 7f 00             subb   $0x0,0x7fbfbc56(%edx)
                           .text:00401e8f 00 80 58 70 00 00                add    %al,0x7058(%eax)
                           .text:00401e95 00 00                            add    %al,(%eax)
                           .text:00401e97 00 00                            add    %al,(%eax)
                           .text:00401e99 00 00                            add    %al,(%eax)
                           .text:00401e9b 00 00                            add    %al,(%eax)
                           .text:00401e9d 00 00                            add    %al,(%eax)
                           .text:00401e9f 00 00                            add    %al,(%eax)
                           .text:00401ea1 00 00                            add    %al,(%eax)
                           .text:00401ea3 00 00                            add    %al,(%eax)
                           .text:00401ea5 00 00                            add    %al,(%eax)
                           .text:00401ea7 00 00                            add    %al,(%eax)
                           .text:00401ea9 00 00                            add    %al,(%eax)
                           .text:00401eab 00 00                            add    %al,(%eax)
                           .text:00401ead 00 00                            add    %al,(%eax)
                           .text:00401eaf 00 00                            add    %al,(%eax)
                           .text:00401eb1 00 00                            add    %al,(%eax)
                           .text:00401eb3 00 00                            add    %al,(%eax)
                           .text:00401eb5 00 00                            add    %al,(%eax)
                           .text:00401eb7 00 00                            add    %al,(%eax)
                           .text:00401eb9 00 00                            add    %al,(%eax)
                           .text:00401ebb 00 00                            add    %al,(%eax)
                           .text:00401ebd 00 00                            add    %al,(%eax)
                           .text:00401ebf 00 00                            add    %al,(%eax)
                           .text:00401ec1 00 00                            add    %al,(%eax)
                           .text:00401ec3 00 00                            add    %al,(%eax)
                           .text:00401ec5 00 00                            add    %al,(%eax)
                           .text:00401ec7 00 00                            add    %al,(%eax)
                           .text:00401ec9 00 00                            add    %al,(%eax)
                           .text:00401ecb 00 00                            add    %al,(%eax)
                           .text:00401ecd 00 00                            add    %al,(%eax)
                           .text:00401ecf 00 00                            add    %al,(%eax)
                           .text:00401ed1 00 00                            add    %al,(%eax)
                           .text:00401ed3 00 00                            add    %al,(%eax)
                           .text:00401ed5 00 00                            add    %al,(%eax)
                           .text:00401ed7 00 00                            add    %al,(%eax)
                           .text:00401ed9 00 00                            add    %al,(%eax)
                           .text:00401edb 00 00                            add    %al,(%eax)
                           .text:00401edd 00 00                            add    %al,(%eax)
                           .text:00401edf 00 00                            add    %al,(%eax)
                           .text:00401ee1 00 00                            add    %al,(%eax)
                           .text:00401ee3 00 00                            add    %al,(%eax)
                           .text:00401ee5 00 00                            add    %al,(%eax)
                           .text:00401ee7 00 00                            add    %al,(%eax)
                           .text:00401ee9 00 00                            add    %al,(%eax)
                           .text:00401eeb 00 00                            add    %al,(%eax)
                           .text:00401eed 00 00                            add    %al,(%eax)
                           .text:00401eef 00 00                            add    %al,(%eax)
                           .text:00401ef1 00 00                            add    %al,(%eax)
                           .text:00401ef3 00 00                            add    %al,(%eax)
                           .text:00401ef5 00 00                            add    %al,(%eax)
                           .text:00401ef7 00 1f                            add    %bl,(%edi)
                           .text:00401ef9 ab                               stos   %eax,%es:(%edi)
                           .text:00401efa 7e 37                            jle    0x00401f33
                           .text:00401efc 96                               xchg   %eax,%esi
                           .text:00401efd a4                               movsb  %ds:(%esi),%es:(%edi)
                           .text:00401efe 75 e6                            jne    0x00401ee6
                           .text:00401f00 b0 61                            mov    $0x61,%al
                           .text:00401f02 70 c5                            jo     0x00401ec9
                           .text:00401f04 bf 7f 00 00 60                   mov    $0x6000007f,%edi
                           .text:00401f09 8b 4c 01 00                      mov    0x0(%ecx,%eax,1),%ecx
                           .text:00401f0d 00 00                            add    %al,(%eax)
                           .text:00401f0f 00 a0 b8 0e ff 21                add    %ah,0x21ff0eb8(%eax)
                           .text:00401f15 98                               cwtl   
                           .text:00401f16 96                               xchg   %eax,%esi
                           .text:00401f17 6c                               insb   (%dx),%es:(%edi)
                           .text:00401f18 60                               pusha  
                           .text:00401f19 a9 56 bc bf 7f                   test   $0x7fbfbc56,%eax
                           .text:00401f1e 00 00                            add    %al,(%eax)
                           .text:00401f20 90                               nop
                           .text:00401f21 8b 4c 01 00                      mov    0x0(%ecx,%eax,1),%ecx
                           .text:00401f25 00 00                            add    %al,(%eax)
                           .text:00401f27 00 00                            add    %al,(%eax)
                           .text:00401f29 00 00                            add    %al,(%eax)
                           .text:00401f2b 00 00                            add    %al,(%eax)
                           .text:00401f2d 00 00                            add    %al,(%eax)
                           .text:00401f2f 00 00                            add    %al,(%eax)
                           .text:00401f31 00 00                            add    %al,(%eax)
                           .text:00401f33 00 00                            add    %al,(%eax)
                           .text:00401f35 00 00                            add    %al,(%eax)
                           .text:00401f37 00 00                            add    %al,(%eax)
                           .text:00401f39 00 00                            add    %al,(%eax)
                           .text:00401f3b 00 00                            add    %al,(%eax)
                           .text:00401f3d 00 00                            add    %al,(%eax)
                           .text:00401f3f 00 22                            add    %ah,(%edx)
                           .text:00401f41 a8 8d                            test   $0x8d,%al
                           .text:00401f43 4a                               dec    %edx
                           .text:00401f44 50                               push   %eax
                           .text:00401f45 9f                               lahf   
                           .text:00401f46 cd 02                            int    $0x2
                           .text:00401f48 50                               push   %eax
                           .text:00401f49 aa                               stos   %al,%es:(%edi)
                           .text:00401f4a 56                               push   %esi
                           .text:00401f4b bc bf 7f 00 00                   mov    $0x7fbf,%esp
                           .text:00401f50 08 55 6d                         or     %dl,0x6d(%ebp)
                           .text:00401f53 c5 bf 7f 00 00 00                lds    0x7f(%edi),%edi
                           .text:00401f59 00 00                            add    %al,(%eax)
                           .text:00401f5b 00 00                            add    %al,(%eax)
                           .text:00401f5d 00 00                            add    %al,(%eax)
                           .text:00401f5f 00 00                            add    %al,(%eax)
                           .text:00401f61 00 00                            add    %al,(%eax)
                           .text:00401f63 00 00                            add    %al,(%eax)
                           .text:00401f65 00 00                            add    %al,(%eax)
                           .text:00401f67 00 00                            add    %al,(%eax)
                           .text:00401f69 00 00                            add    %al,(%eax)
                           .text:00401f6b 00 00                            add    %al,(%eax)
                           .text:00401f6d 00 00                            add    %al,(%eax)
                           .text:00401f6f 00 00                            add    %al,(%eax)
                           .text:00401f71 00 00                            add    %al,(%eax)
                           .text:00401f73 00 00                            add    %al,(%eax)
                           .text:00401f75 00 00                            add    %al,(%eax)
                           .text:00401f77 00 00                            add    %al,(%eax)
                           .text:00401f79 00 00                            add    %al,(%eax)
                           .text:00401f7b 00 00                            add    %al,(%eax)
                           .text:00401f7d 00 00                            add    %al,(%eax)
                           .text:00401f7f 00 00                            add    %al,(%eax)
                           .text:00401f81 00 00                            add    %al,(%eax)
                           .text:00401f83 00 00                            add    %al,(%eax)
                           .text:00401f85 00 00                            add    %al,(%eax)
                           .text:00401f87 00 00                            add    %al,(%eax)
                           .text:00401f89 00 00                            add    %al,(%eax)
                           .text:00401f8b 00 00                            add    %al,(%eax)
                           .text:00401f8d 00 00                            add    %al,(%eax)
                           .text:00401f8f 00 00                            add    %al,(%eax)
                           .text:00401f91 00 00                            add    %al,(%eax)
                           .text:00401f93 00 00                            add    %al,(%eax)
                           .text:00401f95 00 00                            add    %al,(%eax)
                           .text:00401f97 00 00                            add    %al,(%eax)
                           .text:00401f99 00 00                            add    %al,(%eax)
                           .text:00401f9b 00 00                            add    %al,(%eax)
                           .text:00401f9d 00 00                            add    %al,(%eax)
                           .text:00401f9f 00 00                            add    %al,(%eax)
                           .text:00401fa1 00 00                            add    %al,(%eax)
                           .text:00401fa3 00 00                            add    %al,(%eax)
                           .text:00401fa5 00 00                            add    %al,(%eax)
                           .text:00401fa7 00 00                            add    %al,(%eax)
                           .text:00401fa9 00 00                            add    %al,(%eax)
                           .text:00401fab 00 00                            add    %al,(%eax)
                           .text:00401fad 00 00                            add    %al,(%eax)
                           .text:00401faf 00 00                            add    %al,(%eax)
                           .text:00401fb1 00 00                            add    %al,(%eax)
                           .text:00401fb3 00 00                            add    %al,(%eax)
                           .text:00401fb5 00 00                            add    %al,(%eax)
                           .text:00401fb7 00 00                            add    %al,(%eax)
                           .text:00401fb9 00 00                            add    %al,(%eax)
                           .text:00401fbb 00 00                            add    %al,(%eax)
                           .text:00401fbd 00 00                            add    %al,(%eax)
                           .text:00401fbf 00 00                            add    %al,(%eax)
                           .text:00401fc1 00 00                            add    %al,(%eax)
                           .text:00401fc3 00 00                            add    %al,(%eax)
                           .text:00401fc5 00 00                            add    %al,(%eax)
                           .text:00401fc7 00 00                            add    %al,(%eax)
                           .text:00401fc9 00 00                            add    %al,(%eax)
                           .text:00401fcb 00 00                            add    %al,(%eax)
                           .text:00401fcd 00 00                            add    %al,(%eax)
                           .text:00401fcf 00 00                            add    %al,(%eax)
                           .text:00401fd1 00 00                            add    %al,(%eax)
                           .text:00401fd3 00 00                            add    %al,(%eax)
                           .text:00401fd5 00 00                            add    %al,(%eax)
                           .text:00401fd7 00 00                            add    %al,(%eax)
                           .text:00401fd9 00 00                            add    %al,(%eax)
                           .text:00401fdb 00 00                            add    %al,(%eax)
                           .text:00401fdd 00 00                            add    %al,(%eax)
                           .text:00401fdf 00 00                            add    %al,(%eax)
                           .text:00401fe1 00 00                            add    %al,(%eax)
                           .text:00401fe3 00 00                            add    %al,(%eax)
                           .text:00401fe5 00 00                            add    %al,(%eax)
                           .text:00401fe7 00 00                            add    %al,(%eax)
                           .text:00401fe9 00 00                            add    %al,(%eax)
                           .text:00401feb 00 00                            add    %al,(%eax)
                           .text:00401fed 00 00                            add    %al,(%eax)
                           .text:00401fef 00 00                            add    %al,(%eax)
                           .text:00401ff1 00 00                            add    %al,(%eax)
                           .text:00401ff3 00 00                            add    %al,(%eax)
                           .text:00401ff5 00 00                            add    %al,(%eax)
                           .text:00401ff7 00 00                            add    %al,(%eax)
                           .text:00401ff9 00 00                            add    %al,(%eax)
                           .text:00401ffb 00 00                            add    %al,(%eax)
                           .text:00401ffd 00 00                            add    %al,(%eax)
                           .text:00401fff 00                               .byte 0x0
