                           .text:01001000 d7                               xlat   %ds:(%ebx)
                           .text:01001001 28 e3                            sub    %ah,%bl
                           .text:01001003 77 3c                            ja     0x01001041
                           .text:01001005 f2 e2 77                         repnz loop 0x0100107f
                           .text:01001008 66 ef                            out    %ax,(%dx)
                           .text:0100100a e2 77                            loop   0x01001083
                           .text:0100100c 5e                               pop    %esi
                           .text:0100100d f2 e2 77                         repnz loop 0x01001087
                           .text:01001010 1a c4                            sbb    %ah,%al
                           .text:01001012 e3 77                            jecxz  0x0100108b
                           .text:01001014 97                               xchg   %eax,%edi
                           .text:01001015 12 e3                            adc    %bl,%ah
                           .text:01001017 77 40                            ja     0x01001059
                           .text:01001019 cd e2                            int    $0xe2
                           .text:0100101b 77 76                            ja     0x01001093
                           .text:0100101d f1                               icebp  
                           .text:0100101e e2 77                            loop   0x01001097
                           .text:01001020 42                               inc    %edx
                           .text:01001021 31 e3                            xor    %esp,%ebx
                           .text:01001023 77 00                            ja     0x01001025
                           .text:01001025 00 00                            add    %al,(%eax)
                           .text:01001027 00 30                            add    %dh,(%eax)
                           .text:01001029 11 00                            adc    %eax,(%eax)
                           .text:0100102b 10 3b                            adc    %bh,(%ebx)
                           .text:0100102d 11 00                            adc    %eax,(%eax)
                           .text:0100102f 10 00                            adc    %al,(%eax)
                           .text:01001031 00 00                            add    %al,(%eax)
                           .text:01001033 00 0f                            add    %cl,(%edi)
                           .text:01001035 5b                               pop    %ebx
                           .text:01001036 2d 41 00 00 00                   sub    $0x41,%eax
                           .text:0100103b 00 1b                            add    %bl,(%ebx)
                           .text:0100103d 33 8d 41 e9 db 8d                xor    -0x722416bf(%ebp),%ecx
                           .text:01001043 41                               inc    %ecx
                           .text:01001044 ba f5 8d 41 b2                   mov    $0xb2418df5,%edx
                           .text:01001049 63 8e 41 bf d6 8d                arpl   %cx,-0x722940bf(%esi)
                           .text:0100104f 41                               inc    %ecx
                           .text:01001050 57                               push   %edi
                           .text:01001051 30 8d 41 00 00 00                xor    %cl,0x41(%ebp)
                           .text:01001057 00 e1                            add    %ah,%cl
                           .text:01001059 e1 f5                            loope  0x01001050
                           .text:0100105b 6f                               outsl  %ds:(%esi),(%dx)
                           .text:0100105c 27                               daa    
                           .text:0100105d 3e f7 6f cf                      imull  %ds:-0x31(%edi)
                           .text:01001061 61                               popa   
                           .text:01001062 fa                               cli    
                           .text:01001063 6f                               outsl  %ds:(%esi),(%dx)
                           .text:01001064 04 28                            add    $0x28,%al
                           .text:01001066 f6 6f ce                         imulb  -0x32(%edi)
                           .text:01001069 27                               daa    
                           .text:0100106a f6 6f c3                         imulb  -0x3d(%edi)
                           .text:0100106d 27                               daa    
                           .text:0100106e f6 6f ad                         imulb  -0x53(%edi)
                           .text:01001071 77 fe                            ja     0x01001071
                           .text:01001073 6f                               outsl  %ds:(%esi),(%dx)
                           .text:01001074 ef                               out    %eax,(%dx)
                           .text:01001075 b2 fb                            mov    $0xfb,%dl
                           .text:01001077 6f                               outsl  %ds:(%esi),(%dx)
                           .text:01001078 51                               push   %ecx
                           .text:01001079 c1                               (bad)  
                           .text:0100107a f5                               cmc    
                           .text:0100107b 6f                               outsl  %ds:(%esi),(%dx)
                           .text:0100107c aa                               stos   %al,%es:(%edi)
                           .text:0100107d 36 f6 6f 75                      imulb  %ss:0x75(%edi)
                           .text:01001081 dc f7                            fdivr  %st,%st(7)
                           .text:01001083 6f                               outsl  %ds:(%esi),(%dx)
                           .text:01001084 c0                               (bad)  
                           .text:01001085 b2 fb                            mov    $0xfb,%dl
                           .text:01001087 6f                               outsl  %ds:(%esi),(%dx)
                           .text:01001088 d4 37                            aam    $0x37
                           .text:0100108a f6 6f c0                         imulb  -0x40(%edi)
                           .text:0100108d 2b f6                            sub    %esi,%esi
                           .text:0100108f 6f                               outsl  %ds:(%esi),(%dx)
                           .text:01001090 c1 da f5                         rcr    $0xf5,%edx
                           .text:01001093 6f                               outsl  %ds:(%esi),(%dx)
                           .text:01001094 e9 a9 f5 6f 00                   jmp    0x01700642
                           .text:01001099 00 00                            add    %al,(%eax)
                           .text:0100109b 00 10                            add    %dl,(%eax)
                           .text:0100109d 5d                               pop    %ebp
                           .text:0100109e f0 77 31                         lock ja 0x010010d2
                           .text:010010a1 1f                               pop    %ds
                           .text:010010a2 f1                               icebp  
                           .text:010010a3 77 9d                            ja     0x01001042
                           .text:010010a5 20 f1                            and    %dh,%cl
                           .text:010010a7 77 e2                            ja     0x0100108b
                           .text:010010a9 c2 f7 77                         ret    $0x77f7
                           .text:010010ac 00 00                            add    %al,(%eax)
                           .text:010010ae 00 00                            add    %al,(%eax)
                           .text:010010b0 60                               pusha  
                           .text:010010b1 b2 6e                            mov    $0x6e,%dl
                           .text:010010b3 40                               inc    %eax
                           .text:010010b4 c2 51 6f                         ret    $0x6f51
                           .text:010010b7 40                               inc    %eax
                           .text:010010b8 25 6c 6e 40 f8                   and    $0xf8406e6c,%eax
                           .text:010010bd 6b 6f 40 4d                      imul   $0x4d,0x40(%edi),%ebp
                           .text:010010c1 a6                               cmpsb  %es:(%edi),%ds:(%esi)
                           .text:010010c2 6e                               outsb  %ds:(%esi),(%dx)
                           .text:010010c3 40                               inc    %eax
                           .text:010010c4 cb                               lret   
                           .text:010010c5 51                               push   %ecx
                           .text:010010c6 6f                               outsl  %ds:(%esi),(%dx)
                           .text:010010c7 40                               inc    %eax
                           .text:010010c8 71 70                            jno    0x0100113a
                           .text:010010ca 6f                               outsl  %ds:(%esi),(%dx)
                           .text:010010cb 40                               inc    %eax
                           .text:010010cc 16                               push   %ss
                           .text:010010cd 85 6e 40                         test   %ebp,0x40(%esi)
                           .text:010010d0 5c                               pop    %esp
                           .text:010010d1 a4                               movsb  %ds:(%esi),%es:(%edi)
                           .text:010010d2 6e                               outsb  %ds:(%esi),(%dx)
                           .text:010010d3 40                               inc    %eax
                           .text:010010d4 ce                               into   
                           .text:010010d5 5f                               pop    %edi
                           .text:010010d6 6e                               outsb  %ds:(%esi),(%dx)
                           .text:010010d7 40                               inc    %eax
                           .text:010010d8 a8 64                            test   $0x64,%al
                           .text:010010da 6e                               outsb  %ds:(%esi),(%dx)
                           .text:010010db 40                               inc    %eax
                           .text:010010dc 97                               xchg   %eax,%edi
                           .text:010010dd 6e                               outsb  %ds:(%esi),(%dx)
                           .text:010010de 6f                               outsl  %ds:(%esi),(%dx)
                           .text:010010df 40                               inc    %eax
                           .text:010010e0 74 4c                            je     0x0100112e
                           .text:010010e2 6f                               outsl  %ds:(%esi),(%dx)
                           .text:010010e3 40                               inc    %eax
                           .text:010010e4 c7 42 6f 40 26 a5 6e             movl   $0x6ea52640,0x6f(%edx)
                           .text:010010eb 40                               inc    %eax
                           .text:010010ec 24 83                            and    $0x83,%al
                           .text:010010ee 6e                               outsb  %ds:(%esi),(%dx)
                           .text:010010ef 40                               inc    %eax
                           .text:010010f0 7d a3                            jge    0x01001095
                           .text:010010f2 6e                               outsb  %ds:(%esi),(%dx)
                           .text:010010f3 40                               inc    %eax
                           .text:010010f4 cc                               int3   
                           .text:010010f5 83 6e 40 01                      subl   $0x1,0x40(%esi)
                           .text:010010f9 82                               (bad)  
                           .text:010010fa 6e                               outsb  %ds:(%esi),(%dx)
                           .text:010010fb 40                               inc    %eax
                           .text:010010fc 99                               cltd   
                           .text:010010fd a9 6e 40 41 52                   test   $0x5241406e,%eax
                           .text:01001102 6f                               outsl  %ds:(%esi),(%dx)
                           .text:01001103 40                               inc    %eax
                           .text:01001104 c4 52 6f                         les    0x6f(%edx),%edx
                           .text:01001107 40                               inc    %eax
                           .text:01001108 c2 a7 6e                         ret    $0x6ea7
                           .text:0100110b 40                               inc    %eax
                           .text:0100110c d4 51                            aam    $0x51
                           .text:0100110e 6f                               outsl  %ds:(%esi),(%dx)
                           .text:0100110f 40                               inc    %eax
                           .text:01001110 f1                               icebp  
                           .text:01001111 51                               push   %ecx
                           .text:01001112 6f                               outsl  %ds:(%esi),(%dx)
                           .text:01001113 40                               inc    %eax
                           .text:01001114 a3 51 6f 40 94                   mov    %eax,0x94406f51
                           .text:01001119 b4 6e                            mov    $0x6e,%ah
                           .text:0100111b 40                               inc    %eax
                           .text:0100111c 01 a4 6e 40 2e 9a 6e             add    %esp,0x6e9a2e40(%esi,%ebp,2)
                           .text:01001123 40                               inc    %eax
                           .text:01001124 4f                               dec    %edi
                           .text:01001125 97                               xchg   %eax,%edi
                           .text:01001126 6e                               outsb  %ds:(%esi),(%dx)
                           .text:01001127 40                               inc    %eax
                           .text:01001128 88 96 6e 40 ec 9d                mov    %dl,-0x6213bf92(%esi)
                           .text:0100112e 6e                               outsb  %ds:(%esi),(%dx)
                           .text:0100112f 40                               inc    %eax
                           .text:01001130 68 96 6e 40 73                   push   $0x73406e96
                           .text:01001135 a1 6e 40 f7 9e                   mov    0x9ef7406e,%eax
                           .text:0100113a 6e                               outsb  %ds:(%esi),(%dx)
                           .text:0100113b 40                               inc    %eax
                           .text:0100113c 78 98                            js     0x010010d6
                           .text:0100113e 6e                               outsb  %ds:(%esi),(%dx)
                           .text:0100113f 40                               inc    %eax
                           .text:01001140 ed                               in     (%dx),%eax
                           .text:01001141 e0 6e                            loopne 0x010011b1
                           .text:01001143 40                               inc    %eax
                           .text:01001144 7f 96                            jg     0x010010dc
                           .text:01001146 6e                               outsb  %ds:(%esi),(%dx)
                           .text:01001147 40                               inc    %eax
                           .text:01001148 ca 94 6e                         lret   $0x6e94
                           .text:0100114b 40                               inc    %eax
                           .text:0100114c c3                               ret    
                           .text:0100114d 96                               xchg   %eax,%esi
                           .text:0100114e 6e                               outsb  %ds:(%esi),(%dx)
                           .text:0100114f 40                               inc    %eax
                           .text:01001150 c7                               (bad)  
                           .text:01001151 93                               xchg   %eax,%ebx
                           .text:01001152 6e                               outsb  %ds:(%esi),(%dx)
                           .text:01001153 40                               inc    %eax
                           .text:01001154 f0 63 6e 40                      lock arpl %bp,0x40(%esi)
                           .text:01001158 f6 6a 6f                         imulb  0x6f(%edx)
                           .text:0100115b 40                               inc    %eax
                           .text:0100115c b1 ae                            mov    $0xae,%cl
                           .text:0100115e 6e                               outsb  %ds:(%esi),(%dx)
                           .text:0100115f 40                               inc    %eax
                           .text:01001160 85 80 6e 40 b1 71                test   %eax,0x71b1406e(%eax)
                           .text:01001166 6f                               outsl  %ds:(%esi),(%dx)
                           .text:01001167 40                               inc    %eax
                           .text:01001168 81 82 6e 40 e7 6b 6f 40 f1 3d    addl   $0x3df1406f,0x6be7406e(%edx)
                           .text:01001172 6f                               outsl  %ds:(%esi),(%dx)
                           .text:01001173 40                               inc    %eax
                           .text:01001174 fa                               cli    
                           .text:01001175 64 6e                            outsb  %fs:(%esi),(%dx)
                           .text:01001177 40                               inc    %eax
                           .text:01001178 01 83 6e 40 b2 78                add    %eax,0x78b2406e(%ebx)
                           .text:0100117e 6e                               outsb  %ds:(%esi),(%dx)
                           .text:0100117f 40                               inc    %eax
                           .text:01001180 6e                               outsb  %ds:(%esi),(%dx)
                           .text:01001181 c5 6e 40                         lds    0x40(%esi),%ebp
                           .text:01001184 00 00                            add    %al,(%eax)
                           .text:01001186 00 00                            add    %al,(%eax)
                           .text:01001188 00 00                            add    %al,(%eax)
                           .text:0100118a 00 00                            add    %al,(%eax)
                           .text:0100118c 2a 2d 00 01 00 00                sub    0x100,%ch
                           .text:01001192 00 00                            add    %al,(%eax)
                           .text:01001194 00 00                            add    %al,(%eax)
                           .text:01001196 00 00                            add    %al,(%eax)
                           .text:01001198 d0 2e                            shrb   (%esi)
                           .text:0100119a 00 01                            add    %al,(%ecx)
                           .text:0100119c ec                               in     (%dx),%al
                           .text:0100119d 2f                               das    
                           .text:0100119e 00 01                            add    %al,(%ecx)
                           .text:010011a0 00 00                            add    %al,(%eax)
                           .text:010011a2 00 00                            add    %al,(%eax)
                           .text:010011a4 00 00                            add    %al,(%eax)
                           .text:010011a6 00 00                            add    %al,(%eax)
                           .text:010011a8 00 00                            add    %al,(%eax)
                           .text:010011aa 00 00                            add    %al,(%eax)
                           .text:010011ac 00 00                            add    %al,(%eax)
                           .text:010011ae 00 00                            add    %al,(%eax)
                           .text:010011b0 00 00                            add    %al,(%eax)
                           .text:010011b2 00 00                            add    %al,(%eax)
                           .text:010011b4 f9                               stc    
                           .text:010011b5 bf 5b 4a 00 00                   mov    $0x4a5b,%edi
                           .text:010011ba 00 00                            add    %al,(%eax)
                           .text:010011bc 02 00                            add    (%eax),%al
                           .text:010011be 00 00                            add    %al,(%eax)
                           .text:010011c0 24 00                            and    $0x0,%al
                           .text:010011c2 00 00                            add    %al,(%eax)
                           .text:010011c4 80 13 00                         adcb   $0x0,(%ebx)
                           .text:010011c7 00 80 07 00 00 0e                add    %al,0xe000007(%eax)
                           .text:010011cd 19 00                            sbb    %eax,(%eax)
                           .text:010011cf 01 4e 2c                         add    %ecx,0x2c(%esi)
                           .text:010011d2 00 01                            add    %al,(%ecx)
                           .text:010011d4 5a                               pop    %edx
                           .text:010011d5 2c 00                            sub    $0x0,%al
                           .text:010011d7 01 66 2c                         add    %esp,0x2c(%esi)
                           .text:010011da 00 01                            add    %al,(%ecx)
                           .text:010011dc 72 2c                            jb     0x0100120a
                           .text:010011de 00 01                            add    %al,(%ecx)
                           .text:010011e0 7e 2c                            jle    0x0100120e
                           .text:010011e2 00 01                            add    %al,(%ecx)
                           .text:010011e4 8a 2c 00                         mov    (%eax,%eax,1),%ch
                           .text:010011e7 01 96 2c 00 01 a2                add    %edx,-0x5dfeffd4(%esi)
                           .text:010011ed 2c 00                            sub    $0x0,%al
                           .text:010011ef 01 ae 2c 00 01 ba                add    %ebp,-0x45feffd4(%esi)
                           .text:010011f5 2c 00                            sub    $0x0,%al
                           .text:010011f7 01 25 57 00 00 2f                add    %esp,0x2f000057
                           .text:010011fd 00 4e 00                         add    %cl,0x0(%esi)
                           .text:01001200 6f                               outsl  %ds:(%esi),(%dx)
                           .text:01001201 00 53 00                         add    %dl,0x0(%ebx)
                           .text:01001204 65 00 63 00                      add    %ah,%gs:0x0(%ebx)
                           .text:01001208 75 00                            jne    0x0100120a
                           .text:0100120a 72 00                            jb     0x0100120c
                           .text:0100120c 69 00 74 00 79 00                imul   $0x790074,(%eax),%eax
                           .text:01001212 00 00                            add    %al,(%eax)
                           .text:01001214 2f                               das    
                           .text:01001215 00 56 00                         add    %dl,0x0(%esi)
                           .text:01001218 00 00                            add    %al,(%eax)
                           .text:0100121a 00 00                            add    %al,(%eax)
                           .text:0100121c 2f                               das    
                           .text:0100121d 00 4e 00                         add    %cl,0x0(%esi)
                           .text:01001220 6f                               outsl  %ds:(%esi),(%dx)
                           .text:01001221 00 43 00                         add    %al,0x0(%ebx)
                           .text:01001224 68 00 6b 00 64                   push   $0x64006b00
                           .text:01001229 00 73 00                         add    %dh,0x0(%ebx)
                           .text:0100122c 6b 00 00                         imul   $0x0,(%eax),%eax
                           .text:0100122f 00 2f                            add    %ch,(%edi)
                           .text:01001231 00 43 00                         add    %al,0x0(%ebx)
                           .text:01001234 56                               push   %esi
                           .text:01001235 00 54 00 41                      add    %dl,0x41(%eax,%eax,1)
                           .text:01001239 00 52 00                         add    %dl,0x0(%edx)
                           .text:0100123c 45                               inc    %ebp
                           .text:0100123d 00 41 00                         add    %al,0x0(%ecx)
                           .text:01001240 3a 00                            cmp    (%eax),%al
                           .text:01001242 00 00                            add    %al,(%eax)
                           .text:01001244 2f                               das    
                           .text:01001245 00 46 00                         add    %al,0x0(%esi)
                           .text:01001248 53                               push   %ebx
                           .text:01001249 00 3a                            add    %bh,(%edx)
                           .text:0100124b 00 00                            add    %al,(%eax)
                           .text:0100124d 00 00                            add    %al,(%eax)
                           .text:0100124f 00 20                            add    %ah,(%eax)
                           .text:01001251 00 00                            add    %al,(%eax)
                           .text:01001253 00 61 00                         add    %ah,0x0(%ecx)
                           .text:01001256 75 00                            jne    0x01001258
                           .text:01001258 74 00                            je     0x0100125a
                           .text:0100125a 6f                               outsl  %ds:(%esi),(%dx)
                           .text:0100125b 00 63 00                         add    %ah,0x0(%ebx)
                           .text:0100125e 68 00 65 00 63                   push   $0x63006500
                           .text:01001263 00 6b 00                         add    %ch,0x0(%ebx)
                           .text:01001266 20 00                            and    %al,(%eax)
                           .text:01001268 61                               popa   
                           .text:01001269 00 75 00                         add    %dh,0x0(%ebp)
                           .text:0100126c 74 00                            je     0x0100126e
                           .text:0100126e 6f                               outsl  %ds:(%esi),(%dx)
                           .text:0100126f 00 63 00                         add    %ah,0x0(%ebx)
                           .text:01001272 6f                               outsl  %ds:(%esi),(%dx)
                           .text:01001273 00 6e 00                         add    %ch,0x0(%esi)
                           .text:01001276 76 00                            jbe    0x01001278
                           .text:01001278 20 00                            and    %al,(%eax)
                           .text:0100127a 00 00                            add    %al,(%eax)
                           .text:0100127c 41                               inc    %ecx
                           .text:0100127d 00 55 00                         add    %dl,0x0(%ebp)
                           .text:01001280 54                               push   %esp
                           .text:01001281 00 4f 00                         add    %cl,0x0(%edi)
                           .text:01001284 43                               inc    %ebx
                           .text:01001285 00 4f 00                         add    %cl,0x0(%edi)
                           .text:01001288 4e                               dec    %esi
                           .text:01001289 00 56 00                         add    %dl,0x0(%esi)
                           .text:0100128c 2e 00 45 00                      add    %al,%cs:0x0(%ebp)
                           .text:01001290 58                               pop    %eax
                           .text:01001291 00 45 00                         add    %al,0x0(%ebp)
                           .text:01001294 00 00                            add    %al,(%eax)
                           .text:01001296 00 00                            add    %al,(%eax)
                           .text:01001298 25 64 00 00 43                   and    $0x43000064,%eax
                           .text:0100129d 6f                               outsl  %ds:(%esi),(%dx)
                           .text:0100129e 6e                               outsb  %ds:(%esi),(%dx)
                           .text:0100129f 76 65                            jbe    0x01001306
                           .text:010012a1 72 74                            jb     0x01001317
                           .text:010012a3 46                               inc    %esi
                           .text:010012a4 41                               inc    %ecx
                           .text:010012a5 54                               push   %esp
                           .text:010012a6 00 00                            add    %al,(%eax)
                           .text:010012a8 25 73 25 57 00                   and    $0x572573,%eax
                           .text:010012ad 00 00                            add    %al,(%eax)
                           .text:010012af 00 43 4f                         add    %al,0x4f(%ebx)
                           .text:010012b2 4e                               dec    %esi
                           .text:010012b3 56                               push   %esi
                           .text:010012b4 45                               inc    %ebp
                           .text:010012b5 52                               push   %edx
                           .text:010012b6 54                               push   %esp
                           .text:010012b7 00 49 73                         add    %cl,0x73(%ecx)
                           .text:010012ba 43                               inc    %ebx
                           .text:010012bb 6f                               outsl  %ds:(%esi),(%dx)
                           .text:010012bc 6e                               outsb  %ds:(%esi),(%dx)
                           .text:010012bd 76 65                            jbe    0x01001324
                           .text:010012bf 72 73                            jb     0x01001334
                           .text:010012c1 69 6f 6e 41 76 61 69             imul   $0x69617641,0x6e(%edi),%ebp
                           .text:010012c8 6c                               insb   (%dx),%es:(%edi)
                           .text:010012c9 61                               popa   
                           .text:010012ca 62 6c 65 00                      bound  %ebp,0x0(%ebp,%eiz,2)
                           .text:010012ce 00 00                            add    %al,(%eax)
                           .text:010012d0 43                               inc    %ebx
                           .text:010012d1 4e                               dec    %esi
                           .text:010012d2 56                               push   %esi
                           .text:010012d3 46                               inc    %esi
                           .text:010012d4 41                               inc    %ecx
                           .text:010012d5 54                               push   %esp
                           .text:010012d6 00 00                            add    %al,(%eax)
                           .text:010012d8 46                               inc    %esi
                           .text:010012d9 41                               inc    %ecx
                           .text:010012da 54                               push   %esp
                           .text:010012db 33 32                            xor    (%edx),%esi
                           .text:010012dd 00 00                            add    %al,(%eax)
                           .text:010012df 00 46 41                         add    %al,0x41(%esi)
                           .text:010012e2 54                               push   %esp
                           .text:010012e3 00 25 57 25 57 00                add    %ah,0x572557
                           .text:010012e9 00 00                            add    %al,(%eax)
                           .text:010012eb 00 00                            add    %al,(%eax)
                           .text:010012ed 00 00                            add    %al,(%eax)
                           .text:010012ef 00 2f                            add    %ch,(%edi)
                           .text:010012f1 43                               inc    %ebx
                           .text:010012f2 56                               push   %esi
                           .text:010012f3 54                               push   %esp
                           .text:010012f4 41                               inc    %ecx
                           .text:010012f5 52                               push   %edx
                           .text:010012f6 45                               inc    %ebp
                           .text:010012f7 41                               inc    %ecx
                           .text:010012f8 3a 2a                            cmp    (%edx),%ch
                           .text:010012fa 00 00                            add    %al,(%eax)
                           .text:010012fc 2f                               das    
                           .text:010012fd 46                               inc    %esi
                           .text:010012fe 53                               push   %ebx
                           .text:010012ff 3a 2a                            cmp    (%edx),%ch
                           .text:01001301 00 00                            add    %al,(%eax)
                           .text:01001303 00 2f                            add    %ch,(%edi)
                           .text:01001305 58                               pop    %eax
                           .text:01001306 00 00                            add    %al,(%eax)
                           .text:01001308 2f                               das    
                           .text:01001309 4e                               dec    %esi
                           .text:0100130a 6f                               outsl  %ds:(%esi),(%dx)
                           .text:0100130b 43                               inc    %ebx
                           .text:0100130c 68 6b 64 73 6b                   push   $0x6b73646b
                           .text:01001311 00 00                            add    %al,(%eax)
                           .text:01001313 00 2f                            add    %ch,(%edi)
                           .text:01001315 4e                               dec    %esi
                           .text:01001316 6f                               outsl  %ds:(%esi),(%dx)
                           .text:01001317 53                               push   %ebx
                           .text:01001318 65 63 75 72                      arpl   %si,%gs:0x72(%ebp)
                           .text:0100131c 69 74 79 00 2f 56 00 00          imul   $0x562f,0x0(%ecx,%edi,2),%esi
                           .text:01001324 2f                               das    
                           .text:01001325 3f                               aas    
                           .text:01001326 00 00                            add    %al,(%eax)
                           .text:01001328 2a 00                            sub    (%eax),%al
                           .text:0100132a 00 00                            add    %al,(%eax)
                           .text:0100132c 20 50 00                         and    %dl,0x0(%eax)
                           .text:0100132f 01 70 50                         add    %esi,0x50(%eax)
                           .text:01001332 00 01                            add    %al,(%ecx)
                           .text:01001334 00 00                            add    %al,(%eax)
                           .text:01001336 00 00                            add    %al,(%eax)
                           .text:01001338 48                               dec    %eax
                           .text:01001339 00 00                            add    %al,(%eax)
                           .text:0100133b 00 00                            add    %al,(%eax)
                           .text:0100133d 00 00                            add    %al,(%eax)
                           .text:0100133f 00 00                            add    %al,(%eax)
                           .text:01001341 00 00                            add    %al,(%eax)
                           .text:01001343 00 00                            add    %al,(%eax)
                           .text:01001345 00 00                            add    %al,(%eax)
                           .text:01001347 00 00                            add    %al,(%eax)
                           .text:01001349 00 00                            add    %al,(%eax)
                           .text:0100134b 00 00                            add    %al,(%eax)
                           .text:0100134d 00 00                            add    %al,(%eax)
                           .text:0100134f 00 00                            add    %al,(%eax)
                           .text:01001351 00 00                            add    %al,(%eax)
                           .text:01001353 00 00                            add    %al,(%eax)
                           .text:01001355 00 00                            add    %al,(%eax)
                           .text:01001357 00 00                            add    %al,(%eax)
                           .text:01001359 00 00                            add    %al,(%eax)
                           .text:0100135b 00 00                            add    %al,(%eax)
                           .text:0100135d 00 00                            add    %al,(%eax)
                           .text:0100135f 00 00                            add    %al,(%eax)
                           .text:01001361 00 00                            add    %al,(%eax)
                           .text:01001363 00 00                            add    %al,(%eax)
                           .text:01001365 00 00                            add    %al,(%eax)
                           .text:01001367 00 00                            add    %al,(%eax)
                           .text:01001369 00 00                            add    %al,(%eax)
                           .text:0100136b 00 00                            add    %al,(%eax)
                           .text:0100136d 00 00                            add    %al,(%eax)
                           .text:0100136f 00 00                            add    %al,(%eax)
                           .text:01001371 00 00                            add    %al,(%eax)
                           .text:01001373 00 00                            add    %al,(%eax)
                           .text:01001375 50                               push   %eax
                           .text:01001376 00 01                            add    %al,(%ecx)
                           .text:01001378 b0 13                            mov    $0x13,%al
                           .text:0100137a 00 01                            add    %al,(%ecx)
                           .text:0100137c 01 00                            add    %eax,(%eax)
                           .text:0100137e 00 00                            add    %al,(%eax)
                           .text:01001380 52                               push   %edx
                           .text:01001381 53                               push   %ebx
                           .text:01001382 44                               inc    %esp
                           .text:01001383 53                               push   %ebx
                           .text:01001384 69 59 c1 ee e7 4d 5a             imul   $0x5a4de7ee,-0x3f(%ecx),%ebx
                           .text:0100138b 41                               inc    %ecx
                           .text:0100138c 8c 13                            mov    %ss,(%ebx)
                           .text:0100138e 4f                               dec    %edi
                           .text:0100138f 35 63 b4 35 21                   xor    $0x2135b463,%eax
                           .text:01001394 01 00                            add    %eax,(%eax)
                           .text:01001396 00 00                            add    %al,(%eax)
                           .text:01001398 63 6f 6e                         arpl   %bp,0x6e(%edi)
                           .text:0100139b 76 65                            jbe    0x01001402
                           .text:0100139d 72 74                            jb     0x01001413
                           .text:0100139f 2e 70 64                         jo,pn  0x01001406
                           .text:010013a2 62 00                            bound  %eax,(%eax)
                           .text:010013a4 00 00                            add    %al,(%eax)
                           .text:010013a6 00 00                            add    %al,(%eax)
                           .text:010013a8 00 00                            add    %al,(%eax)
                           .text:010013aa 00 00                            add    %al,(%eax)
                           .text:010013ac 00 00                            add    %al,(%eax)
                           .text:010013ae 00 00                            add    %al,(%eax)
                           .text:010013b0 82                               (bad)  
                           .text:010013b1 31 00                            xor    %eax,(%eax)
                           .text:010013b3 00 00                            add    %al,(%eax)
                           .text:010013b5 00 00                            add    %al,(%eax)
                           .text:010013b7 00 00                            add    %al,(%eax)
                           .text:010013b9 00 00                            add    %al,(%eax)
                           .text:010013bb 00 00                            add    %al,(%eax)
                           .text:010013bd 00 00                            add    %al,(%eax)
                           .text:010013bf 00 00                            add    %al,(%eax)
                           .text:010013c1 00 00                            add    %al,(%eax)
                           .text:010013c3 00 00                            add    %al,(%eax)
                           .text:010013c5 8b ff                            mov    %edi,%edi
                           .text:010013c7 55                               push   %ebp
                           .text:010013c8 8b ec                            mov    %esp,%ebp
                           .text:010013ca ff 75 08                         pushl  0x8(%ebp)
                           .text:010013cd 64 a1 18 00 00 00                mov    %fs:0x18,%eax
                           .text:010013d3 8b 40 30                         mov    0x30(%eax),%eax
                           .text:010013d6 6a 00                            push   $0x0
                           .text:010013d8 ff 70 18                         pushl  0x18(%eax)
                           .text:010013db ff 15 a4 10 00 01                call   *0x10010a4
                           .text:010013e1 5d                               pop    %ebp
                           .text:010013e2 c3                               ret    
                           .text:010013e3 cc                               int3   
                           .text:010013e4 cc                               int3   
                           .text:010013e5 cc                               int3   
                           .text:010013e6 cc                               int3   
                           .text:010013e7 cc                               int3   
                           .text:010013e8 8b ff                            mov    %edi,%edi
                           .text:010013ea 55                               push   %ebp
                           .text:010013eb 8b ec                            mov    %esp,%ebp
                           .text:010013ed 83 7d 08 00                      cmpl   $0x0,0x8(%ebp)
                           .text:010013f1 74 17                            je     0x0100140a
                           .text:010013f3 ff 75 08                         pushl  0x8(%ebp)
                           .text:010013f6 64 a1 18 00 00 00                mov    %fs:0x18,%eax
                           .text:010013fc 8b 40 30                         mov    0x30(%eax),%eax
                           .text:010013ff 6a 00                            push   $0x0
                           .text:01001401 ff 70 18                         pushl  0x18(%eax)
                           .text:01001404 ff 15 a0 10 00 01                call   *0x10010a0
                           .text:0100140a 5d                               pop    %ebp
                           .text:0100140b c3                               ret    
                           .text:0100140c cc                               int3   
                           .text:0100140d cc                               int3   
                           .text:0100140e cc                               int3   
                           .text:0100140f cc                               int3   
                           .text:01001410 cc                               int3   
                           .text:01001411 8b ff                            mov    %edi,%edi
                           .text:01001413 56                               push   %esi
                           .text:01001414 57                               push   %edi
                           .text:01001415 8b f9                            mov    %ecx,%edi
                           .text:01001417 8d b7 6c 03 00 00                lea    0x36c(%edi),%esi
                           .text:0100141d 8b 0e                            mov    (%esi),%ecx
                           .text:0100141f 85 c9                            test   %ecx,%ecx
                           .text:01001421 74 06                            je     0x01001429
                           .text:01001423 8b 01                            mov    (%ecx),%eax
                           .text:01001425 6a 01                            push   $0x1
                           .text:01001427 ff 10                            call   *(%eax)
                           .text:01001429 83 26 00                         andl   $0x0,(%esi)
                           .text:0100142c 8d b7 70 03 00 00                lea    0x370(%edi),%esi
                           .text:01001432 8b 0e                            mov    (%esi),%ecx
                           .text:01001434 85 c9                            test   %ecx,%ecx
                           .text:01001436 74 06                            je     0x0100143e
                           .text:01001438 8b 01                            mov    (%ecx),%eax
                           .text:0100143a 6a 01                            push   $0x1
                           .text:0100143c ff 10                            call   *(%eax)
                           .text:0100143e 83 26 00                         andl   $0x0,(%esi)
                           .text:01001441 5f                               pop    %edi
                           .text:01001442 5e                               pop    %esi
                           .text:01001443 c3                               ret    
                           .text:01001444 cc                               int3   
                           .text:01001445 cc                               int3   
                           .text:01001446 cc                               int3   
                           .text:01001447 cc                               int3   
                           .text:01001448 cc                               int3   
                           .text:01001449 8b ff                            mov    %edi,%edi
                           .text:0100144b 56                               push   %esi
                           .text:0100144c 8b f1                            mov    %ecx,%esi
                           .text:0100144e 57                               push   %edi
                           .text:0100144f c7 06 cc 11 00 01                movl   $0x10011cc,(%esi)
                           .text:01001455 e8 b7 ff ff ff                   call   0x01001411
                           .text:0100145a 8b 3d 74 11 00 01                mov    0x1001174,%edi
                           .text:01001460 8d 8e 40 03 00 00                lea    0x340(%esi),%ecx
                           .text:01001466 ff d7                            call   *%edi
                           .text:01001468 8d 8e 28 03 00 00                lea    0x328(%esi),%ecx
                           .text:0100146e ff d7                            call   *%edi
                           .text:01001470 8d 8e 10 03 00 00                lea    0x310(%esi),%ecx
                           .text:01001476 ff d7                            call   *%edi
                           .text:01001478 8d 8e d0 00 00 00                lea    0xd0(%esi),%ecx
                           .text:0100147e ff 15 78 11 00 01                call   *0x1001178
                           .text:01001484 8d 8e b8 00 00 00                lea    0xb8(%esi),%ecx
                           .text:0100148a ff d7                            call   *%edi
                           .text:0100148c 8d 8e a0 00 00 00                lea    0xa0(%esi),%ecx
                           .text:01001492 ff d7                            call   *%edi
                           .text:01001494 8d 8e 88 00 00 00                lea    0x88(%esi),%ecx
                           .text:0100149a ff d7                            call   *%edi
                           .text:0100149c 5f                               pop    %edi
                           .text:0100149d 8b ce                            mov    %esi,%ecx
                           .text:0100149f 5e                               pop    %esi
                           .text:010014a0 ff 25 80 11 00 01                jmp    *0x1001180
                           .text:010014a6 cc                               int3   
                           .text:010014a7 cc                               int3   
                           .text:010014a8 cc                               int3   
                           .text:010014a9 cc                               int3   
                           .text:010014aa cc                               int3   
                           .text:010014ab 8b ff                            mov    %edi,%edi
                           .text:010014ad 55                               push   %ebp
                           .text:010014ae 8b ec                            mov    %esp,%ebp
                           .text:010014b0 83 ec 18                         sub    $0x18,%esp
                           .text:010014b3 56                               push   %esi
                           .text:010014b4 57                               push   %edi
                           .text:010014b5 8b f9                            mov    %ecx,%edi
                           .text:010014b7 8d 4d e8                         lea    -0x18(%ebp),%ecx
                           .text:010014ba ff 15 d8 10 00 01                call   *0x10010d8
                           .text:010014c0 ff 15 dc 10 00 01                call   *0x10010dc
                           .text:010014c6 8b f0                            mov    %eax,%esi
                           .text:010014c8 85 f6                            test   %esi,%esi
                           .text:010014ca 75 10                            jne    0x010014dc
                           .text:010014cc 8b 07                            mov    (%edi),%eax
                           .text:010014ce 6a 01                            push   $0x1
                           .text:010014d0 68 9c 75 00 00                   push   $0x759c
                           .text:010014d5 8b cf                            mov    %edi,%ecx
                           .text:010014d7 ff 50 0c                         call   *0xc(%eax)
                           .text:010014da eb 7c                            jmp    0x01001558
                           .text:010014dc 6a ff                            push   $0xffffffff
                           .text:010014de ff 75 08                         pushl  0x8(%ebp)
                           .text:010014e1 8d 4d e8                         lea    -0x18(%ebp),%ecx
                           .text:010014e4 ff 15 f4 10 00 01                call   *0x10010f4
                           .text:010014ea 84 c0                            test   %al,%al
                           .text:010014ec 74 54                            je     0x01001542
                           .text:010014ee 6a 00                            push   $0x0
                           .text:010014f0 8d 45 e8                         lea    -0x18(%ebp),%eax
                           .text:010014f3 50                               push   %eax
                           .text:010014f4 8b ce                            mov    %esi,%ecx
                           .text:010014f6 ff 15 f8 10 00 01                call   *0x10010f8
                           .text:010014fc 84 c0                            test   %al,%al
                           .text:010014fe 74 42                            je     0x01001542
                           .text:01001500 6a 00                            push   $0x0
                           .text:01001502 6a 00                            push   $0x0
                           .text:01001504 56                               push   %esi
                           .text:01001505 ff 15 fc 10 00 01                call   *0x10010fc
                           .text:0100150b 85 c0                            test   %eax,%eax
                           .text:0100150d 75 1e                            jne    0x0100152d
                           .text:0100150f 8b 07                            mov    (%edi),%eax
                           .text:01001511 8d 8e 10 02 00 00                lea    0x210(%esi),%ecx
                           .text:01001517 51                               push   %ecx
                           .text:01001518 68 f8 11 00 01                   push   $0x10011f8
                           .text:0100151d 6a 01                            push   $0x1
                           .text:0100151f 68 9d 75 00 00                   push   $0x759d
                           .text:01001524 57                               push   %edi
                           .text:01001525 ff 50 08                         call   *0x8(%eax)
                           .text:01001528 83 c4 14                         add    $0x14,%esp
                           .text:0100152b eb 23                            jmp    0x01001550
                           .text:0100152d 8b 10                            mov    (%eax),%edx
                           .text:0100152f 6a 01                            push   $0x1
                           .text:01001531 8b c8                            mov    %eax,%ecx
                           .text:01001533 ff 12                            call   *(%edx)
                           .text:01001535 8d 4d e8                         lea    -0x18(%ebp),%ecx
                           .text:01001538 ff 15 74 11 00 01                call   *0x1001174
                           .text:0100153e 8b c6                            mov    %esi,%eax
                           .text:01001540 eb 21                            jmp    0x01001563
                           .text:01001542 8b 07                            mov    (%edi),%eax
                           .text:01001544 6a 01                            push   $0x1
                           .text:01001546 68 c8 75 00 00                   push   $0x75c8
                           .text:0100154b 8b cf                            mov    %edi,%ecx
                           .text:0100154d ff 50 0c                         call   *0xc(%eax)
                           .text:01001550 8b 06                            mov    (%esi),%eax
                           .text:01001552 6a 01                            push   $0x1
                           .text:01001554 8b ce                            mov    %esi,%ecx
                           .text:01001556 ff 10                            call   *(%eax)
                           .text:01001558 8d 4d e8                         lea    -0x18(%ebp),%ecx
                           .text:0100155b ff 15 74 11 00 01                call   *0x1001174
                           .text:01001561 33 c0                            xor    %eax,%eax
                           .text:01001563 5f                               pop    %edi
                           .text:01001564 5e                               pop    %esi
                           .text:01001565 c9                               leave  
                           .text:01001566 c2 04 00                         ret    $0x4
                           .text:01001569 cc                               int3   
                           .text:0100156a cc                               int3   
                           .text:0100156b cc                               int3   
                           .text:0100156c cc                               int3   
                           .text:0100156d cc                               int3   
                           .text:0100156e 8b ff                            mov    %edi,%edi
                           .text:01001570 56                               push   %esi
                           .text:01001571 8b f1                            mov    %ecx,%esi
                           .text:01001573 8d 4e 10                         lea    0x10(%esi),%ecx
                           .text:01001576 ff 15 74 11 00 01                call   *0x1001174
                           .text:0100157c 8b ce                            mov    %esi,%ecx
                           .text:0100157e 5e                               pop    %esi
                           .text:0100157f ff 25 d4 10 00 01                jmp    *0x10010d4
                           .text:01001585 cc                               int3   
                           .text:01001586 cc                               int3   
                           .text:01001587 cc                               int3   
                           .text:01001588 cc                               int3   
                           .text:01001589 cc                               int3   
                           .text:0100158a 8b ff                            mov    %edi,%edi
                           .text:0100158c 55                               push   %ebp
                           .text:0100158d 8b ec                            mov    %esp,%ebp
                           .text:0100158f 81 ec a8 00 00 00                sub    $0xa8,%esp
                           .text:01001595 53                               push   %ebx
                           .text:01001596 56                               push   %esi
                           .text:01001597 8b 35 d8 10 00 01                mov    0x10010d8,%esi
                           .text:0100159d 8b d9                            mov    %ecx,%ebx
                           .text:0100159f 57                               push   %edi
                           .text:010015a0 8d 4d e8                         lea    -0x18(%ebp),%ecx
                           .text:010015a3 ff d6                            call   *%esi
                           .text:010015a5 8d 4d d0                         lea    -0x30(%ebp),%ecx
                           .text:010015a8 ff d6                            call   *%esi
                           .text:010015aa 8d 8d 58 ff ff ff                lea    -0xa8(%ebp),%ecx
                           .text:010015b0 ff d6                            call   *%esi
                           .text:010015b2 8d 4d 88                         lea    -0x78(%ebp),%ecx
                           .text:010015b5 ff d6                            call   *%esi
                           .text:010015b7 8d 4d a0                         lea    -0x60(%ebp),%ecx
                           .text:010015ba ff d6                            call   *%esi
                           .text:010015bc 8d 4d b8                         lea    -0x48(%ebp),%ecx
                           .text:010015bf ff d6                            call   *%esi
                           .text:010015c1 8d 8d 70 ff ff ff                lea    -0x90(%ebp),%ecx
                           .text:010015c7 ff d6                            call   *%esi
                           .text:010015c9 8b 3d f4 10 00 01                mov    0x10010f4,%edi
                           .text:010015cf 6a ff                            push   $0xffffffff
                           .text:010015d1 68 54 12 00 01                   push   $0x1001254
                           .text:010015d6 8d 4d e8                         lea    -0x18(%ebp),%ecx
                           .text:010015d9 ff d7                            call   *%edi
                           .text:010015db 84 c0                            test   %al,%al
                           .text:010015dd 0f 84 c3 01 00 00                je     0x010017a6
                           .text:010015e3 6a ff                            push   $0xffffffff
                           .text:010015e5 68 50 12 00 01                   push   $0x1001250
                           .text:010015ea 8d 4d d0                         lea    -0x30(%ebp),%ecx
                           .text:010015ed ff d7                            call   *%edi
                           .text:010015ef 84 c0                            test   %al,%al
                           .text:010015f1 0f 84 af 01 00 00                je     0x010017a6
                           .text:010015f7 6a ff                            push   $0xffffffff
                           .text:010015f9 68 44 12 00 01                   push   $0x1001244
                           .text:010015fe 8d 8d 58 ff ff ff                lea    -0xa8(%ebp),%ecx
                           .text:01001604 ff d7                            call   *%edi
                           .text:01001606 84 c0                            test   %al,%al
                           .text:01001608 0f 84 98 01 00 00                je     0x010017a6
                           .text:0100160e 8b 35 68 11 00 01                mov    0x1001168,%esi
                           .text:01001614 8d 83 10 03 00 00                lea    0x310(%ebx),%eax
                           .text:0100161a 50                               push   %eax
                           .text:0100161b 8d 4d e8                         lea    -0x18(%ebp),%ecx
                           .text:0100161e ff d6                            call   *%esi
                           .text:01001620 84 c0                            test   %al,%al
                           .text:01001622 0f 84 7e 01 00 00                je     0x010017a6
                           .text:01001628 8d 45 d0                         lea    -0x30(%ebp),%eax
                           .text:0100162b 50                               push   %eax
                           .text:0100162c 8d 4d e8                         lea    -0x18(%ebp),%ecx
                           .text:0100162f ff d6                            call   *%esi
                           .text:01001631 84 c0                            test   %al,%al
                           .text:01001633 0f 84 6d 01 00 00                je     0x010017a6
                           .text:01001639 8d 85 58 ff ff ff                lea    -0xa8(%ebp),%eax
                           .text:0100163f 50                               push   %eax
                           .text:01001640 8d 4d e8                         lea    -0x18(%ebp),%ecx
                           .text:01001643 ff d6                            call   *%esi
                           .text:01001645 84 c0                            test   %al,%al
                           .text:01001647 0f 84 59 01 00 00                je     0x010017a6
                           .text:0100164d 8d 83 28 03 00 00                lea    0x328(%ebx),%eax
                           .text:01001653 50                               push   %eax
                           .text:01001654 8d 4d e8                         lea    -0x18(%ebp),%ecx
                           .text:01001657 ff d6                            call   *%esi
                           .text:01001659 84 c0                            test   %al,%al
                           .text:0100165b 0f 84 45 01 00 00                je     0x010017a6
                           .text:01001661 83 bb 4c 03 00 00 00             cmpl   $0x0,0x34c(%ebx)
                           .text:01001668 74 4a                            je     0x010016b4
                           .text:0100166a 8d 45 d0                         lea    -0x30(%ebp),%eax
                           .text:0100166d 50                               push   %eax
                           .text:0100166e 8d 4d e8                         lea    -0x18(%ebp),%ecx
                           .text:01001671 ff d6                            call   *%esi
                           .text:01001673 84 c0                            test   %al,%al
                           .text:01001675 0f 84 2b 01 00 00                je     0x010017a6
                           .text:0100167b 6a ff                            push   $0xffffffff
                           .text:0100167d 68 30 12 00 01                   push   $0x1001230
                           .text:01001682 8d 4d 88                         lea    -0x78(%ebp),%ecx
                           .text:01001685 ff d7                            call   *%edi
                           .text:01001687 84 c0                            test   %al,%al
                           .text:01001689 0f 84 17 01 00 00                je     0x010017a6
                           .text:0100168f 8d 45 88                         lea    -0x78(%ebp),%eax
                           .text:01001692 50                               push   %eax
                           .text:01001693 8d 4d e8                         lea    -0x18(%ebp),%ecx
                           .text:01001696 ff d6                            call   *%esi
                           .text:01001698 84 c0                            test   %al,%al
                           .text:0100169a 0f 84 06 01 00 00                je     0x010017a6
                           .text:010016a0 8d 83 40 03 00 00                lea    0x340(%ebx),%eax
                           .text:010016a6 50                               push   %eax
                           .text:010016a7 8d 4d e8                         lea    -0x18(%ebp),%ecx
                           .text:010016aa ff d6                            call   *%esi
                           .text:010016ac 84 c0                            test   %al,%al
                           .text:010016ae 0f 84 f2 00 00 00                je     0x010017a6
                           .text:010016b4 80 bb 5a 03 00 00 00             cmpb   $0x0,0x35a(%ebx)
                           .text:010016bb 74 36                            je     0x010016f3
                           .text:010016bd 8d 45 d0                         lea    -0x30(%ebp),%eax
                           .text:010016c0 50                               push   %eax
                           .text:010016c1 8d 4d e8                         lea    -0x18(%ebp),%ecx
                           .text:010016c4 ff d6                            call   *%esi
                           .text:010016c6 84 c0                            test   %al,%al
                           .text:010016c8 0f 84 d8 00 00 00                je     0x010017a6
                           .text:010016ce 6a ff                            push   $0xffffffff
                           .text:010016d0 68 1c 12 00 01                   push   $0x100121c
                           .text:010016d5 8d 4d a0                         lea    -0x60(%ebp),%ecx
                           .text:010016d8 ff d7                            call   *%edi
                           .text:010016da 84 c0                            test   %al,%al
                           .text:010016dc 0f 84 c4 00 00 00                je     0x010017a6
                           .text:010016e2 8d 45 a0                         lea    -0x60(%ebp),%eax
                           .text:010016e5 50                               push   %eax
                           .text:010016e6 8d 4d e8                         lea    -0x18(%ebp),%ecx
                           .text:010016e9 ff d6                            call   *%esi
                           .text:010016eb 84 c0                            test   %al,%al
                           .text:010016ed 0f 84 b3 00 00 00                je     0x010017a6
                           .text:010016f3 80 bb 58 03 00 00 00             cmpb   $0x0,0x358(%ebx)
                           .text:010016fa 74 32                            je     0x0100172e
                           .text:010016fc 8d 45 d0                         lea    -0x30(%ebp),%eax
                           .text:010016ff 50                               push   %eax
                           .text:01001700 8d 4d e8                         lea    -0x18(%ebp),%ecx
                           .text:01001703 ff d6                            call   *%esi
                           .text:01001705 84 c0                            test   %al,%al
                           .text:01001707 0f 84 99 00 00 00                je     0x010017a6
                           .text:0100170d 6a ff                            push   $0xffffffff
                           .text:0100170f 68 14 12 00 01                   push   $0x1001214
                           .text:01001714 8d 4d b8                         lea    -0x48(%ebp),%ecx
                           .text:01001717 ff d7                            call   *%edi
                           .text:01001719 84 c0                            test   %al,%al
                           .text:0100171b 0f 84 85 00 00 00                je     0x010017a6
                           .text:01001721 8d 45 b8                         lea    -0x48(%ebp),%eax
                           .text:01001724 50                               push   %eax
                           .text:01001725 8d 4d e8                         lea    -0x18(%ebp),%ecx
                           .text:01001728 ff d6                            call   *%esi
                           .text:0100172a 84 c0                            test   %al,%al
                           .text:0100172c 74 78                            je     0x010017a6
                           .text:0100172e 80 bb 59 03 00 00 00             cmpb   $0x0,0x359(%ebx)
                           .text:01001735 74 30                            je     0x01001767
                           .text:01001737 8d 45 d0                         lea    -0x30(%ebp),%eax
                           .text:0100173a 50                               push   %eax
                           .text:0100173b 8d 4d e8                         lea    -0x18(%ebp),%ecx
                           .text:0100173e ff d6                            call   *%esi
                           .text:01001740 84 c0                            test   %al,%al
                           .text:01001742 74 62                            je     0x010017a6
                           .text:01001744 6a ff                            push   $0xffffffff
                           .text:01001746 68 fc 11 00 01                   push   $0x10011fc
                           .text:0100174b 8d 8d 70 ff ff ff                lea    -0x90(%ebp),%ecx
                           .text:01001751 ff d7                            call   *%edi
                           .text:01001753 84 c0                            test   %al,%al
                           .text:01001755 74 4f                            je     0x010017a6
                           .text:01001757 8d 85 70 ff ff ff                lea    -0x90(%ebp),%eax
                           .text:0100175d 50                               push   %eax
                           .text:0100175e 8d 4d e8                         lea    -0x18(%ebp),%ecx
                           .text:01001761 ff d6                            call   *%esi
                           .text:01001763 84 c0                            test   %al,%al
                           .text:01001765 74 3f                            je     0x010017a6
                           .text:01001767 8d 45 e8                         lea    -0x18(%ebp),%eax
                           .text:0100176a 50                               push   %eax
                           .text:0100176b ff 15 50 10 00 01                call   *0x1001050
                           .text:01001771 8b 35 74 11 00 01                mov    0x1001174,%esi
                           .text:01001777 8d 8d 70 ff ff ff                lea    -0x90(%ebp),%ecx
                           .text:0100177d 8a d8                            mov    %al,%bl
                           .text:0100177f ff d6                            call   *%esi
                           .text:01001781 8d 4d b8                         lea    -0x48(%ebp),%ecx
                           .text:01001784 ff d6                            call   *%esi
                           .text:01001786 8d 4d a0                         lea    -0x60(%ebp),%ecx
                           .text:01001789 ff d6                            call   *%esi
                           .text:0100178b 8d 4d 88                         lea    -0x78(%ebp),%ecx
                           .text:0100178e ff d6                            call   *%esi
                           .text:01001790 8d 8d 58 ff ff ff                lea    -0xa8(%ebp),%ecx
                           .text:01001796 ff d6                            call   *%esi
                           .text:01001798 8d 4d d0                         lea    -0x30(%ebp),%ecx
                           .text:0100179b ff d6                            call   *%esi
                           .text:0100179d 8d 4d e8                         lea    -0x18(%ebp),%ecx
                           .text:010017a0 ff d6                            call   *%esi
                           .text:010017a2 8a c3                            mov    %bl,%al
                           .text:010017a4 eb 31                            jmp    0x010017d7
                           .text:010017a6 8b 35 74 11 00 01                mov    0x1001174,%esi
                           .text:010017ac 8d 8d 70 ff ff ff                lea    -0x90(%ebp),%ecx
                           .text:010017b2 ff d6                            call   *%esi
                           .text:010017b4 8d 4d b8                         lea    -0x48(%ebp),%ecx
                           .text:010017b7 ff d6                            call   *%esi
                           .text:010017b9 8d 4d a0                         lea    -0x60(%ebp),%ecx
                           .text:010017bc ff d6                            call   *%esi
                           .text:010017be 8d 4d 88                         lea    -0x78(%ebp),%ecx
                           .text:010017c1 ff d6                            call   *%esi
                           .text:010017c3 8d 8d 58 ff ff ff                lea    -0xa8(%ebp),%ecx
                           .text:010017c9 ff d6                            call   *%esi
                           .text:010017cb 8d 4d d0                         lea    -0x30(%ebp),%ecx
                           .text:010017ce ff d6                            call   *%esi
                           .text:010017d0 8d 4d e8                         lea    -0x18(%ebp),%ecx
                           .text:010017d3 ff d6                            call   *%esi
                           .text:010017d5 32 c0                            xor    %al,%al
                           .text:010017d7 5f                               pop    %edi
                           .text:010017d8 5e                               pop    %esi
                           .text:010017d9 5b                               pop    %ebx
                           .text:010017da c9                               leave  
                           .text:010017db c3                               ret    
                           .text:010017dc cc                               int3   
                           .text:010017dd cc                               int3   
                           .text:010017de cc                               int3   
                           .text:010017df cc                               int3   
                           .text:010017e0 cc                               int3   
                           .text:010017e1 8b ff                            mov    %edi,%edi
                           .text:010017e3 55                               push   %ebp
                           .text:010017e4 8b ec                            mov    %esp,%ebp
                           .text:010017e6 83 ec 30                         sub    $0x30,%esp
                           .text:010017e9 56                               push   %esi
                           .text:010017ea 57                               push   %edi
                           .text:010017eb 8b 3d d8 10 00 01                mov    0x10010d8,%edi
                           .text:010017f1 8b f1                            mov    %ecx,%esi
                           .text:010017f3 8d 4d e8                         lea    -0x18(%ebp),%ecx
                           .text:010017f6 ff d7                            call   *%edi
                           .text:010017f8 8d 4d d0                         lea    -0x30(%ebp),%ecx
                           .text:010017fb ff d7                            call   *%edi
                           .text:010017fd 6a ff                            push   $0xffffffff
                           .text:010017ff 68 54 12 00 01                   push   $0x1001254
                           .text:01001804 8d 4d e8                         lea    -0x18(%ebp),%ecx
                           .text:01001807 ff 15 f4 10 00 01                call   *0x10010f4
                           .text:0100180d 84 c0                            test   %al,%al
                           .text:0100180f 75 16                            jne    0x01001827
                           .text:01001811 8b 35 74 11 00 01                mov    0x1001174,%esi
                           .text:01001817 8d 4d d0                         lea    -0x30(%ebp),%ecx
                           .text:0100181a ff d6                            call   *%esi
                           .text:0100181c 8d 4d e8                         lea    -0x18(%ebp),%ecx
                           .text:0100181f ff d6                            call   *%esi
                           .text:01001821 32 c0                            xor    %al,%al
                           .text:01001823 5f                               pop    %edi
                           .text:01001824 5e                               pop    %esi
                           .text:01001825 c9                               leave  
                           .text:01001826 c3                               ret    
                           .text:01001827 8b 3d 3c 10 00 01                mov    0x100103c,%edi
                           .text:0100182d 8d 86 10 03 00 00                lea    0x310(%esi),%eax
                           .text:01001833 50                               push   %eax
                           .text:01001834 8d 45 e8                         lea    -0x18(%ebp),%eax
                           .text:01001837 50                               push   %eax
                           .text:01001838 ff d7                            call   *%edi
                           .text:0100183a 84 c0                            test   %al,%al
                           .text:0100183c 74 d3                            je     0x01001811
                           .text:0100183e ff b6 c0 00 00 00                pushl  0xc0(%esi)
                           .text:01001844 ff b6 a8 00 00 00                pushl  0xa8(%esi)
                           .text:0100184a ff 15 94 10 00 01                call   *0x1001094
                           .text:01001850 59                               pop    %ecx
                           .text:01001851 59                               pop    %ecx
                           .text:01001852 85 c0                            test   %eax,%eax
                           .text:01001854 74 bb                            je     0x01001811
                           .text:01001856 8d 45 d0                         lea    -0x30(%ebp),%eax
                           .text:01001859 50                               push   %eax
                           .text:0100185a 81 c6 b8 00 00 00                add    $0xb8,%esi
                           .text:01001860 56                               push   %esi
                           .text:01001861 ff 15 4c 10 00 01                call   *0x100104c
                           .text:01001867 84 c0                            test   %al,%al
                           .text:01001869 74 a6                            je     0x01001811
                           .text:0100186b 53                               push   %ebx
                           .text:0100186c 8d 45 d0                         lea    -0x30(%ebp),%eax
                           .text:0100186f 50                               push   %eax
                           .text:01001870 8d 45 e8                         lea    -0x18(%ebp),%eax
                           .text:01001873 50                               push   %eax
                           .text:01001874 ff d7                            call   *%edi
                           .text:01001876 84 c0                            test   %al,%al
                           .text:01001878 75 17                            jne    0x01001891
                           .text:0100187a 32 db                            xor    %bl,%bl
                           .text:0100187c 8b 35 74 11 00 01                mov    0x1001174,%esi
                           .text:01001882 8d 4d d0                         lea    -0x30(%ebp),%ecx
                           .text:01001885 ff d6                            call   *%esi
                           .text:01001887 8d 4d e8                         lea    -0x18(%ebp),%ecx
                           .text:0100188a ff d6                            call   *%esi
                           .text:0100188c 8a c3                            mov    %bl,%al
                           .text:0100188e 5b                               pop    %ebx
                           .text:0100188f eb 92                            jmp    0x01001823
                           .text:01001891 b3 01                            mov    $0x1,%bl
                           .text:01001893 eb e7                            jmp    0x0100187c
                           .text:01001895 cc                               int3   
                           .text:01001896 cc                               int3   
                           .text:01001897 cc                               int3   
                           .text:01001898 cc                               int3   
                           .text:01001899 cc                               int3   
                           .text:0100189a 8b ff                            mov    %edi,%edi
                           .text:0100189c 56                               push   %esi
                           .text:0100189d 57                               push   %edi
                           .text:0100189e 8b f1                            mov    %ecx,%esi
                           .text:010018a0 ff 15 c0 10 00 01                call   *0x10010c0
                           .text:010018a6 8b 3d d8 10 00 01                mov    0x10010d8,%edi
                           .text:010018ac 8d 8e 88 00 00 00                lea    0x88(%esi),%ecx
                           .text:010018b2 c7 06 cc 11 00 01                movl   $0x10011cc,(%esi)
                           .text:010018b8 ff d7                            call   *%edi
                           .text:010018ba 8d 8e a0 00 00 00                lea    0xa0(%esi),%ecx
                           .text:010018c0 ff d7                            call   *%edi
                           .text:010018c2 8d 8e b8 00 00 00                lea    0xb8(%esi),%ecx
                           .text:010018c8 ff d7                            call   *%edi
                           .text:010018ca 8d 8e d0 00 00 00                lea    0xd0(%esi),%ecx
                           .text:010018d0 ff 15 ec 10 00 01                call   *0x10010ec
                           .text:010018d6 8d 8e 10 03 00 00                lea    0x310(%esi),%ecx
                           .text:010018dc ff d7                            call   *%edi
                           .text:010018de 8d 8e 28 03 00 00                lea    0x328(%esi),%ecx
                           .text:010018e4 ff d7                            call   *%edi
                           .text:010018e6 8d 8e 40 03 00 00                lea    0x340(%esi),%ecx
                           .text:010018ec ff d7                            call   *%edi
                           .text:010018ee a1 18 50 00 01                   mov    0x1005018,%eax
                           .text:010018f3 83 a6 6c 03 00 00 00             andl   $0x0,0x36c(%esi)
                           .text:010018fa 83 a6 70 03 00 00 00             andl   $0x0,0x370(%esi)
                           .text:01001901 89 46 04                         mov    %eax,0x4(%esi)
                           .text:01001904 5f                               pop    %edi
                           .text:01001905 8b c6                            mov    %esi,%eax
                           .text:01001907 5e                               pop    %esi
                           .text:01001908 c3                               ret    
                           .text:01001909 cc                               int3   
                           .text:0100190a cc                               int3   
                           .text:0100190b cc                               int3   
                           .text:0100190c cc                               int3   
                           .text:0100190d cc                               int3   
                           .text:0100190e 8b ff                            mov    %edi,%edi
                           .text:01001910 55                               push   %ebp
                           .text:01001911 8b ec                            mov    %esp,%ebp
                           .text:01001913 56                               push   %esi
                           .text:01001914 8b f1                            mov    %ecx,%esi
                           .text:01001916 e8 2e fb ff ff                   call   0x01001449
                           .text:0100191b f6 45 08 01                      testb  $0x1,0x8(%ebp)
                           .text:0100191f 74 07                            je     0x01001928
                           .text:01001921 56                               push   %esi
                           .text:01001922 e8 c1 fa ff ff                   call   0x010013e8
                           .text:01001927 59                               pop    %ecx
                           .text:01001928 8b c6                            mov    %esi,%eax
                           .text:0100192a 5e                               pop    %esi
                           .text:0100192b 5d                               pop    %ebp
                           .text:0100192c c2 04 00                         ret    $0x4
                           .text:0100192f cc                               int3   
                           .text:01001930 cc                               int3   
                           .text:01001931 cc                               int3   
                           .text:01001932 cc                               int3   
                           .text:01001933 cc                               int3   
                           .text:01001934 8b ff                            mov    %edi,%edi
                           .text:01001936 56                               push   %esi
                           .text:01001937 68 7c 12 00 01                   push   $0x100127c
                           .text:0100193c 8b f1                            mov    %ecx,%esi
                           .text:0100193e e8 68 fb ff ff                   call   0x010014ab
                           .text:01001943 89 86 70 03 00 00                mov    %eax,0x370(%esi)
                           .text:01001949 8b ce                            mov    %esi,%ecx
                           .text:0100194b 85 c0                            test   %eax,%eax
                           .text:0100194d 75 10                            jne    0x0100195f
                           .text:0100194f 8b 06                            mov    (%esi),%eax
                           .text:01001951 6a 01                            push   $0x1
                           .text:01001953 68 9e 75 00 00                   push   $0x759e
                           .text:01001958 ff 50 0c                         call   *0xc(%eax)
                           .text:0100195b 32 c0                            xor    %al,%al
                           .text:0100195d 5e                               pop    %esi
                           .text:0100195e c3                               ret    
                           .text:0100195f e8 7d fe ff ff                   call   0x010017e1
                           .text:01001964 8b ce                            mov    %esi,%ecx
                           .text:01001966 84 c0                            test   %al,%al
                           .text:01001968 74 e5                            je     0x0100194f
                           .text:0100196a 53                               push   %ebx
                           .text:0100196b e8 1a fc ff ff                   call   0x0100158a
                           .text:01001970 8a d8                            mov    %al,%bl
                           .text:01001972 8b 06                            mov    (%esi),%eax
                           .text:01001974 84 db                            test   %bl,%bl
                           .text:01001976 74 1c                            je     0x01001994
                           .text:01001978 8d 8e 88 00 00 00                lea    0x88(%esi),%ecx
                           .text:0100197e 51                               push   %ecx
                           .text:0100197f 68 f8 11 00 01                   push   $0x10011f8
                           .text:01001984 6a 00                            push   $0x0
                           .text:01001986 68 9b 75 00 00                   push   $0x759b
                           .text:0100198b 56                               push   %esi
                           .text:0100198c ff 50 08                         call   *0x8(%eax)
                           .text:0100198f 83 c4 14                         add    $0x14,%esp
                           .text:01001992 eb 0c                            jmp    0x010019a0
                           .text:01001994 6a 01                            push   $0x1
                           .text:01001996 68 9e 75 00 00                   push   $0x759e
                           .text:0100199b 8b ce                            mov    %esi,%ecx
                           .text:0100199d ff 50 0c                         call   *0xc(%eax)
                           .text:010019a0 8a c3                            mov    %bl,%al
                           .text:010019a2 5b                               pop    %ebx
                           .text:010019a3 5e                               pop    %esi
                           .text:010019a4 c3                               ret    
                           .text:010019a5 cc                               int3   
                           .text:010019a6 cc                               int3   
                           .text:010019a7 cc                               int3   
                           .text:010019a8 cc                               int3   
                           .text:010019a9 cc                               int3   
                           .text:010019aa 8b ff                            mov    %edi,%edi
                           .text:010019ac 55                               push   %ebp
                           .text:010019ad 8b ec                            mov    %esp,%ebp
                           .text:010019af 81 ec 64 04 00 00                sub    $0x464,%esp
                           .text:010019b5 a1 00 50 00 01                   mov    0x1005000,%eax
                           .text:010019ba 33 c5                            xor    %ebp,%eax
                           .text:010019bc 89 45 fc                         mov    %eax,-0x4(%ebp)
                           .text:010019bf 53                               push   %ebx
                           .text:010019c0 56                               push   %esi
                           .text:010019c1 57                               push   %edi
                           .text:010019c2 8b 3d d8 10 00 01                mov    0x10010d8,%edi
                           .text:010019c8 8b f1                            mov    %ecx,%esi
                           .text:010019ca 8d 8d 7c fc ff ff                lea    -0x384(%ebp),%ecx
                           .text:010019d0 ff d7                            call   *%edi
                           .text:010019d2 8d 8d 10 fc ff ff                lea    -0x3f0(%ebp),%ecx
                           .text:010019d8 ff d7                            call   *%edi
                           .text:010019da 8d 8d 58 fc ff ff                lea    -0x3a8(%ebp),%ecx
                           .text:010019e0 ff d7                            call   *%edi
                           .text:010019e2 8d 8d e0 fb ff ff                lea    -0x420(%ebp),%ecx
                           .text:010019e8 ff d7                            call   *%edi
                           .text:010019ea 8d 8d f8 fb ff ff                lea    -0x408(%ebp),%ecx
                           .text:010019f0 ff d7                            call   *%edi
                           .text:010019f2 8d 8d b0 fb ff ff                lea    -0x450(%ebp),%ecx
                           .text:010019f8 ff d7                            call   *%edi
                           .text:010019fa 8d 8d 28 fc ff ff                lea    -0x3d8(%ebp),%ecx
                           .text:01001a00 ff d7                            call   *%edi
                           .text:01001a02 8d 8d c8 fb ff ff                lea    -0x438(%ebp),%ecx
                           .text:01001a08 ff d7                            call   *%edi
                           .text:01001a0a 83 a5 98 fc ff ff 00             andl   $0x0,-0x368(%ebp)
                           .text:01001a11 8d 8d bc fd ff ff                lea    -0x244(%ebp),%ecx
                           .text:01001a17 ff 15 ec 10 00 01                call   *0x10010ec
                           .text:01001a1d 8d 85 97 fc ff ff                lea    -0x369(%ebp),%eax
                           .text:01001a23 50                               push   %eax
                           .text:01001a24 8d 9e 10 03 00 00                lea    0x310(%esi),%ebx
                           .text:01001a2a 53                               push   %ebx
                           .text:01001a2b c6 85 97 fc ff ff 00             movb   $0x0,-0x369(%ebp)
                           .text:01001a32 ff 15 40 10 00 01                call   *0x1001040
                           .text:01001a38 84 c0                            test   %al,%al
                           .text:01001a3a 74 72                            je     0x01001aae
                           .text:01001a3c 6a 01                            push   $0x1
                           .text:01001a3e 68 d8 75 00 00                   push   $0x75d8
                           .text:01001a43 8b 06                            mov    (%esi),%eax
                           .text:01001a45 8b ce                            mov    %esi,%ecx
                           .text:01001a47 ff 50 0c                         call   *0xc(%eax)
                           .text:01001a4a 8d 8d bc fd ff ff                lea    -0x244(%ebp),%ecx
                           .text:01001a50 ff 15 78 11 00 01                call   *0x1001178
                           .text:01001a56 8b 35 74 11 00 01                mov    0x1001174,%esi
                           .text:01001a5c 8d 8d c8 fb ff ff                lea    -0x438(%ebp),%ecx
                           .text:01001a62 ff d6                            call   *%esi
                           .text:01001a64 8d 8d 28 fc ff ff                lea    -0x3d8(%ebp),%ecx
                           .text:01001a6a ff d6                            call   *%esi
                           .text:01001a6c 8d 8d b0 fb ff ff                lea    -0x450(%ebp),%ecx
                           .text:01001a72 ff d6                            call   *%esi
                           .text:01001a74 8d 8d f8 fb ff ff                lea    -0x408(%ebp),%ecx
                           .text:01001a7a ff d6                            call   *%esi
                           .text:01001a7c 8d 8d e0 fb ff ff                lea    -0x420(%ebp),%ecx
                           .text:01001a82 ff d6                            call   *%esi
                           .text:01001a84 8d 8d 58 fc ff ff                lea    -0x3a8(%ebp),%ecx
                           .text:01001a8a ff d6                            call   *%esi
                           .text:01001a8c 8d 8d 10 fc ff ff                lea    -0x3f0(%ebp),%ecx
                           .text:01001a92 ff d6                            call   *%esi
                           .text:01001a94 8d 8d 7c fc ff ff                lea    -0x384(%ebp),%ecx
                           .text:01001a9a ff d6                            call   *%esi
                           .text:01001a9c 6a 04                            push   $0x4
                           .text:01001a9e 58                               pop    %eax
                           .text:01001a9f 8b 4d fc                         mov    -0x4(%ebp),%ecx
                           .text:01001aa2 5f                               pop    %edi
                           .text:01001aa3 5e                               pop    %esi
                           .text:01001aa4 33 cd                            xor    %ebp,%ecx
                           .text:01001aa6 5b                               pop    %ebx
                           .text:01001aa7 e8 8c 11 00 00                   call   0x01002c38
                           .text:01001aac c9                               leave  
                           .text:01001aad c3                               ret    
                           .text:01001aae 6a 00                            push   $0x0
                           .text:01001ab0 8d 85 a8 fb ff ff                lea    -0x458(%ebp),%eax
                           .text:01001ab6 50                               push   %eax
                           .text:01001ab7 8d 85 7c fc ff ff                lea    -0x384(%ebp),%eax
                           .text:01001abd 50                               push   %eax
                           .text:01001abe 53                               push   %ebx
                           .text:01001abf ff 15 44 10 00 01                call   *0x1001044
                           .text:01001ac5 84 c0                            test   %al,%al
                           .text:01001ac7 75 39                            jne    0x01001b02
                           .text:01001ac9 81 bd a8 fb ff ff 22 00 00 c0    cmpl   $0xc0000022,-0x458(%ebp)
                           .text:01001ad3 8b 06                            mov    (%esi),%eax
                           .text:01001ad5 75 0c                            jne    0x01001ae3
                           .text:01001ad7 6a 01                            push   $0x1
                           .text:01001ad9 68 d5 0b 00 00                   push   $0xbd5
                           .text:01001ade e9 62 ff ff ff                   jmp    0x01001a45
                           .text:01001ae3 8d 8e 88 00 00 00                lea    0x88(%esi),%ecx
                           .text:01001ae9 51                               push   %ecx
                           .text:01001aea 68 f8 11 00 01                   push   $0x10011f8
                           .text:01001aef 6a 01                            push   $0x1
                           .text:01001af1 68 cb 0b 00 00                   push   $0xbcb
                           .text:01001af6 56                               push   %esi
                           .text:01001af7 ff 50 08                         call   *0x8(%eax)
                           .text:01001afa 83 c4 14                         add    $0x14,%esp
                           .text:01001afd e9 48 ff ff ff                   jmp    0x01001a4a
                           .text:01001b02 ff b5 84 fc ff ff                pushl  -0x37c(%ebp)
                           .text:01001b08 ff 15 90 10 00 01                call   *0x1001090
                           .text:01001b0e 8d 9e 30 03 00 00                lea    0x330(%esi),%ebx
                           .text:01001b14 ff 33                            pushl  (%ebx)
                           .text:01001b16 ff 15 90 10 00 01                call   *0x1001090
                           .text:01001b1c ff 33                            pushl  (%ebx)
                           .text:01001b1e ff b5 84 fc ff ff                pushl  -0x37c(%ebp)
                           .text:01001b24 ff 15 94 10 00 01                call   *0x1001094
                           .text:01001b2a 83 c4 10                         add    $0x10,%esp
                           .text:01001b2d 85 c0                            test   %eax,%eax
                           .text:01001b2f 75 28                            jne    0x01001b59
                           .text:01001b31 8d 8e 28 03 00 00                lea    0x328(%esi),%ecx
                           .text:01001b37 51                               push   %ecx
                           .text:01001b38 8d 8e 88 00 00 00                lea    0x88(%esi),%ecx
                           .text:01001b3e 51                               push   %ecx
                           .text:01001b3f 68 e4 12 00 01                   push   $0x10012e4
                           .text:01001b44 6a 01                            push   $0x1
                           .text:01001b46 68 a1 75 00 00                   push   $0x75a1
                           .text:01001b4b 8b 06                            mov    (%esi),%eax
                           .text:01001b4d 56                               push   %esi
                           .text:01001b4e ff 50 08                         call   *0x8(%eax)
                           .text:01001b51 83 c4 18                         add    $0x18,%esp
                           .text:01001b54 e9 f1 fe ff ff                   jmp    0x01001a4a
                           .text:01001b59 8b 1d 54 11 00 01                mov    0x1001154,%ebx
                           .text:01001b5f 6a ff                            push   $0xffffffff
                           .text:01001b61 68 e0 12 00 01                   push   $0x10012e0
                           .text:01001b66 8d 8d e0 fb ff ff                lea    -0x420(%ebp),%ecx
                           .text:01001b6c ff d3                            call   *%ebx
                           .text:01001b6e 84 c0                            test   %al,%al
                           .text:01001b70 0f 84 4f 07 00 00                je     0x010022c5
                           .text:01001b76 6a ff                            push   $0xffffffff
                           .text:01001b78 68 d8 12 00 01                   push   $0x10012d8
                           .text:01001b7d 8d 8d f8 fb ff ff                lea    -0x408(%ebp),%ecx
                           .text:01001b83 ff d3                            call   *%ebx
                           .text:01001b85 84 c0                            test   %al,%al
                           .text:01001b87 0f 84 38 07 00 00                je     0x010022c5
                           .text:01001b8d ff b5 e8 fb ff ff                pushl  -0x418(%ebp)
                           .text:01001b93 ff b5 84 fc ff ff                pushl  -0x37c(%ebp)
                           .text:01001b99 ff 15 94 10 00 01                call   *0x1001094
                           .text:01001b9f 59                               pop    %ecx
                           .text:01001ba0 59                               pop    %ecx
                           .text:01001ba1 85 c0                            test   %eax,%eax
                           .text:01001ba3 74 18                            je     0x01001bbd
                           .text:01001ba5 ff b5 00 fc ff ff                pushl  -0x400(%ebp)
                           .text:01001bab ff b5 84 fc ff ff                pushl  -0x37c(%ebp)
                           .text:01001bb1 ff 15 94 10 00 01                call   *0x1001094
                           .text:01001bb7 59                               pop    %ecx
                           .text:01001bb8 59                               pop    %ecx
                           .text:01001bb9 85 c0                            test   %eax,%eax
                           .text:01001bbb 75 4d                            jne    0x01001c0a
                           .text:01001bbd 6a ff                            push   $0xffffffff
                           .text:01001bbf 68 d0 12 00 01                   push   $0x10012d0
                           .text:01001bc4 8d 8d 10 fc ff ff                lea    -0x3f0(%ebp),%ecx
                           .text:01001bca ff d3                            call   *%ebx
                           .text:01001bcc 84 c0                            test   %al,%al
                           .text:01001bce 0f 84 e5 06 00 00                je     0x010022b9
                           .text:01001bd4 6a ff                            push   $0xffffffff
                           .text:01001bd6 68 b8 12 00 01                   push   $0x10012b8
                           .text:01001bdb 8d 8d 58 fc ff ff                lea    -0x3a8(%ebp),%ecx
                           .text:01001be1 ff d3                            call   *%ebx
                           .text:01001be3 84 c0                            test   %al,%al
                           .text:01001be5 0f 84 ce 06 00 00                je     0x010022b9
                           .text:01001beb 8d 85 78 fc ff ff                lea    -0x388(%ebp),%eax
                           .text:01001bf1 50                               push   %eax
                           .text:01001bf2 8d 85 58 fc ff ff                lea    -0x3a8(%ebp),%eax
                           .text:01001bf8 50                               push   %eax
                           .text:01001bf9 8d 85 10 fc ff ff                lea    -0x3f0(%ebp),%eax
                           .text:01001bff 50                               push   %eax
                           .text:01001c00 ff 15 58 11 00 01                call   *0x1001158
                           .text:01001c06 85 c0                            test   %eax,%eax
                           .text:01001c08 75 1d                            jne    0x01001c27
                           .text:01001c0a 8d 8d 7c fc ff ff                lea    -0x384(%ebp),%ecx
                           .text:01001c10 51                               push   %ecx
                           .text:01001c11 68 b0 12 00 01                   push   $0x10012b0
                           .text:01001c16 68 a8 12 00 01                   push   $0x10012a8
                           .text:01001c1b 6a 01                            push   $0x1
                           .text:01001c1d 68 ca 0b 00 00                   push   $0xbca
                           .text:01001c22 e9 24 ff ff ff                   jmp    0x01001b4b
                           .text:01001c27 8d 8e 28 03 00 00                lea    0x328(%esi),%ecx
                           .text:01001c2d 51                               push   %ecx
                           .text:01001c2e ff d0                            call   *%eax
                           .text:01001c30 83 f8 ff                         cmp    $0xffffffff,%eax
                           .text:01001c33 75 25                            jne    0x01001c5a
                           .text:01001c35 8b 0e                            mov    (%esi),%ecx
                           .text:01001c37 8d 86 28 03 00 00                lea    0x328(%esi),%eax
                           .text:01001c3d 50                               push   %eax
                           .text:01001c3e 8d 85 7c fc ff ff                lea    -0x384(%ebp),%eax
                           .text:01001c44 50                               push   %eax
                           .text:01001c45 68 e4 12 00 01                   push   $0x10012e4
                           .text:01001c4a 6a 01                            push   $0x1
                           .text:01001c4c 68 9a 75 00 00                   push   $0x759a
                           .text:01001c51 56                               push   %esi
                           .text:01001c52 ff 51 08                         call   *0x8(%ecx)
                           .text:01001c55 e9 f7 fe ff ff                   jmp    0x01001b51
                           .text:01001c5a 8b 06                            mov    (%esi),%eax
                           .text:01001c5c 8d 8d 7c fc ff ff                lea    -0x384(%ebp),%ecx
                           .text:01001c62 51                               push   %ecx
                           .text:01001c63 68 f8 11 00 01                   push   $0x10011f8
                           .text:01001c68 6a 00                            push   $0x0
                           .text:01001c6a 68 c7 0b 00 00                   push   $0xbc7
                           .text:01001c6f 56                               push   %esi
                           .text:01001c70 ff 50 08                         call   *0x8(%eax)
                           .text:01001c73 83 c4 14                         add    $0x14,%esp
                           .text:01001c76 6a ff                            push   $0xffffffff
                           .text:01001c78 68 9c 12 00 01                   push   $0x100129c
                           .text:01001c7d 8d 8d 58 fc ff ff                lea    -0x3a8(%ebp),%ecx
                           .text:01001c83 ff d3                            call   *%ebx
                           .text:01001c85 84 c0                            test   %al,%al
                           .text:01001c87 0f 84 2c 06 00 00                je     0x010022b9
                           .text:01001c8d 8d 85 78 fc ff ff                lea    -0x388(%ebp),%eax
                           .text:01001c93 50                               push   %eax
                           .text:01001c94 8d 85 58 fc ff ff                lea    -0x3a8(%ebp),%eax
                           .text:01001c9a 50                               push   %eax
                           .text:01001c9b 8d 85 10 fc ff ff                lea    -0x3f0(%ebp),%eax
                           .text:01001ca1 50                               push   %eax
                           .text:01001ca2 ff 15 58 11 00 01                call   *0x1001158
                           .text:01001ca8 89 85 ac fb ff ff                mov    %eax,-0x454(%ebp)
                           .text:01001cae 85 c0                            test   %eax,%eax
                           .text:01001cb0 0f 84 54 ff ff ff                je     0x01001c0a
                           .text:01001cb6 6a 01                            push   $0x1
                           .text:01001cb8 ff 15 14 10 00 01                call   *0x1001014
                           .text:01001cbe 89 85 70 fc ff ff                mov    %eax,-0x390(%ebp)
                           .text:01001cc4 8d 86 a0 00 00 00                lea    0xa0(%esi),%eax
                           .text:01001cca 50                               push   %eax
                           .text:01001ccb ff 15 5c 11 00 01                call   *0x100115c
                           .text:01001cd1 6a ff                            push   $0xffffffff
                           .text:01001cd3 68 9b 12 00 01                   push   $0x100129b
                           .text:01001cd8 8d 8d c8 fb ff ff                lea    -0x438(%ebp),%ecx
                           .text:01001cde 89 85 a4 fb ff ff                mov    %eax,-0x45c(%ebp)
                           .text:01001ce4 ff d3                            call   *%ebx
                           .text:01001ce6 84 c0                            test   %al,%al
                           .text:01001ce8 0f 84 d5 00 00 00                je     0x01001dc3
                           .text:01001cee 83 bd a4 fb ff ff 01             cmpl   $0x1,-0x45c(%ebp)
                           .text:01001cf5 0f 84 c8 00 00 00                je     0x01001dc3
                           .text:01001cfb 6a 00                            push   $0x0
                           .text:01001cfd 8d 86 a0 00 00 00                lea    0xa0(%esi),%eax
                           .text:01001d03 50                               push   %eax
                           .text:01001d04 8d 8d bc fd ff ff                lea    -0x244(%ebp),%ecx
                           .text:01001d0a ff 15 60 11 00 01                call   *0x1001160
                           .text:01001d10 84 c0                            test   %al,%al
                           .text:01001d12 0f 84 ab 00 00 00                je     0x01001dc3
                           .text:01001d18 8d 85 9c fb ff ff                lea    -0x464(%ebp),%eax
                           .text:01001d1e 50                               push   %eax
                           .text:01001d1f 8d 85 bc fd ff ff                lea    -0x244(%ebp),%eax
                           .text:01001d25 50                               push   %eax
                           .text:01001d26 ff 15 64 11 00 01                call   *0x1001164
                           .text:01001d2c 8b d8                            mov    %eax,%ebx
                           .text:01001d2e 85 db                            test   %ebx,%ebx
                           .text:01001d30 0f 84 93 00 00 00                je     0x01001dc9
                           .text:01001d36 ff b5 d0 fb ff ff                pushl  -0x430(%ebp)
                           .text:01001d3c ff 73 08                         pushl  0x8(%ebx)
                           .text:01001d3f ff 15 94 10 00 01                call   *0x1001094
                           .text:01001d45 59                               pop    %ecx
                           .text:01001d46 59                               pop    %ecx
                           .text:01001d47 85 c0                            test   %eax,%eax
                           .text:01001d49 74 7e                            je     0x01001dc9
                           .text:01001d4b 8b 06                            mov    (%esi),%eax
                           .text:01001d4d 8d 8e 88 00 00 00                lea    0x88(%esi),%ecx
                           .text:01001d53 51                               push   %ecx
                           .text:01001d54 68 f8 11 00 01                   push   $0x10011f8
                           .text:01001d59 6a 00                            push   $0x0
                           .text:01001d5b 68 e5 07 00 00                   push   $0x7e5
                           .text:01001d60 56                               push   %esi
                           .text:01001d61 ff 50 08                         call   *0x8(%eax)
                           .text:01001d64 83 c4 14                         add    $0x14,%esp
                           .text:01001d67 8d 4e 08                         lea    0x8(%esi),%ecx
                           .text:01001d6a 8b 01                            mov    (%ecx),%eax
                           .text:01001d6c 8d 95 28 fc ff ff                lea    -0x3d8(%ebp),%edx
                           .text:01001d72 52                               push   %edx
                           .text:01001d73 ff 50 18                         call   *0x18(%eax)
                           .text:01001d76 ff b5 34 fc ff ff                pushl  -0x3cc(%ebp)
                           .text:01001d7c 8b 43 0c                         mov    0xc(%ebx),%eax
                           .text:01001d7f ff b5 30 fc ff ff                pushl  -0x3d0(%ebp)
                           .text:01001d85 8b 4b 08                         mov    0x8(%ebx),%ecx
                           .text:01001d88 50                               push   %eax
                           .text:01001d89 51                               push   %ecx
                           .text:01001d8a 6a 01                            push   $0x1
                           .text:01001d8c 68 00 04 00 00                   push   $0x400
                           .text:01001d91 ff 15 18 10 00 01                call   *0x1001018
                           .text:01001d97 83 f8 02                         cmp    $0x2,%eax
                           .text:01001d9a 74 2d                            je     0x01001dc9
                           .text:01001d9c ff b5 70 fc ff ff                pushl  -0x390(%ebp)
                           .text:01001da2 ff 15 14 10 00 01                call   *0x1001014
                           .text:01001da8 8b 06                            mov    (%esi),%eax
                           .text:01001daa 6a 01                            push   $0x1
                           .text:01001dac 68 1b 08 00 00                   push   $0x81b
                           .text:01001db1 8b ce                            mov    %esi,%ecx
                           .text:01001db3 ff 50 0c                         call   *0xc(%eax)
                           .text:01001db6 8b 03                            mov    (%ebx),%eax
                           .text:01001db8 6a 01                            push   $0x1
                           .text:01001dba 8b cb                            mov    %ebx,%ecx
                           .text:01001dbc ff 10                            call   *(%eax)
                           .text:01001dbe e9 87 fc ff ff                   jmp    0x01001a4a
                           .text:01001dc3 8b 9d 98 fc ff ff                mov    -0x368(%ebp),%ebx
                           .text:01001dc9 ff b5 70 fc ff ff                pushl  -0x390(%ebp)
                           .text:01001dcf ff 15 14 10 00 01                call   *0x1001014
                           .text:01001dd5 85 db                            test   %ebx,%ebx
                           .text:01001dd7 74 08                            je     0x01001de1
                           .text:01001dd9 8b 03                            mov    (%ebx),%eax
                           .text:01001ddb 6a 01                            push   $0x1
                           .text:01001ddd 8b cb                            mov    %ebx,%ecx
                           .text:01001ddf ff 10                            call   *(%eax)
                           .text:01001de1 8d 85 a0 fc ff ff                lea    -0x360(%ebp),%eax
                           .text:01001de7 50                               push   %eax
                           .text:01001de8 6a 01                            push   $0x1
                           .text:01001dea c6 85 9f fc ff ff 00             movb   $0x0,-0x361(%ebp)
                           .text:01001df1 e8 00 0f 00 00                   call   0x01002cf6
                           .text:01001df6 85 c0                            test   %eax,%eax
                           .text:01001df8 75 7f                            jne    0x01001e79
                           .text:01001dfa 8b 06                            mov    (%esi),%eax
                           .text:01001dfc 6a 00                            push   $0x0
                           .text:01001dfe 68 f8 75 00 00                   push   $0x75f8
                           .text:01001e03 8b ce                            mov    %esi,%ecx
                           .text:01001e05 ff 50 0c                         call   *0xc(%eax)
                           .text:01001e08 8d 4e 08                         lea    0x8(%esi),%ecx
                           .text:01001e0b 8b 01                            mov    (%ecx),%eax
                           .text:01001e0d 6a 00                            push   $0x0
                           .text:01001e0f ff 50 14                         call   *0x14(%eax)
                           .text:01001e12 84 c0                            test   %al,%al
                           .text:01001e14 75 5c                            jne    0x01001e72
                           .text:01001e16 6a 04                            push   $0x4
                           .text:01001e18 5b                               pop    %ebx
                           .text:01001e19 8b 35 74 11 00 01                mov    0x1001174,%esi
                           .text:01001e1f 8d 8d bc fd ff ff                lea    -0x244(%ebp),%ecx
                           .text:01001e25 ff 15 78 11 00 01                call   *0x1001178
                           .text:01001e2b 8d 8d c8 fb ff ff                lea    -0x438(%ebp),%ecx
                           .text:01001e31 ff d6                            call   *%esi
                           .text:01001e33 8d 8d 28 fc ff ff                lea    -0x3d8(%ebp),%ecx
                           .text:01001e39 ff d6                            call   *%esi
                           .text:01001e3b 8d 8d b0 fb ff ff                lea    -0x450(%ebp),%ecx
                           .text:01001e41 ff d6                            call   *%esi
                           .text:01001e43 8d 8d f8 fb ff ff                lea    -0x408(%ebp),%ecx
                           .text:01001e49 ff d6                            call   *%esi
                           .text:01001e4b 8d 8d e0 fb ff ff                lea    -0x420(%ebp),%ecx
                           .text:01001e51 ff d6                            call   *%esi
                           .text:01001e53 8d 8d 58 fc ff ff                lea    -0x3a8(%ebp),%ecx
                           .text:01001e59 ff d6                            call   *%esi
                           .text:01001e5b 8d 8d 10 fc ff ff                lea    -0x3f0(%ebp),%ecx
                           .text:01001e61 ff d6                            call   *%esi
                           .text:01001e63 8d 8d 7c fc ff ff                lea    -0x384(%ebp),%ecx
                           .text:01001e69 ff d6                            call   *%esi
                           .text:01001e6b 8b c3                            mov    %ebx,%eax
                           .text:01001e6d e9 2d fc ff ff                   jmp    0x01001a9f
                           .text:01001e72 c6 85 9f fc ff ff 01             movb   $0x1,-0x361(%ebp)
                           .text:01001e79 0f b6 86 5b 03 00 00             movzbl 0x35b(%esi),%eax
                           .text:01001e80 0f b6 8e 5a 03 00 00             movzbl 0x35a(%esi),%ecx
                           .text:01001e87 f7 d8                            neg    %eax
                           .text:01001e89 1b c0                            sbb    %eax,%eax
                           .text:01001e8b 83 e0 04                         and    $0x4,%eax
                           .text:01001e8e f7 d9                            neg    %ecx
                           .text:01001e90 1b c9                            sbb    %ecx,%ecx
                           .text:01001e92 83 e1 02                         and    $0x2,%ecx
                           .text:01001e95 0b c1                            or     %ecx,%eax
                           .text:01001e97 33 c9                            xor    %ecx,%ecx
                           .text:01001e99 38 8e 58 03 00 00                cmp    %cl,0x358(%esi)
                           .text:01001e9f 8d 95 74 fc ff ff                lea    -0x38c(%ebp),%edx
                           .text:01001ea5 0f 95 c1                         setne  %cl
                           .text:01001ea8 52                               push   %edx
                           .text:01001ea9 8d 9e 28 03 00 00                lea    0x328(%esi),%ebx
                           .text:01001eaf 0b c1                            or     %ecx,%eax
                           .text:01001eb1 0f b6 8e 59 03 00 00             movzbl 0x359(%esi),%ecx
                           .text:01001eb8 f7 d9                            neg    %ecx
                           .text:01001eba 1b c9                            sbb    %ecx,%ecx
                           .text:01001ebc 83 e1 10                         and    $0x10,%ecx
                           .text:01001ebf 0b c1                            or     %ecx,%eax
                           .text:01001ec1 50                               push   %eax
                           .text:01001ec2 8d 4e 08                         lea    0x8(%esi),%ecx
                           .text:01001ec5 51                               push   %ecx
                           .text:01001ec6 8d 86 40 03 00 00                lea    0x340(%esi),%eax
                           .text:01001ecc 50                               push   %eax
                           .text:01001ecd 53                               push   %ebx
                           .text:01001ece 8d 86 10 03 00 00                lea    0x310(%esi),%eax
                           .text:01001ed4 50                               push   %eax
                           .text:01001ed5 ff 95 ac fb ff ff                call   *-0x454(%ebp)
                           .text:01001edb ff b5 78 fc ff ff                pushl  -0x388(%ebp)
                           .text:01001ee1 88 85 96 fc ff ff                mov    %al,-0x36a(%ebp)
                           .text:01001ee7 ff 15 6c 11 00 01                call   *0x100116c
                           .text:01001eed 80 bd 96 fc ff ff 00             cmpb   $0x0,-0x36a(%ebp)
                           .text:01001ef4 0f 84 69 01 00 00                je     0x01002063
                           .text:01001efa 33 db                            xor    %ebx,%ebx
                           .text:01001efc 89 9d 98 fc ff ff                mov    %ebx,-0x368(%ebp)
                           .text:01001f02 38 9e 59 03 00 00                cmp    %bl,0x359(%esi)
                           .text:01001f08 0f 85 a0 00 00 00                jne    0x01001fae
                           .text:01001f0e 83 be ac 00 00 00 02             cmpl   $0x2,0xac(%esi)
                           .text:01001f15 0f 85 93 00 00 00                jne    0x01001fae
                           .text:01001f1b 83 be ac 00 00 00 01             cmpl   $0x1,0xac(%esi)
                           .text:01001f22 76 0c                            jbe    0x01001f30
                           .text:01001f24 8b 86 a8 00 00 00                mov    0xa8(%esi),%eax
                           .text:01001f2a 0f b7 40 02                      movzwl 0x2(%eax),%eax
                           .text:01001f2e eb 05                            jmp    0x01001f35
                           .text:01001f30 b8 ff ff 00 00                   mov    $0xffff,%eax
                           .text:01001f35 66 83 f8 3a                      cmp    $0x3a,%ax
                           .text:01001f39 75 73                            jne    0x01001fae
                           .text:01001f3b 8d 8d 40 fc ff ff                lea    -0x3c0(%ebp),%ecx
                           .text:01001f41 ff d7                            call   *%edi
                           .text:01001f43 8b 86 a8 00 00 00                mov    0xa8(%esi),%eax
                           .text:01001f49 6a 00                            push   $0x0
                           .text:01001f4b 50                               push   %eax
                           .text:01001f4c e8 8d 0d 00 00                   call   0x01002cde
                           .text:01001f51 89 85 98 fc ff ff                mov    %eax,-0x368(%ebp)
                           .text:01001f57 85 c0                            test   %eax,%eax
                           .text:01001f59 74 47                            je     0x01001fa2
                           .text:01001f5b 8d 85 40 fc ff ff                lea    -0x3c0(%ebp),%eax
                           .text:01001f61 50                               push   %eax
                           .text:01001f62 ff b5 98 fc ff ff                pushl  -0x368(%ebp)
                           .text:01001f68 ff 15 bc 10 00 01                call   *0x10010bc
                           .text:01001f6e 84 c0                            test   %al,%al
                           .text:01001f70 8b 06                            mov    (%esi),%eax
                           .text:01001f72 74 15                            je     0x01001f89
                           .text:01001f74 8d 8d 40 fc ff ff                lea    -0x3c0(%ebp),%ecx
                           .text:01001f7a 51                               push   %ecx
                           .text:01001f7b 68 f8 11 00 01                   push   $0x10011f8
                           .text:01001f80 6a 01                            push   $0x1
                           .text:01001f82 68 f2 75 00 00                   push   $0x75f2
                           .text:01001f87 eb 12                            jmp    0x01001f9b
                           .text:01001f89 ff b5 98 fc ff ff                pushl  -0x368(%ebp)
                           .text:01001f8f 68 98 12 00 01                   push   $0x1001298
                           .text:01001f94 6a 01                            push   $0x1
                           .text:01001f96 68 f3 75 00 00                   push   $0x75f3
                           .text:01001f9b 56                               push   %esi
                           .text:01001f9c ff 50 08                         call   *0x8(%eax)
                           .text:01001f9f 83 c4 14                         add    $0x14,%esp
                           .text:01001fa2 8d 8d 40 fc ff ff                lea    -0x3c0(%ebp),%ecx
                           .text:01001fa8 ff 15 74 11 00 01                call   *0x1001174
                           .text:01001fae 33 c0                            xor    %eax,%eax
                           .text:01001fb0 50                               push   %eax
                           .text:01001fb1 50                               push   %eax
                           .text:01001fb2 50                               push   %eax
                           .text:01001fb3 8d 86 10 03 00 00                lea    0x310(%esi),%eax
                           .text:01001fb9 50                               push   %eax
                           .text:01001fba ff 15 48 10 00 01                call   *0x1001048
                           .text:01001fc0 85 c0                            test   %eax,%eax
                           .text:01001fc2 7d 11                            jge    0x01001fd5
                           .text:01001fc4 8b 06                            mov    (%esi),%eax
                           .text:01001fc6 6a 01                            push   $0x1
                           .text:01001fc8 68 fa 75 00 00                   push   $0x75fa
                           .text:01001fcd 8b ce                            mov    %esi,%ecx
                           .text:01001fcf ff 50 0c                         call   *0xc(%eax)
                           .text:01001fd2 6a 04                            push   $0x4
                           .text:01001fd4 5b                               pop    %ebx
                           .text:01001fd5 80 bd 9f fc ff ff 00             cmpb   $0x0,-0x361(%ebp)
                           .text:01001fdc 74 5e                            je     0x0100203c
                           .text:01001fde e8 07 0d 00 00                   call   0x01002cea
                           .text:01001fe3 85 c0                            test   %eax,%eax
                           .text:01001fe5 75 55                            jne    0x0100203c
                           .text:01001fe7 ff 15 1c 10 00 01                call   *0x100101c
                           .text:01001fed 8d 8d 40 fc ff ff                lea    -0x3c0(%ebp),%ecx
                           .text:01001ff3 8b d8                            mov    %eax,%ebx
                           .text:01001ff5 ff d7                            call   *%edi
                           .text:01001ff7 8d 85 40 fc ff ff                lea    -0x3c0(%ebp),%eax
                           .text:01001ffd 50                               push   %eax
                           .text:01001ffe 53                               push   %ebx
                           .text:01001fff ff 15 bc 10 00 01                call   *0x10010bc
                           .text:01002005 84 c0                            test   %al,%al
                           .text:01002007 8b 06                            mov    (%esi),%eax
                           .text:01002009 74 0e                            je     0x01002019
                           .text:0100200b 8d 8d 40 fc ff ff                lea    -0x3c0(%ebp),%ecx
                           .text:01002011 51                               push   %ecx
                           .text:01002012 68 f8 11 00 01                   push   $0x10011f8
                           .text:01002017 eb 06                            jmp    0x0100201f
                           .text:01002019 53                               push   %ebx
                           .text:0100201a 68 98 12 00 01                   push   $0x1001298
                           .text:0100201f 6a 01                            push   $0x1
                           .text:01002021 68 f9 75 00 00                   push   $0x75f9
                           .text:01002026 56                               push   %esi
                           .text:01002027 ff 50 08                         call   *0x8(%eax)
                           .text:0100202a 83 c4 14                         add    $0x14,%esp
                           .text:0100202d 6a 04                            push   $0x4
                           .text:0100202f 5b                               pop    %ebx
                           .text:01002030 8d 8d 40 fc ff ff                lea    -0x3c0(%ebp),%ecx
                           .text:01002036 ff 15 74 11 00 01                call   *0x1001174
                           .text:0100203c 83 bd 98 fc ff ff 00             cmpl   $0x0,-0x368(%ebp)
                           .text:01002043 0f 85 cd fd ff ff                jne    0x01001e16
                           .text:01002049 85 db                            test   %ebx,%ebx
                           .text:0100204b 0f 85 c5 fd ff ff                jne    0x01001e16
                           .text:01002051 8b 06                            mov    (%esi),%eax
                           .text:01002053 53                               push   %ebx
                           .text:01002054 68 ae 75 00 00                   push   $0x75ae
                           .text:01002059 8b ce                            mov    %esi,%ecx
                           .text:0100205b ff 50 0c                         call   *0xc(%eax)
                           .text:0100205e e9 b6 fd ff ff                   jmp    0x01001e19
                           .text:01002063 8b 85 74 fc ff ff                mov    -0x38c(%ebp),%eax
                           .text:01002069 83 f8 09                         cmp    $0x9,%eax
                           .text:0100206c 0f 87 2e 02 00 00                ja     0x010022a0
                           .text:01002072 ff 24 85 da 22 00 01             jmp    *0x10022da(,%eax,4)
                           .text:01002079 53                               push   %ebx
                           .text:0100207a 8d 8e 88 00 00 00                lea    0x88(%esi),%ecx
                           .text:01002080 51                               push   %ecx
                           .text:01002081 68 e4 12 00 01                   push   $0x10012e4
                           .text:01002086 6a 01                            push   $0x1
                           .text:01002088 68 b0 75 00 00                   push   $0x75b0
                           .text:0100208d 8b 06                            mov    (%esi),%eax
                           .text:0100208f 56                               push   %esi
                           .text:01002090 ff 50 08                         call   *0x8(%eax)
                           .text:01002093 83 c4 18                         add    $0x18,%esp
                           .text:01002096 e9 7b fd ff ff                   jmp    0x01001e16
                           .text:0100209b 8b 06                            mov    (%esi),%eax
                           .text:0100209d 53                               push   %ebx
                           .text:0100209e 68 f8 11 00 01                   push   $0x10011f8
                           .text:010020a3 6a 01                            push   $0x1
                           .text:010020a5 68 99 75 00 00                   push   $0x7599
                           .text:010020aa 56                               push   %esi
                           .text:010020ab ff 50 08                         call   *0x8(%eax)
                           .text:010020ae 83 c4 14                         add    $0x14,%esp
                           .text:010020b1 6a 03                            push   $0x3
                           .text:010020b3 e9 60 fd ff ff                   jmp    0x01001e18
                           .text:010020b8 8b 06                            mov    (%esi),%eax
                           .text:010020ba 53                               push   %ebx
                           .text:010020bb 8d 8d 7c fc ff ff                lea    -0x384(%ebp),%ecx
                           .text:010020c1 51                               push   %ecx
                           .text:010020c2 68 e4 12 00 01                   push   $0x10012e4
                           .text:010020c7 6a 01                            push   $0x1
                           .text:010020c9 68 9a 75 00 00                   push   $0x759a
                           .text:010020ce 56                               push   %esi
                           .text:010020cf ff 50 08                         call   *0x8(%eax)
                           .text:010020d2 83 c4 18                         add    $0x18,%esp
                           .text:010020d5 6a 02                            push   $0x2
                           .text:010020d7 e9 3c fd ff ff                   jmp    0x01001e18
                           .text:010020dc 8d 8e 88 00 00 00                lea    0x88(%esi),%ecx
                           .text:010020e2 51                               push   %ecx
                           .text:010020e3 68 f8 11 00 01                   push   $0x10011f8
                           .text:010020e8 6a 01                            push   $0x1
                           .text:010020ea 68 eb 75 00 00                   push   $0x75eb
                           .text:010020ef 8b 06                            mov    (%esi),%eax
                           .text:010020f1 56                               push   %esi
                           .text:010020f2 ff 50 08                         call   *0x8(%eax)
                           .text:010020f5 83 c4 14                         add    $0x14,%esp
                           .text:010020f8 e9 19 fd ff ff                   jmp    0x01001e16
                           .text:010020fd 8d 8e 88 00 00 00                lea    0x88(%esi),%ecx
                           .text:01002103 51                               push   %ecx
                           .text:01002104 68 f8 11 00 01                   push   $0x10011f8
                           .text:01002109 6a 01                            push   $0x1
                           .text:0100210b 68 f5 75 00 00                   push   $0x75f5
                           .text:01002110 eb dd                            jmp    0x010020ef
                           .text:01002112 8b 06                            mov    (%esi),%eax
                           .text:01002114 8d 8e 88 00 00 00                lea    0x88(%esi),%ecx
                           .text:0100211a 51                               push   %ecx
                           .text:0100211b 68 f8 11 00 01                   push   $0x10011f8
                           .text:01002120 6a 00                            push   $0x0
                           .text:01002122 68 d4 75 00 00                   push   $0x75d4
                           .text:01002127 56                               push   %esi
                           .text:01002128 ff 50 08                         call   *0x8(%eax)
                           .text:0100212b 83 c4 14                         add    $0x14,%esp
                           .text:0100212e 8d 4e 08                         lea    0x8(%esi),%ecx
                           .text:01002131 8b 01                            mov    (%ecx),%eax
                           .text:01002133 6a 00                            push   $0x0
                           .text:01002135 ff 50 14                         call   *0x14(%eax)
                           .text:01002138 84 c0                            test   %al,%al
                           .text:0100213a 0f 84 d6 fc ff ff                je     0x01001e16
                           .text:01002140 8b ce                            mov    %esi,%ecx
                           .text:01002142 e8 ed f7 ff ff                   call   0x01001934
                           .text:01002147 84 c0                            test   %al,%al
                           .text:01002149 0f 84 c7 fc ff ff                je     0x01001e16
                           .text:0100214f 80 be 59 03 00 00 00             cmpb   $0x0,0x359(%esi)
                           .text:01002156 0f 85 9c 00 00 00                jne    0x010021f8
                           .text:0100215c 83 be ac 00 00 00 02             cmpl   $0x2,0xac(%esi)
                           .text:01002163 0f 85 8f 00 00 00                jne    0x010021f8
                           .text:01002169 83 be ac 00 00 00 01             cmpl   $0x1,0xac(%esi)
                           .text:01002170 76 0c                            jbe    0x0100217e
                           .text:01002172 8b 86 a8 00 00 00                mov    0xa8(%esi),%eax
                           .text:01002178 0f b7 40 02                      movzwl 0x2(%eax),%eax
                           .text:0100217c eb 05                            jmp    0x01002183
                           .text:0100217e b8 ff ff 00 00                   mov    $0xffff,%eax
                           .text:01002183 66 83 f8 3a                      cmp    $0x3a,%ax
                           .text:01002187 75 6f                            jne    0x010021f8
                           .text:01002189 8d 8d 40 fc ff ff                lea    -0x3c0(%ebp),%ecx
                           .text:0100218f ff d7                            call   *%edi
                           .text:01002191 8b 86 a8 00 00 00                mov    0xa8(%esi),%eax
                           .text:01002197 6a 01                            push   $0x1
                           .text:01002199 50                               push   %eax
                           .text:0100219a e8 3f 0b 00 00                   call   0x01002cde
                           .text:0100219f 8b d8                            mov    %eax,%ebx
                           .text:010021a1 85 db                            test   %ebx,%ebx
                           .text:010021a3 74 42                            je     0x010021e7
                           .text:010021a5 8d 85 40 fc ff ff                lea    -0x3c0(%ebp),%eax
                           .text:010021ab 50                               push   %eax
                           .text:010021ac 53                               push   %ebx
                           .text:010021ad ff 15 bc 10 00 01                call   *0x10010bc
                           .text:010021b3 84 c0                            test   %al,%al
                           .text:010021b5 8b 06                            mov    (%esi),%eax
                           .text:010021b7 74 15                            je     0x010021ce
                           .text:010021b9 8d 8d 40 fc ff ff                lea    -0x3c0(%ebp),%ecx
                           .text:010021bf 51                               push   %ecx
                           .text:010021c0 68 f8 11 00 01                   push   $0x10011f8
                           .text:010021c5 6a 01                            push   $0x1
                           .text:010021c7 68 f2 75 00 00                   push   $0x75f2
                           .text:010021cc eb 0d                            jmp    0x010021db
                           .text:010021ce 53                               push   %ebx
                           .text:010021cf 68 98 12 00 01                   push   $0x1001298
                           .text:010021d4 6a 01                            push   $0x1
                           .text:010021d6 68 f4 75 00 00                   push   $0x75f4
                           .text:010021db 56                               push   %esi
                           .text:010021dc ff 50 08                         call   *0x8(%eax)
                           .text:010021df 83 c4 14                         add    $0x14,%esp
                           .text:010021e2 6a 04                            push   $0x4
                           .text:010021e4 5b                               pop    %ebx
                           .text:010021e5 eb 03                            jmp    0x010021ea
                           .text:010021e7 33 db                            xor    %ebx,%ebx
                           .text:010021e9 43                               inc    %ebx
                           .text:010021ea 8d 8d 40 fc ff ff                lea    -0x3c0(%ebp),%ecx
                           .text:010021f0 ff 15 74 11 00 01                call   *0x1001174
                           .text:010021f6 eb 03                            jmp    0x010021fb
                           .text:010021f8 33 db                            xor    %ebx,%ebx
                           .text:010021fa 43                               inc    %ebx
                           .text:010021fb 80 bd 9f fc ff ff 00             cmpb   $0x0,-0x361(%ebp)
                           .text:01002202 0f 84 11 fc ff ff                je     0x01001e19
                           .text:01002208 e8 dd 0a 00 00                   call   0x01002cea
                           .text:0100220d 85 c0                            test   %eax,%eax
                           .text:0100220f 0f 85 04 fc ff ff                jne    0x01001e19
                           .text:01002215 ff 15 1c 10 00 01                call   *0x100101c
                           .text:0100221b 8d 8d 40 fc ff ff                lea    -0x3c0(%ebp),%ecx
                           .text:01002221 8b d8                            mov    %eax,%ebx
                           .text:01002223 ff d7                            call   *%edi
                           .text:01002225 8d 85 40 fc ff ff                lea    -0x3c0(%ebp),%eax
                           .text:0100222b 50                               push   %eax
                           .text:0100222c 53                               push   %ebx
                           .text:0100222d ff 15 bc 10 00 01                call   *0x10010bc
                           .text:01002233 84 c0                            test   %al,%al
                           .text:01002235 8b 06                            mov    (%esi),%eax
                           .text:01002237 74 0e                            je     0x01002247
                           .text:01002239 8d 8d 40 fc ff ff                lea    -0x3c0(%ebp),%ecx
                           .text:0100223f 51                               push   %ecx
                           .text:01002240 68 f8 11 00 01                   push   $0x10011f8
                           .text:01002245 eb 06                            jmp    0x0100224d
                           .text:01002247 53                               push   %ebx
                           .text:01002248 68 98 12 00 01                   push   $0x1001298
                           .text:0100224d 6a 01                            push   $0x1
                           .text:0100224f 68 f9 75 00 00                   push   $0x75f9
                           .text:01002254 56                               push   %esi
                           .text:01002255 ff 50 08                         call   *0x8(%eax)
                           .text:01002258 83 c4 14                         add    $0x14,%esp
                           .text:0100225b 6a 04                            push   $0x4
                           .text:0100225d 5b                               pop    %ebx
                           .text:0100225e 8d 8d 40 fc ff ff                lea    -0x3c0(%ebp),%ecx
                           .text:01002264 ff 15 74 11 00 01                call   *0x1001174
                           .text:0100226a e9 aa fb ff ff                   jmp    0x01001e19
                           .text:0100226f 8b 06                            mov    (%esi),%eax
                           .text:01002271 53                               push   %ebx
                           .text:01002272 8d 8e 88 00 00 00                lea    0x88(%esi),%ecx
                           .text:01002278 51                               push   %ecx
                           .text:01002279 68 e4 12 00 01                   push   $0x10012e4
                           .text:0100227e 6a 01                            push   $0x1
                           .text:01002280 68 af 75 00 00                   push   $0x75af
                           .text:01002285 56                               push   %esi
                           .text:01002286 ff 50 08                         call   *0x8(%eax)
                           .text:01002289 33 db                            xor    %ebx,%ebx
                           .text:0100228b 83 c4 18                         add    $0x18,%esp
                           .text:0100228e 83 bd 74 fc ff ff 08             cmpl   $0x8,-0x38c(%ebp)
                           .text:01002295 0f 94 c3                         sete   %bl
                           .text:01002298 83 c3 04                         add    $0x4,%ebx
                           .text:0100229b e9 79 fb ff ff                   jmp    0x01001e19
                           .text:010022a0 53                               push   %ebx
                           .text:010022a1 8d 8e 88 00 00 00                lea    0x88(%esi),%ecx
                           .text:010022a7 51                               push   %ecx
                           .text:010022a8 68 e4 12 00 01                   push   $0x10012e4
                           .text:010022ad 6a 01                            push   $0x1
                           .text:010022af 68 af 75 00 00                   push   $0x75af
                           .text:010022b4 e9 d4 fd ff ff                   jmp    0x0100208d
                           .text:010022b9 6a 01                            push   $0x1
                           .text:010022bb 68 c8 75 00 00                   push   $0x75c8
                           .text:010022c0 e9 7e f7 ff ff                   jmp    0x01001a43
                           .text:010022c5 8b 06                            mov    (%esi),%eax
                           .text:010022c7 6a 01                            push   $0x1
                           .text:010022c9 68 c8 75 00 00                   push   $0x75c8
                           .text:010022ce 8b ce                            mov    %esi,%ecx
                           .text:010022d0 ff 50 0c                         call   *0xc(%eax)
                           .text:010022d3 e9 3e fb ff ff                   jmp    0x01001e16
                           .text:010022d8 8b ff                            mov    %edi,%edi
                           .text:010022da 79 20                            jns    0x010022fc
                           .text:010022dc 00 01                            add    %al,(%ecx)
                           .text:010022de 9b                               fwait
                           .text:010022df 20 00                            and    %al,(%eax)
                           .text:010022e1 01 b8 20 00 01 12                add    %edi,0x12010020(%eax)
                           .text:010022e7 21 00                            and    %eax,(%eax)
                           .text:010022e9 01 6f 22                         add    %ebp,0x22(%edi)
                           .text:010022ec 00 01                            add    %al,(%ecx)
                           .text:010022ee a0 22 00 01 dc                   mov    0xdc010022,%al
                           .text:010022f3 20 00                            and    %al,(%eax)
                           .text:010022f5 01 6f 22                         add    %ebp,0x22(%edi)
                           .text:010022f8 00 01                            add    %al,(%ecx)
                           .text:010022fa 6f                               outsl  %ds:(%esi),(%dx)
                           .text:010022fb 22 00                            and    (%eax),%al
                           .text:010022fd 01 fd                            add    %edi,%ebp
                           .text:010022ff 20 00                            and    %al,(%eax)
                           .text:01002301 01 cc                            add    %ecx,%esp
                           .text:01002303 cc                               int3   
                           .text:01002304 cc                               int3   
                           .text:01002305 cc                               int3   
                           .text:01002306 cc                               int3   
                           .text:01002307 8b ff                            mov    %edi,%edi
                           .text:01002309 55                               push   %ebp
                           .text:0100230a 8b ec                            mov    %esp,%ebp
                           .text:0100230c 81 ec cc 02 00 00                sub    $0x2cc,%esp
                           .text:01002312 53                               push   %ebx
                           .text:01002313 56                               push   %esi
                           .text:01002314 57                               push   %edi
                           .text:01002315 8b 3d e8 10 00 01                mov    0x10010e8,%edi
                           .text:0100231b 8b f1                            mov    %ecx,%esi
                           .text:0100231d 8d 4d e8                         lea    -0x18(%ebp),%ecx
                           .text:01002320 ff d7                            call   *%edi
                           .text:01002322 8d 4d d0                         lea    -0x30(%ebp),%ecx
                           .text:01002325 ff d7                            call   *%edi
                           .text:01002327 8d 8d 34 fd ff ff                lea    -0x2cc(%ebp),%ecx
                           .text:0100232d ff 15 f0 10 00 01                call   *0x10010f0
                           .text:01002333 8b 3d d0 10 00 01                mov    0x10010d0,%edi
                           .text:01002339 8d 8d 4c ff ff ff                lea    -0xb4(%ebp),%ecx
                           .text:0100233f ff d7                            call   *%edi
                           .text:01002341 8d 8d 20 ff ff ff                lea    -0xe0(%ebp),%ecx
                           .text:01002347 ff d7                            call   *%edi
                           .text:01002349 8d 8d 78 ff ff ff                lea    -0x88(%ebp),%ecx
                           .text:0100234f ff d7                            call   *%edi
                           .text:01002351 8d 4d a4                         lea    -0x5c(%ebp),%ecx
                           .text:01002354 ff d7                            call   *%edi
                           .text:01002356 8b 3d 1c 11 00 01                mov    0x100111c,%edi
                           .text:0100235c 8d 8d 60 fe ff ff                lea    -0x1a0(%ebp),%ecx
                           .text:01002362 ff d7                            call   *%edi
                           .text:01002364 8d 8d c0 fe ff ff                lea    -0x140(%ebp),%ecx
                           .text:0100236a ff d7                            call   *%edi
                           .text:0100236c 8d 8d f0 fe ff ff                lea    -0x110(%ebp),%ecx
                           .text:01002372 ff d7                            call   *%edi
                           .text:01002374 8d 8d 90 fe ff ff                lea    -0x170(%ebp),%ecx
                           .text:0100237a ff d7                            call   *%edi
                           .text:0100237c 8d 8d 30 fe ff ff                lea    -0x1d0(%ebp),%ecx
                           .text:01002382 ff d7                            call   *%edi
                           .text:01002384 8b 3d 20 11 00 01                mov    0x1001120,%edi
                           .text:0100238a 6a 01                            push   $0x1
                           .text:0100238c 6a 07                            push   $0x7
                           .text:0100238e 8d 4d e8                         lea    -0x18(%ebp),%ecx
                           .text:01002391 ff d7                            call   *%edi
                           .text:01002393 84 c0                            test   %al,%al
                           .text:01002395 0f 84 7c 03 00 00                je     0x01002717
                           .text:0100239b 6a 01                            push   $0x1
                           .text:0100239d 6a 07                            push   $0x7
                           .text:0100239f 8d 4d d0                         lea    -0x30(%ebp),%ecx
                           .text:010023a2 ff d7                            call   *%edi
                           .text:010023a4 84 c0                            test   %al,%al
                           .text:010023a6 0f 84 6b 03 00 00                je     0x01002717
                           .text:010023ac 8d 45 d0                         lea    -0x30(%ebp),%eax
                           .text:010023af 50                               push   %eax
                           .text:010023b0 8d 8d 34 fd ff ff                lea    -0x2cc(%ebp),%ecx
                           .text:010023b6 ff 15 24 11 00 01                call   *0x1001124
                           .text:010023bc 84 c0                            test   %al,%al
                           .text:010023be 0f 84 53 03 00 00                je     0x01002717
                           .text:010023c4 8b 1d 28 11 00 01                mov    0x1001128,%ebx
                           .text:010023ca 68 28 13 00 01                   push   $0x1001328
                           .text:010023cf 8d 8d 4c ff ff ff                lea    -0xb4(%ebp),%ecx
                           .text:010023d5 ff d3                            call   *%ebx
                           .text:010023d7 84 c0                            test   %al,%al
                           .text:010023d9 0f 84 38 03 00 00                je     0x01002717
                           .text:010023df 8b 3d 2c 11 00 01                mov    0x100112c,%edi
                           .text:010023e5 68 24 13 00 01                   push   $0x1001324
                           .text:010023ea 8d 8d 60 fe ff ff                lea    -0x1a0(%ebp),%ecx
                           .text:010023f0 ff d7                            call   *%edi
                           .text:010023f2 84 c0                            test   %al,%al
                           .text:010023f4 0f 84 1d 03 00 00                je     0x01002717
                           .text:010023fa 68 20 13 00 01                   push   $0x1001320
                           .text:010023ff 8d 8d c0 fe ff ff                lea    -0x140(%ebp),%ecx
                           .text:01002405 ff d7                            call   *%edi
                           .text:01002407 84 c0                            test   %al,%al
                           .text:01002409 0f 84 08 03 00 00                je     0x01002717
                           .text:0100240f 68 14 13 00 01                   push   $0x1001314
                           .text:01002414 8d 8d f0 fe ff ff                lea    -0x110(%ebp),%ecx
                           .text:0100241a ff d7                            call   *%edi
                           .text:0100241c 84 c0                            test   %al,%al
                           .text:0100241e 0f 84 f3 02 00 00                je     0x01002717
                           .text:01002424 68 08 13 00 01                   push   $0x1001308
                           .text:01002429 8d 8d 90 fe ff ff                lea    -0x170(%ebp),%ecx
                           .text:0100242f ff d7                            call   *%edi
                           .text:01002431 84 c0                            test   %al,%al
                           .text:01002433 0f 84 de 02 00 00                je     0x01002717
                           .text:01002439 68 04 13 00 01                   push   $0x1001304
                           .text:0100243e 8d 8d 30 fe ff ff                lea    -0x1d0(%ebp),%ecx
                           .text:01002444 ff d7                            call   *%edi
                           .text:01002446 84 c0                            test   %al,%al
                           .text:01002448 0f 84 c9 02 00 00                je     0x01002717
                           .text:0100244e 68 28 13 00 01                   push   $0x1001328
                           .text:01002453 8d 8d 20 ff ff ff                lea    -0xe0(%ebp),%ecx
                           .text:01002459 ff d3                            call   *%ebx
                           .text:0100245b 84 c0                            test   %al,%al
                           .text:0100245d 0f 84 b4 02 00 00                je     0x01002717
                           .text:01002463 68 fc 12 00 01                   push   $0x10012fc
                           .text:01002468 8d 8d 78 ff ff ff                lea    -0x88(%ebp),%ecx
                           .text:0100246e ff d3                            call   *%ebx
                           .text:01002470 84 c0                            test   %al,%al
                           .text:01002472 0f 84 9f 02 00 00                je     0x01002717
                           .text:01002478 68 f0 12 00 01                   push   $0x10012f0
                           .text:0100247d 8d 4d a4                         lea    -0x5c(%ebp),%ecx
                           .text:01002480 ff d3                            call   *%ebx
                           .text:01002482 84 c0                            test   %al,%al
                           .text:01002484 0f 84 8d 02 00 00                je     0x01002717
                           .text:0100248a 6a 00                            push   $0x0
                           .text:0100248c 8d 8d 34 fd ff ff                lea    -0x2cc(%ebp),%ecx
                           .text:01002492 ff 15 30 11 00 01                call   *0x1001130
                           .text:01002498 8b 3d 34 11 00 01                mov    0x1001134,%edi
                           .text:0100249e 8d 85 20 ff ff ff                lea    -0xe0(%ebp),%eax
                           .text:010024a4 50                               push   %eax
                           .text:010024a5 8d 4d e8                         lea    -0x18(%ebp),%ecx
                           .text:010024a8 ff d7                            call   *%edi
                           .text:010024aa 84 c0                            test   %al,%al
                           .text:010024ac 0f 84 65 02 00 00                je     0x01002717
                           .text:010024b2 8d 85 60 fe ff ff                lea    -0x1a0(%ebp),%eax
                           .text:010024b8 50                               push   %eax
                           .text:010024b9 8d 4d e8                         lea    -0x18(%ebp),%ecx
                           .text:010024bc ff d7                            call   *%edi
                           .text:010024be 84 c0                            test   %al,%al
                           .text:010024c0 0f 84 51 02 00 00                je     0x01002717
                           .text:010024c6 8d 85 4c ff ff ff                lea    -0xb4(%ebp),%eax
                           .text:010024cc 50                               push   %eax
                           .text:010024cd 8d 4d e8                         lea    -0x18(%ebp),%ecx
                           .text:010024d0 ff d7                            call   *%edi
                           .text:010024d2 84 c0                            test   %al,%al
                           .text:010024d4 0f 84 3d 02 00 00                je     0x01002717
                           .text:010024da 8d 85 c0 fe ff ff                lea    -0x140(%ebp),%eax
                           .text:010024e0 50                               push   %eax
                           .text:010024e1 8d 4d e8                         lea    -0x18(%ebp),%ecx
                           .text:010024e4 ff d7                            call   *%edi
                           .text:010024e6 84 c0                            test   %al,%al
                           .text:010024e8 0f 84 29 02 00 00                je     0x01002717
                           .text:010024ee 8d 85 f0 fe ff ff                lea    -0x110(%ebp),%eax
                           .text:010024f4 50                               push   %eax
                           .text:010024f5 8d 4d e8                         lea    -0x18(%ebp),%ecx
                           .text:010024f8 ff d7                            call   *%edi
                           .text:010024fa 84 c0                            test   %al,%al
                           .text:010024fc 0f 84 15 02 00 00                je     0x01002717
                           .text:01002502 8d 85 90 fe ff ff                lea    -0x170(%ebp),%eax
                           .text:01002508 50                               push   %eax
                           .text:01002509 8d 4d e8                         lea    -0x18(%ebp),%ecx
                           .text:0100250c ff d7                            call   *%edi
                           .text:0100250e 84 c0                            test   %al,%al
                           .text:01002510 0f 84 01 02 00 00                je     0x01002717
                           .text:01002516 8d 85 30 fe ff ff                lea    -0x1d0(%ebp),%eax
                           .text:0100251c 50                               push   %eax
                           .text:0100251d 8d 4d e8                         lea    -0x18(%ebp),%ecx
                           .text:01002520 ff d7                            call   *%edi
                           .text:01002522 84 c0                            test   %al,%al
                           .text:01002524 0f 84 ed 01 00 00                je     0x01002717
                           .text:0100252a 8d 85 78 ff ff ff                lea    -0x88(%ebp),%eax
                           .text:01002530 50                               push   %eax
                           .text:01002531 8d 4d e8                         lea    -0x18(%ebp),%ecx
                           .text:01002534 ff d7                            call   *%edi
                           .text:01002536 84 c0                            test   %al,%al
                           .text:01002538 0f 84 d9 01 00 00                je     0x01002717
                           .text:0100253e 8d 45 a4                         lea    -0x5c(%ebp),%eax
                           .text:01002541 50                               push   %eax
                           .text:01002542 8d 4d e8                         lea    -0x18(%ebp),%ecx
                           .text:01002545 ff d7                            call   *%edi
                           .text:01002547 84 c0                            test   %al,%al
                           .text:01002549 0f 84 c8 01 00 00                je     0x01002717
                           .text:0100254f ff 75 08                         pushl  0x8(%ebp)
                           .text:01002552 8d 8d 34 fd ff ff                lea    -0x2cc(%ebp),%ecx
                           .text:01002558 ff 15 38 11 00 01                call   *0x1001138
                           .text:0100255e 84 c0                            test   %al,%al
                           .text:01002560 0f 84 b1 01 00 00                je     0x01002717
                           .text:01002566 8d 45 e8                         lea    -0x18(%ebp),%eax
                           .text:01002569 50                               push   %eax
                           .text:0100256a 8d 8d 34 fd ff ff                lea    -0x2cc(%ebp),%ecx
                           .text:01002570 ff 15 3c 11 00 01                call   *0x100113c
                           .text:01002576 84 c0                            test   %al,%al
                           .text:01002578 75 42                            jne    0x010025bc
                           .text:0100257a 38 45 0c                         cmp    %al,0xc(%ebp)
                           .text:0100257d 0f 84 a8 01 00 00                je     0x0100272b
                           .text:01002583 8d 8d 34 fd ff ff                lea    -0x2cc(%ebp),%ecx
                           .text:01002589 ff 15 40 11 00 01                call   *0x1001140
                           .text:0100258f 8b f8                            mov    %eax,%edi
                           .text:01002591 8b 06                            mov    (%esi),%eax
                           .text:01002593 57                               push   %edi
                           .text:01002594 68 f8 11 00 01                   push   $0x10011f8
                           .text:01002599 6a 01                            push   $0x1
                           .text:0100259b 68 95 75 00 00                   push   $0x7595
                           .text:010025a0 56                               push   %esi
                           .text:010025a1 ff 50 08                         call   *0x8(%eax)
                           .text:010025a4 83 c4 14                         add    $0x14,%esp
                           .text:010025a7 85 ff                            test   %edi,%edi
                           .text:010025a9 0f 84 7c 01 00 00                je     0x0100272b
                           .text:010025af 8b 07                            mov    (%edi),%eax
                           .text:010025b1 6a 01                            push   $0x1
                           .text:010025b3 8b cf                            mov    %edi,%ecx
                           .text:010025b5 ff 10                            call   *(%eax)
                           .text:010025b7 e9 6f 01 00 00                   jmp    0x0100272b
                           .text:010025bc 8a 85 8c fe ff ff                mov    -0x174(%ebp),%al
                           .text:010025c2 88 86 5c 03 00 00                mov    %al,0x35c(%esi)
                           .text:010025c8 8a 85 ec fe ff ff                mov    -0x114(%ebp),%al
                           .text:010025ce 88 86 58 03 00 00                mov    %al,0x358(%esi)
                           .text:010025d4 8a 85 1c ff ff ff                mov    -0xe4(%ebp),%al
                           .text:010025da 88 86 59 03 00 00                mov    %al,0x359(%esi)
                           .text:010025e0 8a 85 bc fe ff ff                mov    -0x144(%ebp),%al
                           .text:010025e6 88 86 5a 03 00 00                mov    %al,0x35a(%esi)
                           .text:010025ec 8a 85 5c fe ff ff                mov    -0x1a4(%ebp),%al
                           .text:010025f2 8d 8d 4c ff ff ff                lea    -0xb4(%ebp),%ecx
                           .text:010025f8 88 86 5b 03 00 00                mov    %al,0x35b(%esi)
                           .text:010025fe c6 86 5d 03 00 00 00             movb   $0x0,0x35d(%esi)
                           .text:01002605 ff 15 44 11 00 01                call   *0x1001144
                           .text:0100260b 8b 3d cc 10 00 01                mov    0x10010cc,%edi
                           .text:01002611 8b 1d f4 10 00 01                mov    0x10010f4,%ebx
                           .text:01002617 6a ff                            push   $0xffffffff
                           .text:01002619 8d 8e a0 00 00 00                lea    0xa0(%esi),%ecx
                           .text:0100261f 84 c0                            test   %al,%al
                           .text:01002621 74 5e                            je     0x01002681
                           .text:01002623 6a 00                            push   $0x0
                           .text:01002625 ff b5 74 ff ff ff                pushl  -0x8c(%ebp)
                           .text:0100262b ff d7                            call   *%edi
                           .text:0100262d 84 c0                            test   %al,%al
                           .text:0100262f 0f 84 f6 00 00 00                je     0x0100272b
                           .text:01002635 8d 8d 78 ff ff ff                lea    -0x88(%ebp),%ecx
                           .text:0100263b ff 15 44 11 00 01                call   *0x1001144
                           .text:01002641 6a ff                            push   $0xffffffff
                           .text:01002643 8d 8e 28 03 00 00                lea    0x328(%esi),%ecx
                           .text:01002649 84 c0                            test   %al,%al
                           .text:0100264b 74 3d                            je     0x0100268a
                           .text:0100264d 6a 00                            push   $0x0
                           .text:0100264f ff 75 a0                         pushl  -0x60(%ebp)
                           .text:01002652 ff d7                            call   *%edi
                           .text:01002654 84 c0                            test   %al,%al
                           .text:01002656 0f 84 cf 00 00 00                je     0x0100272b
                           .text:0100265c 8d 4d a4                         lea    -0x5c(%ebp),%ecx
                           .text:0100265f ff 15 44 11 00 01                call   *0x1001144
                           .text:01002665 6a ff                            push   $0xffffffff
                           .text:01002667 8d 8e 40 03 00 00                lea    0x340(%esi),%ecx
                           .text:0100266d 84 c0                            test   %al,%al
                           .text:0100266f 74 22                            je     0x01002693
                           .text:01002671 6a 00                            push   $0x0
                           .text:01002673 ff 75 cc                         pushl  -0x34(%ebp)
                           .text:01002676 ff d7                            call   *%edi
                           .text:01002678 84 c0                            test   %al,%al
                           .text:0100267a 75 1e                            jne    0x0100269a
                           .text:0100267c e9 aa 00 00 00                   jmp    0x0100272b
                           .text:01002681 68 ec 12 00 01                   push   $0x10012ec
                           .text:01002686 ff d3                            call   *%ebx
                           .text:01002688 eb a3                            jmp    0x0100262d
                           .text:0100268a 68 ec 12 00 01                   push   $0x10012ec
                           .text:0100268f ff d3                            call   *%ebx
                           .text:01002691 eb c1                            jmp    0x01002654
                           .text:01002693 68 ec 12 00 01                   push   $0x10012ec
                           .text:01002698 ff d3                            call   *%ebx
                           .text:0100269a 8d 8d 30 fe ff ff                lea    -0x1d0(%ebp),%ecx
                           .text:010026a0 e8 c9 ee ff ff                   call   0x0100156e
                           .text:010026a5 8d 8d 90 fe ff ff                lea    -0x170(%ebp),%ecx
                           .text:010026ab e8 be ee ff ff                   call   0x0100156e
                           .text:010026b0 8d 8d f0 fe ff ff                lea    -0x110(%ebp),%ecx
                           .text:010026b6 e8 b3 ee ff ff                   call   0x0100156e
                           .text:010026bb 8d 8d c0 fe ff ff                lea    -0x140(%ebp),%ecx
                           .text:010026c1 e8 a8 ee ff ff                   call   0x0100156e
                           .text:010026c6 8d 8d 60 fe ff ff                lea    -0x1a0(%ebp),%ecx
                           .text:010026cc e8 9d ee ff ff                   call   0x0100156e
                           .text:010026d1 8b 35 48 11 00 01                mov    0x1001148,%esi
                           .text:010026d7 8d 4d a4                         lea    -0x5c(%ebp),%ecx
                           .text:010026da ff d6                            call   *%esi
                           .text:010026dc 8d 8d 78 ff ff ff                lea    -0x88(%ebp),%ecx
                           .text:010026e2 ff d6                            call   *%esi
                           .text:010026e4 8d 8d 20 ff ff ff                lea    -0xe0(%ebp),%ecx
                           .text:010026ea ff d6                            call   *%esi
                           .text:010026ec 8d 8d 4c ff ff ff                lea    -0xb4(%ebp),%ecx
                           .text:010026f2 ff d6                            call   *%esi
                           .text:010026f4 8d 8d 34 fd ff ff                lea    -0x2cc(%ebp),%ecx
                           .text:010026fa ff 15 4c 11 00 01                call   *0x100114c
                           .text:01002700 8b 35 50 11 00 01                mov    0x1001150,%esi
                           .text:01002706 8d 4d d0                         lea    -0x30(%ebp),%ecx
                           .text:01002709 ff d6                            call   *%esi
                           .text:0100270b 8d 4d e8                         lea    -0x18(%ebp),%ecx
                           .text:0100270e ff d6                            call   *%esi
                           .text:01002710 b0 01                            mov    $0x1,%al
                           .text:01002712 e9 8c 00 00 00                   jmp    0x010027a3
                           .text:01002717 80 7d 0c 00                      cmpb   $0x0,0xc(%ebp)
                           .text:0100271b 74 0e                            je     0x0100272b
                           .text:0100271d 8b 06                            mov    (%esi),%eax
                           .text:0100271f 6a 01                            push   $0x1
                           .text:01002721 68 c8 75 00 00                   push   $0x75c8
                           .text:01002726 8b ce                            mov    %esi,%ecx
                           .text:01002728 ff 50 0c                         call   *0xc(%eax)
                           .text:0100272b 8d 8d 30 fe ff ff                lea    -0x1d0(%ebp),%ecx
                           .text:01002731 e8 38 ee ff ff                   call   0x0100156e
                           .text:01002736 8d 8d 90 fe ff ff                lea    -0x170(%ebp),%ecx
                           .text:0100273c e8 2d ee ff ff                   call   0x0100156e
                           .text:01002741 8d 8d f0 fe ff ff                lea    -0x110(%ebp),%ecx
                           .text:01002747 e8 22 ee ff ff                   call   0x0100156e
                           .text:0100274c 8d 8d c0 fe ff ff                lea    -0x140(%ebp),%ecx
                           .text:01002752 e8 17 ee ff ff                   call   0x0100156e
                           .text:01002757 8d 8d 60 fe ff ff                lea    -0x1a0(%ebp),%ecx
                           .text:0100275d e8 0c ee ff ff                   call   0x0100156e
                           .text:01002762 8b 35 48 11 00 01                mov    0x1001148,%esi
                           .text:01002768 8d 4d a4                         lea    -0x5c(%ebp),%ecx
                           .text:0100276b ff d6                            call   *%esi
                           .text:0100276d 8d 8d 78 ff ff ff                lea    -0x88(%ebp),%ecx
                           .text:01002773 ff d6                            call   *%esi
                           .text:01002775 8d 8d 20 ff ff ff                lea    -0xe0(%ebp),%ecx
                           .text:0100277b ff d6                            call   *%esi
                           .text:0100277d 8d 8d 4c ff ff ff                lea    -0xb4(%ebp),%ecx
                           .text:01002783 ff d6                            call   *%esi
                           .text:01002785 8d 8d 34 fd ff ff                lea    -0x2cc(%ebp),%ecx
                           .text:0100278b ff 15 4c 11 00 01                call   *0x100114c
                           .text:01002791 8b 35 50 11 00 01                mov    0x1001150,%esi
                           .text:01002797 8d 4d d0                         lea    -0x30(%ebp),%ecx
                           .text:0100279a ff d6                            call   *%esi
                           .text:0100279c 8d 4d e8                         lea    -0x18(%ebp),%ecx
                           .text:0100279f ff d6                            call   *%esi
                           .text:010027a1 32 c0                            xor    %al,%al
                           .text:010027a3 5f                               pop    %edi
                           .text:010027a4 5e                               pop    %esi
                           .text:010027a5 5b                               pop    %ebx
                           .text:010027a6 c9                               leave  
                           .text:010027a7 c2 08 00                         ret    $0x8
                           .text:010027aa cc                               int3   
                           .text:010027ab cc                               int3   
                           .text:010027ac cc                               int3   
                           .text:010027ad cc                               int3   
                           .text:010027ae cc                               int3   
                           .text:010027af 8b ff                            mov    %edi,%edi
                           .text:010027b1 55                               push   %ebp
                           .text:010027b2 8b ec                            mov    %esp,%ebp
                           .text:010027b4 81 ec 5c 02 00 00                sub    $0x25c,%esp
                           .text:010027ba a1 00 50 00 01                   mov    0x1005000,%eax
                           .text:010027bf 33 c5                            xor    %ebp,%eax
                           .text:010027c1 89 45 fc                         mov    %eax,-0x4(%ebp)
                           .text:010027c4 53                               push   %ebx
                           .text:010027c5 56                               push   %esi
                           .text:010027c6 8b f1                            mov    %ecx,%esi
                           .text:010027c8 57                               push   %edi
                           .text:010027c9 8b 7d 08                         mov    0x8(%ebp),%edi
                           .text:010027cc 8d 8d bc fd ff ff                lea    -0x244(%ebp),%ecx
                           .text:010027d2 ff 15 ec 10 00 01                call   *0x10010ec
                           .text:010027d8 8d 8d a4 fd ff ff                lea    -0x25c(%ebp),%ecx
                           .text:010027de ff 15 d8 10 00 01                call   *0x10010d8
                           .text:010027e4 6a 01                            push   $0x1
                           .text:010027e6 33 db                            xor    %ebx,%ebx
                           .text:010027e8 53                               push   %ebx
                           .text:010027e9 8b ce                            mov    %esi,%ecx
                           .text:010027eb e8 17 fb ff ff                   call   0x01002307
                           .text:010027f0 84 c0                            test   %al,%al
                           .text:010027f2 75 0b                            jne    0x010027ff
                           .text:010027f4 c7 07 04 00 00 00                movl   $0x4,(%edi)
                           .text:010027fa e9 cf 01 00 00                   jmp    0x010029ce
                           .text:010027ff 38 9e 5c 03 00 00                cmp    %bl,0x35c(%esi)
                           .text:01002805 74 0b                            je     0x01002812
                           .text:01002807 53                               push   %ebx
                           .text:01002808 68 94 75 00 00                   push   $0x7594
                           .text:0100280d e9 b3 01 00 00                   jmp    0x010029c5
                           .text:01002812 39 9e ac 00 00 00                cmp    %ebx,0xac(%esi)
                           .text:01002818 75 21                            jne    0x0100283b
                           .text:0100281a 8d 86 a0 00 00 00                lea    0xa0(%esi),%eax
                           .text:01002820 50                               push   %eax
                           .text:01002821 ff 15 c8 10 00 01                call   *0x10010c8
                           .text:01002827 84 c0                            test   %al,%al
                           .text:01002829 75 10                            jne    0x0100283b
                           .text:0100282b 6a 01                            push   $0x1
                           .text:0100282d 68 c8 75 00 00                   push   $0x75c8
                           .text:01002832 8b 06                            mov    (%esi),%eax
                           .text:01002834 8b ce                            mov    %esi,%ecx
                           .text:01002836 ff 50 0c                         call   *0xc(%eax)
                           .text:01002839 eb b9                            jmp    0x010027f4
                           .text:0100283b 8d 86 a0 00 00 00                lea    0xa0(%esi),%eax
                           .text:01002841 53                               push   %ebx
                           .text:01002842 50                               push   %eax
                           .text:01002843 8d 8d bc fd ff ff                lea    -0x244(%ebp),%ecx
                           .text:01002849 ff 15 60 11 00 01                call   *0x1001160
                           .text:0100284f 84 c0                            test   %al,%al
                           .text:01002851 74 d8                            je     0x0100282b
                           .text:01002853 8d 8d a4 fd ff ff                lea    -0x25c(%ebp),%ecx
                           .text:01002859 51                               push   %ecx
                           .text:0100285a 8d 8e d0 00 00 00                lea    0xd0(%esi),%ecx
                           .text:01002860 51                               push   %ecx
                           .text:01002861 8d 86 b8 00 00 00                lea    0xb8(%esi),%eax
                           .text:01002867 50                               push   %eax
                           .text:01002868 8d 8d bc fd ff ff                lea    -0x244(%ebp),%ecx
                           .text:0100286e ff 15 e0 10 00 01                call   *0x10010e0
                           .text:01002874 6a 04                            push   $0x4
                           .text:01002876 5b                               pop    %ebx
                           .text:01002877 85 c0                            test   %eax,%eax
                           .text:01002879 0f 8c 3f 01 00 00                jl     0x010029be
                           .text:0100287f 33 c9                            xor    %ecx,%ecx
                           .text:01002881 41                               inc    %ecx
                           .text:01002882 3b c1                            cmp    %ecx,%eax
                           .text:01002884 7e 1b                            jle    0x010028a1
                           .text:01002886 83 f8 02                         cmp    $0x2,%eax
                           .text:01002889 74 13                            je     0x0100289e
                           .text:0100288b 3b c3                            cmp    %ebx,%eax
                           .text:0100288d 0f 85 2b 01 00 00                jne    0x010029be
                           .text:01002893 51                               push   %ecx
                           .text:01002894 68 ad 08 00 00                   push   $0x8ad
                           .text:01002899 e9 27 01 00 00                   jmp    0x010029c5
                           .text:0100289e 51                               push   %ecx
                           .text:0100289f eb 8c                            jmp    0x0100282d
                           .text:010028a1 83 bd b0 fd ff ff 00             cmpl   $0x0,-0x250(%ebp)
                           .text:010028a8 74 08                            je     0x010028b2
                           .text:010028aa 51                               push   %ecx
                           .text:010028ab 68 97 75 00 00                   push   $0x7597
                           .text:010028b0 eb 80                            jmp    0x01002832
                           .text:010028b2 8d 8d bc fd ff ff                lea    -0x244(%ebp),%ecx
                           .text:010028b8 ff 15 e4 10 00 01                call   *0x10010e4
                           .text:010028be 8b 1d cc 10 00 01                mov    0x10010cc,%ebx
                           .text:010028c4 6a ff                            push   $0xffffffff
                           .text:010028c6 8d 8e 88 00 00 00                lea    0x88(%esi),%ecx
                           .text:010028cc 6a 00                            push   $0x0
                           .text:010028ce 84 c0                            test   %al,%al
                           .text:010028d0 74 2f                            je     0x01002901
                           .text:010028d2 8d 86 b8 00 00 00                lea    0xb8(%esi),%eax
                           .text:010028d8 50                               push   %eax
                           .text:010028d9 ff d3                            call   *%ebx
                           .text:010028db 84 c0                            test   %al,%al
                           .text:010028dd 0f 84 48 ff ff ff                je     0x0100282b
                           .text:010028e3 83 be ec 02 00 00 02             cmpl   $0x2,0x2ec(%esi)
                           .text:010028ea 75 76                            jne    0x01002962
                           .text:010028ec 8d 86 e0 02 00 00                lea    0x2e0(%esi),%eax
                           .text:010028f2 83 78 0c 01                      cmpl   $0x1,0xc(%eax)
                           .text:010028f6 76 11                            jbe    0x01002909
                           .text:010028f8 8b 48 08                         mov    0x8(%eax),%ecx
                           .text:010028fb 0f b7 49 02                      movzwl 0x2(%ecx),%ecx
                           .text:010028ff eb 0d                            jmp    0x0100290e
                           .text:01002901 8d 86 e0 02 00 00                lea    0x2e0(%esi),%eax
                           .text:01002907 eb cf                            jmp    0x010028d8
                           .text:01002909 b9 ff ff 00 00                   mov    $0xffff,%ecx
                           .text:0100290e 66 83 f9 3a                      cmp    $0x3a,%cx
                           .text:01002912 75 4e                            jne    0x01002962
                           .text:01002914 6a ff                            push   $0xffffffff
                           .text:01002916 6a 00                            push   $0x0
                           .text:01002918 50                               push   %eax
                           .text:01002919 8d 8e a0 00 00 00                lea    0xa0(%esi),%ecx
                           .text:0100291f ff d3                            call   *%ebx
                           .text:01002921 84 c0                            test   %al,%al
                           .text:01002923 0f 84 02 ff ff ff                je     0x0100282b
                           .text:01002929 8d 9e a0 00 00 00                lea    0xa0(%esi),%ebx
                           .text:0100292f ff 73 08                         pushl  0x8(%ebx)
                           .text:01002932 ff 15 90 10 00 01                call   *0x1001090
                           .text:01002938 59                               pop    %ecx
                           .text:01002939 53                               push   %ebx
                           .text:0100293a ff 15 5c 11 00 01                call   *0x100115c
                           .text:01002940 83 e8 00                         sub    $0x0,%eax
                           .text:01002943 74 72                            je     0x010029b7
                           .text:01002945 83 e8 03                         sub    $0x3,%eax
                           .text:01002948 74 61                            je     0x010029ab
                           .text:0100294a 48                               dec    %eax
                           .text:0100294b 74 52                            je     0x0100299f
                           .text:0100294d 83 be 34 03 00 00 00             cmpl   $0x0,0x334(%esi)
                           .text:01002954 75 14                            jne    0x0100296a
                           .text:01002956 6a 01                            push   $0x1
                           .text:01002958 68 96 75 00 00                   push   $0x7596
                           .text:0100295d e9 d0 fe ff ff                   jmp    0x01002832
                           .text:01002962 8d 86 b8 00 00 00                lea    0xb8(%esi),%eax
                           .text:01002968 eb aa                            jmp    0x01002914
                           .text:0100296a 8d 86 10 03 00 00                lea    0x310(%esi),%eax
                           .text:01002970 50                               push   %eax
                           .text:01002971 53                               push   %ebx
                           .text:01002972 ff 15 4c 10 00 01                call   *0x100104c
                           .text:01002978 84 c0                            test   %al,%al
                           .text:0100297a 0f 84 ab fe ff ff                je     0x0100282b
                           .text:01002980 83 27 00                         andl   $0x0,(%edi)
                           .text:01002983 8d 8d a4 fd ff ff                lea    -0x25c(%ebp),%ecx
                           .text:01002989 ff 15 74 11 00 01                call   *0x1001174
                           .text:0100298f 8d 8d bc fd ff ff                lea    -0x244(%ebp),%ecx
                           .text:01002995 ff 15 78 11 00 01                call   *0x1001178
                           .text:0100299b b0 01                            mov    $0x1,%al
                           .text:0100299d eb 49                            jmp    0x010029e8
                           .text:0100299f 6a 01                            push   $0x1
                           .text:010029a1 68 f6 75 00 00                   push   $0x75f6
                           .text:010029a6 e9 87 fe ff ff                   jmp    0x01002832
                           .text:010029ab 6a 01                            push   $0x1
                           .text:010029ad 68 98 75 00 00                   push   $0x7598
                           .text:010029b2 e9 7b fe ff ff                   jmp    0x01002832
                           .text:010029b7 6a 01                            push   $0x1
                           .text:010029b9 e9 ed fe ff ff                   jmp    0x010028ab
                           .text:010029be 6a 01                            push   $0x1
                           .text:010029c0 68 97 75 00 00                   push   $0x7597
                           .text:010029c5 8b 06                            mov    (%esi),%eax
                           .text:010029c7 8b ce                            mov    %esi,%ecx
                           .text:010029c9 ff 50 0c                         call   *0xc(%eax)
                           .text:010029cc 89 1f                            mov    %ebx,(%edi)
                           .text:010029ce 8d 8d a4 fd ff ff                lea    -0x25c(%ebp),%ecx
                           .text:010029d4 ff 15 74 11 00 01                call   *0x1001174
                           .text:010029da 8d 8d bc fd ff ff                lea    -0x244(%ebp),%ecx
                           .text:010029e0 ff 15 78 11 00 01                call   *0x1001178
                           .text:010029e6 32 c0                            xor    %al,%al
                           .text:010029e8 8b 4d fc                         mov    -0x4(%ebp),%ecx
                           .text:010029eb 5f                               pop    %edi
                           .text:010029ec 5e                               pop    %esi
                           .text:010029ed 33 cd                            xor    %ebp,%ecx
                           .text:010029ef 5b                               pop    %ebx
                           .text:010029f0 e8 43 02 00 00                   call   0x01002c38
                           .text:010029f5 c9                               leave  
                           .text:010029f6 c2 04 00                         ret    $0x4
                           .text:010029f9 cc                               int3   
                           .text:010029fa cc                               int3   
                           .text:010029fb cc                               int3   
                           .text:010029fc cc                               int3   
                           .text:010029fd cc                               int3   
                           .text:010029fe 8b ff                            mov    %edi,%edi
                           .text:01002a00 55                               push   %ebp
                           .text:01002a01 8b ec                            mov    %esp,%ebp
                           .text:01002a03 56                               push   %esi
                           .text:01002a04 8b f1                            mov    %ecx,%esi
                           .text:01002a06 e8 06 ea ff ff                   call   0x01001411
                           .text:01002a0b 6a 01                            push   $0x1
                           .text:01002a0d 68 31 75 00 00                   push   $0x7531
                           .text:01002a12 68 94 75 00 00                   push   $0x7594
                           .text:01002a17 8b ce                            mov    %esi,%ecx
                           .text:01002a19 ff 15 b0 10 00 01                call   *0x10010b0
                           .text:01002a1f 84 c0                            test   %al,%al
                           .text:01002a21 74 0c                            je     0x01002a2f
                           .text:01002a23 ff 75 08                         pushl  0x8(%ebp)
                           .text:01002a26 8b ce                            mov    %esi,%ecx
                           .text:01002a28 e8 82 fd ff ff                   call   0x010027af
                           .text:01002a2d eb 0b                            jmp    0x01002a3a
                           .text:01002a2f 8b 45 08                         mov    0x8(%ebp),%eax
                           .text:01002a32 c7 00 04 00 00 00                movl   $0x4,(%eax)
                           .text:01002a38 32 c0                            xor    %al,%al
                           .text:01002a3a 5e                               pop    %esi
                           .text:01002a3b 5d                               pop    %ebp
                           .text:01002a3c c2 04 00                         ret    $0x4
                           .text:01002a3f cc                               int3   
                           .text:01002a40 cc                               int3   
                           .text:01002a41 cc                               int3   
                           .text:01002a42 cc                               int3   
                           .text:01002a43 cc                               int3   
                           .text:01002a44 8b ff                            mov    %edi,%edi
                           .text:01002a46 55                               push   %ebp
                           .text:01002a47 8b ec                            mov    %esp,%ebp
                           .text:01002a49 81 ec 80 03 00 00                sub    $0x380,%esp
                           .text:01002a4f a1 00 50 00 01                   mov    0x1005000,%eax
                           .text:01002a54 33 c5                            xor    %ebp,%eax
                           .text:01002a56 89 45 fc                         mov    %eax,-0x4(%ebp)
                           .text:01002a59 6a 00                            push   $0x0
                           .text:01002a5b 6a 00                            push   $0x0
                           .text:01002a5d 6a 01                            push   $0x1
                           .text:01002a5f 6a 00                            push   $0x0
                           .text:01002a61 c7 85 80 fc ff ff 04 00 00 00    movl   $0x4,-0x380(%ebp)
                           .text:01002a6b ff 15 10 10 00 01                call   *0x1001010
                           .text:01002a71 6a 04                            push   $0x4
                           .text:01002a73 e8 4d e9 ff ff                   call   0x010013c5
                           .text:01002a78 59                               pop    %ecx
                           .text:01002a79 85 c0                            test   %eax,%eax
                           .text:01002a7b 74 0a                            je     0x01002a87
                           .text:01002a7d 8b c8                            mov    %eax,%ecx
                           .text:01002a7f ff 15 b8 10 00 01                call   *0x10010b8
                           .text:01002a85 eb 02                            jmp    0x01002a89
                           .text:01002a87 33 c0                            xor    %eax,%eax
                           .text:01002a89 a3 18 50 00 01                   mov    %eax,0x1005018
                           .text:01002a8e 85 c0                            test   %eax,%eax
                           .text:01002a90 74 08                            je     0x01002a9a
                           .text:01002a92 8b c8                            mov    %eax,%ecx
                           .text:01002a94 ff 15 7c 11 00 01                call   *0x100117c
                           .text:01002a9a 8d 8d 84 fc ff ff                lea    -0x37c(%ebp),%ecx
                           .text:01002aa0 e8 f5 ed ff ff                   call   0x0100189a
                           .text:01002aa5 8d 85 80 fc ff ff                lea    -0x380(%ebp),%eax
                           .text:01002aab 50                               push   %eax
                           .text:01002aac 8d 8d 84 fc ff ff                lea    -0x37c(%ebp),%ecx
                           .text:01002ab2 e8 47 ff ff ff                   call   0x010029fe
                           .text:01002ab7 84 c0                            test   %al,%al
                           .text:01002ab9 74 11                            je     0x01002acc
                           .text:01002abb 8d 8d 84 fc ff ff                lea    -0x37c(%ebp),%ecx
                           .text:01002ac1 e8 e4 ee ff ff                   call   0x010019aa
                           .text:01002ac6 89 85 80 fc ff ff                mov    %eax,-0x380(%ebp)
                           .text:01002acc 8d 8d 84 fc ff ff                lea    -0x37c(%ebp),%ecx
                           .text:01002ad2 e8 72 e9 ff ff                   call   0x01001449
                           .text:01002ad7 8b 4d fc                         mov    -0x4(%ebp),%ecx
                           .text:01002ada 8b 85 80 fc ff ff                mov    -0x380(%ebp),%eax
                           .text:01002ae0 33 cd                            xor    %ebp,%ecx
                           .text:01002ae2 e8 51 01 00 00                   call   0x01002c38
                           .text:01002ae7 c9                               leave  
                           .text:01002ae8 c3                               ret    
                           .text:01002ae9 cc                               int3   
                           .text:01002aea cc                               int3   
                           .text:01002aeb cc                               int3   
                           .text:01002aec cc                               int3   
                           .text:01002aed cc                               int3   
                           .text:01002aee 8b ff                            mov    %edi,%edi
                           .text:01002af0 55                               push   %ebp
                           .text:01002af1 8b ec                            mov    %esp,%ebp
                           .text:01002af3 51                               push   %ecx
                           .text:01002af4 51                               push   %ecx
                           .text:01002af5 a3 20 51 00 01                   mov    %eax,0x1005120
                           .text:01002afa 89 0d 1c 51 00 01                mov    %ecx,0x100511c
                           .text:01002b00 89 15 18 51 00 01                mov    %edx,0x1005118
                           .text:01002b06 89 1d 14 51 00 01                mov    %ebx,0x1005114
                           .text:01002b0c 89 35 10 51 00 01                mov    %esi,0x1005110
                           .text:01002b12 89 3d 0c 51 00 01                mov    %edi,0x100510c
                           .text:01002b18 66 8c 15 38 51 00 01             data16 mov %ss,0x1005138
                           .text:01002b1f 66 8c 0d 2c 51 00 01             data16 mov %cs,0x100512c
                           .text:01002b26 66 8c 1d 08 51 00 01             data16 mov %ds,0x1005108
                           .text:01002b2d 66 8c 05 04 51 00 01             data16 mov %es,0x1005104
                           .text:01002b34 66 8c 25 00 51 00 01             data16 mov %fs,0x1005100
                           .text:01002b3b 66 8c 2d fc 50 00 01             data16 mov %gs,0x10050fc
                           .text:01002b42 9c                               pushf  
                           .text:01002b43 8f 05 30 51 00 01                popl   0x1005130
                           .text:01002b49 8b 45 00                         mov    0x0(%ebp),%eax
                           .text:01002b4c a3 24 51 00 01                   mov    %eax,0x1005124
                           .text:01002b51 8b 45 04                         mov    0x4(%ebp),%eax
                           .text:01002b54 a3 28 51 00 01                   mov    %eax,0x1005128
                           .text:01002b59 8d 45 08                         lea    0x8(%ebp),%eax
                           .text:01002b5c a3 34 51 00 01                   mov    %eax,0x1005134
                           .text:01002b61 a1 28 51 00 01                   mov    0x1005128,%eax
                           .text:01002b66 a3 2c 50 00 01                   mov    %eax,0x100502c
                           .text:01002b6b a1 00 50 00 01                   mov    0x1005000,%eax
                           .text:01002b70 c7 05 70 50 00 01 01 00 01 00    movl   $0x10001,0x1005070
                           .text:01002b7a c7 05 20 50 00 01 09 04 00 c0    movl   $0xc0000409,0x1005020
                           .text:01002b84 c7 05 24 50 00 01 01 00 00 00    movl   $0x1,0x1005024
                           .text:01002b8e 89 45 f8                         mov    %eax,-0x8(%ebp)
                           .text:01002b91 a1 04 50 00 01                   mov    0x1005004,%eax
                           .text:01002b96 68 2c 13 00 01                   push   $0x100132c
                           .text:01002b9b 89 45 fc                         mov    %eax,-0x4(%ebp)
                           .text:01002b9e e8 2f 01 00 00                   call   0x01002cd2
                           .text:01002ba3 68 09 04 00 c0                   push   $0xc0000409
                           .text:01002ba8 6a ff                            push   $0xffffffff
                           .text:01002baa e8 17 01 00 00                   call   0x01002cc6
                           .text:01002baf c9                               leave  
                           .text:01002bb0 c3                               ret    
                           .text:01002bb1 cc                               int3   
                           .text:01002bb2 cc                               int3   
                           .text:01002bb3 cc                               int3   
                           .text:01002bb4 cc                               int3   
                           .text:01002bb5 cc                               int3   
                           .text:01002bb6 8b ff                            mov    %edi,%edi
                           .text:01002bb8 55                               push   %ebp
                           .text:01002bb9 8b ec                            mov    %esp,%ebp
                           .text:01002bbb eb 02                            jmp    0x01002bbf
                           .text:01002bbd f3 90                            pause  
                           .text:01002bbf 8b 0d 24 03 fe 7f                mov    0x7ffe0324,%ecx
                           .text:01002bc5 8b 15 20 03 fe 7f                mov    0x7ffe0320,%edx
                           .text:01002bcb a1 28 03 fe 7f                   mov    0x7ffe0328,%eax
                           .text:01002bd0 3b c8                            cmp    %eax,%ecx
                           .text:01002bd2 75 e9                            jne    0x01002bbd
                           .text:01002bd4 a1 04 00 fe 7f                   mov    0x7ffe0004,%eax
                           .text:01002bd9 f7 e2                            mul    %edx
                           .text:01002bdb c1 e1 08                         shl    $0x8,%ecx
                           .text:01002bde 0f af 0d 04 00 fe 7f             imul   0x7ffe0004,%ecx
                           .text:01002be5 0f ac d0 18                      shrd   $0x18,%edx,%eax
                           .text:01002be9 03 c1                            add    %ecx,%eax
                           .text:01002beb 8b 4d 08                         mov    0x8(%ebp),%ecx
                           .text:01002bee c1 ea 18                         shr    $0x18,%edx
                           .text:01002bf1 33 c1                            xor    %ecx,%eax
                           .text:01002bf3 89 01                            mov    %eax,(%ecx)
                           .text:01002bf5 74 07                            je     0x01002bfe
                           .text:01002bf7 3d 4e e6 40 bb                   cmp    $0xbb40e64e,%eax
                           .text:01002bfc 75 06                            jne    0x01002c04
                           .text:01002bfe c7 01 4f e6 40 bb                movl   $0xbb40e64f,(%ecx)
                           .text:01002c04 5d                               pop    %ebp
                           .text:01002c05 c3                               ret    
                           .text:01002c06 cc                               int3   
                           .text:01002c07 cc                               int3   
                           .text:01002c08 cc                               int3   
                           .text:01002c09 cc                               int3   
                           .text:01002c0a cc                               int3   
                           .text:01002c0b a1 00 50 00 01                   mov    0x1005000,%eax
                           .text:01002c10 85 c0                            test   %eax,%eax
                           .text:01002c12 74 07                            je     0x01002c1b
                           .text:01002c14 3d 4e e6 40 bb                   cmp    $0xbb40e64e,%eax
                           .text:01002c19 75 10                            jne    0x01002c2b
                           .text:01002c1b 68 00 50 00 01                   push   $0x1005000
                           .text:01002c20 e8 91 ff ff ff                   call   0x01002bb6
                           .text:01002c25 a1 00 50 00 01                   mov    0x1005000,%eax
                           .text:01002c2a 59                               pop    %ecx
                           .text:01002c2b f7 d0                            not    %eax
                           .text:01002c2d a3 04 50 00 01                   mov    %eax,0x1005004
                           .text:01002c32 c3                               ret    
                           .text:01002c33 cc                               int3   
                           .text:01002c34 cc                               int3   
                           .text:01002c35 cc                               int3   
                           .text:01002c36 cc                               int3   
                           .text:01002c37 cc                               int3   
                           .text:01002c38 3b 0d 00 50 00 01                cmp    0x1005000,%ecx
                           .text:01002c3e 75 03                            jne    0x01002c43
                           .text:01002c40 c2 00 00                         ret    $0x0
                           .text:01002c43 e9 a6 fe ff ff                   jmp    0x01002aee
                           .text:01002c48 cc                               int3   
                           .text:01002c49 cc                               int3   
                           .text:01002c4a cc                               int3   
                           .text:01002c4b cc                               int3   
                           .text:01002c4c cc                               int3   
                           .text:01002c4d cc                               int3   
                           .text:01002c4e ff 25 70 11 00 01                jmp    *0x1001170
                           .text:01002c54 cc                               int3   
                           .text:01002c55 cc                               int3   
                           .text:01002c56 cc                               int3   
                           .text:01002c57 cc                               int3   
                           .text:01002c58 cc                               int3   
                           .text:01002c59 cc                               int3   
                           .text:01002c5a ff 25 18 11 00 01                jmp    *0x1001118
                           .text:01002c60 cc                               int3   
                           .text:01002c61 cc                               int3   
                           .text:01002c62 cc                               int3   
                           .text:01002c63 cc                               int3   
                           .text:01002c64 cc                               int3   
                           .text:01002c65 cc                               int3   
                           .text:01002c66 ff 25 14 11 00 01                jmp    *0x1001114
                           .text:01002c6c cc                               int3   
                           .text:01002c6d cc                               int3   
                           .text:01002c6e cc                               int3   
                           .text:01002c6f cc                               int3   
                           .text:01002c70 cc                               int3   
                           .text:01002c71 cc                               int3   
                           .text:01002c72 ff 25 10 11 00 01                jmp    *0x1001110
                           .text:01002c78 cc                               int3   
                           .text:01002c79 cc                               int3   
                           .text:01002c7a cc                               int3   
                           .text:01002c7b cc                               int3   
                           .text:01002c7c cc                               int3   
                           .text:01002c7d cc                               int3   
                           .text:01002c7e ff 25 0c 11 00 01                jmp    *0x100110c
                           .text:01002c84 cc                               int3   
                           .text:01002c85 cc                               int3   
                           .text:01002c86 cc                               int3   
                           .text:01002c87 cc                               int3   
                           .text:01002c88 cc                               int3   
                           .text:01002c89 cc                               int3   
                           .text:01002c8a ff 25 08 11 00 01                jmp    *0x1001108
                           .text:01002c90 cc                               int3   
                           .text:01002c91 cc                               int3   
                           .text:01002c92 cc                               int3   
                           .text:01002c93 cc                               int3   
                           .text:01002c94 cc                               int3   
                           .text:01002c95 cc                               int3   
                           .text:01002c96 ff 25 b4 10 00 01                jmp    *0x10010b4
                           .text:01002c9c cc                               int3   
                           .text:01002c9d cc                               int3   
                           .text:01002c9e cc                               int3   
                           .text:01002c9f cc                               int3   
                           .text:01002ca0 cc                               int3   
                           .text:01002ca1 cc                               int3   
                           .text:01002ca2 ff 25 c4 10 00 01                jmp    *0x10010c4
                           .text:01002ca8 cc                               int3   
                           .text:01002ca9 cc                               int3   
                           .text:01002caa cc                               int3   
                           .text:01002cab cc                               int3   
                           .text:01002cac cc                               int3   
                           .text:01002cad cc                               int3   
                           .text:01002cae ff 25 04 11 00 01                jmp    *0x1001104
                           .text:01002cb4 cc                               int3   
                           .text:01002cb5 cc                               int3   
                           .text:01002cb6 cc                               int3   
                           .text:01002cb7 cc                               int3   
                           .text:01002cb8 cc                               int3   
                           .text:01002cb9 cc                               int3   
                           .text:01002cba ff 25 00 11 00 01                jmp    *0x1001100
                           .text:01002cc0 cc                               int3   
                           .text:01002cc1 cc                               int3   
                           .text:01002cc2 cc                               int3   
                           .text:01002cc3 cc                               int3   
                           .text:01002cc4 cc                               int3   
                           .text:01002cc5 cc                               int3   
                           .text:01002cc6 ff 25 9c 10 00 01                jmp    *0x100109c
                           .text:01002ccc cc                               int3   
                           .text:01002ccd cc                               int3   
                           .text:01002cce cc                               int3   
                           .text:01002ccf cc                               int3   
                           .text:01002cd0 cc                               int3   
                           .text:01002cd1 cc                               int3   
                           .text:01002cd2 ff 25 a8 10 00 01                jmp    *0x10010a8
                           .text:01002cd8 cc                               int3   
                           .text:01002cd9 cc                               int3   
                           .text:01002cda cc                               int3   
                           .text:01002cdb cc                               int3   
                           .text:01002cdc cc                               int3   
                           .text:01002cdd cc                               int3   
                           .text:01002cde ff 25 34 10 00 01                jmp    *0x1001034
                           .text:01002ce4 cc                               int3   
                           .text:01002ce5 cc                               int3   
                           .text:01002ce6 cc                               int3   
                           .text:01002ce7 cc                               int3   
                           .text:01002ce8 cc                               int3   
                           .text:01002ce9 cc                               int3   
                           .text:01002cea ff 25 2c 10 00 01                jmp    *0x100102c
                           .text:01002cf0 cc                               int3   
                           .text:01002cf1 cc                               int3   
                           .text:01002cf2 cc                               int3   
                           .text:01002cf3 cc                               int3   
                           .text:01002cf4 cc                               int3   
                           .text:01002cf5 cc                               int3   
                           .text:01002cf6 ff 25 28 10 00 01                jmp    *0x1001028
                           .text:01002cfc cc                               int3   
                           .text:01002cfd cc                               int3   
                           .text:01002cfe cc                               int3   
                           .text:01002cff cc                               int3   
                           .text:01002d00 cc                               int3   
                           .text:01002d01 8b ff                            mov    %edi,%edi
                           .text:01002d03 55                               push   %ebp
                           .text:01002d04 8b ec                            mov    %esp,%ebp
                           .text:01002d06 56                               push   %esi
                           .text:01002d07 8b 75 08                         mov    0x8(%ebp),%esi
                           .text:01002d0a 33 c0                            xor    %eax,%eax
                           .text:01002d0c eb 0f                            jmp    0x01002d1d
                           .text:01002d0e 85 c0                            test   %eax,%eax
                           .text:01002d10 75 10                            jne    0x01002d22
                           .text:01002d12 8b 0e                            mov    (%esi),%ecx
                           .text:01002d14 85 c9                            test   %ecx,%ecx
                           .text:01002d16 74 02                            je     0x01002d1a
                           .text:01002d18 ff d1                            call   *%ecx
                           .text:01002d1a 83 c6 04                         add    $0x4,%esi
                           .text:01002d1d 3b 75 0c                         cmp    0xc(%ebp),%esi
                           .text:01002d20 72 ec                            jb     0x01002d0e
                           .text:01002d22 5e                               pop    %esi
                           .text:01002d23 5d                               pop    %ebp
                           .text:01002d24 c3                               ret    
                           .text:01002d25 cc                               int3   
                           .text:01002d26 cc                               int3   
                           .text:01002d27 cc                               int3   
                           .text:01002d28 cc                               int3   
                           .text:01002d29 cc                               int3   
                           .text:01002d2a a1 60 53 00 01                   mov    0x1005360,%eax
                           .text:01002d2f 68 50 53 00 01                   push   $0x1005350
                           .text:01002d34 ff 35 5c 53 00 01                pushl  0x100535c
                           .text:01002d3a a3 50 53 00 01                   mov    %eax,0x1005350
                           .text:01002d3f 68 40 53 00 01                   push   $0x1005340
                           .text:01002d44 68 44 53 00 01                   push   $0x1005344
                           .text:01002d49 68 3c 53 00 01                   push   $0x100533c
                           .text:01002d4e ff 15 8c 10 00 01                call   *0x100108c
                           .text:01002d54 83 c4 14                         add    $0x14,%esp
                           .text:01002d57 a3 4c 53 00 01                   mov    %eax,0x100534c
                           .text:01002d5c c3                               ret    
                           .text:01002d5d cc                               int3   
                           .text:01002d5e cc                               int3   
                           .text:01002d5f cc                               int3   
                           .text:01002d60 cc                               int3   
                           .text:01002d61 cc                               int3   
                           .text:01002d62 6a 10                            push   $0x10
                           .text:01002d64 68 78 32 00 01                   push   $0x1003278
                           .text:01002d69 e8 b6 03 00 00                   call   0x01003124
                           .text:01002d6e 33 db                            xor    %ebx,%ebx
                           .text:01002d70 89 5d fc                         mov    %ebx,-0x4(%ebp)
                           .text:01002d73 64 a1 18 00 00 00                mov    %fs:0x18,%eax
                           .text:01002d79 8b 70 04                         mov    0x4(%eax),%esi
                           .text:01002d7c 89 5d e4                         mov    %ebx,-0x1c(%ebp)
                           .text:01002d7f bf 78 53 00 01                   mov    $0x1005378,%edi
                           .text:01002d84 53                               push   %ebx
                           .text:01002d85 56                               push   %esi
                           .text:01002d86 57                               push   %edi
                           .text:01002d87 ff 15 04 10 00 01                call   *0x1001004
                           .text:01002d8d 3b c3                            cmp    %ebx,%eax
                           .text:01002d8f 74 19                            je     0x01002daa
                           .text:01002d91 3b c6                            cmp    %esi,%eax
                           .text:01002d93 75 08                            jne    0x01002d9d
                           .text:01002d95 33 f6                            xor    %esi,%esi
                           .text:01002d97 46                               inc    %esi
                           .text:01002d98 89 75 e4                         mov    %esi,-0x1c(%ebp)
                           .text:01002d9b eb 10                            jmp    0x01002dad
                           .text:01002d9d 68 e8 03 00 00                   push   $0x3e8
                           .text:01002da2 ff 15 08 10 00 01                call   *0x1001008
                           .text:01002da8 eb da                            jmp    0x01002d84
                           .text:01002daa 33 f6                            xor    %esi,%esi
                           .text:01002dac 46                               inc    %esi
                           .text:01002dad a1 74 53 00 01                   mov    0x1005374,%eax
                           .text:01002db2 3b c6                            cmp    %esi,%eax
                           .text:01002db4 75 0a                            jne    0x01002dc0
                           .text:01002db6 6a 1f                            push   $0x1f
                           .text:01002db8 e8 59 03 00 00                   call   0x01003116
                           .text:01002dbd 59                               pop    %ecx
                           .text:01002dbe eb 3b                            jmp    0x01002dfb
                           .text:01002dc0 a1 74 53 00 01                   mov    0x1005374,%eax
                           .text:01002dc5 85 c0                            test   %eax,%eax
                           .text:01002dc7 75 2c                            jne    0x01002df5
                           .text:01002dc9 89 35 74 53 00 01                mov    %esi,0x1005374
                           .text:01002dcf 68 a0 11 00 01                   push   $0x10011a0
                           .text:01002dd4 68 94 11 00 01                   push   $0x1001194
                           .text:01002dd9 e8 23 ff ff ff                   call   0x01002d01
                           .text:01002dde 59                               pop    %ecx
                           .text:01002ddf 59                               pop    %ecx
                           .text:01002de0 85 c0                            test   %eax,%eax
                           .text:01002de2 74 17                            je     0x01002dfb
                           .text:01002de4 c7 45 fc fe ff ff ff             movl   $0xfffffffe,-0x4(%ebp)
                           .text:01002deb b8 ff 00 00 00                   mov    $0xff,%eax
                           .text:01002df0 e9 d0 00 00 00                   jmp    0x01002ec5
                           .text:01002df5 89 35 58 53 00 01                mov    %esi,0x1005358
                           .text:01002dfb a1 74 53 00 01                   mov    0x1005374,%eax
                           .text:01002e00 3b c6                            cmp    %esi,%eax
                           .text:01002e02 75 1b                            jne    0x01002e1f
                           .text:01002e04 68 90 11 00 01                   push   $0x1001190
                           .text:01002e09 68 88 11 00 01                   push   $0x1001188
                           .text:01002e0e e8 f7 02 00 00                   call   0x0100310a
                           .text:01002e13 59                               pop    %ecx
                           .text:01002e14 59                               pop    %ecx
                           .text:01002e15 c7 05 74 53 00 01 02 00 00 00    movl   $0x2,0x1005374
                           .text:01002e1f 39 5d e4                         cmp    %ebx,-0x1c(%ebp)
                           .text:01002e22 75 08                            jne    0x01002e2c
                           .text:01002e24 53                               push   %ebx
                           .text:01002e25 57                               push   %edi
                           .text:01002e26 ff 15 0c 10 00 01                call   *0x100100c
                           .text:01002e2c 39 1d 7c 53 00 01                cmp    %ebx,0x100537c
                           .text:01002e32 74 19                            je     0x01002e4d
                           .text:01002e34 68 7c 53 00 01                   push   $0x100537c
                           .text:01002e39 e8 5b 02 00 00                   call   0x01003099
                           .text:01002e3e 59                               pop    %ecx
                           .text:01002e3f 85 c0                            test   %eax,%eax
                           .text:01002e41 74 0a                            je     0x01002e4d
                           .text:01002e43 53                               push   %ebx
                           .text:01002e44 6a 02                            push   $0x2
                           .text:01002e46 53                               push   %ebx
                           .text:01002e47 ff 15 7c 53 00 01                call   *0x100537c
                           .text:01002e4d ff 35 40 53 00 01                pushl  0x1005340
                           .text:01002e53 ff 35 44 53 00 01                pushl  0x1005344
                           .text:01002e59 ff 35 3c 53 00 01                pushl  0x100533c
                           .text:01002e5f e8 e0 fb ff ff                   call   0x01002a44
                           .text:01002e64 83 c4 0c                         add    $0xc,%esp
                           .text:01002e67 a3 54 53 00 01                   mov    %eax,0x1005354
                           .text:01002e6c 39 1d 48 53 00 01                cmp    %ebx,0x1005348
                           .text:01002e72 75 37                            jne    0x01002eab
                           .text:01002e74 50                               push   %eax
                           .text:01002e75 ff 15 7c 10 00 01                call   *0x100107c
                           .text:01002e7b 8b 45 ec                         mov    -0x14(%ebp),%eax
                           .text:01002e7e 8b 08                            mov    (%eax),%ecx
                           .text:01002e80 8b 09                            mov    (%ecx),%ecx
                           .text:01002e82 89 4d e0                         mov    %ecx,-0x20(%ebp)
                           .text:01002e85 50                               push   %eax
                           .text:01002e86 51                               push   %ecx
                           .text:01002e87 e8 74 01 00 00                   call   0x01003000
                           .text:01002e8c 59                               pop    %ecx
                           .text:01002e8d 59                               pop    %ecx
                           .text:01002e8e c3                               ret    
                           .text:01002e8f 8b 65 e8                         mov    -0x18(%ebp),%esp
                           .text:01002e92 8b 45 e0                         mov    -0x20(%ebp),%eax
                           .text:01002e95 a3 54 53 00 01                   mov    %eax,0x1005354
                           .text:01002e9a 33 db                            xor    %ebx,%ebx
                           .text:01002e9c 39 1d 48 53 00 01                cmp    %ebx,0x1005348
                           .text:01002ea2 75 07                            jne    0x01002eab
                           .text:01002ea4 50                               push   %eax
                           .text:01002ea5 ff 15 84 10 00 01                call   *0x1001084
                           .text:01002eab 39 1d 58 53 00 01                cmp    %ebx,0x1005358
                           .text:01002eb1 75 06                            jne    0x01002eb9
                           .text:01002eb3 ff 15 88 10 00 01                call   *0x1001088
                           .text:01002eb9 c7 45 fc fe ff ff ff             movl   $0xfffffffe,-0x4(%ebp)
                           .text:01002ec0 a1 54 53 00 01                   mov    0x1005354,%eax
                           .text:01002ec5 e8 9f 02 00 00                   call   0x01003169
                           .text:01002eca c3                               ret    
                           .text:01002ecb cc                               int3   
                           .text:01002ecc cc                               int3   
                           .text:01002ecd cc                               int3   
                           .text:01002ece cc                               int3   
                           .text:01002ecf cc                               int3   
                           .text:01002ed0 b8 4d 5a 00 00                   mov    $0x5a4d,%eax
                           .text:01002ed5 66 39 05 00 00 00 01             cmp    %ax,0x1000000
                           .text:01002edc 74 04                            je     0x01002ee2
                           .text:01002ede 33 c0                            xor    %eax,%eax
                           .text:01002ee0 eb 4d                            jmp    0x01002f2f
                           .text:01002ee2 a1 3c 00 00 01                   mov    0x100003c,%eax
                           .text:01002ee7 8d 80 00 00 00 01                lea    0x1000000(%eax),%eax
                           .text:01002eed 81 38 50 45 00 00                cmpl   $0x4550,(%eax)
                           .text:01002ef3 75 e9                            jne    0x01002ede
                           .text:01002ef5 0f b7 48 18                      movzwl 0x18(%eax),%ecx
                           .text:01002ef9 81 f9 0b 01 00 00                cmp    $0x10b,%ecx
                           .text:01002eff 74 1b                            je     0x01002f1c
                           .text:01002f01 81 f9 0b 02 00 00                cmp    $0x20b,%ecx
                           .text:01002f07 75 d5                            jne    0x01002ede
                           .text:01002f09 83 b8 84 00 00 00 0e             cmpl   $0xe,0x84(%eax)
                           .text:01002f10 76 cc                            jbe    0x01002ede
                           .text:01002f12 33 c9                            xor    %ecx,%ecx
                           .text:01002f14 39 88 f8 00 00 00                cmp    %ecx,0xf8(%eax)
                           .text:01002f1a eb 0e                            jmp    0x01002f2a
                           .text:01002f1c 83 78 74 0e                      cmpl   $0xe,0x74(%eax)
                           .text:01002f20 76 bc                            jbe    0x01002ede
                           .text:01002f22 33 c9                            xor    %ecx,%ecx
                           .text:01002f24 39 88 e8 00 00 00                cmp    %ecx,0xe8(%eax)
                           .text:01002f2a 0f 95 c1                         setne  %cl
                           .text:01002f2d 8b c1                            mov    %ecx,%eax
                           .text:01002f2f 6a 01                            push   $0x1
                           .text:01002f31 a3 48 53 00 01                   mov    %eax,0x1005348
                           .text:01002f36 e8 f7 02 00 00                   call   0x01003232
                           .text:01002f3b 50                               push   %eax
                           .text:01002f3c ff 15 64 10 00 01                call   *0x1001064
                           .text:01002f42 83 0d 6c 53 00 01 ff             orl    $0xffffffff,0x100536c
                           .text:01002f49 83 0d 70 53 00 01 ff             orl    $0xffffffff,0x1005370
                           .text:01002f50 59                               pop    %ecx
                           .text:01002f51 59                               pop    %ecx
                           .text:01002f52 ff 15 68 10 00 01                call   *0x1001068
                           .text:01002f58 8b 0d 68 53 00 01                mov    0x1005368,%ecx
                           .text:01002f5e 89 08                            mov    %ecx,(%eax)
                           .text:01002f60 ff 15 6c 10 00 01                call   *0x100106c
                           .text:01002f66 8b 0d 64 53 00 01                mov    0x1005364,%ecx
                           .text:01002f6c 89 08                            mov    %ecx,(%eax)
                           .text:01002f6e e8 51 02 00 00                   call   0x010031c4
                           .text:01002f73 83 3d 10 50 00 01 00             cmpl   $0x0,0x1005010
                           .text:01002f7a 75 0c                            jne    0x01002f88
                           .text:01002f7c 68 c4 31 00 01                   push   $0x10031c4
                           .text:01002f81 ff 15 70 10 00 01                call   *0x1001070
                           .text:01002f87 59                               pop    %ecx
                           .text:01002f88 e8 1f 02 00 00                   call   0x010031ac
                           .text:01002f8d 33 c0                            xor    %eax,%eax
                           .text:01002f8f c3                               ret    
                           .text:01002f90 cc                               int3   
                           .text:01002f91 cc                               int3   
                           .text:01002f92 cc                               int3   
                           .text:01002f93 cc                               int3   
                           .text:01002f94 cc                               int3   
                           .text:01002f95 e8 71 fc ff ff                   call   0x01002c0b
                           .text:01002f9a e9 c3 fd ff ff                   jmp    0x01002d62
                           .text:01002f9f cc                               int3   
                           .text:01002fa0 cc                               int3   
                           .text:01002fa1 cc                               int3   
                           .text:01002fa2 cc                               int3   
                           .text:01002fa3 cc                               int3   
                           .text:01002fa4 8b ff                            mov    %edi,%edi
                           .text:01002fa6 55                               push   %ebp
                           .text:01002fa7 8b ec                            mov    %esp,%ebp
                           .text:01002fa9 8b 45 08                         mov    0x8(%ebp),%eax
                           .text:01002fac 8b 00                            mov    (%eax),%eax
                           .text:01002fae 81 38 63 73 6d e0                cmpl   $0xe06d7363,(%eax)
                           .text:01002fb4 75 2b                            jne    0x01002fe1
                           .text:01002fb6 83 78 10 03                      cmpl   $0x3,0x10(%eax)
                           .text:01002fba 75 25                            jne    0x01002fe1
                           .text:01002fbc 8b 40 14                         mov    0x14(%eax),%eax
                           .text:01002fbf 3d 20 05 93 19                   cmp    $0x19930520,%eax
                           .text:01002fc4 74 15                            je     0x01002fdb
                           .text:01002fc6 3d 21 05 93 19                   cmp    $0x19930521,%eax
                           .text:01002fcb 74 0e                            je     0x01002fdb
                           .text:01002fcd 3d 22 05 93 19                   cmp    $0x19930522,%eax
                           .text:01002fd2 74 07                            je     0x01002fdb
                           .text:01002fd4 3d 00 40 99 01                   cmp    $0x1994000,%eax
                           .text:01002fd9 75 06                            jne    0x01002fe1
                           .text:01002fdb ff 15 60 10 00 01                call   *0x1001060
                           .text:01002fe1 33 c0                            xor    %eax,%eax
                           .text:01002fe3 5d                               pop    %ebp
                           .text:01002fe4 c2 04 00                         ret    $0x4
                           .text:01002fe7 cc                               int3   
                           .text:01002fe8 cc                               int3   
                           .text:01002fe9 cc                               int3   
                           .text:01002fea cc                               int3   
                           .text:01002feb cc                               int3   
                           .text:01002fec 68 a4 2f 00 01                   push   $0x1002fa4
                           .text:01002ff1 ff 15 20 10 00 01                call   *0x1001020
                           .text:01002ff7 33 c0                            xor    %eax,%eax
                           .text:01002ff9 c3                               ret    
                           .text:01002ffa cc                               int3   
                           .text:01002ffb cc                               int3   
                           .text:01002ffc cc                               int3   
                           .text:01002ffd cc                               int3   
                           .text:01002ffe cc                               int3   
                           .text:01002fff cc                               int3   
                           .text:01003000 ff 25 80 10 00 01                jmp    *0x1001080
                           .text:01003006 cc                               int3   
                           .text:01003007 cc                               int3   
                           .text:01003008 cc                               int3   
                           .text:01003009 cc                               int3   
                           .text:0100300a cc                               int3   
                           .text:0100300b cc                               int3   
                           .text:0100300c cc                               int3   
                           .text:0100300d cc                               int3   
                           .text:0100300e cc                               int3   
                           .text:0100300f cc                               int3   
                           .text:01003010 8b ff                            mov    %edi,%edi
                           .text:01003012 55                               push   %ebp
                           .text:01003013 8b ec                            mov    %esp,%ebp
                           .text:01003015 8b 4d 08                         mov    0x8(%ebp),%ecx
                           .text:01003018 b8 4d 5a 00 00                   mov    $0x5a4d,%eax
                           .text:0100301d 66 39 01                         cmp    %ax,(%ecx)
                           .text:01003020 74 04                            je     0x01003026
                           .text:01003022 33 c0                            xor    %eax,%eax
                           .text:01003024 5d                               pop    %ebp
                           .text:01003025 c3                               ret    
                           .text:01003026 8b 41 3c                         mov    0x3c(%ecx),%eax
                           .text:01003029 03 c1                            add    %ecx,%eax
                           .text:0100302b 81 38 50 45 00 00                cmpl   $0x4550,(%eax)
                           .text:01003031 75 ef                            jne    0x01003022
                           .text:01003033 33 d2                            xor    %edx,%edx
                           .text:01003035 b9 0b 01 00 00                   mov    $0x10b,%ecx
                           .text:0100303a 66 39 48 18                      cmp    %cx,0x18(%eax)
                           .text:0100303e 0f 94 c2                         sete   %dl
                           .text:01003041 8b c2                            mov    %edx,%eax
                           .text:01003043 5d                               pop    %ebp
                           .text:01003044 c3                               ret    
                           .text:01003045 cc                               int3   
                           .text:01003046 cc                               int3   
                           .text:01003047 cc                               int3   
                           .text:01003048 cc                               int3   
                           .text:01003049 cc                               int3   
                           .text:0100304a cc                               int3   
                           .text:0100304b cc                               int3   
                           .text:0100304c cc                               int3   
                           .text:0100304d cc                               int3   
                           .text:0100304e cc                               int3   
                           .text:0100304f cc                               int3   
                           .text:01003050 8b ff                            mov    %edi,%edi
                           .text:01003052 55                               push   %ebp
                           .text:01003053 8b ec                            mov    %esp,%ebp
                           .text:01003055 8b 45 08                         mov    0x8(%ebp),%eax
                           .text:01003058 8b 48 3c                         mov    0x3c(%eax),%ecx
                           .text:0100305b 03 c8                            add    %eax,%ecx
                           .text:0100305d 0f b7 41 14                      movzwl 0x14(%ecx),%eax
                           .text:01003061 53                               push   %ebx
                           .text:01003062 56                               push   %esi
                           .text:01003063 0f b7 71 06                      movzwl 0x6(%ecx),%esi
                           .text:01003067 33 d2                            xor    %edx,%edx
                           .text:01003069 57                               push   %edi
                           .text:0100306a 8d 44 08 18                      lea    0x18(%eax,%ecx,1),%eax
                           .text:0100306e 85 f6                            test   %esi,%esi
                           .text:01003070 76 1b                            jbe    0x0100308d
                           .text:01003072 8b 7d 0c                         mov    0xc(%ebp),%edi
                           .text:01003075 8b 48 0c                         mov    0xc(%eax),%ecx
                           .text:01003078 3b f9                            cmp    %ecx,%edi
                           .text:0100307a 72 09                            jb     0x01003085
                           .text:0100307c 8b 58 08                         mov    0x8(%eax),%ebx
                           .text:0100307f 03 d9                            add    %ecx,%ebx
                           .text:01003081 3b fb                            cmp    %ebx,%edi
                           .text:01003083 72 0a                            jb     0x0100308f
                           .text:01003085 42                               inc    %edx
                           .text:01003086 83 c0 28                         add    $0x28,%eax
                           .text:01003089 3b d6                            cmp    %esi,%edx
                           .text:0100308b 72 e8                            jb     0x01003075
                           .text:0100308d 33 c0                            xor    %eax,%eax
                           .text:0100308f 5f                               pop    %edi
                           .text:01003090 5e                               pop    %esi
                           .text:01003091 5b                               pop    %ebx
                           .text:01003092 5d                               pop    %ebp
                           .text:01003093 c3                               ret    
                           .text:01003094 cc                               int3   
                           .text:01003095 cc                               int3   
                           .text:01003096 cc                               int3   
                           .text:01003097 cc                               int3   
                           .text:01003098 cc                               int3   
                           .text:01003099 6a 08                            push   $0x8
                           .text:0100309b 68 98 32 00 01                   push   $0x1003298
                           .text:010030a0 e8 7f 00 00 00                   call   0x01003124
                           .text:010030a5 83 65 fc 00                      andl   $0x0,-0x4(%ebp)
                           .text:010030a9 be 00 00 00 01                   mov    $0x1000000,%esi
                           .text:010030ae 56                               push   %esi
                           .text:010030af e8 5c ff ff ff                   call   0x01003010
                           .text:010030b4 59                               pop    %ecx
                           .text:010030b5 85 c0                            test   %eax,%eax
                           .text:010030b7 74 3d                            je     0x010030f6
                           .text:010030b9 8b 45 08                         mov    0x8(%ebp),%eax
                           .text:010030bc 2b c6                            sub    %esi,%eax
                           .text:010030be 50                               push   %eax
                           .text:010030bf 56                               push   %esi
                           .text:010030c0 e8 8b ff ff ff                   call   0x01003050
                           .text:010030c5 59                               pop    %ecx
                           .text:010030c6 59                               pop    %ecx
                           .text:010030c7 85 c0                            test   %eax,%eax
                           .text:010030c9 74 2b                            je     0x010030f6
                           .text:010030cb 8b 40 24                         mov    0x24(%eax),%eax
                           .text:010030ce c1 e8 1f                         shr    $0x1f,%eax
                           .text:010030d1 f7 d0                            not    %eax
                           .text:010030d3 83 e0 01                         and    $0x1,%eax
                           .text:010030d6 c7 45 fc fe ff ff ff             movl   $0xfffffffe,-0x4(%ebp)
                           .text:010030dd eb 20                            jmp    0x010030ff
                           .text:010030df 8b 45 ec                         mov    -0x14(%ebp),%eax
                           .text:010030e2 8b 00                            mov    (%eax),%eax
                           .text:010030e4 8b 00                            mov    (%eax),%eax
                           .text:010030e6 33 c9                            xor    %ecx,%ecx
                           .text:010030e8 3d 05 00 00 c0                   cmp    $0xc0000005,%eax
                           .text:010030ed 0f 94 c1                         sete   %cl
                           .text:010030f0 8b c1                            mov    %ecx,%eax
                           .text:010030f2 c3                               ret    
                           .text:010030f3 8b 65 e8                         mov    -0x18(%ebp),%esp
                           .text:010030f6 c7 45 fc fe ff ff ff             movl   $0xfffffffe,-0x4(%ebp)
                           .text:010030fd 33 c0                            xor    %eax,%eax
                           .text:010030ff e8 65 00 00 00                   call   0x01003169
                           .text:01003104 c3                               ret    
                           .text:01003105 cc                               int3   
                           .text:01003106 cc                               int3   
                           .text:01003107 cc                               int3   
                           .text:01003108 cc                               int3   
                           .text:01003109 cc                               int3   
                           .text:0100310a ff 25 78 10 00 01                jmp    *0x1001078
                           .text:01003110 cc                               int3   
                           .text:01003111 cc                               int3   
                           .text:01003112 cc                               int3   
                           .text:01003113 cc                               int3   
                           .text:01003114 cc                               int3   
                           .text:01003115 cc                               int3   
                           .text:01003116 ff 25 74 10 00 01                jmp    *0x1001074
                           .text:0100311c cc                               int3   
                           .text:0100311d cc                               int3   
                           .text:0100311e cc                               int3   
                           .text:0100311f cc                               int3   
                           .text:01003120 cc                               int3   
                           .text:01003121 cc                               int3   
                           .text:01003122 cc                               int3   
                           .text:01003123 cc                               int3   
                           .text:01003124 68 82 31 00 01                   push   $0x1003182
                           .text:01003129 64 ff 35 00 00 00 00             pushl  %fs:0x0
                           .text:01003130 8b 44 24 10                      mov    0x10(%esp),%eax
                           .text:01003134 89 6c 24 10                      mov    %ebp,0x10(%esp)
                           .text:01003138 8d 6c 24 10                      lea    0x10(%esp),%ebp
                           .text:0100313c 2b e0                            sub    %eax,%esp
                           .text:0100313e 53                               push   %ebx
                           .text:0100313f 56                               push   %esi
                           .text:01003140 57                               push   %edi
                           .text:01003141 a1 00 50 00 01                   mov    0x1005000,%eax
                           .text:01003146 31 45 fc                         xor    %eax,-0x4(%ebp)
                           .text:01003149 33 c5                            xor    %ebp,%eax
                           .text:0100314b 50                               push   %eax
                           .text:0100314c 89 65 e8                         mov    %esp,-0x18(%ebp)
                           .text:0100314f ff 75 f8                         pushl  -0x8(%ebp)
                           .text:01003152 8b 45 fc                         mov    -0x4(%ebp),%eax
                           .text:01003155 c7 45 fc fe ff ff ff             movl   $0xfffffffe,-0x4(%ebp)
                           .text:0100315c 89 45 f8                         mov    %eax,-0x8(%ebp)
                           .text:0100315f 8d 45 f0                         lea    -0x10(%ebp),%eax
                           .text:01003162 64 a3 00 00 00 00                mov    %eax,%fs:0x0
                           .text:01003168 c3                               ret    
                           .text:01003169 8b 4d f0                         mov    -0x10(%ebp),%ecx
                           .text:0100316c 64 89 0d 00 00 00 00             mov    %ecx,%fs:0x0
                           .text:01003173 59                               pop    %ecx
                           .text:01003174 5f                               pop    %edi
                           .text:01003175 5f                               pop    %edi
                           .text:01003176 5e                               pop    %esi
                           .text:01003177 5b                               pop    %ebx
                           .text:01003178 8b e5                            mov    %ebp,%esp
                           .text:0100317a 5d                               pop    %ebp
                           .text:0100317b 51                               push   %ecx
                           .text:0100317c c3                               ret    
                           .text:0100317d cc                               int3   
                           .text:0100317e cc                               int3   
                           .text:0100317f cc                               int3   
                           .text:01003180 cc                               int3   
                           .text:01003181 cc                               int3   
                           .text:01003182 8b ff                            mov    %edi,%edi
                           .text:01003184 55                               push   %ebp
                           .text:01003185 8b ec                            mov    %esp,%ebp
                           .text:01003187 ff 75 14                         pushl  0x14(%ebp)
                           .text:0100318a ff 75 10                         pushl  0x10(%ebp)
                           .text:0100318d ff 75 0c                         pushl  0xc(%ebp)
                           .text:01003190 ff 75 08                         pushl  0x8(%ebp)
                           .text:01003193 68 38 2c 00 01                   push   $0x1002c38
                           .text:01003198 68 00 50 00 01                   push   $0x1005000
                           .text:0100319d e8 d0 00 00 00                   call   0x01003272
                           .text:010031a2 83 c4 18                         add    $0x18,%esp
                           .text:010031a5 5d                               pop    %ebp
                           .text:010031a6 c3                               ret    
                           .text:010031a7 cc                               int3   
                           .text:010031a8 cc                               int3   
                           .text:010031a9 cc                               int3   
                           .text:010031aa cc                               int3   
                           .text:010031ab cc                               int3   
                           .text:010031ac 68 00 00 03 00                   push   $0x30000
                           .text:010031b1 68 00 00 01 00                   push   $0x10000
                           .text:010031b6 ff 15 58 10 00 01                call   *0x1001058
                           .text:010031bc 59                               pop    %ecx
                           .text:010031bd 59                               pop    %ecx
                           .text:010031be c3                               ret    
                           .text:010031bf cc                               int3   
                           .text:010031c0 cc                               int3   
                           .text:010031c1 cc                               int3   
                           .text:010031c2 cc                               int3   
                           .text:010031c3 cc                               int3   
                           .text:010031c4 33 c0                            xor    %eax,%eax
                           .text:010031c6 c3                               ret    
                           .text:010031c7 cc                               int3   
                           .text:010031c8 cc                               int3   
                           .text:010031c9 cc                               int3   
                           .text:010031ca cc                               int3   
                           .text:010031cb cc                               int3   
                           .text:010031cc 6a 0c                            push   $0xc
                           .text:010031ce 68 b8 32 00 01                   push   $0x10032b8
                           .text:010031d3 e8 4c ff ff ff                   call   0x01003124
                           .text:010031d8 33 c0                            xor    %eax,%eax
                           .text:010031da 8b 4d 08                         mov    0x8(%ebp),%ecx
                           .text:010031dd 85 c9                            test   %ecx,%ecx
                           .text:010031df 74 44                            je     0x01003225
                           .text:010031e1 83 f9 ff                         cmp    $0xffffffff,%ecx
                           .text:010031e4 74 3f                            je     0x01003225
                           .text:010031e6 21 45 fc                         and    %eax,-0x4(%ebp)
                           .text:010031e9 ba 4d 5a 00 00                   mov    $0x5a4d,%edx
                           .text:010031ee 66 39 11                         cmp    %dx,(%ecx)
                           .text:010031f1 75 2b                            jne    0x0100321e
                           .text:010031f3 8b 51 3c                         mov    0x3c(%ecx),%edx
                           .text:010031f6 85 d2                            test   %edx,%edx
                           .text:010031f8 7c 24                            jl     0x0100321e
                           .text:010031fa 81 fa 00 00 00 10                cmp    $0x10000000,%edx
                           .text:01003200 73 1c                            jae    0x0100321e
                           .text:01003202 8d 04 0a                         lea    (%edx,%ecx,1),%eax
                           .text:01003205 89 45 e4                         mov    %eax,-0x1c(%ebp)
                           .text:01003208 81 38 50 45 00 00                cmpl   $0x4550,(%eax)
                           .text:0100320e 74 0e                            je     0x0100321e
                           .text:01003210 eb 07                            jmp    0x01003219
                           .text:01003212 33 c0                            xor    %eax,%eax
                           .text:01003214 40                               inc    %eax
                           .text:01003215 c3                               ret    
                           .text:01003216 8b 65 e8                         mov    -0x18(%ebp),%esp
                           .text:01003219 33 c0                            xor    %eax,%eax
                           .text:0100321b 89 45 e4                         mov    %eax,-0x1c(%ebp)
                           .text:0100321e c7 45 fc fe ff ff ff             movl   $0xfffffffe,-0x4(%ebp)
                           .text:01003225 e8 3f ff ff ff                   call   0x01003169
                           .text:0100322a c2 04 00                         ret    $0x4
                           .text:0100322d cc                               int3   
                           .text:0100322e cc                               int3   
                           .text:0100322f cc                               int3   
                           .text:01003230 cc                               int3   
                           .text:01003231 cc                               int3   
                           .text:01003232 8b ff                            mov    %edi,%edi
                           .text:01003234 55                               push   %ebp
                           .text:01003235 8b ec                            mov    %esp,%ebp
                           .text:01003237 6a 00                            push   $0x0
                           .text:01003239 ff 15 00 10 00 01                call   *0x1001000
                           .text:0100323f 85 c0                            test   %eax,%eax
                           .text:01003241 74 24                            je     0x01003267
                           .text:01003243 50                               push   %eax
                           .text:01003244 e8 83 ff ff ff                   call   0x010031cc
                           .text:01003249 85 c0                            test   %eax,%eax
                           .text:0100324b 74 1a                            je     0x01003267
                           .text:0100324d 0f b7 40 5c                      movzwl 0x5c(%eax),%eax
                           .text:01003251 66 83 f8 02                      cmp    $0x2,%ax
                           .text:01003255 75 05                            jne    0x0100325c
                           .text:01003257 6a 02                            push   $0x2
                           .text:01003259 58                               pop    %eax
                           .text:0100325a 5d                               pop    %ebp
                           .text:0100325b c3                               ret    
                           .text:0100325c 66 83 f8 03                      cmp    $0x3,%ax
                           .text:01003260 75 05                            jne    0x01003267
                           .text:01003262 33 c0                            xor    %eax,%eax
                           .text:01003264 40                               inc    %eax
                           .text:01003265 5d                               pop    %ebp
                           .text:01003266 c3                               ret    
                           .text:01003267 8b 45 08                         mov    0x8(%ebp),%eax
                           .text:0100326a 5d                               pop    %ebp
                           .text:0100326b c3                               ret    
                           .text:0100326c cc                               int3   
                           .text:0100326d cc                               int3   
                           .text:0100326e cc                               int3   
                           .text:0100326f cc                               int3   
                           .text:01003270 cc                               int3   
                           .text:01003271 cc                               int3   
                           .text:01003272 ff 25 5c 10 00 01                jmp    *0x100105c
                           .text:01003278 fe                               (bad)  
                           .text:01003279 ff                               (bad)  
                           .text:0100327a ff                               (bad)  
                           .text:0100327b ff 00                            incl   (%eax)
                           .text:0100327d 00 00                            add    %al,(%eax)
                           .text:0100327f 00 d0                            add    %dl,%al
                           .text:01003281 ff                               (bad)  
                           .text:01003282 ff                               (bad)  
                           .text:01003283 ff 00                            incl   (%eax)
                           .text:01003285 00 00                            add    %al,(%eax)
                           .text:01003287 00 fe                            add    %bh,%dh
                           .text:01003289 ff                               (bad)  
                           .text:0100328a ff                               (bad)  
                           .text:0100328b ff                               (bad)  
                           .text:0100328c 7b 2e                            jnp    0x010032bc
                           .text:0100328e 00 01                            add    %al,(%ecx)
                           .text:01003290 8f                               (bad)  
                           .text:01003291 2e 00 01                         add    %al,%cs:(%ecx)
                           .text:01003294 00 00                            add    %al,(%eax)
                           .text:01003296 00 00                            add    %al,(%eax)
                           .text:01003298 fe                               (bad)  
                           .text:01003299 ff                               (bad)  
                           .text:0100329a ff                               (bad)  
                           .text:0100329b ff 00                            incl   (%eax)
                           .text:0100329d 00 00                            add    %al,(%eax)
                           .text:0100329f 00 d8                            add    %bl,%al
                           .text:010032a1 ff                               (bad)  
                           .text:010032a2 ff                               (bad)  
                           .text:010032a3 ff 00                            incl   (%eax)
                           .text:010032a5 00 00                            add    %al,(%eax)
                           .text:010032a7 00 fe                            add    %bh,%dh
                           .text:010032a9 ff                               (bad)  
                           .text:010032aa ff                               (bad)  
                           .text:010032ab ff                               (bad)  
                           .text:010032ac df 30                            fbstp  (%eax)
                           .text:010032ae 00 01                            add    %al,(%ecx)
                           .text:010032b0 f3 30 00                         repz xor %al,(%eax)
                           .text:010032b3 01 00                            add    %eax,(%eax)
                           .text:010032b5 00 00                            add    %al,(%eax)
                           .text:010032b7 00 fe                            add    %bh,%dh
                           .text:010032b9 ff                               (bad)  
                           .text:010032ba ff                               (bad)  
                           .text:010032bb ff 00                            incl   (%eax)
                           .text:010032bd 00 00                            add    %al,(%eax)
                           .text:010032bf 00 d4                            add    %dl,%ah
                           .text:010032c1 ff                               (bad)  
                           .text:010032c2 ff                               (bad)  
                           .text:010032c3 ff 00                            incl   (%eax)
                           .text:010032c5 00 00                            add    %al,(%eax)
                           .text:010032c7 00 fe                            add    %bh,%dh
                           .text:010032c9 ff                               (bad)  
                           .text:010032ca ff                               (bad)  
                           .text:010032cb ff 12                            call   *(%edx)
                           .text:010032cd 32 00                            xor    (%eax),%al
                           .text:010032cf 01 16                            add    %edx,(%esi)
                           .text:010032d1 32 00                            xor    (%eax),%al
                           .text:010032d3 01 24 34                         add    %esp,(%esp,%esi,1)
                           .text:010032d6 00 00                            add    %al,(%eax)
                           .text:010032d8 ff                               (bad)  
                           .text:010032d9 ff                               (bad)  
                           .text:010032da ff                               (bad)  
                           .text:010032db ff                               (bad)  
                           .text:010032dc ff                               (bad)  
                           .text:010032dd ff                               (bad)  
                           .text:010032de ff                               (bad)  
                           .text:010032df ff                               (bad)  
                           .text:010032e0 fc                               cld    
                           .text:010032e1 3c 00                            cmp    $0x0,%al
                           .text:010032e3 00 b0 10 00 00 b0                add    %dh,-0x4ffffff0(%eax)
                           .text:010032e9 33 00                            xor    (%eax),%eax
                           .text:010032eb 00 ff                            add    %bh,%bh
                           .text:010032ed ff                               (bad)  
                           .text:010032ee ff                               (bad)  
                           .text:010032ef ff                               (bad)  
                           .text:010032f0 ff                               (bad)  
                           .text:010032f1 ff                               (bad)  
                           .text:010032f2 ff                               (bad)  
                           .text:010032f3 ff 90 3e 00 00 3c                call   *0x3c00003e(%eax)
                           .text:010032f9 10 00                            adc    %al,(%eax)
                           .text:010032fb 00 10                            add    %dl,(%eax)
                           .text:010032fd 34 00                            xor    $0x0,%al
                           .text:010032ff 00 ff                            add    %bh,%bh
                           .text:01003301 ff                               (bad)  
                           .text:01003302 ff                               (bad)  
                           .text:01003303 ff                               (bad)  
                           .text:01003304 ff                               (bad)  
                           .text:01003305 ff                               (bad)  
                           .text:01003306 ff                               (bad)  
                           .text:01003307 ff f0                            push   %eax
                           .text:01003309 3e 00 00                         add    %al,%ds:(%eax)
                           .text:0100330c 9c                               pushf  
                           .text:0100330d 10 00                            adc    %al,(%eax)
                           .text:0100330f 00 a8 33 00 00 ff                add    %ch,-0xffffcd(%eax)
                           .text:01003315 ff                               (bad)  
                           .text:01003316 ff                               (bad)  
                           .text:01003317 ff                               (bad)  
                           .text:01003318 ff                               (bad)  
                           .text:01003319 ff                               (bad)  
                           .text:0100331a ff                               (bad)  
                           .text:0100331b ff 1e                            lcall  *(%esi)
                           .text:0100331d 3f                               aas    
                           .text:0100331e 00 00                            add    %al,(%eax)
                           .text:01003320 34 10                            xor    $0x10,%al
                           .text:01003322 00 00                            add    %al,(%eax)
                           .text:01003324 9c                               pushf  
                           .text:01003325 33 00                            xor    (%eax),%eax
                           .text:01003327 00 ff                            add    %bh,%bh
                           .text:01003329 ff                               (bad)  
                           .text:0100332a ff                               (bad)  
                           .text:0100332b ff                               (bad)  
                           .text:0100332c ff                               (bad)  
                           .text:0100332d ff                               (bad)  
                           .text:0100332e ff                               (bad)  
                           .text:0100332f ff 5a 3f                         lcall  *0x3f(%edx)
                           .text:01003332 00 00                            add    %al,(%eax)
                           .text:01003334 28 10                            sub    %dl,(%eax)
                           .text:01003336 00 00                            add    %al,(%eax)
                           .text:01003338 74 33                            je     0x0100336d
                           .text:0100333a 00 00                            add    %al,(%eax)
                           .text:0100333c ff                               (bad)  
                           .text:0100333d ff                               (bad)  
                           .text:0100333e ff                               (bad)  
                           .text:0100333f ff                               (bad)  
                           .text:01003340 ff                               (bad)  
                           .text:01003341 ff                               (bad)  
                           .text:01003342 ff                               (bad)  
                           .text:01003343 ff b0 3f 00 00 00                pushl  0x3f(%eax)
                           .text:01003349 10 00                            adc    %al,(%eax)
                           .text:0100334b 00 cc                            add    %cl,%ah
                           .text:0100334d 33 00                            xor    (%eax),%eax
                           .text:0100334f 00 ff                            add    %bh,%bh
                           .text:01003351 ff                               (bad)  
                           .text:01003352 ff                               (bad)  
                           .text:01003353 ff                               (bad)  
                           .text:01003354 ff                               (bad)  
                           .text:01003355 ff                               (bad)  
                           .text:01003356 ff                               (bad)  
                           .text:01003357 ff 6a 40                         ljmp   *0x40(%edx)
                           .text:0100335a 00 00                            add    %al,(%eax)
                           .text:0100335c 58                               pop    %eax
                           .text:0100335d 10 00                            adc    %al,(%eax)
                           .text:0100335f 00 00                            add    %al,(%eax)
                           .text:01003361 00 00                            add    %al,(%eax)
                           .text:01003363 00 00                            add    %al,(%eax)
                           .text:01003365 00 00                            add    %al,(%eax)
                           .text:01003367 00 00                            add    %al,(%eax)
                           .text:01003369 00 00                            add    %al,(%eax)
                           .text:0100336b 00 00                            add    %al,(%eax)
                           .text:0100336d 00 00                            add    %al,(%eax)
                           .text:0100336f 00 00                            add    %al,(%eax)
                           .text:01003371 00 00                            add    %al,(%eax)
                           .text:01003373 00 0c 41                         add    %cl,(%ecx,%eax,2)
                           .text:01003376 00 00                            add    %al,(%eax)
                           .text:01003378 d0 40 00                         rolb   0x0(%eax)
                           .text:0100337b 00 c8                            add    %cl,%al
                           .text:0100337d 40                               inc    %eax
                           .text:0100337e 00 00                            add    %al,(%eax)
                           .text:01003380 b2 40                            mov    $0x40,%dl
                           .text:01003382 00 00                            add    %al,(%eax)
                           .text:01003384 9a 3f 00 00 8a 3f 00             lcall  $0x3f,$0x8a00003f
                           .text:0100338b 00 78 3f                         add    %bh,0x3f(%eax)
                           .text:0100338e 00 00                            add    %al,(%eax)
                           .text:01003390 68 3f 00 00 ee                   push   $0xee00003f
                           .text:01003395 40                               inc    %eax
                           .text:01003396 00 00                            add    %al,(%eax)
                           .text:01003398 00 00                            add    %al,(%eax)
                           .text:0100339a 00 00                            add    %al,(%eax)
                           .text:0100339c 42                               inc    %edx
                           .text:0100339d 3f                               aas    
                           .text:0100339e 00 00                            add    %al,(%eax)
                           .text:010033a0 2a 3f                            sub    (%edi),%bh
                           .text:010033a2 00 00                            add    %al,(%eax)
                           .text:010033a4 00 00                            add    %al,(%eax)
                           .text:010033a6 00 00                            add    %al,(%eax)
                           .text:010033a8 fa                               cli    
                           .text:010033a9 3e 00 00                         add    %al,%ds:(%eax)
                           .text:010033ac 00 00                            add    %al,(%eax)
                           .text:010033ae 00 00                            add    %al,(%eax)
                           .text:010033b0 6e                               outsb  %ds:(%esi),(%dx)
                           .text:010033b1 3d 00 00 56 3e                   cmp    $0x3e560000,%eax
                           .text:010033b6 00 00                            add    %al,(%eax)
                           .text:010033b8 18 3e                            sbb    %bh,(%esi)
                           .text:010033ba 00 00                            add    %al,(%eax)
                           .text:010033bc 9a 3d 00 00 2e 3d 00             lcall  $0x3d,$0x2e00003d
                           .text:010033c3 00 06                            add    %al,(%esi)
                           .text:010033c5 3d 00 00 00 00                   cmp    $0x0,%eax
                           .text:010033ca 00 00                            add    %al,(%eax)
                           .text:010033cc a4                               movsb  %ds:(%esi),%es:(%edi)
                           .text:010033cd 40                               inc    %eax
                           .text:010033ce 00 00                            add    %al,(%eax)
                           .text:010033d0 8a 40 00                         mov    0x0(%eax),%al
                           .text:010033d3 00 76 40                         add    %dh,0x40(%esi)
                           .text:010033d6 00 00                            add    %al,(%eax)
                           .text:010033d8 58                               pop    %eax
                           .text:010033d9 40                               inc    %eax
                           .text:010033da 00 00                            add    %al,(%eax)
                           .text:010033dc 4a                               dec    %edx
                           .text:010033dd 40                               inc    %eax
                           .text:010033de 00 00                            add    %al,(%eax)
                           .text:010033e0 3a 40 00                         cmp    0x0(%eax),%al
                           .text:010033e3 00 26                            add    %ah,(%esi)
                           .text:010033e5 40                               inc    %eax
                           .text:010033e6 00 00                            add    %al,(%eax)
                           .text:010033e8 18 40 00                         sbb    %al,0x0(%eax)
                           .text:010033eb 00 0c 40                         add    %cl,(%eax,%eax,2)
                           .text:010033ee 00 00                            add    %al,(%eax)
                           .text:010033f0 04 40                            add    $0x40,%al
                           .text:010033f2 00 00                            add    %al,(%eax)
                           .text:010033f4 f6 3f                            idivb  (%edi)
                           .text:010033f6 00 00                            add    %al,(%eax)
                           .text:010033f8 ee                               out    %al,(%dx)
                           .text:010033f9 3f                               aas    
                           .text:010033fa 00 00                            add    %al,(%eax)
                           .text:010033fc e4 3f                            in     $0x3f,%al
                           .text:010033fe 00 00                            add    %al,(%eax)
                           .text:01003400 d4 3f                            aam    $0x3f
                           .text:01003402 00 00                            add    %al,(%eax)
                           .text:01003404 ca 3f 00                         lret   $0x3f
                           .text:01003407 00 be 3f 00 00 00                add    %bh,0x3f(%esi)
                           .text:0100340d 00 00                            add    %al,(%eax)
                           .text:0100340f 00 bc 3e 00 00 ae 3e             add    %bh,0x3eae0000(%esi,%edi,1)
                           .text:01003416 00 00                            add    %al,(%eax)
                           .text:01003418 9c                               pushf  
                           .text:01003419 3e 00 00                         add    %al,%ds:(%eax)
                           .text:0100341c d2 3e                            sarb   %cl,(%esi)
                           .text:0100341e 00 00                            add    %al,(%eax)
                           .text:01003420 00 00                            add    %al,(%eax)
                           .text:01003422 00 00                            add    %al,(%eax)
                           .text:01003424 94                               xchg   %eax,%esp
                           .text:01003425 3c 00                            cmp    $0x0,%al
                           .text:01003427 00 2a                            add    %ch,(%edx)
                           .text:01003429 36 00 00                         add    %al,%ss:(%eax)
                           .text:0100342c de 3c 00                         fidivr (%eax,%eax,1)
                           .text:0100342f 00 0c 38                         add    %cl,(%eax,%edi,1)
                           .text:01003432 00 00                            add    %al,(%eax)
                           .text:01003434 f6 37                            divb   (%edi)
                           .text:01003436 00 00                            add    %al,(%eax)
                           .text:01003438 5a                               pop    %edx
                           .text:01003439 36 00 00                         add    %al,%ss:(%eax)
                           .text:0100343c 5e                               pop    %esi
                           .text:0100343d 3c 00                            cmp    $0x0,%al
                           .text:0100343f 00 be 37 00 00 aa                add    %bh,-0x55ffffc9(%esi)
                           .text:01003445 3b 00                            cmp    (%eax),%eax
                           .text:01003447 00 8a 37 00 00 74                add    %cl,0x74000037(%edx)
                           .text:0100344d 37                               aaa    
                           .text:0100344e 00 00                            add    %al,(%eax)
                           .text:01003450 46                               inc    %esi
                           .text:01003451 37                               aaa    
                           .text:01003452 00 00                            add    %al,(%eax)
                           .text:01003454 1a 3c 00                         sbb    (%eax,%eax,1),%bh
                           .text:01003457 00 fc                            add    %bh,%ah
                           .text:01003459 3b 00                            cmp    (%eax),%eax
                           .text:0100345b 00 e8                            add    %ch,%al
                           .text:0100345d 3b 00                            cmp    (%eax),%eax
                           .text:0100345f 00 e4                            add    %ah,%ah
                           .text:01003461 37                               aaa    
                           .text:01003462 00 00                            add    %al,(%eax)
                           .text:01003464 c8 3b 00 00                      enter  $0x3b,$0x0
                           .text:01003468 24 37                            and    $0x37,%al
                           .text:0100346a 00 00                            add    %al,(%eax)
                           .text:0100346c fc                               cld    
                           .text:0100346d 36 00 00                         add    %al,%ss:(%eax)
                           .text:01003470 c8 36 00 00                      enter  $0x36,$0x0
                           .text:01003474 a2 36 00 00 88                   mov    %al,0x88000036
                           .text:01003479 36 00 00                         add    %al,%ss:(%eax)
                           .text:0100347c fc                               cld    
                           .text:0100347d 35 00 00 e2 35                   xor    $0x35e20000,%eax
                           .text:01003482 00 00                            add    %al,(%eax)
                           .text:01003484 c4 35 00 00 90 35                les    0x35900000,%esi
                           .text:0100348a 00 00                            add    %al,(%eax)
                           .text:0100348c 5a                               pop    %edx
                           .text:0100348d 35 00 00 8e 3b                   xor    $0x3b8e0000,%eax
                           .text:01003492 00 00                            add    %al,(%eax)
                           .text:01003494 70 3b                            jo     0x010034d1
                           .text:01003496 00 00                            add    %al,(%eax)
                           .text:01003498 3c 3b                            cmp    $0x3b,%al
                           .text:0100349a 00 00                            add    %al,(%eax)
                           .text:0100349c 12 3b                            adc    (%ebx),%bh
                           .text:0100349e 00 00                            add    %al,(%eax)
                           .text:010034a0 ea 3a 00 00 ba 3a 00             ljmp   $0x3a,$0xba00003a
                           .text:010034a7 00 9a 3a 00 00 60                add    %bl,0x6000003a(%edx)
                           .text:010034ad 3a 00                            cmp    (%eax),%al
                           .text:010034af 00 2e                            add    %ch,(%esi)
                           .text:010034b1 3a 00                            cmp    (%eax),%al
                           .text:010034b3 00 f0                            add    %dh,%al
                           .text:010034b5 39 00                            cmp    %eax,(%eax)
                           .text:010034b7 00 d0                            add    %dl,%al
                           .text:010034b9 39 00                            cmp    %eax,(%eax)
                           .text:010034bb 00 b2 39 00 00 92                add    %dh,-0x6dffffc7(%edx)
                           .text:010034c1 39 00                            cmp    %eax,(%eax)
                           .text:010034c3 00 7e 39                         add    %bh,0x39(%esi)
                           .text:010034c6 00 00                            add    %al,(%eax)
                           .text:010034c8 5c                               pop    %esp
                           .text:010034c9 39 00                            cmp    %eax,(%eax)
                           .text:010034cb 00 1c 39                         add    %bl,(%ecx,%edi,1)
                           .text:010034ce 00 00                            add    %al,(%eax)
                           .text:010034d0 e0 38                            loopne 0x0100350a
                           .text:010034d2 00 00                            add    %al,(%eax)
                           .text:010034d4 b8 38 00 00 6a                   mov    $0x6a000038,%eax
                           .text:010034d9 38 00                            cmp    %al,(%eax)
                           .text:010034db 00 9e 37 00 00 44                add    %bl,0x44000037(%esi)
                           .text:010034e1 38 00                            cmp    %al,(%eax)
                           .text:010034e3 00 3a                            add    %bh,(%edx)
                           .text:010034e5 35 00 00 24 35                   xor    $0x35240000,%eax
                           .text:010034ea 00 00                            add    %al,(%eax)
                           .text:010034ec 12 35 00 00 b6 3c                adc    0x3cb60000,%dh
                           .text:010034f2 00 00                            add    %al,(%eax)
                           .text:010034f4 fc                               cld    
                           .text:010034f5 34 00                            xor    $0x0,%al
                           .text:010034f7 00 00                            add    %al,(%eax)
                           .text:010034f9 00 00                            add    %al,(%eax)
                           .text:010034fb 00 45 00                         add    %al,0x0(%ebp)
                           .text:010034fe 3f                               aas    
                           .text:010034ff 3f                               aas    
                           .text:01003500 31 50 52                         xor    %edx,0x52(%eax)
                           .text:01003503 4f                               dec    %edi
                           .text:01003504 47                               inc    %edi
                           .text:01003505 52                               push   %edx
                           .text:01003506 41                               inc    %ecx
                           .text:01003507 4d                               dec    %ebp
                           .text:01003508 40                               inc    %eax
                           .text:01003509 40                               inc    %eax
                           .text:0100350a 55                               push   %ebp
                           .text:0100350b 41                               inc    %ecx
                           .text:0100350c 45                               inc    %ebp
                           .text:0100350d 40                               inc    %eax
                           .text:0100350e 58                               pop    %eax
                           .text:0100350f 5a                               pop    %edx
                           .text:01003510 00 00                            add    %al,(%eax)
                           .text:01003512 42                               inc    %edx
                           .text:01003513 00 3f                            add    %bh,(%edi)
                           .text:01003515 3f                               aas    
                           .text:01003516 31 50 41                         xor    %edx,0x41(%eax)
                           .text:01003519 54                               push   %esp
                           .text:0100351a 48                               dec    %eax
                           .text:0100351b 40                               inc    %eax
                           .text:0100351c 40                               inc    %eax
                           .text:0100351d 55                               push   %ebp
                           .text:0100351e 41                               inc    %ecx
                           .text:0100351f 45                               inc    %ebp
                           .text:01003520 40                               inc    %eax
                           .text:01003521 58                               pop    %eax
                           .text:01003522 5a                               pop    %edx
                           .text:01003523 00 36                            add    %dh,(%esi)
                           .text:01003525 00 3f                            add    %bh,(%edi)
                           .text:01003527 3f                               aas    
                           .text:01003528 31 44 53 54                      xor    %eax,0x54(%ebx,%edx,2)
                           .text:0100352c 52                               push   %edx
                           .text:0100352d 49                               dec    %ecx
                           .text:0100352e 4e                               dec    %esi
                           .text:0100352f 47                               inc    %edi
                           .text:01003530 40                               inc    %eax
                           .text:01003531 40                               inc    %eax
                           .text:01003532 55                               push   %ebp
                           .text:01003533 41                               inc    %ecx
                           .text:01003534 45                               inc    %ebp
                           .text:01003535 40                               inc    %eax
                           .text:01003536 58                               pop    %eax
                           .text:01003537 5a                               pop    %edx
                           .text:01003538 00 00                            add    %al,(%eax)
                           .text:0100353a 71 00                            jno    0x0100353c
                           .text:0100353c 3f                               aas    
                           .text:0100353d 43                               inc    %ebx
                           .text:0100353e 6f                               outsl  %ds:(%esi),(%dx)
                           .text:0100353f 6d                               insl   (%dx),%es:(%edi)
                           .text:01003540 70 61                            jo     0x010035a3
                           .text:01003542 72 65                            jb     0x010035a9
                           .text:01003544 40                               inc    %eax
                           .text:01003545 4f                               dec    %edi
                           .text:01003546 42                               inc    %edx
                           .text:01003547 4a                               dec    %edx
                           .text:01003548 45                               inc    %ebp
                           .text:01003549 43                               inc    %ebx
                           .text:0100354a 54                               push   %esp
                           .text:0100354b 40                               inc    %eax
                           .text:0100354c 40                               inc    %eax
                           .text:0100354d 55                               push   %ebp
                           .text:0100354e 42                               inc    %edx
                           .text:0100354f 45                               inc    %ebp
                           .text:01003550 4a                               dec    %edx
                           .text:01003551 50                               push   %eax
                           .text:01003552 42                               inc    %edx
                           .text:01003553 56                               push   %esi
                           .text:01003554 31 40 40                         xor    %eax,0x40(%eax)
                           .text:01003557 5a                               pop    %edx
                           .text:01003558 00 00                            add    %al,(%eax)
                           .text:0100355a 88 00                            mov    %al,(%eax)
                           .text:0100355c 3f                               aas    
                           .text:0100355d 44                               inc    %esp
                           .text:0100355e 69 73 70 6c 61 79 4d             imul   $0x4d79616c,0x70(%ebx),%esi
                           .text:01003565 65 73 73                         gs jae 0x010035db
                           .text:01003568 61                               popa   
                           .text:01003569 67 65 40                         addr16 gs inc %eax
                           .text:0100356c 50                               push   %eax
                           .text:0100356d 52                               push   %edx
                           .text:0100356e 4f                               dec    %edi
                           .text:0100356f 47                               inc    %edi
                           .text:01003570 52                               push   %edx
                           .text:01003571 41                               inc    %ecx
                           .text:01003572 4d                               dec    %ebp
                           .text:01003573 40                               inc    %eax
                           .text:01003574 40                               inc    %eax
                           .text:01003575 55                               push   %ebp
                           .text:01003576 42                               inc    %edx
                           .text:01003577 41                               inc    %ecx
                           .text:01003578 45                               inc    %ebp
                           .text:01003579 4b                               dec    %ebx
                           .text:0100357a 57                               push   %edi
                           .text:0100357b 34 4d                            xor    $0x4d,%al
                           .text:0100357d 45                               inc    %ebp
                           .text:0100357e 53                               push   %ebx
                           .text:0100357f 53                               push   %ebx
                           .text:01003580 41                               inc    %ecx
                           .text:01003581 47                               inc    %edi
                           .text:01003582 45                               inc    %ebp
                           .text:01003583 5f                               pop    %edi
                           .text:01003584 54                               push   %esp
                           .text:01003585 59                               pop    %ecx
                           .text:01003586 50                               push   %eax
                           .text:01003587 45                               inc    %ebp
                           .text:01003588 40                               inc    %eax
                           .text:01003589 40                               inc    %eax
                           .text:0100358a 50                               push   %eax
                           .text:0100358b 41                               inc    %ecx
                           .text:0100358c 44                               inc    %esp
                           .text:0100358d 5a                               pop    %edx
                           .text:0100358e 5a                               pop    %edx
                           .text:0100358f 00 89 00 3f 44 69                add    %cl,0x69443f00(%ecx)
                           .text:01003595 73 70                            jae    0x01003607
                           .text:01003597 6c                               insb   (%dx),%es:(%edi)
                           .text:01003598 61                               popa   
                           .text:01003599 79 4d                            jns    0x010035e8
                           .text:0100359b 65 73 73                         gs jae 0x01003611
                           .text:0100359e 61                               popa   
                           .text:0100359f 67 65 40                         addr16 gs inc %eax
                           .text:010035a2 50                               push   %eax
                           .text:010035a3 52                               push   %edx
                           .text:010035a4 4f                               dec    %edi
                           .text:010035a5 47                               inc    %edi
                           .text:010035a6 52                               push   %edx
                           .text:010035a7 41                               inc    %ecx
                           .text:010035a8 4d                               dec    %ebp
                           .text:010035a9 40                               inc    %eax
                           .text:010035aa 40                               inc    %eax
                           .text:010035ab 55                               push   %ebp
                           .text:010035ac 42                               inc    %edx
                           .text:010035ad 45                               inc    %ebp
                           .text:010035ae 45                               inc    %ebp
                           .text:010035af 4b                               dec    %ebx
                           .text:010035b0 57                               push   %edi
                           .text:010035b1 34 4d                            xor    $0x4d,%al
                           .text:010035b3 45                               inc    %ebp
                           .text:010035b4 53                               push   %ebx
                           .text:010035b5 53                               push   %ebx
                           .text:010035b6 41                               inc    %ecx
                           .text:010035b7 47                               inc    %edi
                           .text:010035b8 45                               inc    %ebp
                           .text:010035b9 5f                               pop    %edi
                           .text:010035ba 54                               push   %esp
                           .text:010035bb 59                               pop    %ecx
                           .text:010035bc 50                               push   %eax
                           .text:010035bd 45                               inc    %ebp
                           .text:010035be 40                               inc    %eax
                           .text:010035bf 40                               inc    %eax
                           .text:010035c0 40                               inc    %eax
                           .text:010035c1 5a                               pop    %edx
                           .text:010035c2 00 00                            add    %al,(%eax)
                           .text:010035c4 9a 00 3f 46 61 74 61             lcall  $0x6174,$0x61463f00
                           .text:010035cb 6c                               insb   (%dx),%es:(%edi)
                           .text:010035cc 40                               inc    %eax
                           .text:010035cd 50                               push   %eax
                           .text:010035ce 52                               push   %edx
                           .text:010035cf 4f                               dec    %edi
                           .text:010035d0 47                               inc    %edi
                           .text:010035d1 52                               push   %edx
                           .text:010035d2 41                               inc    %ecx
                           .text:010035d3 4d                               dec    %ebp
                           .text:010035d4 40                               inc    %eax
                           .text:010035d5 40                               inc    %eax
                           .text:010035d6 55                               push   %ebp
                           .text:010035d7 42                               inc    %edx
                           .text:010035d8 41                               inc    %ecx
                           .text:010035d9 58                               pop    %eax
                           .text:010035da 4b                               dec    %ebx
                           .text:010035db 4b                               dec    %ebx
                           .text:010035dc 50                               push   %eax
                           .text:010035dd 41                               inc    %ecx
                           .text:010035de 44                               inc    %esp
                           .text:010035df 5a                               pop    %edx
                           .text:010035e0 5a                               pop    %edx
                           .text:010035e1 00 9b 00 3f 46 61                add    %bl,0x61463f00(%ebx)
                           .text:010035e7 74 61                            je     0x0100364a
                           .text:010035e9 6c                               insb   (%dx),%es:(%edi)
                           .text:010035ea 40                               inc    %eax
                           .text:010035eb 50                               push   %eax
                           .text:010035ec 52                               push   %edx
                           .text:010035ed 4f                               dec    %edi
                           .text:010035ee 47                               inc    %edi
                           .text:010035ef 52                               push   %edx
                           .text:010035f0 41                               inc    %ecx
                           .text:010035f1 4d                               dec    %ebp
                           .text:010035f2 40                               inc    %eax
                           .text:010035f3 40                               inc    %eax
                           .text:010035f4 55                               push   %ebp
                           .text:010035f5 42                               inc    %edx
                           .text:010035f6 45                               inc    %ebp
                           .text:010035f7 58                               pop    %eax
                           .text:010035f8 58                               pop    %eax
                           .text:010035f9 5a                               pop    %edx
                           .text:010035fa 00 00                            add    %al,(%eax)
                           .text:010035fc ae                               scas   %es:(%edi),%al
                           .text:010035fd 00 3f                            add    %bh,(%edi)
                           .text:010035ff 47                               inc    %edi
                           .text:01003600 65 74 53                         gs je  0x01003656
                           .text:01003603 74 61                            je     0x01003666
                           .text:01003605 6e                               outsb  %ds:(%esi),(%dx)
                           .text:01003606 64 61                            fs popa 
                           .text:01003608 72 64                            jb     0x0100366e
                           .text:0100360a 49                               dec    %ecx
                           .text:0100360b 6e                               outsb  %ds:(%esi),(%dx)
                           .text:0100360c 70 75                            jo     0x01003683
                           .text:0100360e 74 40                            je     0x01003650
                           .text:01003610 50                               push   %eax
                           .text:01003611 52                               push   %edx
                           .text:01003612 4f                               dec    %edi
                           .text:01003613 47                               inc    %edi
                           .text:01003614 52                               push   %edx
                           .text:01003615 41                               inc    %ecx
                           .text:01003616 4d                               dec    %ebp
                           .text:01003617 40                               inc    %eax
                           .text:01003618 40                               inc    %eax
                           .text:01003619 55                               push   %ebp
                           .text:0100361a 41                               inc    %ecx
                           .text:0100361b 45                               inc    %ebp
                           .text:0100361c 50                               push   %eax
                           .text:0100361d 41                               inc    %ecx
                           .text:0100361e 56                               push   %esi
                           .text:0100361f 53                               push   %ebx
                           .text:01003620 54                               push   %esp
                           .text:01003621 52                               push   %edx
                           .text:01003622 45                               inc    %ebp
                           .text:01003623 41                               inc    %ecx
                           .text:01003624 4d                               dec    %ebp
                           .text:01003625 40                               inc    %eax
                           .text:01003626 40                               inc    %eax
                           .text:01003627 58                               pop    %eax
                           .text:01003628 5a                               pop    %edx
                           .text:01003629 00 af 00 3f 47 65                add    %ch,0x65473f00(%edi)
                           .text:0100362f 74 53                            je     0x01003684
                           .text:01003631 74 61                            je     0x01003694
                           .text:01003633 6e                               outsb  %ds:(%esi),(%dx)
                           .text:01003634 64 61                            fs popa 
                           .text:01003636 72 64                            jb     0x0100369c
                           .text:01003638 4f                               dec    %edi
                           .text:01003639 75 74                            jne    0x010036af
                           .text:0100363b 70 75                            jo     0x010036b2
                           .text:0100363d 74 40                            je     0x0100367f
                           .text:0100363f 50                               push   %eax
                           .text:01003640 52                               push   %edx
                           .text:01003641 4f                               dec    %edi
                           .text:01003642 47                               inc    %edi
                           .text:01003643 52                               push   %edx
                           .text:01003644 41                               inc    %ecx
                           .text:01003645 4d                               dec    %ebp
                           .text:01003646 40                               inc    %eax
                           .text:01003647 40                               inc    %eax
                           .text:01003648 55                               push   %ebp
                           .text:01003649 41                               inc    %ecx
                           .text:0100364a 45                               inc    %ebp
                           .text:0100364b 50                               push   %eax
                           .text:0100364c 41                               inc    %ecx
                           .text:0100364d 56                               push   %esi
                           .text:0100364e 53                               push   %ebx
                           .text:0100364f 54                               push   %esp
                           .text:01003650 52                               push   %edx
                           .text:01003651 45                               inc    %ebp
                           .text:01003652 41                               inc    %ecx
                           .text:01003653 4d                               dec    %ebp
                           .text:01003654 40                               inc    %eax
                           .text:01003655 40                               inc    %eax
                           .text:01003656 58                               pop    %eax
                           .text:01003657 5a                               pop    %edx
                           .text:01003658 00 00                            add    %al,(%eax)
                           .text:0100365a ad                               lods   %ds:(%esi),%eax
                           .text:0100365b 00 3f                            add    %bh,(%edi)
                           .text:0100365d 47                               inc    %edi
                           .text:0100365e 65 74 53                         gs je  0x010036b4
                           .text:01003661 74 61                            je     0x010036c4
                           .text:01003663 6e                               outsb  %ds:(%esi),(%dx)
                           .text:01003664 64 61                            fs popa 
                           .text:01003666 72 64                            jb     0x010036cc
                           .text:01003668 45                               inc    %ebp
                           .text:01003669 72 72                            jb     0x010036dd
                           .text:0100366b 6f                               outsl  %ds:(%esi),(%dx)
                           .text:0100366c 72 40                            jb     0x010036ae
                           .text:0100366e 50                               push   %eax
                           .text:0100366f 52                               push   %edx
                           .text:01003670 4f                               dec    %edi
                           .text:01003671 47                               inc    %edi
                           .text:01003672 52                               push   %edx
                           .text:01003673 41                               inc    %ecx
                           .text:01003674 4d                               dec    %ebp
                           .text:01003675 40                               inc    %eax
                           .text:01003676 40                               inc    %eax
                           .text:01003677 55                               push   %ebp
                           .text:01003678 41                               inc    %ecx
                           .text:01003679 45                               inc    %ebp
                           .text:0100367a 50                               push   %eax
                           .text:0100367b 41                               inc    %ecx
                           .text:0100367c 56                               push   %esi
                           .text:0100367d 53                               push   %ebx
                           .text:0100367e 54                               push   %esp
                           .text:0100367f 52                               push   %edx
                           .text:01003680 45                               inc    %ebp
                           .text:01003681 41                               inc    %ecx
                           .text:01003682 4d                               dec    %ebp
                           .text:01003683 40                               inc    %eax
                           .text:01003684 40                               inc    %eax
                           .text:01003685 58                               pop    %eax
                           .text:01003686 5a                               pop    %edx
                           .text:01003687 00 ae 01 3f 55 73                add    %ch,0x73553f01(%esi)
                           .text:0100368d 61                               popa   
                           .text:0100368e 67 65 40                         addr16 gs inc %eax
                           .text:01003691 50                               push   %eax
                           .text:01003692 52                               push   %edx
                           .text:01003693 4f                               dec    %edi
                           .text:01003694 47                               inc    %edi
                           .text:01003695 52                               push   %edx
                           .text:01003696 41                               inc    %ecx
                           .text:01003697 4d                               dec    %ebp
                           .text:01003698 40                               inc    %eax
                           .text:01003699 40                               inc    %eax
                           .text:0100369a 55                               push   %ebp
                           .text:0100369b 42                               inc    %edx
                           .text:0100369c 45                               inc    %ebp
                           .text:0100369d 58                               pop    %eax
                           .text:0100369e 58                               pop    %eax
                           .text:0100369f 5a                               pop    %edx
                           .text:010036a0 00 00                            add    %al,(%eax)
                           .text:010036a2 b0 01                            mov    $0x1,%al
                           .text:010036a4 3f                               aas    
                           .text:010036a5 56                               push   %esi
                           .text:010036a6 61                               popa   
                           .text:010036a7 6c                               insb   (%dx),%es:(%edi)
                           .text:010036a8 69 64 61 74 65 56 65 72          imul   $0x72655665,0x74(%ecx,%eiz,2),%esp
                           .text:010036b0 73 69                            jae    0x0100371b
                           .text:010036b2 6f                               outsl  %ds:(%esi),(%dx)
                           .text:010036b3 6e                               outsb  %ds:(%esi),(%dx)
                           .text:010036b4 40                               inc    %eax
                           .text:010036b5 50                               push   %eax
                           .text:010036b6 52                               push   %edx
                           .text:010036b7 4f                               dec    %edi
                           .text:010036b8 47                               inc    %edi
                           .text:010036b9 52                               push   %edx
                           .text:010036ba 41                               inc    %ecx
                           .text:010036bb 4d                               dec    %ebp
                           .text:010036bc 40                               inc    %eax
                           .text:010036bd 40                               inc    %eax
                           .text:010036be 55                               push   %ebp
                           .text:010036bf 42                               inc    %edx
                           .text:010036c0 45                               inc    %ebp
                           .text:010036c1 58                               pop    %eax
                           .text:010036c2 4b                               dec    %ebx
                           .text:010036c3 4b                               dec    %ebx
                           .text:010036c4 40                               inc    %eax
                           .text:010036c5 5a                               pop    %edx
                           .text:010036c6 00 00                            add    %al,(%eax)
                           .text:010036c8 23 01                            and    (%ecx),%eax
                           .text:010036ca 3f                               aas    
                           .text:010036cb 51                               push   %ecx
                           .text:010036cc 75 65                            jne    0x01003733
                           .text:010036ce 72 79                            jb     0x01003749
                           .text:010036d0 46                               inc    %esi
                           .text:010036d1 69 6c 65 40 53 59 53 54          imul   $0x54535953,0x40(%ebp,%eiz,2),%ebp
                           .text:010036d9 45                               inc    %ebp
                           .text:010036da 4d                               dec    %ebp
                           .text:010036db 40                               inc    %eax
                           .text:010036dc 40                               inc    %eax
                           .text:010036dd 53                               push   %ebx
                           .text:010036de 47                               inc    %edi
                           .text:010036df 50                               push   %eax
                           .text:010036e0 41                               inc    %ecx
                           .text:010036e1 56                               push   %esi
                           .text:010036e2 46                               inc    %esi
                           .text:010036e3 53                               push   %ebx
                           .text:010036e4 4e                               dec    %esi
                           .text:010036e5 5f                               pop    %edi
                           .text:010036e6 46                               inc    %esi
                           .text:010036e7 49                               dec    %ecx
                           .text:010036e8 4c                               dec    %esp
                           .text:010036e9 45                               inc    %ebp
                           .text:010036ea 40                               inc    %eax
                           .text:010036eb 40                               inc    %eax
                           .text:010036ec 50                               push   %eax
                           .text:010036ed 42                               inc    %edx
                           .text:010036ee 56                               push   %esi
                           .text:010036ef 50                               push   %eax
                           .text:010036f0 41                               inc    %ecx
                           .text:010036f1 54                               push   %esp
                           .text:010036f2 48                               dec    %eax
                           .text:010036f3 40                               inc    %eax
                           .text:010036f4 40                               inc    %eax
                           .text:010036f5 45                               inc    %ebp
                           .text:010036f6 50                               push   %eax
                           .text:010036f7 41                               inc    %ecx
                           .text:010036f8 45                               inc    %ebp
                           .text:010036f9 40                               inc    %eax
                           .text:010036fa 5a                               pop    %edx
                           .text:010036fb 00 67 00                         add    %ah,0x0(%edi)
                           .text:010036fe 3f                               aas    
                           .text:010036ff 41                               inc    %ecx
                           .text:01003700 70 70                            jo     0x01003772
                           .text:01003702 65 6e                            outsb  %gs:(%esi),(%dx)
                           .text:01003704 64 42                            fs inc %edx
                           .text:01003706 61                               popa   
                           .text:01003707 73 65                            jae    0x0100376e
                           .text:01003709 40                               inc    %eax
                           .text:0100370a 50                               push   %eax
                           .text:0100370b 41                               inc    %ecx
                           .text:0100370c 54                               push   %esp
                           .text:0100370d 48                               dec    %eax
                           .text:0100370e 40                               inc    %eax
                           .text:0100370f 40                               inc    %eax
                           .text:01003710 51                               push   %ecx
                           .text:01003711 41                               inc    %ecx
                           .text:01003712 45                               inc    %ebp
                           .text:01003713 45                               inc    %ebp
                           .text:01003714 50                               push   %eax
                           .text:01003715 42                               inc    %edx
                           .text:01003716 56                               push   %esi
                           .text:01003717 57                               push   %edi
                           .text:01003718 53                               push   %ebx
                           .text:01003719 54                               push   %esp
                           .text:0100371a 52                               push   %edx
                           .text:0100371b 49                               dec    %ecx
                           .text:0100371c 4e                               dec    %esi
                           .text:0100371d 47                               inc    %edi
                           .text:0100371e 40                               inc    %eax
                           .text:0100371f 40                               inc    %eax
                           .text:01003720 45                               inc    %ebp
                           .text:01003721 40                               inc    %eax
                           .text:01003722 5a                               pop    %edx
                           .text:01003723 00 e0                            add    %ah,%al
                           .text:01003725 00 3f                            add    %bh,(%edi)
                           .text:01003727 49                               dec    %ecx
                           .text:01003728 6e                               outsb  %ds:(%esi),(%dx)
                           .text:01003729 69 74 69 61 6c 69 7a 65          imul   $0x657a696c,0x61(%ecx,%ebp,2),%esi
                           .text:01003731 40                               inc    %eax
                           .text:01003732 57                               push   %edi
                           .text:01003733 53                               push   %ebx
                           .text:01003734 54                               push   %esp
                           .text:01003735 52                               push   %edx
                           .text:01003736 49                               dec    %ecx
                           .text:01003737 4e                               dec    %esi
                           .text:01003738 47                               inc    %edi
                           .text:01003739 40                               inc    %eax
                           .text:0100373a 40                               inc    %eax
                           .text:0100373b 51                               push   %ecx
                           .text:0100373c 41                               inc    %ecx
                           .text:0100373d 45                               inc    %ebp
                           .text:0100373e 45                               inc    %ebp
                           .text:0100373f 50                               push   %eax
                           .text:01003740 42                               inc    %edx
                           .text:01003741 47                               inc    %edi
                           .text:01003742 4b                               dec    %ebx
                           .text:01003743 40                               inc    %eax
                           .text:01003744 5a                               pop    %edx
                           .text:01003745 00 41 01                         add    %al,0x1(%ecx)
                           .text:01003748 3f                               aas    
                           .text:01003749 51                               push   %ecx
                           .text:0100374a 75 65                            jne    0x010037b1
                           .text:0100374c 72 79                            jb     0x010037c7
                           .text:0100374e 53                               push   %ebx
                           .text:0100374f 79 73                            jns    0x010037c4
                           .text:01003751 74 65                            je     0x010037b8
                           .text:01003753 6d                               insl   (%dx),%es:(%edi)
                           .text:01003754 44                               inc    %esp
                           .text:01003755 69 72 65 63 74 6f 72             imul   $0x726f7463,0x65(%edx),%esi
                           .text:0100375c 79 40                            jns    0x0100379e
                           .text:0100375e 53                               push   %ebx
                           .text:0100375f 59                               pop    %ecx
                           .text:01003760 53                               push   %ebx
                           .text:01003761 54                               push   %esp
                           .text:01003762 45                               inc    %ebp
                           .text:01003763 4d                               dec    %ebp
                           .text:01003764 40                               inc    %eax
                           .text:01003765 40                               inc    %eax
                           .text:01003766 53                               push   %ebx
                           .text:01003767 47                               inc    %edi
                           .text:01003768 50                               push   %eax
                           .text:01003769 41                               inc    %ecx
                           .text:0100376a 56                               push   %esi
                           .text:0100376b 50                               push   %eax
                           .text:0100376c 41                               inc    %ecx
                           .text:0100376d 54                               push   %esp
                           .text:0100376e 48                               dec    %eax
                           .text:0100376f 40                               inc    %eax
                           .text:01003770 40                               inc    %eax
                           .text:01003771 58                               pop    %eax
                           .text:01003772 5a                               pop    %edx
                           .text:01003773 00 0d 00 3f 3f 30                add    %cl,0x303f3f00
                           .text:01003779 44                               inc    %esp
                           .text:0100377a 53                               push   %ebx
                           .text:0100377b 54                               push   %esp
                           .text:0100377c 52                               push   %edx
                           .text:0100377d 49                               dec    %ecx
                           .text:0100377e 4e                               dec    %esi
                           .text:0100377f 47                               inc    %edi
                           .text:01003780 40                               inc    %eax
                           .text:01003781 40                               inc    %eax
                           .text:01003782 51                               push   %ecx
                           .text:01003783 41                               inc    %ecx
                           .text:01003784 45                               inc    %ebp
                           .text:01003785 40                               inc    %eax
                           .text:01003786 58                               pop    %eax
                           .text:01003787 5a                               pop    %edx
                           .text:01003788 00 00                            add    %al,(%eax)
                           .text:0100378a 41                               inc    %ecx
                           .text:0100378b 00 3f                            add    %bh,(%edi)
                           .text:0100378d 3f                               aas    
                           .text:0100378e 31 4f 42                         xor    %ecx,0x42(%edi)
                           .text:01003791 4a                               dec    %edx
                           .text:01003792 45                               inc    %ebp
                           .text:01003793 43                               inc    %ebx
                           .text:01003794 54                               push   %esp
                           .text:01003795 40                               inc    %eax
                           .text:01003796 40                               inc    %eax
                           .text:01003797 55                               push   %ebp
                           .text:01003798 41                               inc    %ecx
                           .text:01003799 45                               inc    %ebp
                           .text:0100379a 40                               inc    %eax
                           .text:0100379b 58                               pop    %eax
                           .text:0100379c 5a                               pop    %edx
                           .text:0100379d 00 8b 01 3f 53 74                add    %cl,0x74533f01(%ebx)
                           .text:010037a3 72 63                            jb     0x01003808
                           .text:010037a5 61                               popa   
                           .text:010037a6 74 40                            je     0x010037e8
                           .text:010037a8 57                               push   %edi
                           .text:010037a9 53                               push   %ebx
                           .text:010037aa 54                               push   %esp
                           .text:010037ab 52                               push   %edx
                           .text:010037ac 49                               dec    %ecx
                           .text:010037ad 4e                               dec    %esi
                           .text:010037ae 47                               inc    %edi
                           .text:010037af 40                               inc    %eax
                           .text:010037b0 40                               inc    %eax
                           .text:010037b1 51                               push   %ecx
                           .text:010037b2 41                               inc    %ecx
                           .text:010037b3 45                               inc    %ebp
                           .text:010037b4 45                               inc    %ebp
                           .text:010037b5 50                               push   %eax
                           .text:010037b6 42                               inc    %edx
                           .text:010037b7 56                               push   %esi
                           .text:010037b8 31 40 40                         xor    %eax,0x40(%eax)
                           .text:010037bb 5a                               pop    %edx
                           .text:010037bc 00 00                            add    %al,(%eax)
                           .text:010037be e1 00                            loope  0x010037c0
                           .text:010037c0 3f                               aas    
                           .text:010037c1 49                               dec    %ecx
                           .text:010037c2 6e                               outsb  %ds:(%esi),(%dx)
                           .text:010037c3 69 74 69 61 6c 69 7a 65          imul   $0x657a696c,0x61(%ecx,%ebp,2),%esi
                           .text:010037cb 40                               inc    %eax
                           .text:010037cc 57                               push   %edi
                           .text:010037cd 53                               push   %ebx
                           .text:010037ce 54                               push   %esp
                           .text:010037cf 52                               push   %edx
                           .text:010037d0 49                               dec    %ecx
                           .text:010037d1 4e                               dec    %esi
                           .text:010037d2 47                               inc    %edi
                           .text:010037d3 40                               inc    %eax
                           .text:010037d4 40                               inc    %eax
                           .text:010037d5 51                               push   %ecx
                           .text:010037d6 41                               inc    %ecx
                           .text:010037d7 45                               inc    %ebp
                           .text:010037d8 45                               inc    %ebp
                           .text:010037d9 50                               push   %eax
                           .text:010037da 42                               inc    %edx
                           .text:010037db 56                               push   %esi
                           .text:010037dc 31 40 4b                         xor    %eax,0x4b(%eax)
                           .text:010037df 4b                               dec    %ebx
                           .text:010037e0 40                               inc    %eax
                           .text:010037e1 5a                               pop    %edx
                           .text:010037e2 00 00                            add    %al,(%eax)
                           .text:010037e4 20 00                            and    %al,(%eax)
                           .text:010037e6 3f                               aas    
                           .text:010037e7 3f                               aas    
                           .text:010037e8 30 50 41                         xor    %dl,0x41(%eax)
                           .text:010037eb 54                               push   %esp
                           .text:010037ec 48                               dec    %eax
                           .text:010037ed 40                               inc    %eax
                           .text:010037ee 40                               inc    %eax
                           .text:010037ef 51                               push   %ecx
                           .text:010037f0 41                               inc    %ecx
                           .text:010037f1 45                               inc    %ebp
                           .text:010037f2 40                               inc    %eax
                           .text:010037f3 58                               pop    %eax
                           .text:010037f4 5a                               pop    %edx
                           .text:010037f5 00 23                            add    %ah,(%ebx)
                           .text:010037f7 00 3f                            add    %bh,(%edi)
                           .text:010037f9 3f                               aas    
                           .text:010037fa 30 50 52                         xor    %dl,0x52(%eax)
                           .text:010037fd 4f                               dec    %edi
                           .text:010037fe 47                               inc    %edi
                           .text:010037ff 52                               push   %edx
                           .text:01003800 41                               inc    %ecx
                           .text:01003801 4d                               dec    %ebp
                           .text:01003802 40                               inc    %eax
                           .text:01003803 40                               inc    %eax
                           .text:01003804 49                               dec    %ecx
                           .text:01003805 41                               inc    %ecx
                           .text:01003806 45                               inc    %ebp
                           .text:01003807 40                               inc    %eax
                           .text:01003808 58                               pop    %eax
                           .text:01003809 5a                               pop    %edx
                           .text:0100380a 00 00                            add    %al,(%eax)
                           .text:0100380c 47                               inc    %edi
                           .text:0100380d 01 3f                            add    %edi,(%edi)
                           .text:0100380f 51                               push   %ecx
                           .text:01003810 75 65                            jne    0x01003877
                           .text:01003812 72 79                            jb     0x0100388d
                           .text:01003814 57                               push   %edi
                           .text:01003815 69 6e 64 6f 77 73 45             imul   $0x4573776f,0x64(%esi),%ebp
                           .text:0100381c 72 72                            jb     0x01003890
                           .text:0100381e 6f                               outsl  %ds:(%esi),(%dx)
                           .text:0100381f 72 4d                            jb     0x0100386e
                           .text:01003821 65 73 73                         gs jae 0x01003897
                           .text:01003824 61                               popa   
                           .text:01003825 67 65 40                         addr16 gs inc %eax
                           .text:01003828 53                               push   %ebx
                           .text:01003829 59                               pop    %ecx
                           .text:0100382a 53                               push   %ebx
                           .text:0100382b 54                               push   %esp
                           .text:0100382c 45                               inc    %ebp
                           .text:0100382d 4d                               dec    %ebp
                           .text:0100382e 40                               inc    %eax
                           .text:0100382f 40                               inc    %eax
                           .text:01003830 53                               push   %ebx
                           .text:01003831 47                               inc    %edi
                           .text:01003832 45                               inc    %ebp
                           .text:01003833 4b                               dec    %ebx
                           .text:01003834 50                               push   %eax
                           .text:01003835 41                               inc    %ecx
                           .text:01003836 56                               push   %esi
                           .text:01003837 57                               push   %edi
                           .text:01003838 53                               push   %ebx
                           .text:01003839 54                               push   %esp
                           .text:0100383a 52                               push   %edx
                           .text:0100383b 49                               dec    %ecx
                           .text:0100383c 4e                               dec    %esi
                           .text:0100383d 47                               inc    %edi
                           .text:0100383e 40                               inc    %eax
                           .text:0100383f 40                               inc    %eax
                           .text:01003840 40                               inc    %eax
                           .text:01003841 5a                               pop    %edx
                           .text:01003842 00 00                            add    %al,(%eax)
                           .text:01003844 a2 00 3f 46 72                   mov    %al,0x72463f00
                           .text:01003849 65 65 4c                         gs gs dec %esp
                           .text:0100384c 69 62 72 61 72 79 48             imul   $0x48797261,0x72(%edx),%esp
                           .text:01003853 61                               popa   
                           .text:01003854 6e                               outsb  %ds:(%esi),(%dx)
                           .text:01003855 64 6c                            fs insb (%dx),%es:(%edi)
                           .text:01003857 65 40                            gs inc %eax
                           .text:01003859 53                               push   %ebx
                           .text:0100385a 59                               pop    %ecx
                           .text:0100385b 53                               push   %ebx
                           .text:0100385c 54                               push   %esp
                           .text:0100385d 45                               inc    %ebp
                           .text:0100385e 4d                               dec    %ebp
                           .text:0100385f 40                               inc    %eax
                           .text:01003860 40                               inc    %eax
                           .text:01003861 53                               push   %ebx
                           .text:01003862 47                               inc    %edi
                           .text:01003863 58                               pop    %eax
                           .text:01003864 50                               push   %eax
                           .text:01003865 41                               inc    %ecx
                           .text:01003866 58                               pop    %eax
                           .text:01003867 40                               inc    %eax
                           .text:01003868 5a                               pop    %edx
                           .text:01003869 00 44 01 3f                      add    %al,0x3f(%ecx,%eax,1)
                           .text:0100386d 51                               push   %ecx
                           .text:0100386e 75 65                            jne    0x010038d5
                           .text:01003870 72 79                            jb     0x010038eb
                           .text:01003872 56                               push   %esi
                           .text:01003873 6f                               outsl  %ds:(%esi),(%dx)
                           .text:01003874 6c                               insb   (%dx),%es:(%edi)
                           .text:01003875 75 6d                            jne    0x010038e4
                           .text:01003877 65 4c                            gs dec %esp
                           .text:01003879 61                               popa   
                           .text:0100387a 62 65 6c                         bound  %esp,0x6c(%ebp)
                           .text:0100387d 40                               inc    %eax
                           .text:0100387e 53                               push   %ebx
                           .text:0100387f 59                               pop    %ecx
                           .text:01003880 53                               push   %ebx
                           .text:01003881 54                               push   %esp
                           .text:01003882 45                               inc    %ebp
                           .text:01003883 4d                               dec    %ebp
                           .text:01003884 40                               inc    %eax
                           .text:01003885 40                               inc    %eax
                           .text:01003886 53                               push   %ebx
                           .text:01003887 47                               inc    %edi
                           .text:01003888 50                               push   %eax
                           .text:01003889 41                               inc    %ecx
                           .text:0100388a 56                               push   %esi
                           .text:0100388b 57                               push   %edi
                           .text:0100388c 53                               push   %ebx
                           .text:0100388d 54                               push   %esp
                           .text:0100388e 52                               push   %edx
                           .text:0100388f 49                               dec    %ecx
                           .text:01003890 4e                               dec    %esi
                           .text:01003891 47                               inc    %edi
                           .text:01003892 40                               inc    %eax
                           .text:01003893 40                               inc    %eax
                           .text:01003894 50                               push   %eax
                           .text:01003895 41                               inc    %ecx
                           .text:01003896 56                               push   %esi
                           .text:01003897 50                               push   %eax
                           .text:01003898 41                               inc    %ecx
                           .text:01003899 54                               push   %esp
                           .text:0100389a 48                               dec    %eax
                           .text:0100389b 40                               inc    %eax
                           .text:0100389c 40                               inc    %eax
                           .text:0100389d 50                               push   %eax
                           .text:0100389e 41                               inc    %ecx
                           .text:0100389f 55                               push   %ebp
                           .text:010038a0 5f                               pop    %edi
                           .text:010038a1 56                               push   %esi
                           .text:010038a2 4f                               dec    %edi
                           .text:010038a3 4c                               dec    %esp
                           .text:010038a4 5f                               pop    %edi
                           .text:010038a5 53                               push   %ebx
                           .text:010038a6 45                               inc    %ebp
                           .text:010038a7 52                               push   %edx
                           .text:010038a8 49                               dec    %ecx
                           .text:010038a9 41                               inc    %ecx
                           .text:010038aa 4c                               dec    %esp
                           .text:010038ab 5f                               pop    %edi
                           .text:010038ac 4e                               dec    %esi
                           .text:010038ad 55                               push   %ebp
                           .text:010038ae 4d                               dec    %ebp
                           .text:010038af 42                               inc    %edx
                           .text:010038b0 45                               inc    %ebp
                           .text:010038b1 52                               push   %edx
                           .text:010038b2 40                               inc    %eax
                           .text:010038b3 40                               inc    %eax
                           .text:010038b4 40                               inc    %eax
                           .text:010038b5 5a                               pop    %edx
                           .text:010038b6 00 00                            add    %al,(%eax)
                           .text:010038b8 cf                               iret   
                           .text:010038b9 00 3f                            add    %bh,(%edi)
                           .text:010038bb 49                               dec    %ecx
                           .text:010038bc 6e                               outsb  %ds:(%esi),(%dx)
                           .text:010038bd 69 74 69 61 6c 69 7a 65          imul   $0x657a696c,0x61(%ecx,%ebp,2),%esi
                           .text:010038c5 40                               inc    %eax
                           .text:010038c6 50                               push   %eax
                           .text:010038c7 41                               inc    %ecx
                           .text:010038c8 54                               push   %esp
                           .text:010038c9 48                               dec    %eax
                           .text:010038ca 40                               inc    %eax
                           .text:010038cb 40                               inc    %eax
                           .text:010038cc 51                               push   %ecx
                           .text:010038cd 41                               inc    %ecx
                           .text:010038ce 45                               inc    %ebp
                           .text:010038cf 45                               inc    %ebp
                           .text:010038d0 50                               push   %eax
                           .text:010038d1 42                               inc    %edx
                           .text:010038d2 56                               push   %esi
                           .text:010038d3 57                               push   %edi
                           .text:010038d4 53                               push   %ebx
                           .text:010038d5 54                               push   %esp
                           .text:010038d6 52                               push   %edx
                           .text:010038d7 49                               dec    %ecx
                           .text:010038d8 4e                               dec    %esi
                           .text:010038d9 47                               inc    %edi
                           .text:010038da 40                               inc    %eax
                           .text:010038db 40                               inc    %eax
                           .text:010038dc 45                               inc    %ebp
                           .text:010038dd 40                               inc    %eax
                           .text:010038de 5a                               pop    %edx
                           .text:010038df 00 21                            add    %ah,(%ecx)
                           .text:010038e1 01 3f                            add    %edi,(%edi)
                           .text:010038e3 51                               push   %ecx
                           .text:010038e4 75 65                            jne    0x0100394b
                           .text:010038e6 72 79                            jb     0x01003961
                           .text:010038e8 44                               inc    %esp
                           .text:010038e9 72 69                            jb     0x01003954
                           .text:010038eb 76 65                            jbe    0x01003952
                           .text:010038ed 54                               push   %esp
                           .text:010038ee 79 70                            jns    0x01003960
                           .text:010038f0 65 40                            gs inc %eax
                           .text:010038f2 53                               push   %ebx
                           .text:010038f3 59                               pop    %ecx
                           .text:010038f4 53                               push   %ebx
                           .text:010038f5 54                               push   %esp
                           .text:010038f6 45                               inc    %ebp
                           .text:010038f7 4d                               dec    %ebp
                           .text:010038f8 40                               inc    %eax
                           .text:010038f9 40                               inc    %eax
                           .text:010038fa 53                               push   %ebx
                           .text:010038fb 47                               inc    %edi
                           .text:010038fc 3f                               aas    
                           .text:010038fd 41                               inc    %ecx
                           .text:010038fe 57                               push   %edi
                           .text:010038ff 34 44                            xor    $0x44,%al
                           .text:01003901 52                               push   %edx
                           .text:01003902 49                               dec    %ecx
                           .text:01003903 56                               push   %esi
                           .text:01003904 45                               inc    %ebp
                           .text:01003905 5f                               pop    %edi
                           .text:01003906 54                               push   %esp
                           .text:01003907 59                               pop    %ecx
                           .text:01003908 50                               push   %eax
                           .text:01003909 45                               inc    %ebp
                           .text:0100390a 40                               inc    %eax
                           .text:0100390b 40                               inc    %eax
                           .text:0100390c 50                               push   %eax
                           .text:0100390d 42                               inc    %edx
                           .text:0100390e 56                               push   %esi
                           .text:0100390f 57                               push   %edi
                           .text:01003910 53                               push   %ebx
                           .text:01003911 54                               push   %esp
                           .text:01003912 52                               push   %edx
                           .text:01003913 49                               dec    %ecx
                           .text:01003914 4e                               dec    %esi
                           .text:01003915 47                               inc    %edi
                           .text:01003916 40                               inc    %eax
                           .text:01003917 40                               inc    %eax
                           .text:01003918 40                               inc    %eax
                           .text:01003919 5a                               pop    %edx
                           .text:0100391a 00 00                            add    %al,(%eax)
                           .text:0100391c 2d 01 3f 51 75                   sub    $0x75513f01,%eax
                           .text:01003921 65 72 79                         gs jb  0x0100399d
                           .text:01003924 4c                               dec    %esp
                           .text:01003925 69 62 72 61 72 79 45             imul   $0x45797261,0x72(%edx),%esp
                           .text:0100392c 6e                               outsb  %ds:(%esi),(%dx)
                           .text:0100392d 74 72                            je     0x010039a1
                           .text:0100392f 79 50                            jns    0x01003981
                           .text:01003931 6f                               outsl  %ds:(%esi),(%dx)
                           .text:01003932 69 6e 74 40 53 59 53             imul   $0x53595340,0x74(%esi),%ebp
                           .text:01003939 54                               push   %esp
                           .text:0100393a 45                               inc    %ebp
                           .text:0100393b 4d                               dec    %ebp
                           .text:0100393c 40                               inc    %eax
                           .text:0100393d 40                               inc    %eax
                           .text:0100393e 53                               push   %ebx
                           .text:0100393f 47                               inc    %edi
                           .text:01003940 50                               push   %eax
                           .text:01003941 36 47                            ss inc %edi
                           .text:01003943 48                               dec    %eax
                           .text:01003944 58                               pop    %eax
                           .text:01003945 5a                               pop    %edx
                           .text:01003946 50                               push   %eax
                           .text:01003947 42                               inc    %edx
                           .text:01003948 56                               push   %esi
                           .text:01003949 57                               push   %edi
                           .text:0100394a 53                               push   %ebx
                           .text:0100394b 54                               push   %esp
                           .text:0100394c 52                               push   %edx
                           .text:0100394d 49                               dec    %ecx
                           .text:0100394e 4e                               dec    %esi
                           .text:0100394f 47                               inc    %edi
                           .text:01003950 40                               inc    %eax
                           .text:01003951 40                               inc    %eax
                           .text:01003952 30 50 41                         xor    %dl,0x41(%eax)
                           .text:01003955 50                               push   %eax
                           .text:01003956 41                               inc    %ecx
                           .text:01003957 58                               pop    %eax
                           .text:01003958 40                               inc    %eax
                           .text:01003959 5a                               pop    %edx
                           .text:0100395a 00 00                            add    %al,(%eax)
                           .text:0100395c df 00                            fild   (%eax)
                           .text:0100395e 3f                               aas    
                           .text:0100395f 49                               dec    %ecx
                           .text:01003960 6e                               outsb  %ds:(%esi),(%dx)
                           .text:01003961 69 74 69 61 6c 69 7a 65          imul   $0x657a696c,0x61(%ecx,%ebp,2),%esi
                           .text:01003969 40                               inc    %eax
                           .text:0100396a 57                               push   %edi
                           .text:0100396b 53                               push   %ebx
                           .text:0100396c 54                               push   %esp
                           .text:0100396d 52                               push   %edx
                           .text:0100396e 49                               dec    %ecx
                           .text:0100396f 4e                               dec    %esi
                           .text:01003970 47                               inc    %edi
                           .text:01003971 40                               inc    %eax
                           .text:01003972 40                               inc    %eax
                           .text:01003973 51                               push   %ecx
                           .text:01003974 41                               inc    %ecx
                           .text:01003975 45                               inc    %ebp
                           .text:01003976 45                               inc    %ebp
                           .text:01003977 50                               push   %eax
                           .text:01003978 42                               inc    %edx
                           .text:01003979 44                               inc    %esp
                           .text:0100397a 4b                               dec    %ebx
                           .text:0100397b 40                               inc    %eax
                           .text:0100397c 5a                               pop    %edx
                           .text:0100397d 00 2f                            add    %ch,(%edi)
                           .text:0100397f 00 3f                            add    %bh,(%edi)
                           .text:01003981 3f                               aas    
                           .text:01003982 31 41 52                         xor    %eax,0x52(%ecx)
                           .text:01003985 52                               push   %edx
                           .text:01003986 41                               inc    %ecx
                           .text:01003987 59                               pop    %ecx
                           .text:01003988 40                               inc    %eax
                           .text:01003989 40                               inc    %eax
                           .text:0100398a 55                               push   %ebp
                           .text:0100398b 41                               inc    %ecx
                           .text:0100398c 45                               inc    %ebp
                           .text:0100398d 40                               inc    %eax
                           .text:0100398e 58                               pop    %eax
                           .text:0100398f 5a                               pop    %edx
                           .text:01003990 00 00                            add    %al,(%eax)
                           .text:01003992 2e 00 3f                         add    %bh,%cs:(%edi)
                           .text:01003995 3f                               aas    
                           .text:01003996 31 41 52                         xor    %eax,0x52(%ecx)
                           .text:01003999 47                               inc    %edi
                           .text:0100399a 55                               push   %ebp
                           .text:0100399b 4d                               dec    %ebp
                           .text:0100399c 45                               inc    %ebp
                           .text:0100399d 4e                               dec    %esi
                           .text:0100399e 54                               push   %esp
                           .text:0100399f 5f                               pop    %edi
                           .text:010039a0 4c                               dec    %esp
                           .text:010039a1 45                               inc    %ebp
                           .text:010039a2 58                               pop    %eax
                           .text:010039a3 45                               inc    %ebp
                           .text:010039a4 4d                               dec    %ebp
                           .text:010039a5 49                               dec    %ecx
                           .text:010039a6 5a                               pop    %edx
                           .text:010039a7 45                               inc    %ebp
                           .text:010039a8 52                               push   %edx
                           .text:010039a9 40                               inc    %eax
                           .text:010039aa 40                               inc    %eax
                           .text:010039ab 55                               push   %ebp
                           .text:010039ac 41                               inc    %ecx
                           .text:010039ad 45                               inc    %ebp
                           .text:010039ae 40                               inc    %eax
                           .text:010039af 58                               pop    %eax
                           .text:010039b0 5a                               pop    %edx
                           .text:010039b1 00 49 00                         add    %cl,0x0(%ecx)
                           .text:010039b4 3f                               aas    
                           .text:010039b5 3f                               aas    
                           .text:010039b6 31 53 54                         xor    %edx,0x54(%ebx)
                           .text:010039b9 52                               push   %edx
                           .text:010039ba 49                               dec    %ecx
                           .text:010039bb 4e                               dec    %esi
                           .text:010039bc 47                               inc    %edi
                           .text:010039bd 5f                               pop    %edi
                           .text:010039be 41                               inc    %ecx
                           .text:010039bf 52                               push   %edx
                           .text:010039c0 47                               inc    %edi
                           .text:010039c1 55                               push   %ebp
                           .text:010039c2 4d                               dec    %ebp
                           .text:010039c3 45                               inc    %ebp
                           .text:010039c4 4e                               dec    %esi
                           .text:010039c5 54                               push   %esp
                           .text:010039c6 40                               inc    %eax
                           .text:010039c7 40                               inc    %eax
                           .text:010039c8 55                               push   %ebp
                           .text:010039c9 41                               inc    %ecx
                           .text:010039ca 45                               inc    %ebp
                           .text:010039cb 40                               inc    %eax
                           .text:010039cc 58                               pop    %eax
                           .text:010039cd 5a                               pop    %edx
                           .text:010039ce 00 00                            add    %al,(%eax)
                           .text:010039d0 f4                               hlt    
                           .text:010039d1 00 3f                            add    %bh,(%edi)
                           .text:010039d3 49                               dec    %ecx
                           .text:010039d4 73 56                            jae    0x01003a2c
                           .text:010039d6 61                               popa   
                           .text:010039d7 6c                               insb   (%dx),%es:(%edi)
                           .text:010039d8 75 65                            jne    0x01003a3f
                           .text:010039da 53                               push   %ebx
                           .text:010039db 65 74 40                         gs je  0x01003a1e
                           .text:010039de 41                               inc    %ecx
                           .text:010039df 52                               push   %edx
                           .text:010039e0 47                               inc    %edi
                           .text:010039e1 55                               push   %ebp
                           .text:010039e2 4d                               dec    %ebp
                           .text:010039e3 45                               inc    %ebp
                           .text:010039e4 4e                               dec    %esi
                           .text:010039e5 54                               push   %esp
                           .text:010039e6 40                               inc    %eax
                           .text:010039e7 40                               inc    %eax
                           .text:010039e8 51                               push   %ecx
                           .text:010039e9 41                               inc    %ecx
                           .text:010039ea 45                               inc    %ebp
                           .text:010039eb 45                               inc    %ebp
                           .text:010039ec 58                               pop    %eax
                           .text:010039ed 5a                               pop    %edx
                           .text:010039ee 00 00                            add    %al,(%eax)
                           .text:010039f0 29 01                            sub    %eax,(%ecx)
                           .text:010039f2 3f                               aas    
                           .text:010039f3 51                               push   %ecx
                           .text:010039f4 75 65                            jne    0x01003a5b
                           .text:010039f6 72 79                            jb     0x01003a71
                           .text:010039f8 49                               dec    %ecx
                           .text:010039f9 6e                               outsb  %ds:(%esi),(%dx)
                           .text:010039fa 76 61                            jbe    0x01003a5d
                           .text:010039fc 6c                               insb   (%dx),%es:(%edi)
                           .text:010039fd 69 64 41 72 67 75 6d 65          imul   $0x656d7567,0x72(%ecx,%eax,2),%esp
                           .text:01003a05 6e                               outsb  %ds:(%esi),(%dx)
                           .text:01003a06 74 40                            je     0x01003a48
                           .text:01003a08 41                               inc    %ecx
                           .text:01003a09 52                               push   %edx
                           .text:01003a0a 47                               inc    %edi
                           .text:01003a0b 55                               push   %ebp
                           .text:01003a0c 4d                               dec    %ebp
                           .text:01003a0d 45                               inc    %ebp
                           .text:01003a0e 4e                               dec    %esi
                           .text:01003a0f 54                               push   %esp
                           .text:01003a10 5f                               pop    %edi
                           .text:01003a11 4c                               dec    %esp
                           .text:01003a12 45                               inc    %ebp
                           .text:01003a13 58                               pop    %eax
                           .text:01003a14 45                               inc    %ebp
                           .text:01003a15 4d                               dec    %ebp
                           .text:01003a16 49                               dec    %ecx
                           .text:01003a17 5a                               pop    %edx
                           .text:01003a18 45                               inc    %ebp
                           .text:01003a19 52                               push   %edx
                           .text:01003a1a 40                               inc    %eax
                           .text:01003a1b 40                               inc    %eax
                           .text:01003a1c 51                               push   %ecx
                           .text:01003a1d 41                               inc    %ecx
                           .text:01003a1e 45                               inc    %ebp
                           .text:01003a1f 50                               push   %eax
                           .text:01003a20 41                               inc    %ecx
                           .text:01003a21 56                               push   %esi
                           .text:01003a22 57                               push   %edi
                           .text:01003a23 53                               push   %ebx
                           .text:01003a24 54                               push   %esp
                           .text:01003a25 52                               push   %edx
                           .text:01003a26 49                               dec    %ecx
                           .text:01003a27 4e                               dec    %esi
                           .text:01003a28 47                               inc    %edi
                           .text:01003a29 40                               inc    %eax
                           .text:01003a2a 40                               inc    %eax
                           .text:01003a2b 58                               pop    %eax
                           .text:01003a2c 5a                               pop    %edx
                           .text:01003a2d 00 90 00 3f 44 6f                add    %dl,0x6f443f00(%eax)
                           .text:01003a33 50                               push   %eax
                           .text:01003a34 61                               popa   
                           .text:01003a35 72 73                            jb     0x01003aaa
                           .text:01003a37 69 6e 67 40 41 52 47             imul   $0x47524140,0x67(%esi),%ebp
                           .text:01003a3e 55                               push   %ebp
                           .text:01003a3f 4d                               dec    %ebp
                           .text:01003a40 45                               inc    %ebp
                           .text:01003a41 4e                               dec    %esi
                           .text:01003a42 54                               push   %esp
                           .text:01003a43 5f                               pop    %edi
                           .text:01003a44 4c                               dec    %esp
                           .text:01003a45 45                               inc    %ebp
                           .text:01003a46 58                               pop    %eax
                           .text:01003a47 45                               inc    %ebp
                           .text:01003a48 4d                               dec    %ebp
                           .text:01003a49 49                               dec    %ecx
                           .text:01003a4a 5a                               pop    %edx
                           .text:01003a4b 45                               inc    %ebp
                           .text:01003a4c 52                               push   %edx
                           .text:01003a4d 40                               inc    %eax
                           .text:01003a4e 40                               inc    %eax
                           .text:01003a4f 51                               push   %ecx
                           .text:01003a50 41                               inc    %ecx
                           .text:01003a51 45                               inc    %ebp
                           .text:01003a52 45                               inc    %ebp
                           .text:01003a53 50                               push   %eax
                           .text:01003a54 41                               inc    %ecx
                           .text:01003a55 56                               push   %esi
                           .text:01003a56 41                               inc    %ecx
                           .text:01003a57 52                               push   %edx
                           .text:01003a58 52                               push   %edx
                           .text:01003a59 41                               inc    %ecx
                           .text:01003a5a 59                               pop    %ecx
                           .text:01003a5b 40                               inc    %eax
                           .text:01003a5c 40                               inc    %eax
                           .text:01003a5d 40                               inc    %eax
                           .text:01003a5e 5a                               pop    %edx
                           .text:01003a5f 00 0b                            add    %cl,(%ebx)
                           .text:01003a61 01 3f                            add    %edi,(%edi)
                           .text:01003a63 50                               push   %eax
                           .text:01003a64 72 65                            jb     0x01003acb
                           .text:01003a66 70 61                            jo     0x01003ac9
                           .text:01003a68 72 65                            jb     0x01003acf
                           .text:01003a6a 54                               push   %esp
                           .text:01003a6b 6f                               outsl  %ds:(%esi),(%dx)
                           .text:01003a6c 50                               push   %eax
                           .text:01003a6d 61                               popa   
                           .text:01003a6e 72 73                            jb     0x01003ae3
                           .text:01003a70 65 40                            gs inc %eax
                           .text:01003a72 41                               inc    %ecx
                           .text:01003a73 52                               push   %edx
                           .text:01003a74 47                               inc    %edi
                           .text:01003a75 55                               push   %ebp
                           .text:01003a76 4d                               dec    %ebp
                           .text:01003a77 45                               inc    %ebp
                           .text:01003a78 4e                               dec    %esi
                           .text:01003a79 54                               push   %esp
                           .text:01003a7a 5f                               pop    %edi
                           .text:01003a7b 4c                               dec    %esp
                           .text:01003a7c 45                               inc    %ebp
                           .text:01003a7d 58                               pop    %eax
                           .text:01003a7e 45                               inc    %ebp
                           .text:01003a7f 4d                               dec    %ebp
                           .text:01003a80 49                               dec    %ecx
                           .text:01003a81 5a                               pop    %edx
                           .text:01003a82 45                               inc    %ebp
                           .text:01003a83 52                               push   %edx
                           .text:01003a84 40                               inc    %eax
                           .text:01003a85 40                               inc    %eax
                           .text:01003a86 51                               push   %ecx
                           .text:01003a87 41                               inc    %ecx
                           .text:01003a88 45                               inc    %ebp
                           .text:01003a89 45                               inc    %ebp
                           .text:01003a8a 50                               push   %eax
                           .text:01003a8b 41                               inc    %ecx
                           .text:01003a8c 56                               push   %esi
                           .text:01003a8d 57                               push   %edi
                           .text:01003a8e 53                               push   %ebx
                           .text:01003a8f 54                               push   %esp
                           .text:01003a90 52                               push   %edx
                           .text:01003a91 49                               dec    %ecx
                           .text:01003a92 4e                               dec    %esi
                           .text:01003a93 47                               inc    %edi
                           .text:01003a94 40                               inc    %eax
                           .text:01003a95 40                               inc    %eax
                           .text:01003a96 40                               inc    %eax
                           .text:01003a97 5a                               pop    %edx
                           .text:01003a98 00 00                            add    %al,(%eax)
                           .text:01003a9a 0c 01                            or     $0x1,%al
                           .text:01003a9c 3f                               aas    
                           .text:01003a9d 50                               push   %eax
                           .text:01003a9e 75 74                            jne    0x01003b14
                           .text:01003aa0 40                               inc    %eax
                           .text:01003aa1 41                               inc    %ecx
                           .text:01003aa2 52                               push   %edx
                           .text:01003aa3 52                               push   %edx
                           .text:01003aa4 41                               inc    %ecx
                           .text:01003aa5 59                               pop    %ecx
                           .text:01003aa6 40                               inc    %eax
                           .text:01003aa7 40                               inc    %eax
                           .text:01003aa8 55                               push   %ebp
                           .text:01003aa9 41                               inc    %ecx
                           .text:01003aaa 45                               inc    %ebp
                           .text:01003aab 45                               inc    %ebp
                           .text:01003aac 50                               push   %eax
                           .text:01003aad 41                               inc    %ecx
                           .text:01003aae 56                               push   %esi
                           .text:01003aaf 4f                               dec    %edi
                           .text:01003ab0 42                               inc    %edx
                           .text:01003ab1 4a                               dec    %edx
                           .text:01003ab2 45                               inc    %ebp
                           .text:01003ab3 43                               inc    %ebx
                           .text:01003ab4 54                               push   %esp
                           .text:01003ab5 40                               inc    %eax
                           .text:01003ab6 40                               inc    %eax
                           .text:01003ab7 40                               inc    %eax
                           .text:01003ab8 5a                               pop    %edx
                           .text:01003ab9 00 68 01                         add    %ch,0x1(%eax)
                           .text:01003abc 3f                               aas    
                           .text:01003abd 53                               push   %ebx
                           .text:01003abe 65 74 43                         gs je  0x01003b04
                           .text:01003ac1 61                               popa   
                           .text:01003ac2 73 65                            jae    0x01003b29
                           .text:01003ac4 53                               push   %ebx
                           .text:01003ac5 65 6e                            outsb  %gs:(%esi),(%dx)
                           .text:01003ac7 73 69                            jae    0x01003b32
                           .text:01003ac9 74 69                            je     0x01003b34
                           .text:01003acb 76 65                            jbe    0x01003b32
                           .text:01003acd 40                               inc    %eax
                           .text:01003ace 41                               inc    %ecx
                           .text:01003acf 52                               push   %edx
                           .text:01003ad0 47                               inc    %edi
                           .text:01003ad1 55                               push   %ebp
                           .text:01003ad2 4d                               dec    %ebp
                           .text:01003ad3 45                               inc    %ebp
                           .text:01003ad4 4e                               dec    %esi
                           .text:01003ad5 54                               push   %esp
                           .text:01003ad6 5f                               pop    %edi
                           .text:01003ad7 4c                               dec    %esp
                           .text:01003ad8 45                               inc    %ebp
                           .text:01003ad9 58                               pop    %eax
                           .text:01003ada 45                               inc    %ebp
                           .text:01003adb 4d                               dec    %ebp
                           .text:01003adc 49                               dec    %ecx
                           .text:01003add 5a                               pop    %edx
                           .text:01003ade 45                               inc    %ebp
                           .text:01003adf 52                               push   %edx
                           .text:01003ae0 40                               inc    %eax
                           .text:01003ae1 40                               inc    %eax
                           .text:01003ae2 51                               push   %ecx
                           .text:01003ae3 41                               inc    %ecx
                           .text:01003ae4 45                               inc    %ebp
                           .text:01003ae5 58                               pop    %eax
                           .text:01003ae6 45                               inc    %ebp
                           .text:01003ae7 40                               inc    %eax
                           .text:01003ae8 5a                               pop    %edx
                           .text:01003ae9 00 c0                            add    %al,%al
                           .text:01003aeb 00 3f                            add    %bh,(%edi)
                           .text:01003aed 49                               dec    %ecx
                           .text:01003aee 6e                               outsb  %ds:(%esi),(%dx)
                           .text:01003aef 69 74 69 61 6c 69 7a 65          imul   $0x657a696c,0x61(%ecx,%ebp,2),%esi
                           .text:01003af7 40                               inc    %eax
                           .text:01003af8 46                               inc    %esi
                           .text:01003af9 4c                               dec    %esp
                           .text:01003afa 41                               inc    %ecx
                           .text:01003afb 47                               inc    %edi
                           .text:01003afc 5f                               pop    %edi
                           .text:01003afd 41                               inc    %ecx
                           .text:01003afe 52                               push   %edx
                           .text:01003aff 47                               inc    %edi
                           .text:01003b00 55                               push   %ebp
                           .text:01003b01 4d                               dec    %ebp
                           .text:01003b02 45                               inc    %ebp
                           .text:01003b03 4e                               dec    %esi
                           .text:01003b04 54                               push   %esp
                           .text:01003b05 40                               inc    %eax
                           .text:01003b06 40                               inc    %eax
                           .text:01003b07 51                               push   %ecx
                           .text:01003b08 41                               inc    %ecx
                           .text:01003b09 45                               inc    %ebp
                           .text:01003b0a 45                               inc    %ebp
                           .text:01003b0b 50                               push   %eax
                           .text:01003b0c 41                               inc    %ecx
                           .text:01003b0d 44                               inc    %esp
                           .text:01003b0e 40                               inc    %eax
                           .text:01003b0f 5a                               pop    %edx
                           .text:01003b10 00 00                            add    %al,(%eax)
                           .text:01003b12 d7                               xlat   %ds:(%ebx)
                           .text:01003b13 00 3f                            add    %bh,(%edi)
                           .text:01003b15 49                               dec    %ecx
                           .text:01003b16 6e                               outsb  %ds:(%esi),(%dx)
                           .text:01003b17 69 74 69 61 6c 69 7a 65          imul   $0x657a696c,0x61(%ecx,%ebp,2),%esi
                           .text:01003b1f 40                               inc    %eax
                           .text:01003b20 53                               push   %ebx
                           .text:01003b21 54                               push   %esp
                           .text:01003b22 52                               push   %edx
                           .text:01003b23 49                               dec    %ecx
                           .text:01003b24 4e                               dec    %esi
                           .text:01003b25 47                               inc    %edi
                           .text:01003b26 5f                               pop    %edi
                           .text:01003b27 41                               inc    %ecx
                           .text:01003b28 52                               push   %edx
                           .text:01003b29 47                               inc    %edi
                           .text:01003b2a 55                               push   %ebp
                           .text:01003b2b 4d                               dec    %ebp
                           .text:01003b2c 45                               inc    %ebp
                           .text:01003b2d 4e                               dec    %esi
                           .text:01003b2e 54                               push   %esp
                           .text:01003b2f 40                               inc    %eax
                           .text:01003b30 40                               inc    %eax
                           .text:01003b31 51                               push   %ecx
                           .text:01003b32 41                               inc    %ecx
                           .text:01003b33 45                               inc    %ebp
                           .text:01003b34 45                               inc    %ebp
                           .text:01003b35 50                               push   %eax
                           .text:01003b36 41                               inc    %ecx
                           .text:01003b37 44                               inc    %esp
                           .text:01003b38 40                               inc    %eax
                           .text:01003b39 5a                               pop    %edx
                           .text:01003b3a 00 00                            add    %al,(%eax)
                           .text:01003b3c b6 00                            mov    $0x0,%dh
                           .text:01003b3e 3f                               aas    
                           .text:01003b3f 49                               dec    %ecx
                           .text:01003b40 6e                               outsb  %ds:(%esi),(%dx)
                           .text:01003b41 69 74 69 61 6c 69 7a 65          imul   $0x657a696c,0x61(%ecx,%ebp,2),%esi
                           .text:01003b49 40                               inc    %eax
                           .text:01003b4a 41                               inc    %ecx
                           .text:01003b4b 52                               push   %edx
                           .text:01003b4c 47                               inc    %edi
                           .text:01003b4d 55                               push   %ebp
                           .text:01003b4e 4d                               dec    %ebp
                           .text:01003b4f 45                               inc    %ebp
                           .text:01003b50 4e                               dec    %esi
                           .text:01003b51 54                               push   %esp
                           .text:01003b52 5f                               pop    %edi
                           .text:01003b53 4c                               dec    %esp
                           .text:01003b54 45                               inc    %ebp
                           .text:01003b55 58                               pop    %eax
                           .text:01003b56 45                               inc    %ebp
                           .text:01003b57 4d                               dec    %ebp
                           .text:01003b58 49                               dec    %ecx
                           .text:01003b59 5a                               pop    %edx
                           .text:01003b5a 45                               inc    %ebp
                           .text:01003b5b 52                               push   %edx
                           .text:01003b5c 40                               inc    %eax
                           .text:01003b5d 40                               inc    %eax
                           .text:01003b5e 51                               push   %ecx
                           .text:01003b5f 41                               inc    %ecx
                           .text:01003b60 45                               inc    %ebp
                           .text:01003b61 45                               inc    %ebp
                           .text:01003b62 50                               push   %eax
                           .text:01003b63 41                               inc    %ecx
                           .text:01003b64 56                               push   %esi
                           .text:01003b65 41                               inc    %ecx
                           .text:01003b66 52                               push   %edx
                           .text:01003b67 52                               push   %edx
                           .text:01003b68 41                               inc    %ecx
                           .text:01003b69 59                               pop    %ecx
                           .text:01003b6a 40                               inc    %eax
                           .text:01003b6b 40                               inc    %eax
                           .text:01003b6c 40                               inc    %eax
                           .text:01003b6d 5a                               pop    %edx
                           .text:01003b6e 00 00                            add    %al,(%eax)
                           .text:01003b70 b7 00                            mov    $0x0,%bh
                           .text:01003b72 3f                               aas    
                           .text:01003b73 49                               dec    %ecx
                           .text:01003b74 6e                               outsb  %ds:(%esi),(%dx)
                           .text:01003b75 69 74 69 61 6c 69 7a 65          imul   $0x657a696c,0x61(%ecx,%ebp,2),%esi
                           .text:01003b7d 40                               inc    %eax
                           .text:01003b7e 41                               inc    %ecx
                           .text:01003b7f 52                               push   %edx
                           .text:01003b80 52                               push   %edx
                           .text:01003b81 41                               inc    %ecx
                           .text:01003b82 59                               pop    %ecx
                           .text:01003b83 40                               inc    %eax
                           .text:01003b84 40                               inc    %eax
                           .text:01003b85 51                               push   %ecx
                           .text:01003b86 41                               inc    %ecx
                           .text:01003b87 45                               inc    %ebp
                           .text:01003b88 45                               inc    %ebp
                           .text:01003b89 4b                               dec    %ebx
                           .text:01003b8a 4b                               dec    %ebx
                           .text:01003b8b 40                               inc    %eax
                           .text:01003b8c 5a                               pop    %edx
                           .text:01003b8d 00 0e                            add    %cl,(%esi)
                           .text:01003b8f 00 3f                            add    %bh,(%edi)
                           .text:01003b91 3f                               aas    
                           .text:01003b92 30 46 4c                         xor    %al,0x4c(%esi)
                           .text:01003b95 41                               inc    %ecx
                           .text:01003b96 47                               inc    %edi
                           .text:01003b97 5f                               pop    %edi
                           .text:01003b98 41                               inc    %ecx
                           .text:01003b99 52                               push   %edx
                           .text:01003b9a 47                               inc    %edi
                           .text:01003b9b 55                               push   %ebp
                           .text:01003b9c 4d                               dec    %ebp
                           .text:01003b9d 45                               inc    %ebp
                           .text:01003b9e 4e                               dec    %esi
                           .text:01003b9f 54                               push   %esp
                           .text:01003ba0 40                               inc    %eax
                           .text:01003ba1 40                               inc    %eax
                           .text:01003ba2 51                               push   %ecx
                           .text:01003ba3 41                               inc    %ecx
                           .text:01003ba4 45                               inc    %ebp
                           .text:01003ba5 40                               inc    %eax
                           .text:01003ba6 58                               pop    %eax
                           .text:01003ba7 5a                               pop    %edx
                           .text:01003ba8 00 00                            add    %al,(%eax)
                           .text:01003baa 28 00                            sub    %al,(%eax)
                           .text:01003bac 3f                               aas    
                           .text:01003bad 3f                               aas    
                           .text:01003bae 30 53 54                         xor    %dl,0x54(%ebx)
                           .text:01003bb1 52                               push   %edx
                           .text:01003bb2 49                               dec    %ecx
                           .text:01003bb3 4e                               dec    %esi
                           .text:01003bb4 47                               inc    %edi
                           .text:01003bb5 5f                               pop    %edi
                           .text:01003bb6 41                               inc    %ecx
                           .text:01003bb7 52                               push   %edx
                           .text:01003bb8 47                               inc    %edi
                           .text:01003bb9 55                               push   %ebp
                           .text:01003bba 4d                               dec    %ebp
                           .text:01003bbb 45                               inc    %ebp
                           .text:01003bbc 4e                               dec    %esi
                           .text:01003bbd 54                               push   %esp
                           .text:01003bbe 40                               inc    %eax
                           .text:01003bbf 40                               inc    %eax
                           .text:01003bc0 51                               push   %ecx
                           .text:01003bc1 41                               inc    %ecx
                           .text:01003bc2 45                               inc    %ebp
                           .text:01003bc3 40                               inc    %eax
                           .text:01003bc4 58                               pop    %eax
                           .text:01003bc5 5a                               pop    %edx
                           .text:01003bc6 00 00                            add    %al,(%eax)
                           .text:01003bc8 00 00                            add    %al,(%eax)
                           .text:01003bca 3f                               aas    
                           .text:01003bcb 3f                               aas    
                           .text:01003bcc 30 41 52                         xor    %al,0x52(%ecx)
                           .text:01003bcf 47                               inc    %edi
                           .text:01003bd0 55                               push   %ebp
                           .text:01003bd1 4d                               dec    %ebp
                           .text:01003bd2 45                               inc    %ebp
                           .text:01003bd3 4e                               dec    %esi
                           .text:01003bd4 54                               push   %esp
                           .text:01003bd5 5f                               pop    %edi
                           .text:01003bd6 4c                               dec    %esp
                           .text:01003bd7 45                               inc    %ebp
                           .text:01003bd8 58                               pop    %eax
                           .text:01003bd9 45                               inc    %ebp
                           .text:01003bda 4d                               dec    %ebp
                           .text:01003bdb 49                               dec    %ecx
                           .text:01003bdc 5a                               pop    %edx
                           .text:01003bdd 45                               inc    %ebp
                           .text:01003bde 52                               push   %edx
                           .text:01003bdf 40                               inc    %eax
                           .text:01003be0 40                               inc    %eax
                           .text:01003be1 51                               push   %ecx
                           .text:01003be2 41                               inc    %ecx
                           .text:01003be3 45                               inc    %ebp
                           .text:01003be4 40                               inc    %eax
                           .text:01003be5 58                               pop    %eax
                           .text:01003be6 5a                               pop    %edx
                           .text:01003be7 00 01                            add    %al,(%ecx)
                           .text:01003be9 00 3f                            add    %bh,(%edi)
                           .text:01003beb 3f                               aas    
                           .text:01003bec 30 41 52                         xor    %al,0x52(%ecx)
                           .text:01003bef 52                               push   %edx
                           .text:01003bf0 41                               inc    %ecx
                           .text:01003bf1 59                               pop    %ecx
                           .text:01003bf2 40                               inc    %eax
                           .text:01003bf3 40                               inc    %eax
                           .text:01003bf4 51                               push   %ecx
                           .text:01003bf5 41                               inc    %ecx
                           .text:01003bf6 45                               inc    %ebp
                           .text:01003bf7 40                               inc    %eax
                           .text:01003bf8 58                               pop    %eax
                           .text:01003bf9 5a                               pop    %edx
                           .text:01003bfa 00 00                            add    %al,(%eax)
                           .text:01003bfc ea 00 3f 49 73 47 75             ljmp   $0x7547,$0x73493f00
                           .text:01003c03 69 64 56 6f 6c 4e 61 6d          imul   $0x6d614e6c,0x6f(%esi,%edx,2),%esp
                           .text:01003c0b 65 40                            gs inc %eax
                           .text:01003c0d 50                               push   %eax
                           .text:01003c0e 41                               inc    %ecx
                           .text:01003c0f 54                               push   %esp
                           .text:01003c10 48                               dec    %eax
                           .text:01003c11 40                               inc    %eax
                           .text:01003c12 40                               inc    %eax
                           .text:01003c13 51                               push   %ecx
                           .text:01003c14 41                               inc    %ecx
                           .text:01003c15 45                               inc    %ebp
                           .text:01003c16 45                               inc    %ebp
                           .text:01003c17 58                               pop    %eax
                           .text:01003c18 5a                               pop    %edx
                           .text:01003c19 00 66 00                         add    %ah,0x0(%esi)
                           .text:01003c1c 3f                               aas    
                           .text:01003c1d 41                               inc    %ecx
                           .text:01003c1e 6e                               outsb  %ds:(%esi),(%dx)
                           .text:01003c1f 61                               popa   
                           .text:01003c20 6c                               insb   (%dx),%es:(%edi)
                           .text:01003c21 79 7a                            jns    0x01003c9d
                           .text:01003c23 65 50                            gs push %eax
                           .text:01003c25 61                               popa   
                           .text:01003c26 74 68                            je     0x01003c90
                           .text:01003c28 40                               inc    %eax
                           .text:01003c29 50                               push   %eax
                           .text:01003c2a 41                               inc    %ecx
                           .text:01003c2b 54                               push   %esp
                           .text:01003c2c 48                               dec    %eax
                           .text:01003c2d 40                               inc    %eax
                           .text:01003c2e 40                               inc    %eax
                           .text:01003c2f 51                               push   %ecx
                           .text:01003c30 41                               inc    %ecx
                           .text:01003c31 45                               inc    %ebp
                           .text:01003c32 3f                               aas    
                           .text:01003c33 41                               inc    %ecx
                           .text:01003c34 57                               push   %edi
                           .text:01003c35 34 50                            xor    $0x50,%al
                           .text:01003c37 41                               inc    %ecx
                           .text:01003c38 54                               push   %esp
                           .text:01003c39 48                               dec    %eax
                           .text:01003c3a 5f                               pop    %edi
                           .text:01003c3b 41                               inc    %ecx
                           .text:01003c3c 4e                               dec    %esi
                           .text:01003c3d 41                               inc    %ecx
                           .text:01003c3e 4c                               dec    %esp
                           .text:01003c3f 59                               pop    %ecx
                           .text:01003c40 5a                               pop    %edx
                           .text:01003c41 45                               inc    %ebp
                           .text:01003c42 5f                               pop    %edi
                           .text:01003c43 43                               inc    %ebx
                           .text:01003c44 4f                               dec    %edi
                           .text:01003c45 44                               inc    %esp
                           .text:01003c46 45                               inc    %ebp
                           .text:01003c47 40                               inc    %eax
                           .text:01003c48 40                               inc    %eax
                           .text:01003c49 50                               push   %eax
                           .text:01003c4a 41                               inc    %ecx
                           .text:01003c4b 56                               push   %esi
                           .text:01003c4c 57                               push   %edi
                           .text:01003c4d 53                               push   %ebx
                           .text:01003c4e 54                               push   %esp
                           .text:01003c4f 52                               push   %edx
                           .text:01003c50 49                               dec    %ecx
                           .text:01003c51 4e                               dec    %esi
                           .text:01003c52 47                               inc    %edi
                           .text:01003c53 40                               inc    %eax
                           .text:01003c54 40                               inc    %eax
                           .text:01003c55 50                               push   %eax
                           .text:01003c56 41                               inc    %ecx
                           .text:01003c57 56                               push   %esi
                           .text:01003c58 31 40 30                         xor    %eax,0x30(%eax)
                           .text:01003c5b 40                               inc    %eax
                           .text:01003c5c 5a                               pop    %edx
                           .text:01003c5d 00 1e                            add    %bl,(%esi)
                           .text:01003c5f 01 3f                            add    %edi,(%edi)
                           .text:01003c61 51                               push   %ecx
                           .text:01003c62 75 65                            jne    0x01003cc9
                           .text:01003c64 72 79                            jb     0x01003cdf
                           .text:01003c66 43                               inc    %ebx
                           .text:01003c67 75 72                            jne    0x01003cdb
                           .text:01003c69 72 65                            jb     0x01003cd0
                           .text:01003c6b 6e                               outsb  %ds:(%esi),(%dx)
                           .text:01003c6c 74 44                            je     0x01003cb2
                           .text:01003c6e 6f                               outsl  %ds:(%esi),(%dx)
                           .text:01003c6f 73 44                            jae    0x01003cb5
                           .text:01003c71 72 69                            jb     0x01003cdc
                           .text:01003c73 76 65                            jbe    0x01003cda
                           .text:01003c75 4e                               dec    %esi
                           .text:01003c76 61                               popa   
                           .text:01003c77 6d                               insl   (%dx),%es:(%edi)
                           .text:01003c78 65 40                            gs inc %eax
                           .text:01003c7a 53                               push   %ebx
                           .text:01003c7b 59                               pop    %ecx
                           .text:01003c7c 53                               push   %ebx
                           .text:01003c7d 54                               push   %esp
                           .text:01003c7e 45                               inc    %ebp
                           .text:01003c7f 4d                               dec    %ebp
                           .text:01003c80 40                               inc    %eax
                           .text:01003c81 40                               inc    %eax
                           .text:01003c82 53                               push   %ebx
                           .text:01003c83 47                               inc    %edi
                           .text:01003c84 45                               inc    %ebp
                           .text:01003c85 50                               push   %eax
                           .text:01003c86 41                               inc    %ecx
                           .text:01003c87 56                               push   %esi
                           .text:01003c88 57                               push   %edi
                           .text:01003c89 53                               push   %ebx
                           .text:01003c8a 54                               push   %esp
                           .text:01003c8b 52                               push   %edx
                           .text:01003c8c 49                               dec    %ecx
                           .text:01003c8d 4e                               dec    %esi
                           .text:01003c8e 47                               inc    %edi
                           .text:01003c8f 40                               inc    %eax
                           .text:01003c90 40                               inc    %eax
                           .text:01003c91 40                               inc    %eax
                           .text:01003c92 5a                               pop    %edx
                           .text:01003c93 00 d2                            add    %dl,%dl
                           .text:01003c95 00 3f                            add    %bh,(%edi)
                           .text:01003c97 49                               dec    %ecx
                           .text:01003c98 6e                               outsb  %ds:(%esi),(%dx)
                           .text:01003c99 69 74 69 61 6c 69 7a 65          imul   $0x657a696c,0x61(%ecx,%ebp,2),%esi
                           .text:01003ca1 40                               inc    %eax
                           .text:01003ca2 50                               push   %eax
                           .text:01003ca3 52                               push   %edx
                           .text:01003ca4 4f                               dec    %edi
                           .text:01003ca5 47                               inc    %edi
                           .text:01003ca6 52                               push   %edx
                           .text:01003ca7 41                               inc    %ecx
                           .text:01003ca8 4d                               dec    %ebp
                           .text:01003ca9 40                               inc    %eax
                           .text:01003caa 40                               inc    %eax
                           .text:01003cab 51                               push   %ecx
                           .text:01003cac 41                               inc    %ecx
                           .text:01003cad 45                               inc    %ebp
                           .text:01003cae 45                               inc    %ebp
                           .text:01003caf 4b                               dec    %ebx
                           .text:01003cb0 4b                               dec    %ebx
                           .text:01003cb1 4b                               dec    %ebx
                           .text:01003cb2 40                               inc    %eax
                           .text:01003cb3 5a                               pop    %edx
                           .text:01003cb4 00 00                            add    %al,(%eax)
                           .text:01003cb6 bd 00 3f 49 6e                   mov    $0x6e493f00,%ebp
                           .text:01003cbb 69 74 69 61 6c 69 7a 65          imul   $0x657a696c,0x61(%ecx,%ebp,2),%esi
                           .text:01003cc3 40                               inc    %eax
                           .text:01003cc4 43                               inc    %ebx
                           .text:01003cc5 4c                               dec    %esp
                           .text:01003cc6 41                               inc    %ecx
                           .text:01003cc7 53                               push   %ebx
                           .text:01003cc8 53                               push   %ebx
                           .text:01003cc9 5f                               pop    %edi
                           .text:01003cca 44                               inc    %esp
                           .text:01003ccb 45                               inc    %ebp
                           .text:01003ccc 53                               push   %ebx
                           .text:01003ccd 43                               inc    %ebx
                           .text:01003cce 52                               push   %edx
                           .text:01003ccf 49                               dec    %ecx
                           .text:01003cd0 50                               push   %eax
                           .text:01003cd1 54                               push   %esp
                           .text:01003cd2 4f                               dec    %edi
                           .text:01003cd3 52                               push   %edx
                           .text:01003cd4 40                               inc    %eax
                           .text:01003cd5 40                               inc    %eax
                           .text:01003cd6 51                               push   %ecx
                           .text:01003cd7 41                               inc    %ecx
                           .text:01003cd8 45                               inc    %ebp
                           .text:01003cd9 45                               inc    %ebp
                           .text:01003cda 58                               pop    %eax
                           .text:01003cdb 5a                               pop    %edx
                           .text:01003cdc 00 00                            add    %al,(%eax)
                           .text:01003cde 09 00                            or     %eax,(%eax)
                           .text:01003ce0 3f                               aas    
                           .text:01003ce1 3f                               aas    
                           .text:01003ce2 30 43 4c                         xor    %al,0x4c(%ebx)
                           .text:01003ce5 41                               inc    %ecx
                           .text:01003ce6 53                               push   %ebx
                           .text:01003ce7 53                               push   %ebx
                           .text:01003ce8 5f                               pop    %edi
                           .text:01003ce9 44                               inc    %esp
                           .text:01003cea 45                               inc    %ebp
                           .text:01003ceb 53                               push   %ebx
                           .text:01003cec 43                               inc    %ebx
                           .text:01003ced 52                               push   %edx
                           .text:01003cee 49                               dec    %ecx
                           .text:01003cef 50                               push   %eax
                           .text:01003cf0 54                               push   %esp
                           .text:01003cf1 4f                               dec    %edi
                           .text:01003cf2 52                               push   %edx
                           .text:01003cf3 40                               inc    %eax
                           .text:01003cf4 40                               inc    %eax
                           .text:01003cf5 51                               push   %ecx
                           .text:01003cf6 41                               inc    %ecx
                           .text:01003cf7 45                               inc    %ebp
                           .text:01003cf8 40                               inc    %eax
                           .text:01003cf9 58                               pop    %eax
                           .text:01003cfa 5a                               pop    %edx
                           .text:01003cfb 00 75 6c                         add    %dh,0x6c(%ebp)
                           .text:01003cfe 69 62 2e 64 6c 6c 00             imul   $0x6c6c64,0x2e(%edx),%esp
                           .text:01003d05 00 2d 00 3f 41 64                add    %ch,0x64413f00
                           .text:01003d0b 64 45                            fs inc %ebp
                           .text:01003d0d 6e                               outsb  %ds:(%esi),(%dx)
                           .text:01003d0e 74 72                            je     0x01003d82
                           .text:01003d10 79 40                            jns    0x01003d52
                           .text:01003d12 41                               inc    %ecx
                           .text:01003d13 55                               push   %ebp
                           .text:01003d14 54                               push   %esp
                           .text:01003d15 4f                               dec    %edi
                           .text:01003d16 52                               push   %edx
                           .text:01003d17 45                               inc    %ebp
                           .text:01003d18 47                               inc    %edi
                           .text:01003d19 40                               inc    %eax
                           .text:01003d1a 40                               inc    %eax
                           .text:01003d1b 53                               push   %ebx
                           .text:01003d1c 47                               inc    %edi
                           .text:01003d1d 45                               inc    %ebp
                           .text:01003d1e 50                               push   %eax
                           .text:01003d1f 42                               inc    %edx
                           .text:01003d20 56                               push   %esi
                           .text:01003d21 57                               push   %edi
                           .text:01003d22 53                               push   %ebx
                           .text:01003d23 54                               push   %esp
                           .text:01003d24 52                               push   %edx
                           .text:01003d25 49                               dec    %ecx
                           .text:01003d26 4e                               dec    %esi
                           .text:01003d27 47                               inc    %edi
                           .text:01003d28 40                               inc    %eax
                           .text:01003d29 40                               inc    %eax
                           .text:01003d2a 40                               inc    %eax
                           .text:01003d2b 5a                               pop    %edx
                           .text:01003d2c 00 00                            add    %al,(%eax)
                           .text:01003d2e 45                               inc    %ebp
                           .text:01003d2f 00 3f                            add    %bh,(%edi)
                           .text:01003d31 44                               inc    %esp
                           .text:01003d32 6f                               outsl  %ds:(%esi),(%dx)
                           .text:01003d33 73 44                            jae    0x01003d79
                           .text:01003d35 72 69                            jb     0x01003da0
                           .text:01003d37 76 65                            jbe    0x01003d9e
                           .text:01003d39 4e                               dec    %esi
                           .text:01003d3a 61                               popa   
                           .text:01003d3b 6d                               insl   (%dx),%es:(%edi)
                           .text:01003d3c 65 54                            gs push %esp
                           .text:01003d3e 6f                               outsl  %ds:(%esi),(%dx)
                           .text:01003d3f 4e                               dec    %esi
                           .text:01003d40 74 44                            je     0x01003d86
                           .text:01003d42 72 69                            jb     0x01003dad
                           .text:01003d44 76 65                            jbe    0x01003dab
                           .text:01003d46 4e                               dec    %esi
                           .text:01003d47 61                               popa   
                           .text:01003d48 6d                               insl   (%dx),%es:(%edi)
                           .text:01003d49 65 40                            gs inc %eax
                           .text:01003d4b 49                               dec    %ecx
                           .text:01003d4c 46                               inc    %esi
                           .text:01003d4d 53                               push   %ebx
                           .text:01003d4e 5f                               pop    %edi
                           .text:01003d4f 53                               push   %ebx
                           .text:01003d50 59                               pop    %ecx
                           .text:01003d51 53                               push   %ebx
                           .text:01003d52 54                               push   %esp
                           .text:01003d53 45                               inc    %ebp
                           .text:01003d54 4d                               dec    %ebp
                           .text:01003d55 40                               inc    %eax
                           .text:01003d56 40                               inc    %eax
                           .text:01003d57 53                               push   %ebx
                           .text:01003d58 47                               inc    %edi
                           .text:01003d59 45                               inc    %ebp
                           .text:01003d5a 50                               push   %eax
                           .text:01003d5b 42                               inc    %edx
                           .text:01003d5c 56                               push   %esi
                           .text:01003d5d 57                               push   %edi
                           .text:01003d5e 53                               push   %ebx
                           .text:01003d5f 54                               push   %esp
                           .text:01003d60 52                               push   %edx
                           .text:01003d61 49                               dec    %ecx
                           .text:01003d62 4e                               dec    %esi
                           .text:01003d63 47                               inc    %edi
                           .text:01003d64 40                               inc    %eax
                           .text:01003d65 40                               inc    %eax
                           .text:01003d66 50                               push   %eax
                           .text:01003d67 41                               inc    %ecx
                           .text:01003d68 56                               push   %esi
                           .text:01003d69 32 40 40                         xor    0x40(%eax),%al
                           .text:01003d6c 5a                               pop    %edx
                           .text:01003d6d 00 3f                            add    %bh,(%edi)
                           .text:01003d6f 00 3f                            add    %bh,(%edi)
                           .text:01003d71 44                               inc    %esp
                           .text:01003d72 65 6c                            gs insb (%dx),%es:(%edi)
                           .text:01003d74 65 74 65                         gs je  0x01003ddc
                           .text:01003d77 45                               inc    %ebp
                           .text:01003d78 6e                               outsb  %ds:(%esi),(%dx)
                           .text:01003d79 74 72                            je     0x01003ded
                           .text:01003d7b 79 40                            jns    0x01003dbd
                           .text:01003d7d 41                               inc    %ecx
                           .text:01003d7e 55                               push   %ebp
                           .text:01003d7f 54                               push   %esp
                           .text:01003d80 4f                               dec    %edi
                           .text:01003d81 52                               push   %edx
                           .text:01003d82 45                               inc    %ebp
                           .text:01003d83 47                               inc    %edi
                           .text:01003d84 40                               inc    %eax
                           .text:01003d85 40                               inc    %eax
                           .text:01003d86 53                               push   %ebx
                           .text:01003d87 47                               inc    %edi
                           .text:01003d88 45                               inc    %ebp
                           .text:01003d89 50                               push   %eax
                           .text:01003d8a 42                               inc    %edx
                           .text:01003d8b 56                               push   %esi
                           .text:01003d8c 57                               push   %edi
                           .text:01003d8d 53                               push   %ebx
                           .text:01003d8e 54                               push   %esp
                           .text:01003d8f 52                               push   %edx
                           .text:01003d90 49                               dec    %ecx
                           .text:01003d91 4e                               dec    %esi
                           .text:01003d92 47                               inc    %edi
                           .text:01003d93 40                               inc    %eax
                           .text:01003d94 40                               inc    %eax
                           .text:01003d95 30 40 5a                         xor    %al,0x5a(%eax)
                           .text:01003d98 00 00                            add    %al,(%eax)
                           .text:01003d9a 51                               push   %ecx
                           .text:01003d9b 00 3f                            add    %bh,(%edi)
                           .text:01003d9d 47                               inc    %edi
                           .text:01003d9e 65 6e                            outsb  %gs:(%esi),(%dx)
                           .text:01003da0 65 72 61                         gs jb  0x01003e04
                           .text:01003da3 74 65                            je     0x01003e0a
                           .text:01003da5 4c                               dec    %esp
                           .text:01003da6 61                               popa   
                           .text:01003da7 62 65 6c                         bound  %esp,0x6c(%ebp)
                           .text:01003daa 4e                               dec    %esi
                           .text:01003dab 6f                               outsl  %ds:(%esi),(%dx)
                           .text:01003dac 74 69                            je     0x01003e17
                           .text:01003dae 66 69 63 61 74 69                imul   $0x6974,0x61(%ebx),%sp
                           .text:01003db4 6f                               outsl  %ds:(%esi),(%dx)
                           .text:01003db5 6e                               outsb  %ds:(%esi),(%dx)
                           .text:01003db6 40                               inc    %eax
                           .text:01003db7 53                               push   %ebx
                           .text:01003db8 55                               push   %ebp
                           .text:01003db9 50                               push   %eax
                           .text:01003dba 45                               inc    %ebp
                           .text:01003dbb 52                               push   %edx
                           .text:01003dbc 41                               inc    %ecx
                           .text:01003dbd 52                               push   %edx
                           .text:01003dbe 45                               inc    %ebp
                           .text:01003dbf 41                               inc    %ecx
                           .text:01003dc0 40                               inc    %eax
                           .text:01003dc1 40                               inc    %eax
                           .text:01003dc2 53                               push   %ebx
                           .text:01003dc3 47                               inc    %edi
                           .text:01003dc4 4a                               dec    %edx
                           .text:01003dc5 50                               push   %eax
                           .text:01003dc6 42                               inc    %edx
                           .text:01003dc7 56                               push   %esi
                           .text:01003dc8 57                               push   %edi
                           .text:01003dc9 53                               push   %ebx
                           .text:01003dca 54                               push   %esp
                           .text:01003dcb 52                               push   %edx
                           .text:01003dcc 49                               dec    %ecx
                           .text:01003dcd 4e                               dec    %esi
                           .text:01003dce 47                               inc    %edi
                           .text:01003dcf 40                               inc    %eax
                           .text:01003dd0 40                               inc    %eax
                           .text:01003dd1 50                               push   %eax
                           .text:01003dd2 41                               inc    %ecx
                           .text:01003dd3 56                               push   %esi
                           .text:01003dd4 32 40 50                         xor    0x50(%eax),%al
                           .text:01003dd7 41                               inc    %ecx
                           .text:01003dd8 55                               push   %ebp
                           .text:01003dd9 5f                               pop    %edi
                           .text:01003dda 46                               inc    %esi
                           .text:01003ddb 49                               dec    %ecx
                           .text:01003ddc 4c                               dec    %esp
                           .text:01003ddd 45                               inc    %ebp
                           .text:01003dde 5f                               pop    %edi
                           .text:01003ddf 46                               inc    %esi
                           .text:01003de0 53                               push   %ebx
                           .text:01003de1 5f                               pop    %edi
                           .text:01003de2 53                               push   %ebx
                           .text:01003de3 49                               dec    %ecx
                           .text:01003de4 5a                               pop    %edx
                           .text:01003de5 45                               inc    %ebp
                           .text:01003de6 5f                               pop    %edi
                           .text:01003de7 49                               dec    %ecx
                           .text:01003de8 4e                               dec    %esi
                           .text:01003de9 46                               inc    %esi
                           .text:01003dea 4f                               dec    %edi
                           .text:01003deb 52                               push   %edx
                           .text:01003dec 4d                               dec    %ebp
                           .text:01003ded 41                               inc    %ecx
                           .text:01003dee 54                               push   %esp
                           .text:01003def 49                               dec    %ecx
                           .text:01003df0 4f                               dec    %edi
                           .text:01003df1 4e                               dec    %esi
                           .text:01003df2 40                               inc    %eax
                           .text:01003df3 40                               inc    %eax
                           .text:01003df4 50                               push   %eax
                           .text:01003df5 41                               inc    %ecx
                           .text:01003df6 55                               push   %ebp
                           .text:01003df7 5f                               pop    %edi
                           .text:01003df8 46                               inc    %esi
                           .text:01003df9 49                               dec    %ecx
                           .text:01003dfa 4c                               dec    %esp
                           .text:01003dfb 45                               inc    %ebp
                           .text:01003dfc 5f                               pop    %edi
                           .text:01003dfd 46                               inc    %esi
                           .text:01003dfe 53                               push   %ebx
                           .text:01003dff 5f                               pop    %edi
                           .text:01003e00 56                               push   %esi
                           .text:01003e01 4f                               dec    %edi
                           .text:01003e02 4c                               dec    %esp
                           .text:01003e03 55                               push   %ebp
                           .text:01003e04 4d                               dec    %ebp
                           .text:01003e05 45                               inc    %ebp
                           .text:01003e06 5f                               pop    %edi
                           .text:01003e07 49                               dec    %ecx
                           .text:01003e08 4e                               dec    %esi
                           .text:01003e09 46                               inc    %esi
                           .text:01003e0a 4f                               dec    %edi
                           .text:01003e0b 52                               push   %edx
                           .text:01003e0c 4d                               dec    %ebp
                           .text:01003e0d 41                               inc    %ecx
                           .text:01003e0e 54                               push   %esp
                           .text:01003e0f 49                               dec    %ecx
                           .text:01003e10 4f                               dec    %edi
                           .text:01003e11 4e                               dec    %esi
                           .text:01003e12 40                               inc    %eax
                           .text:01003e13 40                               inc    %eax
                           .text:01003e14 40                               inc    %eax
                           .text:01003e15 5a                               pop    %edx
                           .text:01003e16 00 00                            add    %al,(%eax)
                           .text:01003e18 ab                               stos   %eax,%es:(%edi)
                           .text:01003e19 00 3f                            add    %bh,(%edi)
                           .text:01003e1b 51                               push   %ecx
                           .text:01003e1c 75 65                            jne    0x01003e83
                           .text:01003e1e 72 79                            jb     0x01003e99
                           .text:01003e20 46                               inc    %esi
                           .text:01003e21 69 6c 65 53 79 73 74 65          imul   $0x65747379,0x53(%ebp,%eiz,2),%ebp
                           .text:01003e29 6d                               insl   (%dx),%es:(%edi)
                           .text:01003e2a 4e                               dec    %esi
                           .text:01003e2b 61                               popa   
                           .text:01003e2c 6d                               insl   (%dx),%es:(%edi)
                           .text:01003e2d 65 40                            gs inc %eax
                           .text:01003e2f 49                               dec    %ecx
                           .text:01003e30 46                               inc    %esi
                           .text:01003e31 53                               push   %ebx
                           .text:01003e32 5f                               pop    %edi
                           .text:01003e33 53                               push   %ebx
                           .text:01003e34 59                               pop    %ecx
                           .text:01003e35 53                               push   %ebx
                           .text:01003e36 54                               push   %esp
                           .text:01003e37 45                               inc    %ebp
                           .text:01003e38 4d                               dec    %ebp
                           .text:01003e39 40                               inc    %eax
                           .text:01003e3a 40                               inc    %eax
                           .text:01003e3b 53                               push   %ebx
                           .text:01003e3c 47                               inc    %edi
                           .text:01003e3d 45                               inc    %ebp
                           .text:01003e3e 50                               push   %eax
                           .text:01003e3f 42                               inc    %edx
                           .text:01003e40 56                               push   %esi
                           .text:01003e41 57                               push   %edi
                           .text:01003e42 53                               push   %ebx
                           .text:01003e43 54                               push   %esp
                           .text:01003e44 52                               push   %edx
                           .text:01003e45 49                               dec    %ecx
                           .text:01003e46 4e                               dec    %esi
                           .text:01003e47 47                               inc    %edi
                           .text:01003e48 40                               inc    %eax
                           .text:01003e49 40                               inc    %eax
                           .text:01003e4a 50                               push   %eax
                           .text:01003e4b 41                               inc    %ecx
                           .text:01003e4c 56                               push   %esi
                           .text:01003e4d 32 40 50                         xor    0x50(%eax),%al
                           .text:01003e50 41                               inc    %ecx
                           .text:01003e51 4a                               dec    %edx
                           .text:01003e52 31 40 5a                         xor    %eax,0x5a(%eax)
                           .text:01003e55 00 8a 00 3f 49 73                add    %cl,0x73493f00(%edx)
                           .text:01003e5b 41                               inc    %ecx
                           .text:01003e5c 72 63                            jb     0x01003ec1
                           .text:01003e5e 53                               push   %ebx
                           .text:01003e5f 79 73                            jns    0x01003ed4
                           .text:01003e61 74 65                            je     0x01003ec8
                           .text:01003e63 6d                               insl   (%dx),%es:(%edi)
                           .text:01003e64 50                               push   %eax
                           .text:01003e65 61                               popa   
                           .text:01003e66 72 74                            jb     0x01003edc
                           .text:01003e68 69 74 69 6f 6e 40 49 46          imul   $0x4649406e,0x6f(%ecx,%ebp,2),%esi
                           .text:01003e70 53                               push   %ebx
                           .text:01003e71 5f                               pop    %edi
                           .text:01003e72 53                               push   %ebx
                           .text:01003e73 59                               pop    %ecx
                           .text:01003e74 53                               push   %ebx
                           .text:01003e75 54                               push   %esp
                           .text:01003e76 45                               inc    %ebp
                           .text:01003e77 4d                               dec    %ebp
                           .text:01003e78 40                               inc    %eax
                           .text:01003e79 40                               inc    %eax
                           .text:01003e7a 53                               push   %ebx
                           .text:01003e7b 47                               inc    %edi
                           .text:01003e7c 45                               inc    %ebp
                           .text:01003e7d 50                               push   %eax
                           .text:01003e7e 42                               inc    %edx
                           .text:01003e7f 56                               push   %esi
                           .text:01003e80 57                               push   %edi
                           .text:01003e81 53                               push   %ebx
                           .text:01003e82 54                               push   %esp
                           .text:01003e83 52                               push   %edx
                           .text:01003e84 49                               dec    %ecx
                           .text:01003e85 4e                               dec    %esi
                           .text:01003e86 47                               inc    %edi
                           .text:01003e87 40                               inc    %eax
                           .text:01003e88 40                               inc    %eax
                           .text:01003e89 50                               push   %eax
                           .text:01003e8a 41                               inc    %ecx
                           .text:01003e8b 45                               inc    %ebp
                           .text:01003e8c 40                               inc    %eax
                           .text:01003e8d 5a                               pop    %edx
                           .text:01003e8e 00 00                            add    %al,(%eax)
                           .text:01003e90 69 66 73 75 74 69 6c             imul   $0x6c697475,0x73(%esi),%esp
                           .text:01003e97 2e 64 6c                         cs fs insb (%dx),%es:(%edi)
                           .text:01003e9a 6c                               insb   (%dx),%es:(%edi)
                           .text:01003e9b 00 63 02                         add    %ah,0x2(%ebx)
                           .text:01003e9e 52                               push   %edx
                           .text:01003e9f 74 6c                            je     0x01003f0d
                           .text:01003ea1 41                               inc    %ecx
                           .text:01003ea2 6c                               insb   (%dx),%es:(%edi)
                           .text:01003ea3 6c                               insb   (%dx),%es:(%edi)
                           .text:01003ea4 6f                               outsl  %ds:(%esi),(%dx)
                           .text:01003ea5 63 61 74                         arpl   %sp,0x74(%ecx)
                           .text:01003ea8 65 48                            gs dec %eax
                           .text:01003eaa 65 61                            gs popa 
                           .text:01003eac 70 00                            jo     0x01003eae
                           .text:01003eae 47                               inc    %edi
                           .text:01003eaf 03 52 74                         add    0x74(%edx),%edx
                           .text:01003eb2 6c                               insb   (%dx),%es:(%edi)
                           .text:01003eb3 46                               inc    %esi
                           .text:01003eb4 72 65                            jb     0x01003f1b
                           .text:01003eb6 65 48                            gs dec %eax
                           .text:01003eb8 65 61                            gs popa 
                           .text:01003eba 70 00                            jo     0x01003ebc
                           .text:01003ebc 16                               push   %ss
                           .text:01003ebd 02 4e 74                         add    0x74(%esi),%cl
                           .text:01003ec0 54                               push   %esp
                           .text:01003ec1 65 72 6d                         gs jb  0x01003f31
                           .text:01003ec4 69 6e 61 74 65 50 72             imul   $0x72506574,0x61(%esi),%ebp
                           .text:01003ecb 6f                               outsl  %ds:(%esi),(%dx)
                           .text:01003ecc 63 65 73                         arpl   %sp,0x73(%ebp)
                           .text:01003ecf 73 00                            jae    0x01003ed1
                           .text:01003ed1 00 be 04 52 74 6c                add    %bh,0x6c745204(%esi)
                           .text:01003ed7 55                               push   %ebp
                           .text:01003ed8 6e                               outsb  %ds:(%esi),(%dx)
                           .text:01003ed9 68 61 6e 64 6c                   push   $0x6c646e61
                           .text:01003ede 65 64 45                         gs fs inc %ebp
                           .text:01003ee1 78 63                            js     0x01003f46
                           .text:01003ee3 65 70 74                         gs jo  0x01003f5a
                           .text:01003ee6 69 6f 6e 46 69 6c 74             imul   $0x746c6946,0x6e(%edi),%ebp
                           .text:01003eed 65 72 00                         gs jb  0x01003ef0
                           .text:01003ef0 6e                               outsb  %ds:(%esi),(%dx)
                           .text:01003ef1 74 64                            je     0x01003f57
                           .text:01003ef3 6c                               insb   (%dx),%es:(%edi)
                           .text:01003ef4 6c                               insb   (%dx),%es:(%edi)
                           .text:01003ef5 2e 64 6c                         cs fs insb (%dx),%es:(%edi)
                           .text:01003ef8 6c                               insb   (%dx),%es:(%edi)
                           .text:01003ef9 00 0e                            add    %cl,(%esi)
                           .text:01003efb 00 53 63                         add    %dl,0x63(%ebx)
                           .text:01003efe 65 43                            gs inc %ebx
                           .text:01003f00 6f                               outsl  %ds:(%esi),(%dx)
                           .text:01003f01 6e                               outsb  %ds:(%esi),(%dx)
                           .text:01003f02 66 69 67 75 72 65                imul   $0x6572,0x75(%edi),%sp
                           .text:01003f08 43                               inc    %ebx
                           .text:01003f09 6f                               outsl  %ds:(%esi),(%dx)
                           .text:01003f0a 6e                               outsb  %ds:(%esi),(%dx)
                           .text:01003f0b 76 65                            jbe    0x01003f72
                           .text:01003f0d 72 74                            jb     0x01003f83
                           .text:01003f0f 65 64 46                         gs fs inc %esi
                           .text:01003f12 69 6c 65 53 65 63 75 72          imul   $0x72756365,0x53(%ebp,%eiz,2),%ebp
                           .text:01003f1a 69 74 79 00 53 43 45 43          imul   $0x43454353,0x0(%ecx,%edi,2),%esi
                           .text:01003f22 4c                               dec    %esp
                           .text:01003f23 49                               dec    %ecx
                           .text:01003f24 2e 64 6c                         cs fs insb (%dx),%es:(%edi)
                           .text:01003f27 6c                               insb   (%dx),%es:(%edi)
                           .text:01003f28 00 00                            add    %al,(%eax)
                           .text:01003f2a 04 00                            add    $0x0,%al
                           .text:01003f2c 52                               push   %edx
                           .text:01003f2d 65 6d                            gs insl (%dx),%es:(%edi)
                           .text:01003f2f 6f                               outsl  %ds:(%esi),(%dx)
                           .text:01003f30 76 65                            jbe    0x01003f97
                           .text:01003f32 55                               push   %ebp
                           .text:01003f33 6e                               outsb  %ds:(%esi),(%dx)
                           .text:01003f34 69 6e 73 74 61 6c 6c             imul   $0x6c6c6174,0x73(%esi),%ebp
                           .text:01003f3b 49                               dec    %ecx
                           .text:01003f3c 6d                               insl   (%dx),%es:(%edi)
                           .text:01003f3d 61                               popa   
                           .text:01003f3e 67 65 00 00                      add    %al,%gs:(%bx,%si)
                           .text:01003f42 02 00                            add    (%eax),%al
                           .text:01003f44 49                               dec    %ecx
                           .text:01003f45 73 55                            jae    0x01003f9c
                           .text:01003f47 6e                               outsb  %ds:(%esi),(%dx)
                           .text:01003f48 69 6e 73 74 61 6c 6c             imul   $0x6c6c6174,0x73(%esi),%ebp
                           .text:01003f4f 49                               dec    %ecx
                           .text:01003f50 6d                               insl   (%dx),%es:(%edi)
                           .text:01003f51 61                               popa   
                           .text:01003f52 67 65 56                         addr16 gs push %esi
                           .text:01003f55 61                               popa   
                           .text:01003f56 6c                               insb   (%dx),%es:(%edi)
                           .text:01003f57 69 64 00 4f 53 55 4e 49          imul   $0x494e5553,0x4f(%eax,%eax,1),%esp
                           .text:01003f5f 4e                               dec    %esi
                           .text:01003f60 53                               push   %ebx
                           .text:01003f61 54                               push   %esp
                           .text:01003f62 2e 64 6c                         cs fs insb (%dx),%es:(%edi)
                           .text:01003f65 6c                               insb   (%dx),%es:(%edi)
                           .text:01003f66 00 00                            add    %al,(%eax)
                           .text:01003f68 02 02                            add    (%edx),%al
                           .text:01003f6a 47                               inc    %edi
                           .text:01003f6b 65 74 4c                         gs je  0x01003fba
                           .text:01003f6e 61                               popa   
                           .text:01003f6f 73 74                            jae    0x01003fe5
                           .text:01003f71 45                               inc    %ebp
                           .text:01003f72 72 72                            jb     0x01003fe6
                           .text:01003f74 6f                               outsl  %ds:(%esi),(%dx)
                           .text:01003f75 72 00                            jb     0x01003f77
                           .text:01003f77 00 64 00 43                      add    %ah,0x43(%eax,%eax,1)
                           .text:01003f7b 6f                               outsl  %ds:(%esi),(%dx)
                           .text:01003f7c 6d                               insl   (%dx),%es:(%edi)
                           .text:01003f7d 70 61                            jo     0x01003fe0
                           .text:01003f7f 72 65                            jb     0x01003fe6
                           .text:01003f81 53                               push   %ebx
                           .text:01003f82 74 72                            je     0x01003ff6
                           .text:01003f84 69 6e 67 57 00 00 58             imul   $0x58000057,0x67(%esi),%ebp
                           .text:01003f8b 04 53                            add    $0x53,%al
                           .text:01003f8d 65 74 45                         gs je  0x01003fd5
                           .text:01003f90 72 72                            jb     0x01004004
                           .text:01003f92 6f                               outsl  %ds:(%esi),(%dx)
                           .text:01003f93 72 4d                            jb     0x01003fe2
                           .text:01003f95 6f                               outsl  %ds:(%esi),(%dx)
                           .text:01003f96 64 65 00 00                      fs add %al,%gs:(%eax)
                           .text:01003f9a d3 02                            roll   %cl,(%edx)
                           .text:01003f9c 48                               dec    %eax
                           .text:01003f9d 65 61                            gs popa 
                           .text:01003f9f 70 53                            jo     0x01003ff4
                           .text:01003fa1 65 74 49                         gs je  0x01003fed
                           .text:01003fa4 6e                               outsb  %ds:(%esi),(%dx)
                           .text:01003fa5 66 6f                            outsw  %ds:(%esi),(%dx)
                           .text:01003fa7 72 6d                            jb     0x01004016
                           .text:01003fa9 61                               popa   
                           .text:01003faa 74 69                            je     0x01004015
                           .text:01003fac 6f                               outsl  %ds:(%esi),(%dx)
                           .text:01003fad 6e                               outsb  %ds:(%esi),(%dx)
                           .text:01003fae 00 00                            add    %al,(%eax)
                           .text:01003fb0 4b                               dec    %ebx
                           .text:01003fb1 45                               inc    %ebp
                           .text:01003fb2 52                               push   %edx
                           .text:01003fb3 4e                               dec    %esi
                           .text:01003fb4 45                               inc    %ebp
                           .text:01003fb5 4c                               dec    %esp
                           .text:01003fb6 33 32                            xor    (%edx),%esi
                           .text:01003fb8 2e 64 6c                         cs fs insb (%dx),%es:(%edi)
                           .text:01003fbb 6c                               insb   (%dx),%es:(%edi)
                           .text:01003fbc 00 00                            add    %al,(%eax)
                           .text:01003fbe ef                               out    %eax,(%dx)
                           .text:01003fbf 03 5f 77                         add    0x77(%edi),%ebx
                           .text:01003fc2 63 73 69                         arpl   %si,0x69(%ebx)
                           .text:01003fc5 63 6d 70                         arpl   %bp,0x70(%ebp)
                           .text:01003fc8 00 00                            add    %al,(%eax)
                           .text:01003fca 0a 04 5f                         or     (%edi,%ebx,2),%al
                           .text:01003fcd 77 63                            ja     0x01004032
                           .text:01003fcf 73 75                            jae    0x01004046
                           .text:01003fd1 70 72                            jo     0x01004045
                           .text:01003fd3 00 91 00 5f 5f 67                add    %dl,0x675f5f00(%ecx)
                           .text:01003fd9 65 74 6d                         gs je  0x01004049
                           .text:01003fdc 61                               popa   
                           .text:01003fdd 69 6e 61 72 67 73 00             imul   $0x736772,0x61(%esi),%ebp
                           .text:01003fe4 14 01                            adc    $0x1,%al
                           .text:01003fe6 5f                               pop    %edi
                           .text:01003fe7 63 65 78                         arpl   %sp,0x78(%ebp)
                           .text:01003fea 69 74 00 00 62 01 5f 65          imul   $0x655f0162,0x0(%eax,%eax,1),%esi
                           .text:01003ff2 78 69                            js     0x0100405d
                           .text:01003ff4 74 00                            je     0x01003ff6
                           .text:01003ff6 6a 00                            push   $0x0
                           .text:01003ff8 5f                               pop    %edi
                           .text:01003ff9 58                               pop    %eax
                           .text:01003ffa 63 70 74                         arpl   %si,0x74(%eax)
                           .text:01003ffd 46                               inc    %esi
                           .text:01003ffe 69 6c 74 65 72 00 8f 04          imul   $0x48f0072,0x65(%esp,%esi,2),%ebp
                           .text:01004006 65 78 69                         gs js  0x01004072
                           .text:01004009 74 00                            je     0x0100400b
                           .text:0100400b 00 d5                            add    %dl,%ch
                           .text:0100400d 01 5f 69                         add    %ebx,0x69(%edi)
                           .text:01004010 6e                               outsb  %ds:(%esi),(%dx)
                           .text:01004011 69 74 74 65 72 6d 00 01          imul   $0x1006d72,0x65(%esp,%esi,2),%esi
                           .text:01004019 01 5f 61                         add    %ebx,0x61(%edi)
                           .text:0100401c 6d                               insl   (%dx),%es:(%edi)
                           .text:0100401d 73 67                            jae    0x01004086
                           .text:0100401f 5f                               pop    %edi
                           .text:01004020 65 78 69                         gs js  0x0100408c
                           .text:01004023 74 00                            je     0x01004025
                           .text:01004025 00 d4                            add    %dl,%ah
                           .text:01004027 00 5f 5f                         add    %bl,0x5f(%edi)
                           .text:0100402a 73 65                            jae    0x01004091
                           .text:0100402c 74 75                            je     0x010040a3
                           .text:0100402e 73 65                            jae    0x01004095
                           .text:01004030 72 6d                            jb     0x0100409f
                           .text:01004032 61                               popa   
                           .text:01004033 74 68                            je     0x0100409d
                           .text:01004035 65 72 72                         gs jb  0x010040aa
                           .text:01004038 00 00                            add    %al,(%eax)
                           .text:0100403a b9 00 5f 5f 70                   mov    $0x705f5f00,%ecx
                           .text:0100403f 5f                               pop    %edi
                           .text:01004040 5f                               pop    %edi
                           .text:01004041 63 6f 6d                         arpl   %bp,0x6d(%edi)
                           .text:01004044 6d                               insl   (%dx),%es:(%edi)
                           .text:01004045 6f                               outsl  %ds:(%esi),(%dx)
                           .text:01004046 64 65 00 00                      fs add %al,%gs:(%eax)
                           .text:0100404a be 00 5f 5f 70                   mov    $0x705f5f00,%esi
                           .text:0100404f 5f                               pop    %edi
                           .text:01004050 5f                               pop    %edi
                           .text:01004051 66 6d                            insw   (%dx),%es:(%edi)
                           .text:01004053 6f                               outsl  %ds:(%esi),(%dx)
                           .text:01004054 64 65 00 00                      fs add %al,%gs:(%eax)
                           .text:01004058 d2 00                            rolb   %cl,(%eax)
                           .text:0100405a 5f                               pop    %edi
                           .text:0100405b 5f                               pop    %edi
                           .text:0100405c 73 65                            jae    0x010040c3
                           .text:0100405e 74 5f                            je     0x010040bf
                           .text:01004060 61                               popa   
                           .text:01004061 70 70                            jo     0x010040d3
                           .text:01004063 5f                               pop    %edi
                           .text:01004064 74 79                            je     0x010040df
                           .text:01004066 70 65                            jo     0x010040cd
                           .text:01004068 00 00                            add    %al,(%eax)
                           .text:0100406a 6d                               insl   (%dx),%es:(%edi)
                           .text:0100406b 73 76                            jae    0x010040e3
                           .text:0100406d 63 72 74                         arpl   %si,0x74(%edx)
                           .text:01004070 2e 64 6c                         cs fs insb (%dx),%es:(%edi)
                           .text:01004073 6c                               insb   (%dx),%es:(%edi)
                           .text:01004074 00 00                            add    %al,(%eax)
                           .text:01004076 37                               aaa    
                           .text:01004077 00 3f                            add    %bh,(%edi)
                           .text:01004079 74 65                            je     0x010040e0
                           .text:0100407b 72 6d                            jb     0x010040ea
                           .text:0100407d 69 6e 61 74 65 40 40             imul   $0x40406574,0x61(%esi),%ebp
                           .text:01004084 59                               pop    %ecx
                           .text:01004085 41                               inc    %ecx
                           .text:01004086 58                               pop    %eax
                           .text:01004087 58                               pop    %eax
                           .text:01004088 5a                               pop    %edx
                           .text:01004089 00 59 01                         add    %bl,0x1(%ecx)
                           .text:0100408c 5f                               pop    %edi
                           .text:0100408d 65 78 63                         gs js  0x010040f3
                           .text:01004090 65 70 74                         gs jo  0x01004107
                           .text:01004093 5f                               pop    %edi
                           .text:01004094 68 61 6e 64 6c                   push   $0x6c646e61
                           .text:01004099 65 72 34                         gs jb  0x010040d0
                           .text:0100409c 5f                               pop    %edi
                           .text:0100409d 63 6f 6d                         arpl   %bp,0x6d(%edi)
                           .text:010040a0 6d                               insl   (%dx),%es:(%edi)
                           .text:010040a1 6f                               outsl  %ds:(%esi),(%dx)
                           .text:010040a2 6e                               outsb  %ds:(%esi),(%dx)
                           .text:010040a3 00 27                            add    %ah,(%edi)
                           .text:010040a5 01 5f 63                         add    %ebx,0x63(%edi)
                           .text:010040a8 6f                               outsl  %ds:(%esi),(%dx)
                           .text:010040a9 6e                               outsb  %ds:(%esi),(%dx)
                           .text:010040aa 74 72                            je     0x0100411e
                           .text:010040ac 6f                               outsl  %ds:(%esi),(%dx)
                           .text:010040ad 6c                               insb   (%dx),%es:(%edi)
                           .text:010040ae 66 70 00                         data16 jo 0x010040b1
                           .text:010040b1 00 ec                            add    %ch,%ah
                           .text:010040b3 02 49 6e                         add    0x6e(%ecx),%cl
                           .text:010040b6 74 65                            je     0x0100411d
                           .text:010040b8 72 6c                            jb     0x01004126
                           .text:010040ba 6f                               outsl  %ds:(%esi),(%dx)
                           .text:010040bb 63 6b 65                         arpl   %bp,0x65(%ebx)
                           .text:010040be 64 45                            fs inc %ebp
                           .text:010040c0 78 63                            js     0x01004125
                           .text:010040c2 68 61 6e 67 65                   push   $0x65676e61
                           .text:010040c7 00 b2 04 53 6c 65                add    %dh,0x656c5304(%edx)
                           .text:010040cd 65 70 00                         gs jo  0x010040d0
                           .text:010040d0 e9 02 49 6e 74                   jmp    0x756e89d7
                           .text:010040d5 65 72 6c                         gs jb  0x01004144
                           .text:010040d8 6f                               outsl  %ds:(%esi),(%dx)
                           .text:010040d9 63 6b 65                         arpl   %bp,0x65(%ebx)
                           .text:010040dc 64 43                            fs inc %ebx
                           .text:010040de 6f                               outsl  %ds:(%esi),(%dx)
                           .text:010040df 6d                               insl   (%dx),%es:(%edi)
                           .text:010040e0 70 61                            jo     0x01004143
                           .text:010040e2 72 65                            jb     0x01004149
                           .text:010040e4 45                               inc    %ebp
                           .text:010040e5 78 63                            js     0x0100414a
                           .text:010040e7 68 61 6e 67 65                   push   $0x65676e61
                           .text:010040ec 00 00                            add    %al,(%eax)
                           .text:010040ee a5                               movsl  %ds:(%esi),%es:(%edi)
                           .text:010040ef 04 53                            add    $0x53,%al
                           .text:010040f1 65 74 55                         gs je  0x01004149
                           .text:010040f4 6e                               outsb  %ds:(%esi),(%dx)
                           .text:010040f5 68 61 6e 64 6c                   push   $0x6c646e61
                           .text:010040fa 65 64 45                         gs fs inc %ebp
                           .text:010040fd 78 63                            js     0x01004162
                           .text:010040ff 65 70 74                         gs jo  0x01004176
                           .text:01004102 69 6f 6e 46 69 6c 74             imul   $0x746c6946,0x6e(%edi),%ebp
                           .text:01004109 65 72 00                         gs jb  0x0100410c
                           .text:0100410c 15 02 47 65 74                   adc    $0x74654702,%eax
                           .text:01004111 4d                               dec    %ebp
                           .text:01004112 6f                               outsl  %ds:(%esi),(%dx)
                           .text:01004113 64 75 6c                         fs jne 0x01004182
                           .text:01004116 65 48                            gs dec %eax
                           .text:01004118 61                               popa   
                           .text:01004119 6e                               outsb  %ds:(%esi),(%dx)
                           .text:0100411a 64 6c                            fs insb (%dx),%es:(%edi)
                           .text:0100411c 65 41                            gs inc %ecx
                           .text:0100411e 00 00                            add    %al,(%eax)
                           .data:01005000 4e                               0x4e 'N'
                           .data:01005001 e6                               0xe6 
                           .data:01005002 40                               0x40 '@'
                           .data:01005003 bb                               0xbb 
                           .data:01005004 b1                               0xb1 
                           .data:01005005 19                               0x19 
                           .data:01005006 bf                               0xbf 
                           .data:01005007 44                               0x44 'D'
                           .data:01005008 ff                               0xff 
                           .data:01005009 ff                               0xff 
                           .data:0100500a ff                               0xff 
                           .data:0100500b ff                               0xff 
                           .data:0100500c ff                               0xff 
                           .data:0100500d ff                               0xff 
                           .data:0100500e ff                               0xff 
                           .data:0100500f ff                               0xff 
                           .data:01005010 01                               0x01 
                           .data:01005011 00                               0x00 
                           .data:01005012 00                               0x00 
                           .data:01005013 00                               0x00 
                           .data:01005014 00                               0x00 
                           .data:01005015 00                               0x00 
                           .data:01005016 00                               0x00 
                           .data:01005017 00                               0x00 
                           .data:01005018 00                               0x00 
                           .data:01005019 00                               0x00 
                           .data:0100501a 00                               0x00 
                           .data:0100501b 00                               0x00 
                           .data:0100501c 00                               0x00 
                           .data:0100501d 00                               0x00 
                           .data:0100501e 00                               0x00 
                           .data:0100501f 00                               0x00 
                           .data:01005020 00                               0x00 
                           .data:01005021 00                               0x00 
                           .data:01005022 00                               0x00 
                           .data:01005023 00                               0x00 
                           .data:01005024 00                               0x00 
                           .data:01005025 00                               0x00 
                           .data:01005026 00                               0x00 
                           .data:01005027 00                               0x00 
                           .data:01005028 00                               0x00 
                           .data:01005029 00                               0x00 
                           .data:0100502a 00                               0x00 
                           .data:0100502b 00                               0x00 
                           .data:0100502c 00                               0x00 
                           .data:0100502d 00                               0x00 
                           .data:0100502e 00                               0x00 
                           .data:0100502f 00                               0x00 
                           .data:01005030 00                               0x00 
                           .data:01005031 00                               0x00 
                           .data:01005032 00                               0x00 
                           .data:01005033 00                               0x00 
                           .data:01005034 00                               0x00 
                           .data:01005035 00                               0x00 
                           .data:01005036 00                               0x00 
                           .data:01005037 00                               0x00 
                           .data:01005038 00                               0x00 
                           .data:01005039 00                               0x00 
                           .data:0100503a 00                               0x00 
                           .data:0100503b 00                               0x00 
                           .data:0100503c 00                               0x00 
                           .data:0100503d 00                               0x00 
                           .data:0100503e 00                               0x00 
                           .data:0100503f 00                               0x00 
                           .data:01005040 00                               0x00 
                           .data:01005041 00                               0x00 
                           .data:01005042 00                               0x00 
                           .data:01005043 00                               0x00 
                           .data:01005044 00                               0x00 
                           .data:01005045 00                               0x00 
                           .data:01005046 00                               0x00 
                           .data:01005047 00                               0x00 
                           .data:01005048 00                               0x00 
                           .data:01005049 00                               0x00 
                           .data:0100504a 00                               0x00 
                           .data:0100504b 00                               0x00 
                           .data:0100504c 00                               0x00 
                           .data:0100504d 00                               0x00 
                           .data:0100504e 00                               0x00 
                           .data:0100504f 00                               0x00 
                           .data:01005050 00                               0x00 
                           .data:01005051 00                               0x00 
                           .data:01005052 00                               0x00 
                           .data:01005053 00                               0x00 
                           .data:01005054 00                               0x00 
                           .data:01005055 00                               0x00 
                           .data:01005056 00                               0x00 
                           .data:01005057 00                               0x00 
                           .data:01005058 00                               0x00 
                           .data:01005059 00                               0x00 
                           .data:0100505a 00                               0x00 
                           .data:0100505b 00                               0x00 
                           .data:0100505c 00                               0x00 
                           .data:0100505d 00                               0x00 
                           .data:0100505e 00                               0x00 
                           .data:0100505f 00                               0x00 
                           .data:01005060 00                               0x00 
                           .data:01005061 00                               0x00 
                           .data:01005062 00                               0x00 
                           .data:01005063 00                               0x00 
                           .data:01005064 00                               0x00 
                           .data:01005065 00                               0x00 
                           .data:01005066 00                               0x00 
                           .data:01005067 00                               0x00 
                           .data:01005068 00                               0x00 
                           .data:01005069 00                               0x00 
                           .data:0100506a 00                               0x00 
                           .data:0100506b 00                               0x00 
                           .data:0100506c 00                               0x00 
                           .data:0100506d 00                               0x00 
                           .data:0100506e 00                               0x00 
                           .data:0100506f 00                               0x00 
                           .data:01005070 00                               0x00 
                           .data:01005071 00                               0x00 
                           .data:01005072 00                               0x00 
                           .data:01005073 00                               0x00 
                           .data:01005074 00                               0x00 
                           .data:01005075 00                               0x00 
                           .data:01005076 00                               0x00 
                           .data:01005077 00                               0x00 
                           .data:01005078 00                               0x00 
                           .data:01005079 00                               0x00 
                           .data:0100507a 00                               0x00 
                           .data:0100507b 00                               0x00 
                           .data:0100507c 00                               0x00 
                           .data:0100507d 00                               0x00 
                           .data:0100507e 00                               0x00 
                           .data:0100507f 00                               0x00 
                           .data:01005080 00                               0x00 
                           .data:01005081 00                               0x00 
                           .data:01005082 00                               0x00 
                           .data:01005083 00                               0x00 
                           .data:01005084 00                               0x00 
                           .data:01005085 00                               0x00 
                           .data:01005086 00                               0x00 
                           .data:01005087 00                               0x00 
                           .data:01005088 00                               0x00 
                           .data:01005089 00                               0x00 
                           .data:0100508a 00                               0x00 
                           .data:0100508b 00                               0x00 
                           .data:0100508c 00                               0x00 
                           .data:0100508d 00                               0x00 
                           .data:0100508e 00                               0x00 
                           .data:0100508f 00                               0x00 
                           .data:01005090 00                               0x00 
                           .data:01005091 00                               0x00 
                           .data:01005092 00                               0x00 
                           .data:01005093 00                               0x00 
                           .data:01005094 00                               0x00 
                           .data:01005095 00                               0x00 
                           .data:01005096 00                               0x00 
                           .data:01005097 00                               0x00 
                           .data:01005098 00                               0x00 
                           .data:01005099 00                               0x00 
                           .data:0100509a 00                               0x00 
                           .data:0100509b 00                               0x00 
                           .data:0100509c 00                               0x00 
                           .data:0100509d 00                               0x00 
                           .data:0100509e 00                               0x00 
                           .data:0100509f 00                               0x00 
                           .data:010050a0 00                               0x00 
                           .data:010050a1 00                               0x00 
                           .data:010050a2 00                               0x00 
                           .data:010050a3 00                               0x00 
                           .data:010050a4 00                               0x00 
                           .data:010050a5 00                               0x00 
                           .data:010050a6 00                               0x00 
                           .data:010050a7 00                               0x00 
                           .data:010050a8 00                               0x00 
                           .data:010050a9 00                               0x00 
                           .data:010050aa 00                               0x00 
                           .data:010050ab 00                               0x00 
                           .data:010050ac 00                               0x00 
                           .data:010050ad 00                               0x00 
                           .data:010050ae 00                               0x00 
                           .data:010050af 00                               0x00 
                           .data:010050b0 00                               0x00 
                           .data:010050b1 00                               0x00 
                           .data:010050b2 00                               0x00 
                           .data:010050b3 00                               0x00 
                           .data:010050b4 00                               0x00 
                           .data:010050b5 00                               0x00 
                           .data:010050b6 00                               0x00 
                           .data:010050b7 00                               0x00 
                           .data:010050b8 00                               0x00 
                           .data:010050b9 00                               0x00 
                           .data:010050ba 00                               0x00 
                           .data:010050bb 00                               0x00 
                           .data:010050bc 00                               0x00 
                           .data:010050bd 00                               0x00 
                           .data:010050be 00                               0x00 
                           .data:010050bf 00                               0x00 
                           .data:010050c0 00                               0x00 
                           .data:010050c1 00                               0x00 
                           .data:010050c2 00                               0x00 
                           .data:010050c3 00                               0x00 
                           .data:010050c4 00                               0x00 
                           .data:010050c5 00                               0x00 
                           .data:010050c6 00                               0x00 
                           .data:010050c7 00                               0x00 
                           .data:010050c8 00                               0x00 
                           .data:010050c9 00                               0x00 
                           .data:010050ca 00                               0x00 
                           .data:010050cb 00                               0x00 
                           .data:010050cc 00                               0x00 
                           .data:010050cd 00                               0x00 
                           .data:010050ce 00                               0x00 
                           .data:010050cf 00                               0x00 
                           .data:010050d0 00                               0x00 
                           .data:010050d1 00                               0x00 
                           .data:010050d2 00                               0x00 
                           .data:010050d3 00                               0x00 
                           .data:010050d4 00                               0x00 
                           .data:010050d5 00                               0x00 
                           .data:010050d6 00                               0x00 
                           .data:010050d7 00                               0x00 
                           .data:010050d8 00                               0x00 
                           .data:010050d9 00                               0x00 
                           .data:010050da 00                               0x00 
                           .data:010050db 00                               0x00 
                           .data:010050dc 00                               0x00 
                           .data:010050dd 00                               0x00 
                           .data:010050de 00                               0x00 
                           .data:010050df 00                               0x00 
                           .data:010050e0 00                               0x00 
                           .data:010050e1 00                               0x00 
                           .data:010050e2 00                               0x00 
                           .data:010050e3 00                               0x00 
                           .data:010050e4 00                               0x00 
                           .data:010050e5 00                               0x00 
                           .data:010050e6 00                               0x00 
                           .data:010050e7 00                               0x00 
                           .data:010050e8 00                               0x00 
                           .data:010050e9 00                               0x00 
                           .data:010050ea 00                               0x00 
                           .data:010050eb 00                               0x00 
                           .data:010050ec 00                               0x00 
                           .data:010050ed 00                               0x00 
                           .data:010050ee 00                               0x00 
                           .data:010050ef 00                               0x00 
                           .data:010050f0 00                               0x00 
                           .data:010050f1 00                               0x00 
                           .data:010050f2 00                               0x00 
                           .data:010050f3 00                               0x00 
                           .data:010050f4 00                               0x00 
                           .data:010050f5 00                               0x00 
                           .data:010050f6 00                               0x00 
                           .data:010050f7 00                               0x00 
                           .data:010050f8 00                               0x00 
                           .data:010050f9 00                               0x00 
                           .data:010050fa 00                               0x00 
                           .data:010050fb 00                               0x00 
                           .data:010050fc 00                               0x00 
                           .data:010050fd 00                               0x00 
                           .data:010050fe 00                               0x00 
                           .data:010050ff 00                               0x00 
                           .data:01005100 00                               0x00 
                           .data:01005101 00                               0x00 
                           .data:01005102 00                               0x00 
                           .data:01005103 00                               0x00 
                           .data:01005104 00                               0x00 
                           .data:01005105 00                               0x00 
                           .data:01005106 00                               0x00 
                           .data:01005107 00                               0x00 
                           .data:01005108 00                               0x00 
                           .data:01005109 00                               0x00 
                           .data:0100510a 00                               0x00 
                           .data:0100510b 00                               0x00 
                           .data:0100510c 00                               0x00 
                           .data:0100510d 00                               0x00 
                           .data:0100510e 00                               0x00 
                           .data:0100510f 00                               0x00 
                           .data:01005110 00                               0x00 
                           .data:01005111 00                               0x00 
                           .data:01005112 00                               0x00 
                           .data:01005113 00                               0x00 
                           .data:01005114 00                               0x00 
                           .data:01005115 00                               0x00 
                           .data:01005116 00                               0x00 
                           .data:01005117 00                               0x00 
                           .data:01005118 00                               0x00 
                           .data:01005119 00                               0x00 
                           .data:0100511a 00                               0x00 
                           .data:0100511b 00                               0x00 
                           .data:0100511c 00                               0x00 
                           .data:0100511d 00                               0x00 
                           .data:0100511e 00                               0x00 
                           .data:0100511f 00                               0x00 
                           .data:01005120 00                               0x00 
                           .data:01005121 00                               0x00 
                           .data:01005122 00                               0x00 
                           .data:01005123 00                               0x00 
                           .data:01005124 00                               0x00 
                           .data:01005125 00                               0x00 
                           .data:01005126 00                               0x00 
                           .data:01005127 00                               0x00 
                           .data:01005128 00                               0x00 
                           .data:01005129 00                               0x00 
                           .data:0100512a 00                               0x00 
                           .data:0100512b 00                               0x00 
                           .data:0100512c 00                               0x00 
                           .data:0100512d 00                               0x00 
                           .data:0100512e 00                               0x00 
                           .data:0100512f 00                               0x00 
                           .data:01005130 00                               0x00 
                           .data:01005131 00                               0x00 
                           .data:01005132 00                               0x00 
                           .data:01005133 00                               0x00 
                           .data:01005134 00                               0x00 
                           .data:01005135 00                               0x00 
                           .data:01005136 00                               0x00 
                           .data:01005137 00                               0x00 
                           .data:01005138 00                               0x00 
                           .data:01005139 00                               0x00 
                           .data:0100513a 00                               0x00 
                           .data:0100513b 00                               0x00 
                           .data:0100513c 00                               0x00 
                           .data:0100513d 00                               0x00 
                           .data:0100513e 00                               0x00 
                           .data:0100513f 00                               0x00 
                           .data:01005140 00                               0x00 
                           .data:01005141 00                               0x00 
                           .data:01005142 00                               0x00 
                           .data:01005143 00                               0x00 
                           .data:01005144 00                               0x00 
                           .data:01005145 00                               0x00 
                           .data:01005146 00                               0x00 
                           .data:01005147 00                               0x00 
                           .data:01005148 00                               0x00 
                           .data:01005149 00                               0x00 
                           .data:0100514a 00                               0x00 
                           .data:0100514b 00                               0x00 
                           .data:0100514c 00                               0x00 
                           .data:0100514d 00                               0x00 
                           .data:0100514e 00                               0x00 
                           .data:0100514f 00                               0x00 
                           .data:01005150 00                               0x00 
                           .data:01005151 00                               0x00 
                           .data:01005152 00                               0x00 
                           .data:01005153 00                               0x00 
                           .data:01005154 00                               0x00 
                           .data:01005155 00                               0x00 
                           .data:01005156 00                               0x00 
                           .data:01005157 00                               0x00 
                           .data:01005158 00                               0x00 
                           .data:01005159 00                               0x00 
                           .data:0100515a 00                               0x00 
                           .data:0100515b 00                               0x00 
                           .data:0100515c 00                               0x00 
                           .data:0100515d 00                               0x00 
                           .data:0100515e 00                               0x00 
                           .data:0100515f 00                               0x00 
                           .data:01005160 00                               0x00 
                           .data:01005161 00                               0x00 
                           .data:01005162 00                               0x00 
                           .data:01005163 00                               0x00 
                           .data:01005164 00                               0x00 
                           .data:01005165 00                               0x00 
                           .data:01005166 00                               0x00 
                           .data:01005167 00                               0x00 
                           .data:01005168 00                               0x00 
                           .data:01005169 00                               0x00 
                           .data:0100516a 00                               0x00 
                           .data:0100516b 00                               0x00 
                           .data:0100516c 00                               0x00 
                           .data:0100516d 00                               0x00 
                           .data:0100516e 00                               0x00 
                           .data:0100516f 00                               0x00 
                           .data:01005170 00                               0x00 
                           .data:01005171 00                               0x00 
                           .data:01005172 00                               0x00 
                           .data:01005173 00                               0x00 
                           .data:01005174 00                               0x00 
                           .data:01005175 00                               0x00 
                           .data:01005176 00                               0x00 
                           .data:01005177 00                               0x00 
                           .data:01005178 00                               0x00 
                           .data:01005179 00                               0x00 
                           .data:0100517a 00                               0x00 
                           .data:0100517b 00                               0x00 
                           .data:0100517c 00                               0x00 
                           .data:0100517d 00                               0x00 
                           .data:0100517e 00                               0x00 
                           .data:0100517f 00                               0x00 
                           .data:01005180 00                               0x00 
                           .data:01005181 00                               0x00 
                           .data:01005182 00                               0x00 
                           .data:01005183 00                               0x00 
                           .data:01005184 00                               0x00 
                           .data:01005185 00                               0x00 
                           .data:01005186 00                               0x00 
                           .data:01005187 00                               0x00 
                           .data:01005188 00                               0x00 
                           .data:01005189 00                               0x00 
                           .data:0100518a 00                               0x00 
                           .data:0100518b 00                               0x00 
                           .data:0100518c 00                               0x00 
                           .data:0100518d 00                               0x00 
                           .data:0100518e 00                               0x00 
                           .data:0100518f 00                               0x00 
                           .data:01005190 00                               0x00 
                           .data:01005191 00                               0x00 
                           .data:01005192 00                               0x00 
                           .data:01005193 00                               0x00 
                           .data:01005194 00                               0x00 
                           .data:01005195 00                               0x00 
                           .data:01005196 00                               0x00 
                           .data:01005197 00                               0x00 
                           .data:01005198 00                               0x00 
                           .data:01005199 00                               0x00 
                           .data:0100519a 00                               0x00 
                           .data:0100519b 00                               0x00 
                           .data:0100519c 00                               0x00 
                           .data:0100519d 00                               0x00 
                           .data:0100519e 00                               0x00 
                           .data:0100519f 00                               0x00 
                           .data:010051a0 00                               0x00 
                           .data:010051a1 00                               0x00 
                           .data:010051a2 00                               0x00 
                           .data:010051a3 00                               0x00 
                           .data:010051a4 00                               0x00 
                           .data:010051a5 00                               0x00 
                           .data:010051a6 00                               0x00 
                           .data:010051a7 00                               0x00 
                           .data:010051a8 00                               0x00 
                           .data:010051a9 00                               0x00 
                           .data:010051aa 00                               0x00 
                           .data:010051ab 00                               0x00 
                           .data:010051ac 00                               0x00 
                           .data:010051ad 00                               0x00 
                           .data:010051ae 00                               0x00 
                           .data:010051af 00                               0x00 
                           .data:010051b0 00                               0x00 
                           .data:010051b1 00                               0x00 
                           .data:010051b2 00                               0x00 
                           .data:010051b3 00                               0x00 
                           .data:010051b4 00                               0x00 
                           .data:010051b5 00                               0x00 
                           .data:010051b6 00                               0x00 
                           .data:010051b7 00                               0x00 
                           .data:010051b8 00                               0x00 
                           .data:010051b9 00                               0x00 
                           .data:010051ba 00                               0x00 
                           .data:010051bb 00                               0x00 
                           .data:010051bc 00                               0x00 
                           .data:010051bd 00                               0x00 
                           .data:010051be 00                               0x00 
                           .data:010051bf 00                               0x00 
                           .data:010051c0 00                               0x00 
                           .data:010051c1 00                               0x00 
                           .data:010051c2 00                               0x00 
                           .data:010051c3 00                               0x00 
                           .data:010051c4 00                               0x00 
                           .data:010051c5 00                               0x00 
                           .data:010051c6 00                               0x00 
                           .data:010051c7 00                               0x00 
                           .data:010051c8 00                               0x00 
                           .data:010051c9 00                               0x00 
                           .data:010051ca 00                               0x00 
                           .data:010051cb 00                               0x00 
                           .data:010051cc 00                               0x00 
                           .data:010051cd 00                               0x00 
                           .data:010051ce 00                               0x00 
                           .data:010051cf 00                               0x00 
                           .data:010051d0 00                               0x00 
                           .data:010051d1 00                               0x00 
                           .data:010051d2 00                               0x00 
                           .data:010051d3 00                               0x00 
                           .data:010051d4 00                               0x00 
                           .data:010051d5 00                               0x00 
                           .data:010051d6 00                               0x00 
                           .data:010051d7 00                               0x00 
                           .data:010051d8 00                               0x00 
                           .data:010051d9 00                               0x00 
                           .data:010051da 00                               0x00 
                           .data:010051db 00                               0x00 
                           .data:010051dc 00                               0x00 
                           .data:010051dd 00                               0x00 
                           .data:010051de 00                               0x00 
                           .data:010051df 00                               0x00 
                           .data:010051e0 00                               0x00 
                           .data:010051e1 00                               0x00 
                           .data:010051e2 00                               0x00 
                           .data:010051e3 00                               0x00 
                           .data:010051e4 00                               0x00 
                           .data:010051e5 00                               0x00 
                           .data:010051e6 00                               0x00 
                           .data:010051e7 00                               0x00 
                           .data:010051e8 00                               0x00 
                           .data:010051e9 00                               0x00 
                           .data:010051ea 00                               0x00 
                           .data:010051eb 00                               0x00 
                           .data:010051ec 00                               0x00 
                           .data:010051ed 00                               0x00 
                           .data:010051ee 00                               0x00 
                           .data:010051ef 00                               0x00 
                           .data:010051f0 00                               0x00 
                           .data:010051f1 00                               0x00 
                           .data:010051f2 00                               0x00 
                           .data:010051f3 00                               0x00 
                           .data:010051f4 00                               0x00 
                           .data:010051f5 00                               0x00 
                           .data:010051f6 00                               0x00 
                           .data:010051f7 00                               0x00 
                           .data:010051f8 00                               0x00 
                           .data:010051f9 00                               0x00 
                           .data:010051fa 00                               0x00 
                           .data:010051fb 00                               0x00 
                           .data:010051fc 00                               0x00 
                           .data:010051fd 00                               0x00 
                           .data:010051fe 00                               0x00 
                           .data:010051ff 00                               0x00 
                           .rsrc:01006000 00                               0x00 
                           .rsrc:01006001 00                               0x00 
                           .rsrc:01006002 00                               0x00 
                           .rsrc:01006003 00                               0x00 
                           .rsrc:01006004 00                               0x00 
                           .rsrc:01006005 00                               0x00 
                           .rsrc:01006006 00                               0x00 
                           .rsrc:01006007 00                               0x00 
                           .rsrc:01006008 00                               0x00 
                           .rsrc:01006009 00                               0x00 
                           .rsrc:0100600a 00                               0x00 
                           .rsrc:0100600b 00                               0x00 
                           .rsrc:0100600c 00                               0x00 
                           .rsrc:0100600d 00                               0x00 
                           .rsrc:0100600e 02                               0x02 
                           .rsrc:0100600f 00                               0x00 
                           .rsrc:01006010 10                               0x10 
                           .rsrc:01006011 00                               0x00 
                           .rsrc:01006012 00                               0x00 
                           .rsrc:01006013 00                               0x00 
                           .rsrc:01006014 20                               0x20 ' '
                           .rsrc:01006015 00                               0x00 
                           .rsrc:01006016 00                               0x00 
                           .rsrc:01006017 80                               0x80 
                           .rsrc:01006018 18                               0x18 
                           .rsrc:01006019 00                               0x00 
                           .rsrc:0100601a 00                               0x00 
                           .rsrc:0100601b 00                               0x00 
                           .rsrc:0100601c 38                               0x38 '8'
                           .rsrc:0100601d 00                               0x00 
                           .rsrc:0100601e 00                               0x00 
                           .rsrc:0100601f 80                               0x80 
                           .rsrc:01006020 00                               0x00 
                           .rsrc:01006021 00                               0x00 
                           .rsrc:01006022 00                               0x00 
                           .rsrc:01006023 00                               0x00 
                           .rsrc:01006024 00                               0x00 
                           .rsrc:01006025 00                               0x00 
                           .rsrc:01006026 00                               0x00 
                           .rsrc:01006027 00                               0x00 
                           .rsrc:01006028 00                               0x00 
                           .rsrc:01006029 00                               0x00 
                           .rsrc:0100602a 00                               0x00 
                           .rsrc:0100602b 00                               0x00 
                           .rsrc:0100602c 00                               0x00 
                           .rsrc:0100602d 00                               0x00 
                           .rsrc:0100602e 01                               0x01 
                           .rsrc:0100602f 00                               0x00 
                           .rsrc:01006030 01                               0x01 
                           .rsrc:01006031 00                               0x00 
                           .rsrc:01006032 00                               0x00 
                           .rsrc:01006033 00                               0x00 
                           .rsrc:01006034 50                               0x50 'P'
                           .rsrc:01006035 00                               0x00 
                           .rsrc:01006036 00                               0x00 
                           .rsrc:01006037 80                               0x80 
                           .rsrc:01006038 00                               0x00 
                           .rsrc:01006039 00                               0x00 
                           .rsrc:0100603a 00                               0x00 
                           .rsrc:0100603b 00                               0x00 
                           .rsrc:0100603c 00                               0x00 
                           .rsrc:0100603d 00                               0x00 
                           .rsrc:0100603e 00                               0x00 
                           .rsrc:0100603f 00                               0x00 
                           .rsrc:01006040 00                               0x00 
                           .rsrc:01006041 00                               0x00 
                           .rsrc:01006042 00                               0x00 
                           .rsrc:01006043 00                               0x00 
                           .rsrc:01006044 00                               0x00 
                           .rsrc:01006045 00                               0x00 
                           .rsrc:01006046 01                               0x01 
                           .rsrc:01006047 00                               0x00 
                           .rsrc:01006048 01                               0x01 
                           .rsrc:01006049 00                               0x00 
                           .rsrc:0100604a 00                               0x00 
                           .rsrc:0100604b 00                               0x00 
                           .rsrc:0100604c 68                               0x68 'h'
                           .rsrc:0100604d 00                               0x00 
                           .rsrc:0100604e 00                               0x00 
                           .rsrc:0100604f 80                               0x80 
                           .rsrc:01006050 00                               0x00 
                           .rsrc:01006051 00                               0x00 
                           .rsrc:01006052 00                               0x00 
                           .rsrc:01006053 00                               0x00 
                           .rsrc:01006054 00                               0x00 
                           .rsrc:01006055 00                               0x00 
                           .rsrc:01006056 00                               0x00 
                           .rsrc:01006057 00                               0x00 
                           .rsrc:01006058 00                               0x00 
                           .rsrc:01006059 00                               0x00 
                           .rsrc:0100605a 00                               0x00 
                           .rsrc:0100605b 00                               0x00 
                           .rsrc:0100605c 00                               0x00 
                           .rsrc:0100605d 00                               0x00 
                           .rsrc:0100605e 01                               0x01 
                           .rsrc:0100605f 00                               0x00 
                           .rsrc:01006060 09                               0x09 '	'
                           .rsrc:01006061 04                               0x04 
                           .rsrc:01006062 00                               0x00 
                           .rsrc:01006063 00                               0x00 
                           .rsrc:01006064 80                               0x80 
                           .rsrc:01006065 00                               0x00 
                           .rsrc:01006066 00                               0x00 
                           .rsrc:01006067 00                               0x00 
                           .rsrc:01006068 00                               0x00 
                           .rsrc:01006069 00                               0x00 
                           .rsrc:0100606a 00                               0x00 
                           .rsrc:0100606b 00                               0x00 
                           .rsrc:0100606c 00                               0x00 
                           .rsrc:0100606d 00                               0x00 
                           .rsrc:0100606e 00                               0x00 
                           .rsrc:0100606f 00                               0x00 
                           .rsrc:01006070 00                               0x00 
                           .rsrc:01006071 00                               0x00 
                           .rsrc:01006072 00                               0x00 
                           .rsrc:01006073 00                               0x00 
                           .rsrc:01006074 00                               0x00 
                           .rsrc:01006075 00                               0x00 
                           .rsrc:01006076 01                               0x01 
                           .rsrc:01006077 00                               0x00 
                           .rsrc:01006078 09                               0x09 '	'
                           .rsrc:01006079 04                               0x04 
                           .rsrc:0100607a 00                               0x00 
                           .rsrc:0100607b 00                               0x00 
                           .rsrc:0100607c 90                               0x90 
                           .rsrc:0100607d 00                               0x00 
                           .rsrc:0100607e 00                               0x00 
                           .rsrc:0100607f 00                               0x00 
                           .rsrc:01006080 50                               0x50 'P'
                           .rsrc:01006081 63                               0x63 'c'
                           .rsrc:01006082 00                               0x00 
                           .rsrc:01006083 00                               0x00 
                           .rsrc:01006084 9c                               0x9c 
                           .rsrc:01006085 03                               0x03 
                           .rsrc:01006086 00                               0x00 
                           .rsrc:01006087 00                               0x00 
                           .rsrc:01006088 00                               0x00 
                           .rsrc:01006089 00                               0x00 
                           .rsrc:0100608a 00                               0x00 
                           .rsrc:0100608b 00                               0x00 
                           .rsrc:0100608c 00                               0x00 
                           .rsrc:0100608d 00                               0x00 
                           .rsrc:0100608e 00                               0x00 
                           .rsrc:0100608f 00                               0x00 
                           .rsrc:01006090 a0                               0xa0 
                           .rsrc:01006091 60                               0x60 '`'
                           .rsrc:01006092 00                               0x00 
                           .rsrc:01006093 00                               0x00 
                           .rsrc:01006094 af                               0xaf 
                           .rsrc:01006095 02                               0x02 
                           .rsrc:01006096 00                               0x00 
                           .rsrc:01006097 00                               0x00 
                           .rsrc:01006098 00                               0x00 
                           .rsrc:01006099 00                               0x00 
                           .rsrc:0100609a 00                               0x00 
                           .rsrc:0100609b 00                               0x00 
                           .rsrc:0100609c 00                               0x00 
                           .rsrc:0100609d 00                               0x00 
                           .rsrc:0100609e 00                               0x00 
                           .rsrc:0100609f 00                               0x00 
                           .rsrc:010060a0 3c                               0x3c '<'
                           .rsrc:010060a1 3f                               0x3f '?'
                           .rsrc:010060a2 78                               0x78 'x'
                           .rsrc:010060a3 6d                               0x6d 'm'
                           .rsrc:010060a4 6c                               0x6c 'l'
                           .rsrc:010060a5 20                               0x20 ' '
                           .rsrc:010060a6 76                               0x76 'v'
                           .rsrc:010060a7 65                               0x65 'e'
                           .rsrc:010060a8 72                               0x72 'r'
                           .rsrc:010060a9 73                               0x73 's'
                           .rsrc:010060aa 69                               0x69 'i'
                           .rsrc:010060ab 6f                               0x6f 'o'
                           .rsrc:010060ac 6e                               0x6e 'n'
                           .rsrc:010060ad 3d                               0x3d '='
                           .rsrc:010060ae 22                               0x22 '"'
                           .rsrc:010060af 31                               0x31 '1'
                           .rsrc:010060b0 2e                               0x2e '.'
                           .rsrc:010060b1 30                               0x30 '0'
                           .rsrc:010060b2 22                               0x22 '"'
                           .rsrc:010060b3 20                               0x20 ' '
                           .rsrc:010060b4 65                               0x65 'e'
                           .rsrc:010060b5 6e                               0x6e 'n'
                           .rsrc:010060b6 63                               0x63 'c'
                           .rsrc:010060b7 6f                               0x6f 'o'
                           .rsrc:010060b8 64                               0x64 'd'
                           .rsrc:010060b9 69                               0x69 'i'
                           .rsrc:010060ba 6e                               0x6e 'n'
                           .rsrc:010060bb 67                               0x67 'g'
                           .rsrc:010060bc 3d                               0x3d '='
                           .rsrc:010060bd 22                               0x22 '"'
                           .rsrc:010060be 55                               0x55 'U'
                           .rsrc:010060bf 54                               0x54 'T'
                           .rsrc:010060c0 46                               0x46 'F'
                           .rsrc:010060c1 2d                               0x2d '-'
                           .rsrc:010060c2 38                               0x38 '8'
                           .rsrc:010060c3 22                               0x22 '"'
                           .rsrc:010060c4 20                               0x20 ' '
                           .rsrc:010060c5 73                               0x73 's'
                           .rsrc:010060c6 74                               0x74 't'
                           .rsrc:010060c7 61                               0x61 'a'
                           .rsrc:010060c8 6e                               0x6e 'n'
                           .rsrc:010060c9 64                               0x64 'd'
                           .rsrc:010060ca 61                               0x61 'a'
                           .rsrc:010060cb 6c                               0x6c 'l'
                           .rsrc:010060cc 6f                               0x6f 'o'
                           .rsrc:010060cd 6e                               0x6e 'n'
                           .rsrc:010060ce 65                               0x65 'e'
                           .rsrc:010060cf 3d                               0x3d '='
                           .rsrc:010060d0 22                               0x22 '"'
                           .rsrc:010060d1 79                               0x79 'y'
                           .rsrc:010060d2 65                               0x65 'e'
                           .rsrc:010060d3 73                               0x73 's'
                           .rsrc:010060d4 22                               0x22 '"'
                           .rsrc:010060d5 3f                               0x3f '?'
                           .rsrc:010060d6 3e                               0x3e '>'
                           .rsrc:010060d7 0d                               0x0d ''
                           .rsrc:010060d8 0a                               0x0a '
'
                           .rsrc:010060d9 3c                               0x3c '<'
                           .rsrc:010060da 21                               0x21 '!'
                           .rsrc:010060db 2d                               0x2d '-'
                           .rsrc:010060dc 2d                               0x2d '-'
                           .rsrc:010060dd 20                               0x20 ' '
                           .rsrc:010060de 43                               0x43 'C'
                           .rsrc:010060df 6f                               0x6f 'o'
                           .rsrc:010060e0 70                               0x70 'p'
                           .rsrc:010060e1 79                               0x79 'y'
                           .rsrc:010060e2 72                               0x72 'r'
                           .rsrc:010060e3 69                               0x69 'i'
                           .rsrc:010060e4 67                               0x67 'g'
                           .rsrc:010060e5 68                               0x68 'h'
                           .rsrc:010060e6 74                               0x74 't'
                           .rsrc:010060e7 20                               0x20 ' '
                           .rsrc:010060e8 28                               0x28 '('
                           .rsrc:010060e9 63                               0x63 'c'
                           .rsrc:010060ea 29                               0x29 ')'
                           .rsrc:010060eb 20                               0x20 ' '
                           .rsrc:010060ec 4d                               0x4d 'M'
                           .rsrc:010060ed 69                               0x69 'i'
                           .rsrc:010060ee 63                               0x63 'c'
                           .rsrc:010060ef 72                               0x72 'r'
                           .rsrc:010060f0 6f                               0x6f 'o'
                           .rsrc:010060f1 73                               0x73 's'
                           .rsrc:010060f2 6f                               0x6f 'o'
                           .rsrc:010060f3 66                               0x66 'f'
                           .rsrc:010060f4 74                               0x74 't'
                           .rsrc:010060f5 20                               0x20 ' '
                           .rsrc:010060f6 43                               0x43 'C'
                           .rsrc:010060f7 6f                               0x6f 'o'
                           .rsrc:010060f8 72                               0x72 'r'
                           .rsrc:010060f9 70                               0x70 'p'
                           .rsrc:010060fa 6f                               0x6f 'o'
                           .rsrc:010060fb 72                               0x72 'r'
                           .rsrc:010060fc 61                               0x61 'a'
                           .rsrc:010060fd 74                               0x74 't'
                           .rsrc:010060fe 69                               0x69 'i'
                           .rsrc:010060ff 6f                               0x6f 'o'
                           .rsrc:01006100 6e                               0x6e 'n'
                           .rsrc:01006101 20                               0x20 ' '
                           .rsrc:01006102 2d                               0x2d '-'
                           .rsrc:01006103 2d                               0x2d '-'
                           .rsrc:01006104 3e                               0x3e '>'
                           .rsrc:01006105 0d                               0x0d ''
                           .rsrc:01006106 0a                               0x0a '
'
                           .rsrc:01006107 3c                               0x3c '<'
                           .rsrc:01006108 61                               0x61 'a'
                           .rsrc:01006109 73                               0x73 's'
                           .rsrc:0100610a 73                               0x73 's'
                           .rsrc:0100610b 65                               0x65 'e'
                           .rsrc:0100610c 6d                               0x6d 'm'
                           .rsrc:0100610d 62                               0x62 'b'
                           .rsrc:0100610e 6c                               0x6c 'l'
                           .rsrc:0100610f 79                               0x79 'y'
                           .rsrc:01006110 20                               0x20 ' '
                           .rsrc:01006111 78                               0x78 'x'
                           .rsrc:01006112 6d                               0x6d 'm'
                           .rsrc:01006113 6c                               0x6c 'l'
                           .rsrc:01006114 6e                               0x6e 'n'
                           .rsrc:01006115 73                               0x73 's'
                           .rsrc:01006116 3d                               0x3d '='
                           .rsrc:01006117 22                               0x22 '"'
                           .rsrc:01006118 75                               0x75 'u'
                           .rsrc:01006119 72                               0x72 'r'
                           .rsrc:0100611a 6e                               0x6e 'n'
                           .rsrc:0100611b 3a                               0x3a ':'
                           .rsrc:0100611c 73                               0x73 's'
                           .rsrc:0100611d 63                               0x63 'c'
                           .rsrc:0100611e 68                               0x68 'h'
                           .rsrc:0100611f 65                               0x65 'e'
                           .rsrc:01006120 6d                               0x6d 'm'
                           .rsrc:01006121 61                               0x61 'a'
                           .rsrc:01006122 73                               0x73 's'
                           .rsrc:01006123 2d                               0x2d '-'
                           .rsrc:01006124 6d                               0x6d 'm'
                           .rsrc:01006125 69                               0x69 'i'
                           .rsrc:01006126 63                               0x63 'c'
                           .rsrc:01006127 72                               0x72 'r'
                           .rsrc:01006128 6f                               0x6f 'o'
                           .rsrc:01006129 73                               0x73 's'
                           .rsrc:0100612a 6f                               0x6f 'o'
                           .rsrc:0100612b 66                               0x66 'f'
                           .rsrc:0100612c 74                               0x74 't'
                           .rsrc:0100612d 2d                               0x2d '-'
                           .rsrc:0100612e 63                               0x63 'c'
                           .rsrc:0100612f 6f                               0x6f 'o'
                           .rsrc:01006130 6d                               0x6d 'm'
                           .rsrc:01006131 3a                               0x3a ':'
                           .rsrc:01006132 61                               0x61 'a'
                           .rsrc:01006133 73                               0x73 's'
                           .rsrc:01006134 6d                               0x6d 'm'
                           .rsrc:01006135 2e                               0x2e '.'
                           .rsrc:01006136 76                               0x76 'v'
                           .rsrc:01006137 31                               0x31 '1'
                           .rsrc:01006138 22                               0x22 '"'
                           .rsrc:01006139 20                               0x20 ' '
                           .rsrc:0100613a 6d                               0x6d 'm'
                           .rsrc:0100613b 61                               0x61 'a'
                           .rsrc:0100613c 6e                               0x6e 'n'
                           .rsrc:0100613d 69                               0x69 'i'
                           .rsrc:0100613e 66                               0x66 'f'
                           .rsrc:0100613f 65                               0x65 'e'
                           .rsrc:01006140 73                               0x73 's'
                           .rsrc:01006141 74                               0x74 't'
                           .rsrc:01006142 56                               0x56 'V'
                           .rsrc:01006143 65                               0x65 'e'
                           .rsrc:01006144 72                               0x72 'r'
                           .rsrc:01006145 73                               0x73 's'
                           .rsrc:01006146 69                               0x69 'i'
                           .rsrc:01006147 6f                               0x6f 'o'
                           .rsrc:01006148 6e                               0x6e 'n'
                           .rsrc:01006149 3d                               0x3d '='
                           .rsrc:0100614a 22                               0x22 '"'
                           .rsrc:0100614b 31                               0x31 '1'
                           .rsrc:0100614c 2e                               0x2e '.'
                           .rsrc:0100614d 30                               0x30 '0'
                           .rsrc:0100614e 22                               0x22 '"'
                           .rsrc:0100614f 3e                               0x3e '>'
                           .rsrc:01006150 0d                               0x0d ''
                           .rsrc:01006151 0a                               0x0a '
'
                           .rsrc:01006152 3c                               0x3c '<'
                           .rsrc:01006153 61                               0x61 'a'
                           .rsrc:01006154 73                               0x73 's'
                           .rsrc:01006155 73                               0x73 's'
                           .rsrc:01006156 65                               0x65 'e'
                           .rsrc:01006157 6d                               0x6d 'm'
                           .rsrc:01006158 62                               0x62 'b'
                           .rsrc:01006159 6c                               0x6c 'l'
                           .rsrc:0100615a 79                               0x79 'y'
                           .rsrc:0100615b 49                               0x49 'I'
                           .rsrc:0100615c 64                               0x64 'd'
                           .rsrc:0100615d 65                               0x65 'e'
                           .rsrc:0100615e 6e                               0x6e 'n'
                           .rsrc:0100615f 74                               0x74 't'
                           .rsrc:01006160 69                               0x69 'i'
                           .rsrc:01006161 74                               0x74 't'
                           .rsrc:01006162 79                               0x79 'y'
                           .rsrc:01006163 0d                               0x0d ''
                           .rsrc:01006164 0a                               0x0a '
'
                           .rsrc:01006165 20                               0x20 ' '
                           .rsrc:01006166 20                               0x20 ' '
                           .rsrc:01006167 20                               0x20 ' '
                           .rsrc:01006168 20                               0x20 ' '
                           .rsrc:01006169 76                               0x76 'v'
                           .rsrc:0100616a 65                               0x65 'e'
                           .rsrc:0100616b 72                               0x72 'r'
                           .rsrc:0100616c 73                               0x73 's'
                           .rsrc:0100616d 69                               0x69 'i'
                           .rsrc:0100616e 6f                               0x6f 'o'
                           .rsrc:0100616f 6e                               0x6e 'n'
                           .rsrc:01006170 3d                               0x3d '='
                           .rsrc:01006171 22                               0x22 '"'
                           .rsrc:01006172 35                               0x35 '5'
                           .rsrc:01006173 2e                               0x2e '.'
                           .rsrc:01006174 31                               0x31 '1'
                           .rsrc:01006175 2e                               0x2e '.'
                           .rsrc:01006176 30                               0x30 '0'
                           .rsrc:01006177 2e                               0x2e '.'
                           .rsrc:01006178 30                               0x30 '0'
                           .rsrc:01006179 22                               0x22 '"'
                           .rsrc:0100617a 0d                               0x0d ''
                           .rsrc:0100617b 0a                               0x0a '
'
                           .rsrc:0100617c 20                               0x20 ' '
                           .rsrc:0100617d 20                               0x20 ' '
                           .rsrc:0100617e 20                               0x20 ' '
                           .rsrc:0100617f 20                               0x20 ' '
                           .rsrc:01006180 70                               0x70 'p'
                           .rsrc:01006181 72                               0x72 'r'
                           .rsrc:01006182 6f                               0x6f 'o'
                           .rsrc:01006183 63                               0x63 'c'
                           .rsrc:01006184 65                               0x65 'e'
                           .rsrc:01006185 73                               0x73 's'
                           .rsrc:01006186 73                               0x73 's'
                           .rsrc:01006187 6f                               0x6f 'o'
                           .rsrc:01006188 72                               0x72 'r'
                           .rsrc:01006189 41                               0x41 'A'
                           .rsrc:0100618a 72                               0x72 'r'
                           .rsrc:0100618b 63                               0x63 'c'
                           .rsrc:0100618c 68                               0x68 'h'
                           .rsrc:0100618d 69                               0x69 'i'
                           .rsrc:0100618e 74                               0x74 't'
                           .rsrc:0100618f 65                               0x65 'e'
                           .rsrc:01006190 63                               0x63 'c'
                           .rsrc:01006191 74                               0x74 't'
                           .rsrc:01006192 75                               0x75 'u'
                           .rsrc:01006193 72                               0x72 'r'
                           .rsrc:01006194 65                               0x65 'e'
                           .rsrc:01006195 3d                               0x3d '='
                           .rsrc:01006196 22                               0x22 '"'
                           .rsrc:01006197 78                               0x78 'x'
                           .rsrc:01006198 38                               0x38 '8'
                           .rsrc:01006199 36                               0x36 '6'
                           .rsrc:0100619a 22                               0x22 '"'
                           .rsrc:0100619b 0d                               0x0d ''
                           .rsrc:0100619c 0a                               0x0a '
'
                           .rsrc:0100619d 20                               0x20 ' '
                           .rsrc:0100619e 20                               0x20 ' '
                           .rsrc:0100619f 20                               0x20 ' '
                           .rsrc:010061a0 20                               0x20 ' '
                           .rsrc:010061a1 6e                               0x6e 'n'
                           .rsrc:010061a2 61                               0x61 'a'
                           .rsrc:010061a3 6d                               0x6d 'm'
                           .rsrc:010061a4 65                               0x65 'e'
                           .rsrc:010061a5 3d                               0x3d '='
                           .rsrc:010061a6 22                               0x22 '"'
                           .rsrc:010061a7 4d                               0x4d 'M'
                           .rsrc:010061a8 69                               0x69 'i'
                           .rsrc:010061a9 63                               0x63 'c'
                           .rsrc:010061aa 72                               0x72 'r'
                           .rsrc:010061ab 6f                               0x6f 'o'
                           .rsrc:010061ac 73                               0x73 's'
                           .rsrc:010061ad 6f                               0x6f 'o'
                           .rsrc:010061ae 66                               0x66 'f'
                           .rsrc:010061af 74                               0x74 't'
                           .rsrc:010061b0 2e                               0x2e '.'
                           .rsrc:010061b1 57                               0x57 'W'
                           .rsrc:010061b2 69                               0x69 'i'
                           .rsrc:010061b3 6e                               0x6e 'n'
                           .rsrc:010061b4 64                               0x64 'd'
                           .rsrc:010061b5 6f                               0x6f 'o'
                           .rsrc:010061b6 77                               0x77 'w'
                           .rsrc:010061b7 73                               0x73 's'
                           .rsrc:010061b8 2e                               0x2e '.'
                           .rsrc:010061b9 46                               0x46 'F'
                           .rsrc:010061ba 69                               0x69 'i'
                           .rsrc:010061bb 6c                               0x6c 'l'
                           .rsrc:010061bc 65                               0x65 'e'
                           .rsrc:010061bd 73                               0x73 's'
                           .rsrc:010061be 79                               0x79 'y'
                           .rsrc:010061bf 73                               0x73 's'
                           .rsrc:010061c0 74                               0x74 't'
                           .rsrc:010061c1 65                               0x65 'e'
                           .rsrc:010061c2 6d                               0x6d 'm'
                           .rsrc:010061c3 2e                               0x2e '.'
                           .rsrc:010061c4 43                               0x43 'C'
                           .rsrc:010061c5 6f                               0x6f 'o'
                           .rsrc:010061c6 6e                               0x6e 'n'
                           .rsrc:010061c7 76                               0x76 'v'
                           .rsrc:010061c8 65                               0x65 'e'
                           .rsrc:010061c9 72                               0x72 'r'
                           .rsrc:010061ca 74                               0x74 't'
                           .rsrc:010061cb 22                               0x22 '"'
                           .rsrc:010061cc 0d                               0x0d ''
                           .rsrc:010061cd 0a                               0x0a '
'
                           .rsrc:010061ce 20                               0x20 ' '
                           .rsrc:010061cf 20                               0x20 ' '
                           .rsrc:010061d0 20                               0x20 ' '
                           .rsrc:010061d1 20                               0x20 ' '
                           .rsrc:010061d2 74                               0x74 't'
                           .rsrc:010061d3 79                               0x79 'y'
                           .rsrc:010061d4 70                               0x70 'p'
                           .rsrc:010061d5 65                               0x65 'e'
                           .rsrc:010061d6 3d                               0x3d '='
                           .rsrc:010061d7 22                               0x22 '"'
                           .rsrc:010061d8 77                               0x77 'w'
                           .rsrc:010061d9 69                               0x69 'i'
                           .rsrc:010061da 6e                               0x6e 'n'
                           .rsrc:010061db 33                               0x33 '3'
                           .rsrc:010061dc 32                               0x32 '2'
                           .rsrc:010061dd 22                               0x22 '"'
                           .rsrc:010061de 0d                               0x0d ''
                           .rsrc:010061df 0a                               0x0a '
'
                           .rsrc:010061e0 2f                               0x2f '/'
                           .rsrc:010061e1 3e                               0x3e '>'
                           .rsrc:010061e2 0d                               0x0d ''
                           .rsrc:010061e3 0a                               0x0a '
'
                           .rsrc:010061e4 3c                               0x3c '<'
                           .rsrc:010061e5 64                               0x64 'd'
                           .rsrc:010061e6 65                               0x65 'e'
                           .rsrc:010061e7 73                               0x73 's'
                           .rsrc:010061e8 63                               0x63 'c'
                           .rsrc:010061e9 72                               0x72 'r'
                           .rsrc:010061ea 69                               0x69 'i'
                           .rsrc:010061eb 70                               0x70 'p'
                           .rsrc:010061ec 74                               0x74 't'
                           .rsrc:010061ed 69                               0x69 'i'
                           .rsrc:010061ee 6f                               0x6f 'o'
                           .rsrc:010061ef 6e                               0x6e 'n'
                           .rsrc:010061f0 3e                               0x3e '>'
                           .rsrc:010061f1 46                               0x46 'F'
                           .rsrc:010061f2 69                               0x69 'i'
                           .rsrc:010061f3 6c                               0x6c 'l'
                           .rsrc:010061f4 65                               0x65 'e'
                           .rsrc:010061f5 20                               0x20 ' '
                           .rsrc:010061f6 53                               0x53 'S'
                           .rsrc:010061f7 79                               0x79 'y'
                           .rsrc:010061f8 73                               0x73 's'
                           .rsrc:010061f9 74                               0x74 't'
                           .rsrc:010061fa 65                               0x65 'e'
                           .rsrc:010061fb 6d                               0x6d 'm'
                           .rsrc:010061fc 20                               0x20 ' '
                           .rsrc:010061fd 43                               0x43 'C'
                           .rsrc:010061fe 6f                               0x6f 'o'
                           .rsrc:010061ff 6e                               0x6e 'n'
                           .rsrc:01006200 76                               0x76 'v'
                           .rsrc:01006201 65                               0x65 'e'
                           .rsrc:01006202 72                               0x72 'r'
                           .rsrc:01006203 73                               0x73 's'
                           .rsrc:01006204 69                               0x69 'i'
                           .rsrc:01006205 6f                               0x6f 'o'
                           .rsrc:01006206 6e                               0x6e 'n'
                           .rsrc:01006207 20                               0x20 ' '
                           .rsrc:01006208 55                               0x55 'U'
                           .rsrc:01006209 74                               0x74 't'
                           .rsrc:0100620a 69                               0x69 'i'
                           .rsrc:0100620b 6c                               0x6c 'l'
                           .rsrc:0100620c 69                               0x69 'i'
                           .rsrc:0100620d 74                               0x74 't'
                           .rsrc:0100620e 79                               0x79 'y'
                           .rsrc:0100620f 3c                               0x3c '<'
                           .rsrc:01006210 2f                               0x2f '/'
                           .rsrc:01006211 64                               0x64 'd'
                           .rsrc:01006212 65                               0x65 'e'
                           .rsrc:01006213 73                               0x73 's'
                           .rsrc:01006214 63                               0x63 'c'
                           .rsrc:01006215 72                               0x72 'r'
                           .rsrc:01006216 69                               0x69 'i'
                           .rsrc:01006217 70                               0x70 'p'
                           .rsrc:01006218 74                               0x74 't'
                           .rsrc:01006219 69                               0x69 'i'
                           .rsrc:0100621a 6f                               0x6f 'o'
                           .rsrc:0100621b 6e                               0x6e 'n'
                           .rsrc:0100621c 3e                               0x3e '>'
                           .rsrc:0100621d 0d                               0x0d ''
                           .rsrc:0100621e 0a                               0x0a '
'
                           .rsrc:0100621f 0d                               0x0d ''
                           .rsrc:01006220 0a                               0x0a '
'
                           .rsrc:01006221 3c                               0x3c '<'
                           .rsrc:01006222 74                               0x74 't'
                           .rsrc:01006223 72                               0x72 'r'
                           .rsrc:01006224 75                               0x75 'u'
                           .rsrc:01006225 73                               0x73 's'
                           .rsrc:01006226 74                               0x74 't'
                           .rsrc:01006227 49                               0x49 'I'
                           .rsrc:01006228 6e                               0x6e 'n'
                           .rsrc:01006229 66                               0x66 'f'
                           .rsrc:0100622a 6f                               0x6f 'o'
                           .rsrc:0100622b 20                               0x20 ' '
                           .rsrc:0100622c 78                               0x78 'x'
                           .rsrc:0100622d 6d                               0x6d 'm'
                           .rsrc:0100622e 6c                               0x6c 'l'
                           .rsrc:0100622f 6e                               0x6e 'n'
                           .rsrc:01006230 73                               0x73 's'
                           .rsrc:01006231 3d                               0x3d '='
                           .rsrc:01006232 22                               0x22 '"'
                           .rsrc:01006233 75                               0x75 'u'
                           .rsrc:01006234 72                               0x72 'r'
                           .rsrc:01006235 6e                               0x6e 'n'
                           .rsrc:01006236 3a                               0x3a ':'
                           .rsrc:01006237 73                               0x73 's'
                           .rsrc:01006238 63                               0x63 'c'
                           .rsrc:01006239 68                               0x68 'h'
                           .rsrc:0100623a 65                               0x65 'e'
                           .rsrc:0100623b 6d                               0x6d 'm'
                           .rsrc:0100623c 61                               0x61 'a'
                           .rsrc:0100623d 73                               0x73 's'
                           .rsrc:0100623e 2d                               0x2d '-'
                           .rsrc:0100623f 6d                               0x6d 'm'
                           .rsrc:01006240 69                               0x69 'i'
                           .rsrc:01006241 63                               0x63 'c'
                           .rsrc:01006242 72                               0x72 'r'
                           .rsrc:01006243 6f                               0x6f 'o'
                           .rsrc:01006244 73                               0x73 's'
                           .rsrc:01006245 6f                               0x6f 'o'
                           .rsrc:01006246 66                               0x66 'f'
                           .rsrc:01006247 74                               0x74 't'
                           .rsrc:01006248 2d                               0x2d '-'
                           .rsrc:01006249 63                               0x63 'c'
                           .rsrc:0100624a 6f                               0x6f 'o'
                           .rsrc:0100624b 6d                               0x6d 'm'
                           .rsrc:0100624c 3a                               0x3a ':'
                           .rsrc:0100624d 61                               0x61 'a'
                           .rsrc:0100624e 73                               0x73 's'
                           .rsrc:0100624f 6d                               0x6d 'm'
                           .rsrc:01006250 2e                               0x2e '.'
                           .rsrc:01006251 76                               0x76 'v'
                           .rsrc:01006252 33                               0x33 '3'
                           .rsrc:01006253 22                               0x22 '"'
                           .rsrc:01006254 3e                               0x3e '>'
                           .rsrc:01006255 0d                               0x0d ''
                           .rsrc:01006256 0a                               0x0a '
'
                           .rsrc:01006257 20                               0x20 ' '
                           .rsrc:01006258 20                               0x20 ' '
                           .rsrc:01006259 20                               0x20 ' '
                           .rsrc:0100625a 20                               0x20 ' '
                           .rsrc:0100625b 3c                               0x3c '<'
                           .rsrc:0100625c 73                               0x73 's'
                           .rsrc:0100625d 65                               0x65 'e'
                           .rsrc:0100625e 63                               0x63 'c'
                           .rsrc:0100625f 75                               0x75 'u'
                           .rsrc:01006260 72                               0x72 'r'
                           .rsrc:01006261 69                               0x69 'i'
                           .rsrc:01006262 74                               0x74 't'
                           .rsrc:01006263 79                               0x79 'y'
                           .rsrc:01006264 3e                               0x3e '>'
                           .rsrc:01006265 0d                               0x0d ''
                           .rsrc:01006266 0a                               0x0a '
'
                           .rsrc:01006267 20                               0x20 ' '
                           .rsrc:01006268 20                               0x20 ' '
                           .rsrc:01006269 20                               0x20 ' '
                           .rsrc:0100626a 20                               0x20 ' '
                           .rsrc:0100626b 20                               0x20 ' '
                           .rsrc:0100626c 20                               0x20 ' '
                           .rsrc:0100626d 20                               0x20 ' '
                           .rsrc:0100626e 20                               0x20 ' '
                           .rsrc:0100626f 3c                               0x3c '<'
                           .rsrc:01006270 72                               0x72 'r'
                           .rsrc:01006271 65                               0x65 'e'
                           .rsrc:01006272 71                               0x71 'q'
                           .rsrc:01006273 75                               0x75 'u'
                           .rsrc:01006274 65                               0x65 'e'
                           .rsrc:01006275 73                               0x73 's'
                           .rsrc:01006276 74                               0x74 't'
                           .rsrc:01006277 65                               0x65 'e'
                           .rsrc:01006278 64                               0x64 'd'
                           .rsrc:01006279 50                               0x50 'P'
                           .rsrc:0100627a 72                               0x72 'r'
                           .rsrc:0100627b 69                               0x69 'i'
                           .rsrc:0100627c 76                               0x76 'v'
                           .rsrc:0100627d 69                               0x69 'i'
                           .rsrc:0100627e 6c                               0x6c 'l'
                           .rsrc:0100627f 65                               0x65 'e'
                           .rsrc:01006280 67                               0x67 'g'
                           .rsrc:01006281 65                               0x65 'e'
                           .rsrc:01006282 73                               0x73 's'
                           .rsrc:01006283 3e                               0x3e '>'
                           .rsrc:01006284 0d                               0x0d ''
                           .rsrc:01006285 0a                               0x0a '
'
                           .rsrc:01006286 20                               0x20 ' '
                           .rsrc:01006287 20                               0x20 ' '
                           .rsrc:01006288 20                               0x20 ' '
                           .rsrc:01006289 20                               0x20 ' '
                           .rsrc:0100628a 20                               0x20 ' '
                           .rsrc:0100628b 20                               0x20 ' '
                           .rsrc:0100628c 20                               0x20 ' '
                           .rsrc:0100628d 20                               0x20 ' '
                           .rsrc:0100628e 20                               0x20 ' '
                           .rsrc:0100628f 20                               0x20 ' '
                           .rsrc:01006290 20                               0x20 ' '
                           .rsrc:01006291 20                               0x20 ' '
                           .rsrc:01006292 3c                               0x3c '<'
                           .rsrc:01006293 72                               0x72 'r'
                           .rsrc:01006294 65                               0x65 'e'
                           .rsrc:01006295 71                               0x71 'q'
                           .rsrc:01006296 75                               0x75 'u'
                           .rsrc:01006297 65                               0x65 'e'
                           .rsrc:01006298 73                               0x73 's'
                           .rsrc:01006299 74                               0x74 't'
                           .rsrc:0100629a 65                               0x65 'e'
                           .rsrc:0100629b 64                               0x64 'd'
                           .rsrc:0100629c 45                               0x45 'E'
                           .rsrc:0100629d 78                               0x78 'x'
                           .rsrc:0100629e 65                               0x65 'e'
                           .rsrc:0100629f 63                               0x63 'c'
                           .rsrc:010062a0 75                               0x75 'u'
                           .rsrc:010062a1 74                               0x74 't'
                           .rsrc:010062a2 69                               0x69 'i'
                           .rsrc:010062a3 6f                               0x6f 'o'
                           .rsrc:010062a4 6e                               0x6e 'n'
                           .rsrc:010062a5 4c                               0x4c 'L'
                           .rsrc:010062a6 65                               0x65 'e'
                           .rsrc:010062a7 76                               0x76 'v'
                           .rsrc:010062a8 65                               0x65 'e'
                           .rsrc:010062a9 6c                               0x6c 'l'
                           .rsrc:010062aa 0d                               0x0d ''
                           .rsrc:010062ab 0a                               0x0a '
'
                           .rsrc:010062ac 20                               0x20 ' '
                           .rsrc:010062ad 20                               0x20 ' '
                           .rsrc:010062ae 20                               0x20 ' '
                           .rsrc:010062af 20                               0x20 ' '
                           .rsrc:010062b0 20                               0x20 ' '
                           .rsrc:010062b1 20                               0x20 ' '
                           .rsrc:010062b2 20                               0x20 ' '
                           .rsrc:010062b3 20                               0x20 ' '
                           .rsrc:010062b4 20                               0x20 ' '
                           .rsrc:010062b5 20                               0x20 ' '
                           .rsrc:010062b6 20                               0x20 ' '
                           .rsrc:010062b7 20                               0x20 ' '
                           .rsrc:010062b8 20                               0x20 ' '
                           .rsrc:010062b9 20                               0x20 ' '
                           .rsrc:010062ba 20                               0x20 ' '
                           .rsrc:010062bb 20                               0x20 ' '
                           .rsrc:010062bc 6c                               0x6c 'l'
                           .rsrc:010062bd 65                               0x65 'e'
                           .rsrc:010062be 76                               0x76 'v'
                           .rsrc:010062bf 65                               0x65 'e'
                           .rsrc:010062c0 6c                               0x6c 'l'
                           .rsrc:010062c1 3d                               0x3d '='
                           .rsrc:010062c2 22                               0x22 '"'
                           .rsrc:010062c3 61                               0x61 'a'
                           .rsrc:010062c4 73                               0x73 's'
                           .rsrc:010062c5 49                               0x49 'I'
                           .rsrc:010062c6 6e                               0x6e 'n'
                           .rsrc:010062c7 76                               0x76 'v'
                           .rsrc:010062c8 6f                               0x6f 'o'
                           .rsrc:010062c9 6b                               0x6b 'k'
                           .rsrc:010062ca 65                               0x65 'e'
                           .rsrc:010062cb 72                               0x72 'r'
                           .rsrc:010062cc 22                               0x22 '"'
                           .rsrc:010062cd 0d                               0x0d ''
                           .rsrc:010062ce 0a                               0x0a '
'
                           .rsrc:010062cf 20                               0x20 ' '
                           .rsrc:010062d0 20                               0x20 ' '
                           .rsrc:010062d1 20                               0x20 ' '
                           .rsrc:010062d2 20                               0x20 ' '
                           .rsrc:010062d3 20                               0x20 ' '
                           .rsrc:010062d4 20                               0x20 ' '
                           .rsrc:010062d5 20                               0x20 ' '
                           .rsrc:010062d6 20                               0x20 ' '
                           .rsrc:010062d7 20                               0x20 ' '
                           .rsrc:010062d8 20                               0x20 ' '
                           .rsrc:010062d9 20                               0x20 ' '
                           .rsrc:010062da 20                               0x20 ' '
                           .rsrc:010062db 20                               0x20 ' '
                           .rsrc:010062dc 20                               0x20 ' '
                           .rsrc:010062dd 20                               0x20 ' '
                           .rsrc:010062de 20                               0x20 ' '
                           .rsrc:010062df 75                               0x75 'u'
                           .rsrc:010062e0 69                               0x69 'i'
                           .rsrc:010062e1 41                               0x41 'A'
                           .rsrc:010062e2 63                               0x63 'c'
                           .rsrc:010062e3 63                               0x63 'c'
                           .rsrc:010062e4 65                               0x65 'e'
                           .rsrc:010062e5 73                               0x73 's'
                           .rsrc:010062e6 73                               0x73 's'
                           .rsrc:010062e7 3d                               0x3d '='
                           .rsrc:010062e8 22                               0x22 '"'
                           .rsrc:010062e9 66                               0x66 'f'
                           .rsrc:010062ea 61                               0x61 'a'
                           .rsrc:010062eb 6c                               0x6c 'l'
                           .rsrc:010062ec 73                               0x73 's'
                           .rsrc:010062ed 65                               0x65 'e'
                           .rsrc:010062ee 22                               0x22 '"'
                           .rsrc:010062ef 0d                               0x0d ''
                           .rsrc:010062f0 0a                               0x0a '
'
                           .rsrc:010062f1 20                               0x20 ' '
                           .rsrc:010062f2 20                               0x20 ' '
                           .rsrc:010062f3 20                               0x20 ' '
                           .rsrc:010062f4 20                               0x20 ' '
                           .rsrc:010062f5 20                               0x20 ' '
                           .rsrc:010062f6 20                               0x20 ' '
                           .rsrc:010062f7 20                               0x20 ' '
                           .rsrc:010062f8 20                               0x20 ' '
                           .rsrc:010062f9 20                               0x20 ' '
                           .rsrc:010062fa 20                               0x20 ' '
                           .rsrc:010062fb 20                               0x20 ' '
                           .rsrc:010062fc 20                               0x20 ' '
                           .rsrc:010062fd 2f                               0x2f '/'
                           .rsrc:010062fe 3e                               0x3e '>'
                           .rsrc:010062ff 0d                               0x0d ''
                           .rsrc:01006300 0a                               0x0a '
'
                           .rsrc:01006301 20                               0x20 ' '
                           .rsrc:01006302 20                               0x20 ' '
                           .rsrc:01006303 20                               0x20 ' '
                           .rsrc:01006304 20                               0x20 ' '
                           .rsrc:01006305 20                               0x20 ' '
                           .rsrc:01006306 20                               0x20 ' '
                           .rsrc:01006307 20                               0x20 ' '
                           .rsrc:01006308 20                               0x20 ' '
                           .rsrc:01006309 3c                               0x3c '<'
                           .rsrc:0100630a 2f                               0x2f '/'
                           .rsrc:0100630b 72                               0x72 'r'
                           .rsrc:0100630c 65                               0x65 'e'
                           .rsrc:0100630d 71                               0x71 'q'
                           .rsrc:0100630e 75                               0x75 'u'
                           .rsrc:0100630f 65                               0x65 'e'
                           .rsrc:01006310 73                               0x73 's'
                           .rsrc:01006311 74                               0x74 't'
                           .rsrc:01006312 65                               0x65 'e'
                           .rsrc:01006313 64                               0x64 'd'
                           .rsrc:01006314 50                               0x50 'P'
                           .rsrc:01006315 72                               0x72 'r'
                           .rsrc:01006316 69                               0x69 'i'
                           .rsrc:01006317 76                               0x76 'v'
                           .rsrc:01006318 69                               0x69 'i'
                           .rsrc:01006319 6c                               0x6c 'l'
                           .rsrc:0100631a 65                               0x65 'e'
                           .rsrc:0100631b 67                               0x67 'g'
                           .rsrc:0100631c 65                               0x65 'e'
                           .rsrc:0100631d 73                               0x73 's'
                           .rsrc:0100631e 3e                               0x3e '>'
                           .rsrc:0100631f 0d                               0x0d ''
                           .rsrc:01006320 0a                               0x0a '
'
                           .rsrc:01006321 20                               0x20 ' '
                           .rsrc:01006322 20                               0x20 ' '
                           .rsrc:01006323 20                               0x20 ' '
                           .rsrc:01006324 20                               0x20 ' '
                           .rsrc:01006325 3c                               0x3c '<'
                           .rsrc:01006326 2f                               0x2f '/'
                           .rsrc:01006327 73                               0x73 's'
                           .rsrc:01006328 65                               0x65 'e'
                           .rsrc:01006329 63                               0x63 'c'
                           .rsrc:0100632a 75                               0x75 'u'
                           .rsrc:0100632b 72                               0x72 'r'
                           .rsrc:0100632c 69                               0x69 'i'
                           .rsrc:0100632d 74                               0x74 't'
                           .rsrc:0100632e 79                               0x79 'y'
                           .rsrc:0100632f 3e                               0x3e '>'
                           .rsrc:01006330 0d                               0x0d ''
                           .rsrc:01006331 0a                               0x0a '
'
                           .rsrc:01006332 3c                               0x3c '<'
                           .rsrc:01006333 2f                               0x2f '/'
                           .rsrc:01006334 74                               0x74 't'
                           .rsrc:01006335 72                               0x72 'r'
                           .rsrc:01006336 75                               0x75 'u'
                           .rsrc:01006337 73                               0x73 's'
                           .rsrc:01006338 74                               0x74 't'
                           .rsrc:01006339 49                               0x49 'I'
                           .rsrc:0100633a 6e                               0x6e 'n'
                           .rsrc:0100633b 66                               0x66 'f'
                           .rsrc:0100633c 6f                               0x6f 'o'
                           .rsrc:0100633d 3e                               0x3e '>'
                           .rsrc:0100633e 0d                               0x0d ''
                           .rsrc:0100633f 0a                               0x0a '
'
                           .rsrc:01006340 3c                               0x3c '<'
                           .rsrc:01006341 2f                               0x2f '/'
                           .rsrc:01006342 61                               0x61 'a'
                           .rsrc:01006343 73                               0x73 's'
                           .rsrc:01006344 73                               0x73 's'
                           .rsrc:01006345 65                               0x65 'e'
                           .rsrc:01006346 6d                               0x6d 'm'
                           .rsrc:01006347 62                               0x62 'b'
                           .rsrc:01006348 6c                               0x6c 'l'
                           .rsrc:01006349 79                               0x79 'y'
                           .rsrc:0100634a 3e                               0x3e '>'
                           .rsrc:0100634b 0d                               0x0d ''
                           .rsrc:0100634c 0a                               0x0a '
'
                           .rsrc:0100634d 0d                               0x0d ''
                           .rsrc:0100634e 0a                               0x0a '
'
                           .rsrc:0100634f 00                               0x00 
                           .rsrc:01006350 9c                               0x9c 
                           .rsrc:01006351 03                               0x03 
                           .rsrc:01006352 34                               0x34 '4'
                           .rsrc:01006353 00                               0x00 
                           .rsrc:01006354 00                               0x00 
                           .rsrc:01006355 00                               0x00 
                           .rsrc:01006356 56                               0x56 'V'
                           .rsrc:01006357 00                               0x00 
                           .rsrc:01006358 53                               0x53 'S'
                           .rsrc:01006359 00                               0x00 
                           .rsrc:0100635a 5f                               0x5f '_'
                           .rsrc:0100635b 00                               0x00 
                           .rsrc:0100635c 56                               0x56 'V'
                           .rsrc:0100635d 00                               0x00 
                           .rsrc:0100635e 45                               0x45 'E'
                           .rsrc:0100635f 00                               0x00 
                           .rsrc:01006360 52                               0x52 'R'
                           .rsrc:01006361 00                               0x00 
                           .rsrc:01006362 53                               0x53 'S'
                           .rsrc:01006363 00                               0x00 
                           .rsrc:01006364 49                               0x49 'I'
                           .rsrc:01006365 00                               0x00 
                           .rsrc:01006366 4f                               0x4f 'O'
                           .rsrc:01006367 00                               0x00 
                           .rsrc:01006368 4e                               0x4e 'N'
                           .rsrc:01006369 00                               0x00 
                           .rsrc:0100636a 5f                               0x5f '_'
                           .rsrc:0100636b 00                               0x00 
                           .rsrc:0100636c 49                               0x49 'I'
                           .rsrc:0100636d 00                               0x00 
                           .rsrc:0100636e 4e                               0x4e 'N'
                           .rsrc:0100636f 00                               0x00 
                           .rsrc:01006370 46                               0x46 'F'
                           .rsrc:01006371 00                               0x00 
                           .rsrc:01006372 4f                               0x4f 'O'
                           .rsrc:01006373 00                               0x00 
                           .rsrc:01006374 00                               0x00 
                           .rsrc:01006375 00                               0x00 
                           .rsrc:01006376 00                               0x00 
                           .rsrc:01006377 00                               0x00 
                           .rsrc:01006378 bd                               0xbd 
                           .rsrc:01006379 04                               0x04 
                           .rsrc:0100637a ef                               0xef 
                           .rsrc:0100637b fe                               0xfe 
                           .rsrc:0100637c 00                               0x00 
                           .rsrc:0100637d 00                               0x00 
                           .rsrc:0100637e 01                               0x01 
                           .rsrc:0100637f 00                               0x00 
                           .rsrc:01006380 01                               0x01 
                           .rsrc:01006381 00                               0x00 
                           .rsrc:01006382 06                               0x06 
                           .rsrc:01006383 00                               0x00 
                           .rsrc:01006384 01                               0x01 
                           .rsrc:01006385 40                               0x40 '@'
                           .rsrc:01006386 b0                               0xb0 
                           .rsrc:01006387 1d                               0x1d 
                           .rsrc:01006388 01                               0x01 
                           .rsrc:01006389 00                               0x00 
                           .rsrc:0100638a 06                               0x06 
                           .rsrc:0100638b 00                               0x00 
                           .rsrc:0100638c 01                               0x01 
                           .rsrc:0100638d 40                               0x40 '@'
                           .rsrc:0100638e b0                               0xb0 
                           .rsrc:0100638f 1d                               0x1d 
                           .rsrc:01006390 3f                               0x3f '?'
                           .rsrc:01006391 00                               0x00 
                           .rsrc:01006392 00                               0x00 
                           .rsrc:01006393 00                               0x00 
                           .rsrc:01006394 00                               0x00 
                           .rsrc:01006395 00                               0x00 
                           .rsrc:01006396 00                               0x00 
                           .rsrc:01006397 00                               0x00 
                           .rsrc:01006398 04                               0x04 
                           .rsrc:01006399 00                               0x00 
                           .rsrc:0100639a 04                               0x04 
                           .rsrc:0100639b 00                               0x00 
                           .rsrc:0100639c 01                               0x01 
                           .rsrc:0100639d 00                               0x00 
                           .rsrc:0100639e 00                               0x00 
                           .rsrc:0100639f 00                               0x00 
                           .rsrc:010063a0 00                               0x00 
                           .rsrc:010063a1 00                               0x00 
                           .rsrc:010063a2 00                               0x00 
                           .rsrc:010063a3 00                               0x00 
                           .rsrc:010063a4 00                               0x00 
                           .rsrc:010063a5 00                               0x00 
                           .rsrc:010063a6 00                               0x00 
                           .rsrc:010063a7 00                               0x00 
                           .rsrc:010063a8 00                               0x00 
                           .rsrc:010063a9 00                               0x00 
                           .rsrc:010063aa 00                               0x00 
                           .rsrc:010063ab 00                               0x00 
                           .rsrc:010063ac fa                               0xfa 
                           .rsrc:010063ad 02                               0x02 
                           .rsrc:010063ae 00                               0x00 
                           .rsrc:010063af 00                               0x00 
                           .rsrc:010063b0 01                               0x01 
                           .rsrc:010063b1 00                               0x00 
                           .rsrc:010063b2 53                               0x53 'S'
                           .rsrc:010063b3 00                               0x00 
                           .rsrc:010063b4 74                               0x74 't'
                           .rsrc:010063b5 00                               0x00 
                           .rsrc:010063b6 72                               0x72 'r'
                           .rsrc:010063b7 00                               0x00 
                           .rsrc:010063b8 69                               0x69 'i'
                           .rsrc:010063b9 00                               0x00 
                           .rsrc:010063ba 6e                               0x6e 'n'
                           .rsrc:010063bb 00                               0x00 
                           .rsrc:010063bc 67                               0x67 'g'
                           .rsrc:010063bd 00                               0x00 
                           .rsrc:010063be 46                               0x46 'F'
                           .rsrc:010063bf 00                               0x00 
                           .rsrc:010063c0 69                               0x69 'i'
                           .rsrc:010063c1 00                               0x00 
                           .rsrc:010063c2 6c                               0x6c 'l'
                           .rsrc:010063c3 00                               0x00 
                           .rsrc:010063c4 65                               0x65 'e'
                           .rsrc:010063c5 00                               0x00 
                           .rsrc:010063c6 49                               0x49 'I'
                           .rsrc:010063c7 00                               0x00 
                           .rsrc:010063c8 6e                               0x6e 'n'
                           .rsrc:010063c9 00                               0x00 
                           .rsrc:010063ca 66                               0x66 'f'
                           .rsrc:010063cb 00                               0x00 
                           .rsrc:010063cc 6f                               0x6f 'o'
                           .rsrc:010063cd 00                               0x00 
                           .rsrc:010063ce 00                               0x00 
                           .rsrc:010063cf 00                               0x00 
                           .rsrc:010063d0 d6                               0xd6 
                           .rsrc:010063d1 02                               0x02 
                           .rsrc:010063d2 00                               0x00 
                           .rsrc:010063d3 00                               0x00 
                           .rsrc:010063d4 01                               0x01 
                           .rsrc:010063d5 00                               0x00 
                           .rsrc:010063d6 30                               0x30 '0'
                           .rsrc:010063d7 00                               0x00 
                           .rsrc:010063d8 34                               0x34 '4'
                           .rsrc:010063d9 00                               0x00 
                           .rsrc:010063da 30                               0x30 '0'
                           .rsrc:010063db 00                               0x00 
                           .rsrc:010063dc 39                               0x39 '9'
                           .rsrc:010063dd 00                               0x00 
                           .rsrc:010063de 30                               0x30 '0'
                           .rsrc:010063df 00                               0x00 
                           .rsrc:010063e0 34                               0x34 '4'
                           .rsrc:010063e1 00                               0x00 
                           .rsrc:010063e2 42                               0x42 'B'
                           .rsrc:010063e3 00                               0x00 
                           .rsrc:010063e4 30                               0x30 '0'
                           .rsrc:010063e5 00                               0x00 
                           .rsrc:010063e6 00                               0x00 
                           .rsrc:010063e7 00                               0x00 
                           .rsrc:010063e8 4c                               0x4c 'L'
                           .rsrc:010063e9 00                               0x00 
                           .rsrc:010063ea 16                               0x16 
                           .rsrc:010063eb 00                               0x00 
                           .rsrc:010063ec 01                               0x01 
                           .rsrc:010063ed 00                               0x00 
                           .rsrc:010063ee 43                               0x43 'C'
                           .rsrc:010063ef 00                               0x00 
                           .rsrc:010063f0 6f                               0x6f 'o'
                           .rsrc:010063f1 00                               0x00 
                           .rsrc:010063f2 6d                               0x6d 'm'
                           .rsrc:010063f3 00                               0x00 
                           .rsrc:010063f4 70                               0x70 'p'
                           .rsrc:010063f5 00                               0x00 
                           .rsrc:010063f6 61                               0x61 'a'
                           .rsrc:010063f7 00                               0x00 
                           .rsrc:010063f8 6e                               0x6e 'n'
                           .rsrc:010063f9 00                               0x00 
                           .rsrc:010063fa 79                               0x79 'y'
                           .rsrc:010063fb 00                               0x00 
                           .rsrc:010063fc 4e                               0x4e 'N'
                           .rsrc:010063fd 00                               0x00 
                           .rsrc:010063fe 61                               0x61 'a'
                           .rsrc:010063ff 00                               0x00 
                           .rsrc:01006400 6d                               0x6d 'm'
                           .rsrc:01006401 00                               0x00 
                           .rsrc:01006402 65                               0x65 'e'
                           .rsrc:01006403 00                               0x00 
                           .rsrc:01006404 00                               0x00 
                           .rsrc:01006405 00                               0x00 
                           .rsrc:01006406 00                               0x00 
                           .rsrc:01006407 00                               0x00 
                           .rsrc:01006408 4d                               0x4d 'M'
                           .rsrc:01006409 00                               0x00 
                           .rsrc:0100640a 69                               0x69 'i'
                           .rsrc:0100640b 00                               0x00 
                           .rsrc:0100640c 63                               0x63 'c'
                           .rsrc:0100640d 00                               0x00 
                           .rsrc:0100640e 72                               0x72 'r'
                           .rsrc:0100640f 00                               0x00 
                           .rsrc:01006410 6f                               0x6f 'o'
                           .rsrc:01006411 00                               0x00 
                           .rsrc:01006412 73                               0x73 's'
                           .rsrc:01006413 00                               0x00 
                           .rsrc:01006414 6f                               0x6f 'o'
                           .rsrc:01006415 00                               0x00 
                           .rsrc:01006416 66                               0x66 'f'
                           .rsrc:01006417 00                               0x00 
                           .rsrc:01006418 74                               0x74 't'
                           .rsrc:01006419 00                               0x00 
                           .rsrc:0100641a 20                               0x20 ' '
                           .rsrc:0100641b 00                               0x00 
                           .rsrc:0100641c 43                               0x43 'C'
                           .rsrc:0100641d 00                               0x00 
                           .rsrc:0100641e 6f                               0x6f 'o'
                           .rsrc:0100641f 00                               0x00 
                           .rsrc:01006420 72                               0x72 'r'
                           .rsrc:01006421 00                               0x00 
                           .rsrc:01006422 70                               0x70 'p'
                           .rsrc:01006423 00                               0x00 
                           .rsrc:01006424 6f                               0x6f 'o'
                           .rsrc:01006425 00                               0x00 
                           .rsrc:01006426 72                               0x72 'r'
                           .rsrc:01006427 00                               0x00 
                           .rsrc:01006428 61                               0x61 'a'
                           .rsrc:01006429 00                               0x00 
                           .rsrc:0100642a 74                               0x74 't'
                           .rsrc:0100642b 00                               0x00 
                           .rsrc:0100642c 69                               0x69 'i'
                           .rsrc:0100642d 00                               0x00 
                           .rsrc:0100642e 6f                               0x6f 'o'
                           .rsrc:0100642f 00                               0x00 
                           .rsrc:01006430 6e                               0x6e 'n'
                           .rsrc:01006431 00                               0x00 
                           .rsrc:01006432 00                               0x00 
                           .rsrc:01006433 00                               0x00 
                           .rsrc:01006434 66                               0x66 'f'
                           .rsrc:01006435 00                               0x00 
                           .rsrc:01006436 1f                               0x1f 
                           .rsrc:01006437 00                               0x00 
                           .rsrc:01006438 01                               0x01 
                           .rsrc:01006439 00                               0x00 
                           .rsrc:0100643a 46                               0x46 'F'
                           .rsrc:0100643b 00                               0x00 
                           .rsrc:0100643c 69                               0x69 'i'
                           .rsrc:0100643d 00                               0x00 
                           .rsrc:0100643e 6c                               0x6c 'l'
                           .rsrc:0100643f 00                               0x00 
                           .rsrc:01006440 65                               0x65 'e'
                           .rsrc:01006441 00                               0x00 
                           .rsrc:01006442 44                               0x44 'D'
                           .rsrc:01006443 00                               0x00 
                           .rsrc:01006444 65                               0x65 'e'
                           .rsrc:01006445 00                               0x00 
                           .rsrc:01006446 73                               0x73 's'
                           .rsrc:01006447 00                               0x00 
                           .rsrc:01006448 63                               0x63 'c'
                           .rsrc:01006449 00                               0x00 
                           .rsrc:0100644a 72                               0x72 'r'
                           .rsrc:0100644b 00                               0x00 
                           .rsrc:0100644c 69                               0x69 'i'
                           .rsrc:0100644d 00                               0x00 
                           .rsrc:0100644e 70                               0x70 'p'
                           .rsrc:0100644f 00                               0x00 
                           .rsrc:01006450 74                               0x74 't'
                           .rsrc:01006451 00                               0x00 
                           .rsrc:01006452 69                               0x69 'i'
                           .rsrc:01006453 00                               0x00 
                           .rsrc:01006454 6f                               0x6f 'o'
                           .rsrc:01006455 00                               0x00 
                           .rsrc:01006456 6e                               0x6e 'n'
                           .rsrc:01006457 00                               0x00 
                           .rsrc:01006458 00                               0x00 
                           .rsrc:01006459 00                               0x00 
                           .rsrc:0100645a 00                               0x00 
                           .rsrc:0100645b 00                               0x00 
                           .rsrc:0100645c 46                               0x46 'F'
                           .rsrc:0100645d 00                               0x00 
                           .rsrc:0100645e 69                               0x69 'i'
                           .rsrc:0100645f 00                               0x00 
                           .rsrc:01006460 6c                               0x6c 'l'
                           .rsrc:01006461 00                               0x00 
                           .rsrc:01006462 65                               0x65 'e'
                           .rsrc:01006463 00                               0x00 
                           .rsrc:01006464 20                               0x20 ' '
                           .rsrc:01006465 00                               0x00 
                           .rsrc:01006466 53                               0x53 'S'
                           .rsrc:01006467 00                               0x00 
                           .rsrc:01006468 79                               0x79 'y'
                           .rsrc:01006469 00                               0x00 
                           .rsrc:0100646a 73                               0x73 's'
                           .rsrc:0100646b 00                               0x00 
                           .rsrc:0100646c 74                               0x74 't'
                           .rsrc:0100646d 00                               0x00 
                           .rsrc:0100646e 65                               0x65 'e'
                           .rsrc:0100646f 00                               0x00 
                           .rsrc:01006470 6d                               0x6d 'm'
                           .rsrc:01006471 00                               0x00 
                           .rsrc:01006472 20                               0x20 ' '
                           .rsrc:01006473 00                               0x00 
                           .rsrc:01006474 43                               0x43 'C'
                           .rsrc:01006475 00                               0x00 
                           .rsrc:01006476 6f                               0x6f 'o'
                           .rsrc:01006477 00                               0x00 
                           .rsrc:01006478 6e                               0x6e 'n'
                           .rsrc:01006479 00                               0x00 
                           .rsrc:0100647a 76                               0x76 'v'
                           .rsrc:0100647b 00                               0x00 
                           .rsrc:0100647c 65                               0x65 'e'
                           .rsrc:0100647d 00                               0x00 
                           .rsrc:0100647e 72                               0x72 'r'
                           .rsrc:0100647f 00                               0x00 
                           .rsrc:01006480 73                               0x73 's'
                           .rsrc:01006481 00                               0x00 
                           .rsrc:01006482 69                               0x69 'i'
                           .rsrc:01006483 00                               0x00 
                           .rsrc:01006484 6f                               0x6f 'o'
                           .rsrc:01006485 00                               0x00 
                           .rsrc:01006486 6e                               0x6e 'n'
                           .rsrc:01006487 00                               0x00 
                           .rsrc:01006488 20                               0x20 ' '
                           .rsrc:01006489 00                               0x00 
                           .rsrc:0100648a 55                               0x55 'U'
                           .rsrc:0100648b 00                               0x00 
                           .rsrc:0100648c 74                               0x74 't'
                           .rsrc:0100648d 00                               0x00 
                           .rsrc:0100648e 69                               0x69 'i'
                           .rsrc:0100648f 00                               0x00 
                           .rsrc:01006490 6c                               0x6c 'l'
                           .rsrc:01006491 00                               0x00 
                           .rsrc:01006492 69                               0x69 'i'
                           .rsrc:01006493 00                               0x00 
                           .rsrc:01006494 74                               0x74 't'
                           .rsrc:01006495 00                               0x00 
                           .rsrc:01006496 79                               0x79 'y'
                           .rsrc:01006497 00                               0x00 
                           .rsrc:01006498 00                               0x00 
                           .rsrc:01006499 00                               0x00 
                           .rsrc:0100649a 00                               0x00 
                           .rsrc:0100649b 00                               0x00 
                           .rsrc:0100649c 6c                               0x6c 'l'
                           .rsrc:0100649d 00                               0x00 
                           .rsrc:0100649e 26                               0x26 '&'
                           .rsrc:0100649f 00                               0x00 
                           .rsrc:010064a0 01                               0x01 
                           .rsrc:010064a1 00                               0x00 
                           .rsrc:010064a2 46                               0x46 'F'
                           .rsrc:010064a3 00                               0x00 
                           .rsrc:010064a4 69                               0x69 'i'
                           .rsrc:010064a5 00                               0x00 
                           .rsrc:010064a6 6c                               0x6c 'l'
                           .rsrc:010064a7 00                               0x00 
                           .rsrc:010064a8 65                               0x65 'e'
                           .rsrc:010064a9 00                               0x00 
                           .rsrc:010064aa 56                               0x56 'V'
                           .rsrc:010064ab 00                               0x00 
                           .rsrc:010064ac 65                               0x65 'e'
                           .rsrc:010064ad 00                               0x00 
                           .rsrc:010064ae 72                               0x72 'r'
                           .rsrc:010064af 00                               0x00 
                           .rsrc:010064b0 73                               0x73 's'
                           .rsrc:010064b1 00                               0x00 
                           .rsrc:010064b2 69                               0x69 'i'
                           .rsrc:010064b3 00                               0x00 
                           .rsrc:010064b4 6f                               0x6f 'o'
                           .rsrc:010064b5 00                               0x00 
                           .rsrc:010064b6 6e                               0x6e 'n'
                           .rsrc:010064b7 00                               0x00 
                           .rsrc:010064b8 00                               0x00 
                           .rsrc:010064b9 00                               0x00 
                           .rsrc:010064ba 00                               0x00 
                           .rsrc:010064bb 00                               0x00 
                           .rsrc:010064bc 36                               0x36 '6'
                           .rsrc:010064bd 00                               0x00 
                           .rsrc:010064be 2e                               0x2e '.'
                           .rsrc:010064bf 00                               0x00 
                           .rsrc:010064c0 31                               0x31 '1'
                           .rsrc:010064c1 00                               0x00 
                           .rsrc:010064c2 2e                               0x2e '.'
                           .rsrc:010064c3 00                               0x00 
                           .rsrc:010064c4 37                               0x37 '7'
                           .rsrc:010064c5 00                               0x00 
                           .rsrc:010064c6 36                               0x36 '6'
                           .rsrc:010064c7 00                               0x00 
                           .rsrc:010064c8 30                               0x30 '0'
                           .rsrc:010064c9 00                               0x00 
                           .rsrc:010064ca 30                               0x30 '0'
                           .rsrc:010064cb 00                               0x00 
                           .rsrc:010064cc 2e                               0x2e '.'
                           .rsrc:010064cd 00                               0x00 
                           .rsrc:010064ce 31                               0x31 '1'
                           .rsrc:010064cf 00                               0x00 
                           .rsrc:010064d0 36                               0x36 '6'
                           .rsrc:010064d1 00                               0x00 
                           .rsrc:010064d2 33                               0x33 '3'
                           .rsrc:010064d3 00                               0x00 
                           .rsrc:010064d4 38                               0x38 '8'
                           .rsrc:010064d5 00                               0x00 
                           .rsrc:010064d6 35                               0x35 '5'
                           .rsrc:010064d7 00                               0x00 
                           .rsrc:010064d8 20                               0x20 ' '
                           .rsrc:010064d9 00                               0x00 
                           .rsrc:010064da 28                               0x28 '('
                           .rsrc:010064db 00                               0x00 
                           .rsrc:010064dc 77                               0x77 'w'
                           .rsrc:010064dd 00                               0x00 
                           .rsrc:010064de 69                               0x69 'i'
                           .rsrc:010064df 00                               0x00 
                           .rsrc:010064e0 6e                               0x6e 'n'
                           .rsrc:010064e1 00                               0x00 
                           .rsrc:010064e2 37                               0x37 '7'
                           .rsrc:010064e3 00                               0x00 
                           .rsrc:010064e4 5f                               0x5f '_'
                           .rsrc:010064e5 00                               0x00 
                           .rsrc:010064e6 72                               0x72 'r'
                           .rsrc:010064e7 00                               0x00 
                           .rsrc:010064e8 74                               0x74 't'
                           .rsrc:010064e9 00                               0x00 
                           .rsrc:010064ea 6d                               0x6d 'm'
                           .rsrc:010064eb 00                               0x00 
                           .rsrc:010064ec 2e                               0x2e '.'
                           .rsrc:010064ed 00                               0x00 
                           .rsrc:010064ee 30                               0x30 '0'
                           .rsrc:010064ef 00                               0x00 
                           .rsrc:010064f0 39                               0x39 '9'
                           .rsrc:010064f1 00                               0x00 
                           .rsrc:010064f2 30                               0x30 '0'
                           .rsrc:010064f3 00                               0x00 
                           .rsrc:010064f4 37                               0x37 '7'
                           .rsrc:010064f5 00                               0x00 
                           .rsrc:010064f6 31                               0x31 '1'
                           .rsrc:010064f7 00                               0x00 
                           .rsrc:010064f8 33                               0x33 '3'
                           .rsrc:010064f9 00                               0x00 
                           .rsrc:010064fa 2d                               0x2d '-'
                           .rsrc:010064fb 00                               0x00 
                           .rsrc:010064fc 31                               0x31 '1'
                           .rsrc:010064fd 00                               0x00 
                           .rsrc:010064fe 32                               0x32 '2'
                           .rsrc:010064ff 00                               0x00 
                           .rsrc:01006500 35                               0x35 '5'
                           .rsrc:01006501 00                               0x00 
                           .rsrc:01006502 35                               0x35 '5'
                           .rsrc:01006503 00                               0x00 
                           .rsrc:01006504 29                               0x29 ')'
                           .rsrc:01006505 00                               0x00 
                           .rsrc:01006506 00                               0x00 
                           .rsrc:01006507 00                               0x00 
                           .rsrc:01006508 30                               0x30 '0'
                           .rsrc:01006509 00                               0x00 
                           .rsrc:0100650a 08                               0x08 
                           .rsrc:0100650b 00                               0x00 
                           .rsrc:0100650c 01                               0x01 
                           .rsrc:0100650d 00                               0x00 
                           .rsrc:0100650e 49                               0x49 'I'
                           .rsrc:0100650f 00                               0x00 
                           .rsrc:01006510 6e                               0x6e 'n'
                           .rsrc:01006511 00                               0x00 
                           .rsrc:01006512 74                               0x74 't'
                           .rsrc:01006513 00                               0x00 
                           .rsrc:01006514 65                               0x65 'e'
                           .rsrc:01006515 00                               0x00 
                           .rsrc:01006516 72                               0x72 'r'
                           .rsrc:01006517 00                               0x00 
                           .rsrc:01006518 6e                               0x6e 'n'
                           .rsrc:01006519 00                               0x00 
                           .rsrc:0100651a 61                               0x61 'a'
                           .rsrc:0100651b 00                               0x00 
                           .rsrc:0100651c 6c                               0x6c 'l'
                           .rsrc:0100651d 00                               0x00 
                           .rsrc:0100651e 4e                               0x4e 'N'
                           .rsrc:0100651f 00                               0x00 
                           .rsrc:01006520 61                               0x61 'a'
                           .rsrc:01006521 00                               0x00 
                           .rsrc:01006522 6d                               0x6d 'm'
                           .rsrc:01006523 00                               0x00 
                           .rsrc:01006524 65                               0x65 'e'
                           .rsrc:01006525 00                               0x00 
                           .rsrc:01006526 00                               0x00 
                           .rsrc:01006527 00                               0x00 
                           .rsrc:01006528 63                               0x63 'c'
                           .rsrc:01006529 00                               0x00 
                           .rsrc:0100652a 6f                               0x6f 'o'
                           .rsrc:0100652b 00                               0x00 
                           .rsrc:0100652c 6e                               0x6e 'n'
                           .rsrc:0100652d 00                               0x00 
                           .rsrc:0100652e 76                               0x76 'v'
                           .rsrc:0100652f 00                               0x00 
                           .rsrc:01006530 65                               0x65 'e'
                           .rsrc:01006531 00                               0x00 
                           .rsrc:01006532 72                               0x72 'r'
                           .rsrc:01006533 00                               0x00 
                           .rsrc:01006534 74                               0x74 't'
                           .rsrc:01006535 00                               0x00 
                           .rsrc:01006536 00                               0x00 
                           .rsrc:01006537 00                               0x00 
                           .rsrc:01006538 80                               0x80 
                           .rsrc:01006539 00                               0x00 
                           .rsrc:0100653a 2e                               0x2e '.'
                           .rsrc:0100653b 00                               0x00 
                           .rsrc:0100653c 01                               0x01 
                           .rsrc:0100653d 00                               0x00 
                           .rsrc:0100653e 4c                               0x4c 'L'
                           .rsrc:0100653f 00                               0x00 
                           .rsrc:01006540 65                               0x65 'e'
                           .rsrc:01006541 00                               0x00 
                           .rsrc:01006542 67                               0x67 'g'
                           .rsrc:01006543 00                               0x00 
                           .rsrc:01006544 61                               0x61 'a'
                           .rsrc:01006545 00                               0x00 
                           .rsrc:01006546 6c                               0x6c 'l'
                           .rsrc:01006547 00                               0x00 
                           .rsrc:01006548 43                               0x43 'C'
                           .rsrc:01006549 00                               0x00 
                           .rsrc:0100654a 6f                               0x6f 'o'
                           .rsrc:0100654b 00                               0x00 
                           .rsrc:0100654c 70                               0x70 'p'
                           .rsrc:0100654d 00                               0x00 
                           .rsrc:0100654e 79                               0x79 'y'
                           .rsrc:0100654f 00                               0x00 
                           .rsrc:01006550 72                               0x72 'r'
                           .rsrc:01006551 00                               0x00 
                           .rsrc:01006552 69                               0x69 'i'
                           .rsrc:01006553 00                               0x00 
                           .rsrc:01006554 67                               0x67 'g'
                           .rsrc:01006555 00                               0x00 
                           .rsrc:01006556 68                               0x68 'h'
                           .rsrc:01006557 00                               0x00 
                           .rsrc:01006558 74                               0x74 't'
                           .rsrc:01006559 00                               0x00 
                           .rsrc:0100655a 00                               0x00 
                           .rsrc:0100655b 00                               0x00 
                           .rsrc:0100655c a9                               0xa9 
                           .rsrc:0100655d 00                               0x00 
                           .rsrc:0100655e 20                               0x20 ' '
                           .rsrc:0100655f 00                               0x00 
                           .rsrc:01006560 4d                               0x4d 'M'
                           .rsrc:01006561 00                               0x00 
                           .rsrc:01006562 69                               0x69 'i'
                           .rsrc:01006563 00                               0x00 
                           .rsrc:01006564 63                               0x63 'c'
                           .rsrc:01006565 00                               0x00 
                           .rsrc:01006566 72                               0x72 'r'
                           .rsrc:01006567 00                               0x00 
                           .rsrc:01006568 6f                               0x6f 'o'
                           .rsrc:01006569 00                               0x00 
                           .rsrc:0100656a 73                               0x73 's'
                           .rsrc:0100656b 00                               0x00 
                           .rsrc:0100656c 6f                               0x6f 'o'
                           .rsrc:0100656d 00                               0x00 
                           .rsrc:0100656e 66                               0x66 'f'
                           .rsrc:0100656f 00                               0x00 
                           .rsrc:01006570 74                               0x74 't'
                           .rsrc:01006571 00                               0x00 
                           .rsrc:01006572 20                               0x20 ' '
                           .rsrc:01006573 00                               0x00 
                           .rsrc:01006574 43                               0x43 'C'
                           .rsrc:01006575 00                               0x00 
                           .rsrc:01006576 6f                               0x6f 'o'
                           .rsrc:01006577 00                               0x00 
                           .rsrc:01006578 72                               0x72 'r'
                           .rsrc:01006579 00                               0x00 
                           .rsrc:0100657a 70                               0x70 'p'
                           .rsrc:0100657b 00                               0x00 
                           .rsrc:0100657c 6f                               0x6f 'o'
                           .rsrc:0100657d 00                               0x00 
                           .rsrc:0100657e 72                               0x72 'r'
                           .rsrc:0100657f 00                               0x00 
                           .rsrc:01006580 61                               0x61 'a'
                           .rsrc:01006581 00                               0x00 
                           .rsrc:01006582 74                               0x74 't'
                           .rsrc:01006583 00                               0x00 
                           .rsrc:01006584 69                               0x69 'i'
                           .rsrc:01006585 00                               0x00 
                           .rsrc:01006586 6f                               0x6f 'o'
                           .rsrc:01006587 00                               0x00 
                           .rsrc:01006588 6e                               0x6e 'n'
                           .rsrc:01006589 00                               0x00 
                           .rsrc:0100658a 2e                               0x2e '.'
                           .rsrc:0100658b 00                               0x00 
                           .rsrc:0100658c 20                               0x20 ' '
                           .rsrc:0100658d 00                               0x00 
                           .rsrc:0100658e 41                               0x41 'A'
                           .rsrc:0100658f 00                               0x00 
                           .rsrc:01006590 6c                               0x6c 'l'
                           .rsrc:01006591 00                               0x00 
                           .rsrc:01006592 6c                               0x6c 'l'
                           .rsrc:01006593 00                               0x00 
                           .rsrc:01006594 20                               0x20 ' '
                           .rsrc:01006595 00                               0x00 
                           .rsrc:01006596 72                               0x72 'r'
                           .rsrc:01006597 00                               0x00 
                           .rsrc:01006598 69                               0x69 'i'
                           .rsrc:01006599 00                               0x00 
                           .rsrc:0100659a 67                               0x67 'g'
                           .rsrc:0100659b 00                               0x00 
                           .rsrc:0100659c 68                               0x68 'h'
                           .rsrc:0100659d 00                               0x00 
                           .rsrc:0100659e 74                               0x74 't'
                           .rsrc:0100659f 00                               0x00 
                           .rsrc:010065a0 73                               0x73 's'
                           .rsrc:010065a1 00                               0x00 
                           .rsrc:010065a2 20                               0x20 ' '
                           .rsrc:010065a3 00                               0x00 
                           .rsrc:010065a4 72                               0x72 'r'
                           .rsrc:010065a5 00                               0x00 
                           .rsrc:010065a6 65                               0x65 'e'
                           .rsrc:010065a7 00                               0x00 
                           .rsrc:010065a8 73                               0x73 's'
                           .rsrc:010065a9 00                               0x00 
                           .rsrc:010065aa 65                               0x65 'e'
                           .rsrc:010065ab 00                               0x00 
                           .rsrc:010065ac 72                               0x72 'r'
                           .rsrc:010065ad 00                               0x00 
                           .rsrc:010065ae 76                               0x76 'v'
                           .rsrc:010065af 00                               0x00 
                           .rsrc:010065b0 65                               0x65 'e'
                           .rsrc:010065b1 00                               0x00 
                           .rsrc:010065b2 64                               0x64 'd'
                           .rsrc:010065b3 00                               0x00 
                           .rsrc:010065b4 2e                               0x2e '.'
                           .rsrc:010065b5 00                               0x00 
                           .rsrc:010065b6 00                               0x00 
                           .rsrc:010065b7 00                               0x00 
                           .rsrc:010065b8 40                               0x40 '@'
                           .rsrc:010065b9 00                               0x00 
                           .rsrc:010065ba 0c                               0x0c ''
                           .rsrc:010065bb 00                               0x00 
                           .rsrc:010065bc 01                               0x01 
                           .rsrc:010065bd 00                               0x00 
                           .rsrc:010065be 4f                               0x4f 'O'
                           .rsrc:010065bf 00                               0x00 
                           .rsrc:010065c0 72                               0x72 'r'
                           .rsrc:010065c1 00                               0x00 
                           .rsrc:010065c2 69                               0x69 'i'
                           .rsrc:010065c3 00                               0x00 
                           .rsrc:010065c4 67                               0x67 'g'
                           .rsrc:010065c5 00                               0x00 
                           .rsrc:010065c6 69                               0x69 'i'
                           .rsrc:010065c7 00                               0x00 
                           .rsrc:010065c8 6e                               0x6e 'n'
                           .rsrc:010065c9 00                               0x00 
                           .rsrc:010065ca 61                               0x61 'a'
                           .rsrc:010065cb 00                               0x00 
                           .rsrc:010065cc 6c                               0x6c 'l'
                           .rsrc:010065cd 00                               0x00 
                           .rsrc:010065ce 46                               0x46 'F'
                           .rsrc:010065cf 00                               0x00 
                           .rsrc:010065d0 69                               0x69 'i'
                           .rsrc:010065d1 00                               0x00 
                           .rsrc:010065d2 6c                               0x6c 'l'
                           .rsrc:010065d3 00                               0x00 
                           .rsrc:010065d4 65                               0x65 'e'
                           .rsrc:010065d5 00                               0x00 
                           .rsrc:010065d6 6e                               0x6e 'n'
                           .rsrc:010065d7 00                               0x00 
                           .rsrc:010065d8 61                               0x61 'a'
                           .rsrc:010065d9 00                               0x00 
                           .rsrc:010065da 6d                               0x6d 'm'
                           .rsrc:010065db 00                               0x00 
                           .rsrc:010065dc 65                               0x65 'e'
                           .rsrc:010065dd 00                               0x00 
                           .rsrc:010065de 00                               0x00 
                           .rsrc:010065df 00                               0x00 
                           .rsrc:010065e0 43                               0x43 'C'
                           .rsrc:010065e1 00                               0x00 
                           .rsrc:010065e2 4f                               0x4f 'O'
                           .rsrc:010065e3 00                               0x00 
                           .rsrc:010065e4 4e                               0x4e 'N'
                           .rsrc:010065e5 00                               0x00 
                           .rsrc:010065e6 56                               0x56 'V'
                           .rsrc:010065e7 00                               0x00 
                           .rsrc:010065e8 45                               0x45 'E'
                           .rsrc:010065e9 00                               0x00 
                           .rsrc:010065ea 52                               0x52 'R'
                           .rsrc:010065eb 00                               0x00 
                           .rsrc:010065ec 54                               0x54 'T'
                           .rsrc:010065ed 00                               0x00 
                           .rsrc:010065ee 2e                               0x2e '.'
                           .rsrc:010065ef 00                               0x00 
                           .rsrc:010065f0 45                               0x45 'E'
                           .rsrc:010065f1 00                               0x00 
                           .rsrc:010065f2 58                               0x58 'X'
                           .rsrc:010065f3 00                               0x00 
                           .rsrc:010065f4 45                               0x45 'E'
                           .rsrc:010065f5 00                               0x00 
                           .rsrc:010065f6 00                               0x00 
                           .rsrc:010065f7 00                               0x00 
                           .rsrc:010065f8 6a                               0x6a 'j'
                           .rsrc:010065f9 00                               0x00 
                           .rsrc:010065fa 25                               0x25 '%'
                           .rsrc:010065fb 00                               0x00 
                           .rsrc:010065fc 01                               0x01 
                           .rsrc:010065fd 00                               0x00 
                           .rsrc:010065fe 50                               0x50 'P'
                           .rsrc:010065ff 00                               0x00 
                           .rsrc:01006600 72                               0x72 'r'
                           .rsrc:01006601 00                               0x00 
                           .rsrc:01006602 6f                               0x6f 'o'
                           .rsrc:01006603 00                               0x00 
                           .rsrc:01006604 64                               0x64 'd'
                           .rsrc:01006605 00                               0x00 
                           .rsrc:01006606 75                               0x75 'u'
                           .rsrc:01006607 00                               0x00 
                           .rsrc:01006608 63                               0x63 'c'
                           .rsrc:01006609 00                               0x00 
                           .rsrc:0100660a 74                               0x74 't'
                           .rsrc:0100660b 00                               0x00 
                           .rsrc:0100660c 4e                               0x4e 'N'
                           .rsrc:0100660d 00                               0x00 
                           .rsrc:0100660e 61                               0x61 'a'
                           .rsrc:0100660f 00                               0x00 
                           .rsrc:01006610 6d                               0x6d 'm'
                           .rsrc:01006611 00                               0x00 
                           .rsrc:01006612 65                               0x65 'e'
                           .rsrc:01006613 00                               0x00 
                           .rsrc:01006614 00                               0x00 
                           .rsrc:01006615 00                               0x00 
                           .rsrc:01006616 00                               0x00 
                           .rsrc:01006617 00                               0x00 
                           .rsrc:01006618 4d                               0x4d 'M'
                           .rsrc:01006619 00                               0x00 
                           .rsrc:0100661a 69                               0x69 'i'
                           .rsrc:0100661b 00                               0x00 
                           .rsrc:0100661c 63                               0x63 'c'
                           .rsrc:0100661d 00                               0x00 
                           .rsrc:0100661e 72                               0x72 'r'
                           .rsrc:0100661f 00                               0x00 
                           .rsrc:01006620 6f                               0x6f 'o'
                           .rsrc:01006621 00                               0x00 
                           .rsrc:01006622 73                               0x73 's'
                           .rsrc:01006623 00                               0x00 
                           .rsrc:01006624 6f                               0x6f 'o'
                           .rsrc:01006625 00                               0x00 
                           .rsrc:01006626 66                               0x66 'f'
                           .rsrc:01006627 00                               0x00 
                           .rsrc:01006628 74                               0x74 't'
                           .rsrc:01006629 00                               0x00 
                           .rsrc:0100662a ae                               0xae 
                           .rsrc:0100662b 00                               0x00 
                           .rsrc:0100662c 20                               0x20 ' '
                           .rsrc:0100662d 00                               0x00 
                           .rsrc:0100662e 57                               0x57 'W'
                           .rsrc:0100662f 00                               0x00 
                           .rsrc:01006630 69                               0x69 'i'
                           .rsrc:01006631 00                               0x00 
                           .rsrc:01006632 6e                               0x6e 'n'
                           .rsrc:01006633 00                               0x00 
                           .rsrc:01006634 64                               0x64 'd'
                           .rsrc:01006635 00                               0x00 
                           .rsrc:01006636 6f                               0x6f 'o'
                           .rsrc:01006637 00                               0x00 
                           .rsrc:01006638 77                               0x77 'w'
                           .rsrc:01006639 00                               0x00 
                           .rsrc:0100663a 73                               0x73 's'
                           .rsrc:0100663b 00                               0x00 
                           .rsrc:0100663c ae                               0xae 
                           .rsrc:0100663d 00                               0x00 
                           .rsrc:0100663e 20                               0x20 ' '
                           .rsrc:0100663f 00                               0x00 
                           .rsrc:01006640 4f                               0x4f 'O'
                           .rsrc:01006641 00                               0x00 
                           .rsrc:01006642 70                               0x70 'p'
                           .rsrc:01006643 00                               0x00 
                           .rsrc:01006644 65                               0x65 'e'
                           .rsrc:01006645 00                               0x00 
                           .rsrc:01006646 72                               0x72 'r'
                           .rsrc:01006647 00                               0x00 
                           .rsrc:01006648 61                               0x61 'a'
                           .rsrc:01006649 00                               0x00 
                           .rsrc:0100664a 74                               0x74 't'
                           .rsrc:0100664b 00                               0x00 
                           .rsrc:0100664c 69                               0x69 'i'
                           .rsrc:0100664d 00                               0x00 
                           .rsrc:0100664e 6e                               0x6e 'n'
                           .rsrc:0100664f 00                               0x00 
                           .rsrc:01006650 67                               0x67 'g'
                           .rsrc:01006651 00                               0x00 
                           .rsrc:01006652 20                               0x20 ' '
                           .rsrc:01006653 00                               0x00 
                           .rsrc:01006654 53                               0x53 'S'
                           .rsrc:01006655 00                               0x00 
                           .rsrc:01006656 79                               0x79 'y'
                           .rsrc:01006657 00                               0x00 
                           .rsrc:01006658 73                               0x73 's'
                           .rsrc:01006659 00                               0x00 
                           .rsrc:0100665a 74                               0x74 't'
                           .rsrc:0100665b 00                               0x00 
                           .rsrc:0100665c 65                               0x65 'e'
                           .rsrc:0100665d 00                               0x00 
                           .rsrc:0100665e 6d                               0x6d 'm'
                           .rsrc:0100665f 00                               0x00 
                           .rsrc:01006660 00                               0x00 
                           .rsrc:01006661 00                               0x00 
                           .rsrc:01006662 00                               0x00 
                           .rsrc:01006663 00                               0x00 
                           .rsrc:01006664 42                               0x42 'B'
                           .rsrc:01006665 00                               0x00 
                           .rsrc:01006666 0f                               0x0f 
                           .rsrc:01006667 00                               0x00 
                           .rsrc:01006668 01                               0x01 
                           .rsrc:01006669 00                               0x00 
                           .rsrc:0100666a 50                               0x50 'P'
                           .rsrc:0100666b 00                               0x00 
                           .rsrc:0100666c 72                               0x72 'r'
                           .rsrc:0100666d 00                               0x00 
                           .rsrc:0100666e 6f                               0x6f 'o'
                           .rsrc:0100666f 00                               0x00 
                           .rsrc:01006670 64                               0x64 'd'
                           .rsrc:01006671 00                               0x00 
                           .rsrc:01006672 75                               0x75 'u'
                           .rsrc:01006673 00                               0x00 
                           .rsrc:01006674 63                               0x63 'c'
                           .rsrc:01006675 00                               0x00 
                           .rsrc:01006676 74                               0x74 't'
                           .rsrc:01006677 00                               0x00 
                           .rsrc:01006678 56                               0x56 'V'
                           .rsrc:01006679 00                               0x00 
                           .rsrc:0100667a 65                               0x65 'e'
                           .rsrc:0100667b 00                               0x00 
                           .rsrc:0100667c 72                               0x72 'r'
                           .rsrc:0100667d 00                               0x00 
                           .rsrc:0100667e 73                               0x73 's'
                           .rsrc:0100667f 00                               0x00 
                           .rsrc:01006680 69                               0x69 'i'
                           .rsrc:01006681 00                               0x00 
                           .rsrc:01006682 6f                               0x6f 'o'
                           .rsrc:01006683 00                               0x00 
                           .rsrc:01006684 6e                               0x6e 'n'
                           .rsrc:01006685 00                               0x00 
                           .rsrc:01006686 00                               0x00 
                           .rsrc:01006687 00                               0x00 
                           .rsrc:01006688 36                               0x36 '6'
                           .rsrc:01006689 00                               0x00 
                           .rsrc:0100668a 2e                               0x2e '.'
                           .rsrc:0100668b 00                               0x00 
                           .rsrc:0100668c 31                               0x31 '1'
                           .rsrc:0100668d 00                               0x00 
                           .rsrc:0100668e 2e                               0x2e '.'
                           .rsrc:0100668f 00                               0x00 
                           .rsrc:01006690 37                               0x37 '7'
                           .rsrc:01006691 00                               0x00 
                           .rsrc:01006692 36                               0x36 '6'
                           .rsrc:01006693 00                               0x00 
                           .rsrc:01006694 30                               0x30 '0'
                           .rsrc:01006695 00                               0x00 
                           .rsrc:01006696 30                               0x30 '0'
                           .rsrc:01006697 00                               0x00 
                           .rsrc:01006698 2e                               0x2e '.'
                           .rsrc:01006699 00                               0x00 
                           .rsrc:0100669a 31                               0x31 '1'
                           .rsrc:0100669b 00                               0x00 
                           .rsrc:0100669c 36                               0x36 '6'
                           .rsrc:0100669d 00                               0x00 
                           .rsrc:0100669e 33                               0x33 '3'
                           .rsrc:0100669f 00                               0x00 
                           .rsrc:010066a0 38                               0x38 '8'
                           .rsrc:010066a1 00                               0x00 
                           .rsrc:010066a2 35                               0x35 '5'
                           .rsrc:010066a3 00                               0x00 
                           .rsrc:010066a4 00                               0x00 
                           .rsrc:010066a5 00                               0x00 
                           .rsrc:010066a6 00                               0x00 
                           .rsrc:010066a7 00                               0x00 
                           .rsrc:010066a8 44                               0x44 'D'
                           .rsrc:010066a9 00                               0x00 
                           .rsrc:010066aa 00                               0x00 
                           .rsrc:010066ab 00                               0x00 
                           .rsrc:010066ac 01                               0x01 
                           .rsrc:010066ad 00                               0x00 
                           .rsrc:010066ae 56                               0x56 'V'
                           .rsrc:010066af 00                               0x00 
                           .rsrc:010066b0 61                               0x61 'a'
                           .rsrc:010066b1 00                               0x00 
                           .rsrc:010066b2 72                               0x72 'r'
                           .rsrc:010066b3 00                               0x00 
                           .rsrc:010066b4 46                               0x46 'F'
                           .rsrc:010066b5 00                               0x00 
                           .rsrc:010066b6 69                               0x69 'i'
                           .rsrc:010066b7 00                               0x00 
                           .rsrc:010066b8 6c                               0x6c 'l'
                           .rsrc:010066b9 00                               0x00 
                           .rsrc:010066ba 65                               0x65 'e'
                           .rsrc:010066bb 00                               0x00 
                           .rsrc:010066bc 49                               0x49 'I'
                           .rsrc:010066bd 00                               0x00 
                           .rsrc:010066be 6e                               0x6e 'n'
                           .rsrc:010066bf 00                               0x00 
                           .rsrc:010066c0 66                               0x66 'f'
                           .rsrc:010066c1 00                               0x00 
                           .rsrc:010066c2 6f                               0x6f 'o'
                           .rsrc:010066c3 00                               0x00 
                           .rsrc:010066c4 00                               0x00 
                           .rsrc:010066c5 00                               0x00 
                           .rsrc:010066c6 00                               0x00 
                           .rsrc:010066c7 00                               0x00 
                           .rsrc:010066c8 24                               0x24 '$'
                           .rsrc:010066c9 00                               0x00 
                           .rsrc:010066ca 04                               0x04 
                           .rsrc:010066cb 00                               0x00 
                           .rsrc:010066cc 00                               0x00 
                           .rsrc:010066cd 00                               0x00 
                           .rsrc:010066ce 54                               0x54 'T'
                           .rsrc:010066cf 00                               0x00 
                           .rsrc:010066d0 72                               0x72 'r'
                           .rsrc:010066d1 00                               0x00 
                           .rsrc:010066d2 61                               0x61 'a'
                           .rsrc:010066d3 00                               0x00 
                           .rsrc:010066d4 6e                               0x6e 'n'
                           .rsrc:010066d5 00                               0x00 
                           .rsrc:010066d6 73                               0x73 's'
                           .rsrc:010066d7 00                               0x00 
                           .rsrc:010066d8 6c                               0x6c 'l'
                           .rsrc:010066d9 00                               0x00 
                           .rsrc:010066da 61                               0x61 'a'
                           .rsrc:010066db 00                               0x00 
                           .rsrc:010066dc 74                               0x74 't'
                           .rsrc:010066dd 00                               0x00 
                           .rsrc:010066de 69                               0x69 'i'
                           .rsrc:010066df 00                               0x00 
                           .rsrc:010066e0 6f                               0x6f 'o'
                           .rsrc:010066e1 00                               0x00 
                           .rsrc:010066e2 6e                               0x6e 'n'
                           .rsrc:010066e3 00                               0x00 
                           .rsrc:010066e4 00                               0x00 
                           .rsrc:010066e5 00                               0x00 
                           .rsrc:010066e6 00                               0x00 
                           .rsrc:010066e7 00                               0x00 
                           .rsrc:010066e8 09                               0x09 '	'
                           .rsrc:010066e9 04                               0x04 
                           .rsrc:010066ea b0                               0xb0 
                           .rsrc:010066eb 04                               0x04 
                           .rsrc:010066ec 00                               0x00 
                           .rsrc:010066ed 00                               0x00 
                           .rsrc:010066ee 00                               0x00 
                           .rsrc:010066ef 00                               0x00 
                          .reloc:01007000 00                               0x00 
                          .reloc:01007001 10                               0x10 
                          .reloc:01007002 00                               0x00 
                          .reloc:01007003 00                               0x00 
                          .reloc:01007004 e0                               0xe0 
                          .reloc:01007005 00                               0x00 
                          .reloc:01007006 00                               0x00 
                          .reloc:01007007 00                               0x00 
                          .reloc:01007008 8c                               0x8c 
                          .reloc:01007009 31                               0x31 '1'
                          .reloc:0100700a 98                               0x98 
                          .reloc:0100700b 31                               0x31 '1'
                          .reloc:0100700c 9c                               0x9c 
                          .reloc:0100700d 31                               0x31 '1'
                          .reloc:0100700e cc                               0xcc 
                          .reloc:0100700f 31                               0x31 '1'
                          .reloc:01007010 d0                               0xd0 
                          .reloc:01007011 31                               0x31 '1'
                          .reloc:01007012 d4                               0xd4 
                          .reloc:01007013 31                               0x31 '1'
                          .reloc:01007014 d8                               0xd8 
                          .reloc:01007015 31                               0x31 '1'
                          .reloc:01007016 dc                               0xdc 
                          .reloc:01007017 31                               0x31 '1'
                          .reloc:01007018 e0                               0xe0 
                          .reloc:01007019 31                               0x31 '1'
                          .reloc:0100701a e4                               0xe4 
                          .reloc:0100701b 31                               0x31 '1'
                          .reloc:0100701c e8                               0xe8 
                          .reloc:0100701d 31                               0x31 '1'
                          .reloc:0100701e ec                               0xec 
                          .reloc:0100701f 31                               0x31 '1'
                          .reloc:01007020 f0                               0xf0 
                          .reloc:01007021 31                               0x31 '1'
                          .reloc:01007022 f4                               0xf4 
                          .reloc:01007023 31                               0x31 '1'
                          .reloc:01007024 2c                               0x2c ','
                          .reloc:01007025 33                               0x33 '3'
                          .reloc:01007026 30                               0x30 '0'
                          .reloc:01007027 33                               0x33 '3'
                          .reloc:01007028 74                               0x74 't'
                          .reloc:01007029 33                               0x33 '3'
                          .reloc:0100702a 78                               0x78 'x'
                          .reloc:0100702b 33                               0x33 '3'
                          .reloc:0100702c dd                               0xdd 
                          .reloc:0100702d 33                               0x33 '3'
                          .reloc:0100702e 06                               0x06 
                          .reloc:0100702f 34                               0x34 '4'
                          .reloc:01007030 51                               0x51 'Q'
                          .reloc:01007031 34                               0x34 '4'
                          .reloc:01007032 5c                               0x5c '\'
                          .reloc:01007033 34                               0x34 '4'
                          .reloc:01007034 80                               0x80 
                          .reloc:01007035 34                               0x34 '4'
                          .reloc:01007036 a2                               0xa2 
                          .reloc:01007037 34                               0x34 '4'
                          .reloc:01007038 bc                               0xbc 
                          .reloc:01007039 34                               0x34 '4'
                          .reloc:0100703a c2                               0xc2 
                          .reloc:0100703b 34                               0x34 '4'
                          .reloc:0100703c e6                               0xe6 
                          .reloc:0100703d 34                               0x34 '4'
                          .reloc:0100703e f8                               0xf8 
                          .reloc:0100703f 34                               0x34 '4'
                          .reloc:01007040 07                               0x07 
                          .reloc:01007041 35                               0x35 '5'
                          .reloc:01007042 19                               0x19 
                          .reloc:01007043 35                               0x35 '5'
                          .reloc:01007044 3a                               0x3a ':'
                          .reloc:01007045 35                               0x35 '5'
                          .reloc:01007046 5d                               0x5d ']'
                          .reloc:01007047 35                               0x35 '5'
                          .reloc:01007048 78                               0x78 'x'
                          .reloc:01007049 35                               0x35 '5'
                          .reloc:0100704a 81                               0x81 
                          .reloc:0100704b 35                               0x35 '5'
                          .reloc:0100704c 99                               0x99 
                          .reloc:0100704d 35                               0x35 '5'
                          .reloc:0100704e cb                               0xcb 
                          .reloc:0100704f 35                               0x35 '5'
                          .reloc:01007050 d2                               0xd2 
                          .reloc:01007051 35                               0x35 '5'
                          .reloc:01007052 e6                               0xe6 
                          .reloc:01007053 35                               0x35 '5'
                          .reloc:01007054 fa                               0xfa 
                          .reloc:01007055 35                               0x35 '5'
                          .reloc:01007056 10                               0x10 
                          .reloc:01007057 36                               0x36 '6'
                          .reloc:01007058 7e                               0x7e '~'
                          .reloc:01007059 36                               0x36 '6'
                          .reloc:0100705a d1                               0xd1 
                          .reloc:0100705b 36                               0x36 '6'
                          .reloc:0100705c 10                               0x10 
                          .reloc:0100705d 37                               0x37 '7'
                          .reloc:0100705e 47                               0x47 'G'
                          .reloc:0100705f 37                               0x37 '7'
                          .reloc:01007060 6d                               0x6d 'm'
                          .reloc:01007061 37                               0x37 '7'
                          .reloc:01007062 73                               0x73 's'
                          .reloc:01007063 37                               0x37 '7'
                          .reloc:01007064 a8                               0xa8 
                          .reloc:01007065 37                               0x37 '7'
                          .reloc:01007066 ed                               0xed 
                          .reloc:01007067 37                               0x37 '7'
                          .reloc:01007068 00                               0x00 
                          .reloc:01007069 38                               0x38 '8'
                          .reloc:0100706a 09                               0x09 '	'
                          .reloc:0100706b 38                               0x38 '8'
                          .reloc:0100706c 13                               0x13 
                          .reloc:0100706d 38                               0x38 '8'
                          .reloc:0100706e 29                               0x29 ')'
                          .reloc:0100706f 38                               0x38 '8'
                          .reloc:01007070 4c                               0x4c 'L'
                          .reloc:01007071 38                               0x38 '8'
                          .reloc:01007072 63                               0x63 'c'
                          .reloc:01007073 38                               0x38 '8'
                          .reloc:01007074 7e                               0x7e '~'
                          .reloc:01007075 38                               0x38 '8'
                          .reloc:01007076 a2                               0xa2 
                          .reloc:01007077 38                               0x38 '8'
                          .reloc:01007078 a8                               0xa8 
                          .reloc:01007079 38                               0x38 '8'
                          .reloc:0100707a b4                               0xb4 
                          .reloc:0100707b 38                               0x38 '8'
                          .reloc:0100707c d2                               0xd2 
                          .reloc:0100707d 38                               0x38 '8'
                          .reloc:0100707e ef                               0xef 
                          .reloc:0100707f 38                               0x38 '8'
                          .reloc:01007080 38                               0x38 '8'
                          .reloc:01007081 39                               0x39 '9'
                          .reloc:01007082 80                               0x80 
                          .reloc:01007083 39                               0x39 '9'
                          .reloc:01007084 b6                               0xb6 
                          .reloc:01007085 39                               0x39 '9'
                          .reloc:01007086 c4                               0xc4 
                          .reloc:01007087 39                               0x39 '9'
                          .reloc:01007088 19                               0x19 
                          .reloc:01007089 3a                               0x3a ':'
                          .reloc:0100708a 34                               0x34 '4'
                          .reloc:0100708b 3a                               0x3a ':'
                          .reloc:0100708c 52                               0x52 'R'
                          .reloc:0100708d 3a                               0x3a ':'
                          .reloc:0100708e 58                               0x58 'X'
                          .reloc:0100708f 3a                               0x3a ':'
                          .reloc:01007090 c1                               0xc1 
                          .reloc:01007091 3a                               0x3a ':'
                          .reloc:01007092 eb                               0xeb 
                          .reloc:01007093 3a                               0x3a ':'
                          .reloc:01007094 0a                               0x0a '
'
                          .reloc:01007095 3b                               0x3b ';'
                          .reloc:01007096 18                               0x18 
                          .reloc:01007097 3b                               0x3b ';'
                          .reloc:01007098 26                               0x26 '&'
                          .reloc:01007099 3b                               0x3b ';'
                          .reloc:0100709a 40                               0x40 '@'
                          .reloc:0100709b 3b                               0x3b ';'
                          .reloc:0100709c 5b                               0x5b '['
                          .reloc:0100709d 3b                               0x3b ';'
                          .reloc:0100709e 62                               0x62 'b'
                          .reloc:0100709f 3b                               0x3b ';'
                          .reloc:010070a0 79                               0x79 'y'
                          .reloc:010070a1 3b                               0x3b ';'
                          .reloc:010070a2 9b                               0x9b 
                          .reloc:010070a3 3b                               0x3b ';'
                          .reloc:010070a4 b3                               0xb3 
                          .reloc:010070a5 3b                               0x3b ';'
                          .reloc:010070a6 c0                               0xc0 
                          .reloc:010070a7 3b                               0x3b ';'
                          .reloc:010070a8 d7                               0xd7 
                          .reloc:010070a9 3b                               0x3b ';'
                          .reloc:010070aa 02                               0x02 
                          .reloc:010070ab 3c                               0x3c '<'
                          .reloc:010070ac 12                               0x12 
                          .reloc:010070ad 3c                               0x3c '<'
                          .reloc:010070ae 17                               0x17 
                          .reloc:010070af 3c                               0x3c '<'
                          .reloc:010070b0 46                               0x46 'F'
                          .reloc:010070b1 3c                               0x3c '<'
                          .reloc:010070b2 64                               0x64 'd'
                          .reloc:010070b3 3c                               0x3c '<'
                          .reloc:010070b4 79                               0x79 'y'
                          .reloc:010070b5 3c                               0x3c '<'
                          .reloc:010070b6 a4                               0xa4 
                          .reloc:010070b7 3c                               0x3c '<'
                          .reloc:010070b8 ba                               0xba 
                          .reloc:010070b9 3c                               0x3c '<'
                          .reloc:010070ba cd                               0xcd 
                          .reloc:010070bb 3c                               0x3c '<'
                          .reloc:010070bc d4                               0xd4 
                          .reloc:010070bd 3c                               0x3c '<'
                          .reloc:010070be 0c                               0x0c ''
                          .reloc:010070bf 3d                               0x3d '='
                          .reloc:010070c0 28                               0x28 '('
                          .reloc:010070c1 3d                               0x3d '='
                          .reloc:010070c2 41                               0x41 'A'
                          .reloc:010070c3 3d                               0x3d '='
                          .reloc:010070c4 55                               0x55 'U'
                          .reloc:010070c5 3d                               0x3d '='
                          .reloc:010070c6 93                               0x93 
                          .reloc:010070c7 3d                               0x3d '='
                          .reloc:010070c8 a4                               0xa4 
                          .reloc:010070c9 3d                               0x3d '='
                          .reloc:010070ca d1                               0xd1 
                          .reloc:010070cb 3d                               0x3d '='
                          .reloc:010070cc 1b                               0x1b 
                          .reloc:010070cd 3e                               0x3e '>'
                          .reloc:010070ce 27                               0x27 '''
                          .reloc:010070cf 3e                               0x3e '>'
                          .reloc:010070d0 e9                               0xe9 
                          .reloc:010070d1 3e                               0x3e '>'
                          .reloc:010070d2 6a                               0x6a 'j'
                          .reloc:010070d3 3f                               0x3f '?'
                          .reloc:010070d4 7c                               0x7c '|'
                          .reloc:010070d5 3f                               0x3f '?'
                          .reloc:010070d6 90                               0x90 
                          .reloc:010070d7 3f                               0x3f '?'
                          .reloc:010070d8 aa                               0xaa 
                          .reloc:010070d9 3f                               0x3f '?'
                          .reloc:010070da bc                               0xbc 
                          .reloc:010070db 3f                               0x3f '?'
                          .reloc:010070dc e9                               0xe9 
                          .reloc:010070dd 3f                               0x3f '?'
                          .reloc:010070de 00                               0x00 
                          .reloc:010070df 00                               0x00 
                          .reloc:010070e0 00                               0x00 
                          .reloc:010070e1 20                               0x20 ' '
                          .reloc:010070e2 00                               0x00 
                          .reloc:010070e3 00                               0x00 
                          .reloc:010070e4 84                               0x84 
                          .reloc:010070e5 01                               0x01 
                          .reloc:010070e6 00                               0x00 
                          .reloc:010070e7 00                               0x00 
                          .reloc:010070e8 01                               0x01 
                          .reloc:010070e9 30                               0x30 '0'
                          .reloc:010070ea 13                               0x13 
                          .reloc:010070eb 30                               0x30 '0'
                          .reloc:010070ec 1b                               0x1b 
                          .reloc:010070ed 30                               0x30 '0'
                          .reloc:010070ee 38                               0x38 '8'
                          .reloc:010070ef 30                               0x30 '0'
                          .reloc:010070f0 75                               0x75 'u'
                          .reloc:010070f1 30                               0x30 '0'
                          .reloc:010070f2 82                               0x82 
                          .reloc:010070f3 30                               0x30 '0'
                          .reloc:010070f4 9f                               0x9f 
                          .reloc:010070f5 30                               0x30 '0'
                          .reloc:010070f6 c3                               0xc3 
                          .reloc:010070f7 30                               0x30 '0'
                          .reloc:010070f8 e4                               0xe4 
                          .reloc:010070f9 30                               0x30 '0'
                          .reloc:010070fa 05                               0x05 
                          .reloc:010070fb 31                               0x31 '1'
                          .reloc:010070fc 1c                               0x1c 
                          .reloc:010070fd 31                               0x31 '1'
                          .reloc:010070fe af                               0xaf 
                          .reloc:010070ff 31                               0x31 '1'
                          .reloc:01007100 c1                               0xc1 
                          .reloc:01007101 31                               0x31 '1'
                          .reloc:01007102 d0                               0xd0 
                          .reloc:01007103 31                               0x31 '1'
                          .reloc:01007104 f2                               0xf2 
                          .reloc:01007105 31                               0x31 '1'
                          .reloc:01007106 17                               0x17 
                          .reloc:01007107 32                               0x32 '2'
                          .reloc:01007108 2f                               0x2f '/'
                          .reloc:01007109 32                               0x32 '2'
                          .reloc:0100710a 41                               0x41 'A'
                          .reloc:0100710b 32                               0x32 '2'
                          .reloc:0100710c 49                               0x49 'I'
                          .reloc:0100710d 32                               0x32 '2'
                          .reloc:0100710e 66                               0x66 'f'
                          .reloc:0100710f 32                               0x32 '2'
                          .reloc:01007110 7a                               0x7a 'z'
                          .reloc:01007111 32                               0x32 '2'
                          .reloc:01007112 a9                               0xa9 
                          .reloc:01007113 32                               0x32 '2'
                          .reloc:01007114 da                               0xda 
                          .reloc:01007115 32                               0x32 '2'
                          .reloc:01007116 de                               0xde 
                          .reloc:01007117 32                               0x32 '2'
                          .reloc:01007118 e2                               0xe2 
                          .reloc:01007119 32                               0x32 '2'
                          .reloc:0100711a e6                               0xe6 
                          .reloc:0100711b 32                               0x32 '2'
                          .reloc:0100711c ea                               0xea 
                          .reloc:0100711d 32                               0x32 '2'
                          .reloc:0100711e ee                               0xee 
                          .reloc:0100711f 32                               0x32 '2'
                          .reloc:01007120 f2                               0xf2 
                          .reloc:01007121 32                               0x32 '2'
                          .reloc:01007122 f6                               0xf6 
                          .reloc:01007123 32                               0x32 '2'
                          .reloc:01007124 fa                               0xfa 
                          .reloc:01007125 32                               0x32 '2'
                          .reloc:01007126 fe                               0xfe 
                          .reloc:01007127 32                               0x32 '2'
                          .reloc:01007128 17                               0x17 
                          .reloc:01007129 33                               0x33 '3'
                          .reloc:0100712a 2f                               0x2f '/'
                          .reloc:0100712b 33                               0x33 '3'
                          .reloc:0100712c 35                               0x35 '5'
                          .reloc:0100712d 33                               0x33 '3'
                          .reloc:0100712e 58                               0x58 'X'
                          .reloc:0100712f 33                               0x33 '3'
                          .reloc:01007130 86                               0x86 
                          .reloc:01007131 33                               0x33 '3'
                          .reloc:01007132 b8                               0xb8 
                          .reloc:01007133 33                               0x33 '3'
                          .reloc:01007134 c6                               0xc6 
                          .reloc:01007135 33                               0x33 '3'
                          .reloc:01007136 cb                               0xcb 
                          .reloc:01007137 33                               0x33 '3'
                          .reloc:01007138 e1                               0xe1 
                          .reloc:01007139 33                               0x33 '3'
                          .reloc:0100713a e6                               0xe6 
                          .reloc:0100713b 33                               0x33 '3'
                          .reloc:0100713c fb                               0xfb 
                          .reloc:0100713d 33                               0x33 '3'
                          .reloc:0100713e 10                               0x10 
                          .reloc:0100713f 34                               0x34 '4'
                          .reloc:01007140 25                               0x25 '%'
                          .reloc:01007141 34                               0x34 '4'
                          .reloc:01007142 3a                               0x3a ':'
                          .reloc:01007143 34                               0x34 '4'
                          .reloc:01007144 4f                               0x4f 'O'
                          .reloc:01007145 34                               0x34 '4'
                          .reloc:01007146 64                               0x64 'd'
                          .reloc:01007147 34                               0x34 '4'
                          .reloc:01007148 79                               0x79 'y'
                          .reloc:01007149 34                               0x34 '4'
                          .reloc:0100714a 94                               0x94 
                          .reloc:0100714b 34                               0x34 '4'
                          .reloc:0100714c 9a                               0x9a 
                          .reloc:0100714d 34                               0x34 '4'
                          .reloc:0100714e 5a                               0x5a 'Z'
                          .reloc:0100714f 35                               0x35 '5'
                          .reloc:01007150 72                               0x72 'r'
                          .reloc:01007151 35                               0x35 '5'
                          .reloc:01007152 8b                               0x8b 
                          .reloc:01007153 35                               0x35 '5'
                          .reloc:01007154 95                               0x95 
                          .reloc:01007155 35                               0x35 '5'
                          .reloc:01007156 07                               0x07 
                          .reloc:01007157 36                               0x36 '6'
                          .reloc:01007158 0d                               0x0d ''
                          .reloc:01007159 36                               0x36 '6'
                          .reloc:0100715a 13                               0x13 
                          .reloc:0100715b 36                               0x36 '6'
                          .reloc:0100715c 3d                               0x3d '='
                          .reloc:0100715d 36                               0x36 '6'
                          .reloc:0100715e 61                               0x61 'a'
                          .reloc:0100715f 36                               0x36 '6'
                          .reloc:01007160 82                               0x82 
                          .reloc:01007161 36                               0x36 '6'
                          .reloc:01007162 8b                               0x8b 
                          .reloc:01007163 36                               0x36 '6'
                          .reloc:01007164 94                               0x94 
                          .reloc:01007165 36                               0x36 '6'
                          .reloc:01007166 d3                               0xd3 
                          .reloc:01007167 36                               0x36 '6'
                          .reloc:01007168 fc                               0xfc 
                          .reloc:01007169 36                               0x36 '6'
                          .reloc:0100716a 02                               0x02 
                          .reloc:0100716b 37                               0x37 '7'
                          .reloc:0100716c 64                               0x64 'd'
                          .reloc:0100716d 37                               0x37 '7'
                          .reloc:0100716e 8d                               0x8d 
                          .reloc:0100716f 37                               0x37 '7'
                          .reloc:01007170 93                               0x93 
                          .reloc:01007171 37                               0x37 '7'
                          .reloc:01007172 bb                               0xbb 
                          .reloc:01007173 37                               0x37 '7'
                          .reloc:01007174 d4                               0xd4 
                          .reloc:01007175 37                               0x37 '7'
                          .reloc:01007176 e0                               0xe0 
                          .reloc:01007177 37                               0x37 '7'
                          .reloc:01007178 23                               0x23 '#'
                          .reloc:01007179 38                               0x38 '8'
                          .reloc:0100717a 4b                               0x4b 'K'
                          .reloc:0100717b 38                               0x38 '8'
                          .reloc:0100717c 70                               0x70 'p'
                          .reloc:0100717d 38                               0x38 '8'
                          .reloc:0100717e ba                               0xba 
                          .reloc:0100717f 38                               0x38 '8'
                          .reloc:01007180 c0                               0xc0 
                          .reloc:01007181 38                               0x38 '8'
                          .reloc:01007182 34                               0x34 '4'
                          .reloc:01007183 39                               0x39 '9'
                          .reloc:01007184 3c                               0x3c '<'
                          .reloc:01007185 39                               0x39 '9'
                          .reloc:01007186 74                               0x74 't'
                          .reloc:01007187 39                               0x39 '9'
                          .reloc:01007188 8b                               0x8b 
                          .reloc:01007189 39                               0x39 '9'
                          .reloc:0100718a 97                               0x97 
                          .reloc:0100718b 39                               0x39 '9'
                          .reloc:0100718c d6                               0xd6 
                          .reloc:0100718d 39                               0x39 '9'
                          .reloc:0100718e e2                               0xe2 
                          .reloc:0100718f 39                               0x39 '9'
                          .reloc:01007190 1b                               0x1b 
                          .reloc:01007191 3a                               0x3a ':'
                          .reloc:01007192 50                               0x50 'P'
                          .reloc:01007193 3a                               0x3a ':'
                          .reloc:01007194 6d                               0x6d 'm'
                          .reloc:01007195 3a                               0x3a ':'
                          .reloc:01007196 81                               0x81 
                          .reloc:01007197 3a                               0x3a ':'
                          .reloc:01007198 8a                               0x8a 
                          .reloc:01007199 3a                               0x3a ':'
                          .reloc:0100719a 96                               0x96 
                          .reloc:0100719b 3a                               0x3a ':'
                          .reloc:0100719c f6                               0xf6 
                          .reloc:0100719d 3a                               0x3a ':'
                          .reloc:0100719e fc                               0xfc 
                          .reloc:0100719f 3a                               0x3a ':'
                          .reloc:010071a0 02                               0x02 
                          .reloc:010071a1 3b                               0x3b ';'
                          .reloc:010071a2 08                               0x08 
                          .reloc:010071a3 3b                               0x3b ';'
                          .reloc:010071a4 0e                               0x0e 
                          .reloc:010071a5 3b                               0x3b ';'
                          .reloc:010071a6 14                               0x14 
                          .reloc:010071a7 3b                               0x3b ';'
                          .reloc:010071a8 1b                               0x1b 
                          .reloc:010071a9 3b                               0x3b ';'
                          .reloc:010071aa 22                               0x22 '"'
                          .reloc:010071ab 3b                               0x3b ';'
                          .reloc:010071ac 29                               0x29 ')'
                          .reloc:010071ad 3b                               0x3b ';'
                          .reloc:010071ae 30                               0x30 '0'
                          .reloc:010071af 3b                               0x3b ';'
                          .reloc:010071b0 37                               0x37 '7'
                          .reloc:010071b1 3b                               0x3b ';'
                          .reloc:010071b2 3e                               0x3e '>'
                          .reloc:010071b3 3b                               0x3b ';'
                          .reloc:010071b4 45                               0x45 'E'
                          .reloc:010071b5 3b                               0x3b ';'
                          .reloc:010071b6 4d                               0x4d 'M'
                          .reloc:010071b7 3b                               0x3b ';'
                          .reloc:010071b8 55                               0x55 'U'
                          .reloc:010071b9 3b                               0x3b ';'
                          .reloc:010071ba 5d                               0x5d ']'
                          .reloc:010071bb 3b                               0x3b ';'
                          .reloc:010071bc 62                               0x62 'b'
                          .reloc:010071bd 3b                               0x3b ';'
                          .reloc:010071be 67                               0x67 'g'
                          .reloc:010071bf 3b                               0x3b ';'
                          .reloc:010071c0 6c                               0x6c 'l'
                          .reloc:010071c1 3b                               0x3b ';'
                          .reloc:010071c2 72                               0x72 'r'
                          .reloc:010071c3 3b                               0x3b ';'
                          .reloc:010071c4 7c                               0x7c '|'
                          .reloc:010071c5 3b                               0x3b ';'
                          .reloc:010071c6 86                               0x86 
                          .reloc:010071c7 3b                               0x3b ';'
                          .reloc:010071c8 92                               0x92 
                          .reloc:010071c9 3b                               0x3b ';'
                          .reloc:010071ca 97                               0x97 
                          .reloc:010071cb 3b                               0x3b ';'
                          .reloc:010071cc 0c                               0x0c ''
                          .reloc:010071cd 3c                               0x3c '<'
                          .reloc:010071ce 1c                               0x1c 
                          .reloc:010071cf 3c                               0x3c '<'
                          .reloc:010071d0 26                               0x26 '&'
                          .reloc:010071d1 3c                               0x3c '<'
                          .reloc:010071d2 2e                               0x2e '.'
                          .reloc:010071d3 3c                               0x3c '<'
                          .reloc:010071d4 3a                               0x3a ':'
                          .reloc:010071d5 3c                               0x3c '<'
                          .reloc:010071d6 50                               0x50 'P'
                          .reloc:010071d7 3c                               0x3c '<'
                          .reloc:010071d8 5c                               0x5c '\'
                          .reloc:010071d9 3c                               0x3c '<'
                          .reloc:010071da 68                               0x68 'h'
                          .reloc:010071db 3c                               0x3c '<'
                          .reloc:010071dc 74                               0x74 't'
                          .reloc:010071dd 3c                               0x3c '<'
                          .reloc:010071de 80                               0x80 
                          .reloc:010071df 3c                               0x3c '<'
                          .reloc:010071e0 8c                               0x8c 
                          .reloc:010071e1 3c                               0x3c '<'
                          .reloc:010071e2 98                               0x98 
                          .reloc:010071e3 3c                               0x3c '<'
                          .reloc:010071e4 a4                               0xa4 
                          .reloc:010071e5 3c                               0x3c '<'
                          .reloc:010071e6 b0                               0xb0 
                          .reloc:010071e7 3c                               0x3c '<'
                          .reloc:010071e8 bc                               0xbc 
                          .reloc:010071e9 3c                               0x3c '<'
                          .reloc:010071ea c8                               0xc8 
                          .reloc:010071eb 3c                               0x3c '<'
                          .reloc:010071ec d4                               0xd4 
                          .reloc:010071ed 3c                               0x3c '<'
                          .reloc:010071ee e0                               0xe0 
                          .reloc:010071ef 3c                               0x3c '<'
                          .reloc:010071f0 ec                               0xec 
                          .reloc:010071f1 3c                               0x3c '<'
                          .reloc:010071f2 f8                               0xf8 
                          .reloc:010071f3 3c                               0x3c '<'
                          .reloc:010071f4 2b                               0x2b '+'
                          .reloc:010071f5 3d                               0x3d '='
                          .reloc:010071f6 30                               0x30 '0'
                          .reloc:010071f7 3d                               0x3d '='
                          .reloc:010071f8 36                               0x36 '6'
                          .reloc:010071f9 3d                               0x3d '='
                          .reloc:010071fa 3b                               0x3b ';'
                          .reloc:010071fb 3d                               0x3d '='
                          .reloc:010071fc 40                               0x40 '@'
                          .reloc:010071fd 3d                               0x3d '='
                          .reloc:010071fe 45                               0x45 'E'
                          .reloc:010071ff 3d                               0x3d '='
                          .reloc:01007200 4a                               0x4a 'J'
                          .reloc:01007201 3d                               0x3d '='
                          .reloc:01007202 50                               0x50 'P'
                          .reloc:01007203 3d                               0x3d '='
                          .reloc:01007204 58                               0x58 'X'
                          .reloc:01007205 3d                               0x3d '='
                          .reloc:01007206 65                               0x65 'e'
                          .reloc:01007207 3d                               0x3d '='
                          .reloc:01007208 80                               0x80 
                          .reloc:01007209 3d                               0x3d '='
                          .reloc:0100720a 89                               0x89 
                          .reloc:0100720b 3d                               0x3d '='
                          .reloc:0100720c a4                               0xa4 
                          .reloc:0100720d 3d                               0x3d '='
                          .reloc:0100720e ae                               0xae 
                          .reloc:0100720f 3d                               0x3d '='
                          .reloc:01007210 c1                               0xc1 
                          .reloc:01007211 3d                               0x3d '='
                          .reloc:01007212 cb                               0xcb 
                          .reloc:01007213 3d                               0x3d '='
                          .reloc:01007214 d0                               0xd0 
                          .reloc:01007215 3d                               0x3d '='
                          .reloc:01007216 d5                               0xd5 
                          .reloc:01007217 3d                               0x3d '='
                          .reloc:01007218 f7                               0xf7 
                          .reloc:01007219 3d                               0x3d '='
                          .reloc:0100721a fc                               0xfc 
                          .reloc:0100721b 3d                               0x3d '='
                          .reloc:0100721c 05                               0x05 
                          .reloc:0100721d 3e                               0x3e '>'
                          .reloc:0100721e 0a                               0x0a '
'
                          .reloc:0100721f 3e                               0x3e '>'
                          .reloc:01007220 17                               0x17 
                          .reloc:01007221 3e                               0x3e '>'
                          .reloc:01007222 28                               0x28 '('
                          .reloc:01007223 3e                               0x3e '>'
                          .reloc:01007224 2e                               0x2e '.'
                          .reloc:01007225 3e                               0x3e '>'
                          .reloc:01007226 35                               0x35 '5'
                          .reloc:01007227 3e                               0x3e '>'
                          .reloc:01007228 49                               0x49 'I'
                          .reloc:01007229 3e                               0x3e '>'
                          .reloc:0100722a 4f                               0x4f 'O'
                          .reloc:0100722b 3e                               0x3e '>'
                          .reloc:0100722c 55                               0x55 'U'
                          .reloc:0100722d 3e                               0x3e '>'
                          .reloc:0100722e 5b                               0x5b '['
                          .reloc:0100722f 3e                               0x3e '>'
                          .reloc:01007230 68                               0x68 'h'
                          .reloc:01007231 3e                               0x3e '>'
                          .reloc:01007232 6e                               0x6e 'n'
                          .reloc:01007233 3e                               0x3e '>'
                          .reloc:01007234 77                               0x77 'w'
                          .reloc:01007235 3e                               0x3e '>'
                          .reloc:01007236 96                               0x96 
                          .reloc:01007237 3e                               0x3e '>'
                          .reloc:01007238 9e                               0x9e 
                          .reloc:01007239 3e                               0x3e '>'
                          .reloc:0100723a a7                               0xa7 
                          .reloc:0100723b 3e                               0x3e '>'
                          .reloc:0100723c ad                               0xad 
                          .reloc:0100723d 3e                               0x3e '>'
                          .reloc:0100723e b5                               0xb5 
                          .reloc:0100723f 3e                               0x3e '>'
                          .reloc:01007240 c1                               0xc1 
                          .reloc:01007241 3e                               0x3e '>'
                          .reloc:01007242 d8                               0xd8 
                          .reloc:01007243 3e                               0x3e '>'
                          .reloc:01007244 e3                               0xe3 
                          .reloc:01007245 3e                               0x3e '>'
                          .reloc:01007246 e9                               0xe9 
                          .reloc:01007247 3e                               0x3e '>'
                          .reloc:01007248 32                               0x32 '2'
                          .reloc:01007249 3f                               0x3f '?'
                          .reloc:0100724a 3e                               0x3e '>'
                          .reloc:0100724b 3f                               0x3f '?'
                          .reloc:0100724c 44                               0x44 'D'
                          .reloc:0100724d 3f                               0x3f '?'
                          .reloc:0100724e 4b                               0x4b 'K'
                          .reloc:0100724f 3f                               0x3f '?'
                          .reloc:01007250 54                               0x54 'T'
                          .reloc:01007251 3f                               0x3f '?'
                          .reloc:01007252 5a                               0x5a 'Z'
                          .reloc:01007253 3f                               0x3f '?'
                          .reloc:01007254 62                               0x62 'b'
                          .reloc:01007255 3f                               0x3f '?'
                          .reloc:01007256 68                               0x68 'h'
                          .reloc:01007257 3f                               0x3f '?'
                          .reloc:01007258 75                               0x75 'u'
                          .reloc:01007259 3f                               0x3f '?'
                          .reloc:0100725a 7d                               0x7d '}'
                          .reloc:0100725b 3f                               0x3f '?'
                          .reloc:0100725c 83                               0x83 
                          .reloc:0100725d 3f                               0x3f '?'
                          .reloc:0100725e dd                               0xdd 
                          .reloc:0100725f 3f                               0x3f '?'
                          .reloc:01007260 ed                               0xed 
                          .reloc:01007261 3f                               0x3f '?'
                          .reloc:01007262 f3                               0xf3 
                          .reloc:01007263 3f                               0x3f '?'
                          .reloc:01007264 00                               0x00 
                          .reloc:01007265 30                               0x30 '0'
                          .reloc:01007266 00                               0x00 
                          .reloc:01007267 00                               0x00 
                          .reloc:01007268 30                               0x30 '0'
                          .reloc:01007269 00                               0x00 
                          .reloc:0100726a 00                               0x00 
                          .reloc:0100726b 00                               0x00 
                          .reloc:0100726c 02                               0x02 
                          .reloc:0100726d 30                               0x30 '0'
                          .reloc:0100726e 9c                               0x9c 
                          .reloc:0100726f 30                               0x30 '0'
                          .reloc:01007270 aa                               0xaa 
                          .reloc:01007271 30                               0x30 '0'
                          .reloc:01007272 0c                               0x0c ''
                          .reloc:01007273 31                               0x31 '1'
                          .reloc:01007274 18                               0x18 
                          .reloc:01007275 31                               0x31 '1'
                          .reloc:01007276 25                               0x25 '%'
                          .reloc:01007277 31                               0x31 '1'
                          .reloc:01007278 42                               0x42 'B'
                          .reloc:01007279 31                               0x31 '1'
                          .reloc:0100727a 94                               0x94 
                          .reloc:0100727b 31                               0x31 '1'
                          .reloc:0100727c 99                               0x99 
                          .reloc:0100727d 31                               0x31 '1'
                          .reloc:0100727e b8                               0xb8 
                          .reloc:0100727f 31                               0x31 '1'
                          .reloc:01007280 cf                               0xcf 
                          .reloc:01007281 31                               0x31 '1'
                          .reloc:01007282 3b                               0x3b ';'
                          .reloc:01007283 32                               0x32 '2'
                          .reloc:01007284 74                               0x74 't'
                          .reloc:01007285 32                               0x32 '2'
                          .reloc:01007286 8c                               0x8c 
                          .reloc:01007287 32                               0x32 '2'
                          .reloc:01007288 90                               0x90 
                          .reloc:01007289 32                               0x32 '2'
                          .reloc:0100728a ac                               0xac 
                          .reloc:0100728b 32                               0x32 '2'
                          .reloc:0100728c b0                               0xb0 
                          .reloc:0100728d 32                               0x32 '2'
                          .reloc:0100728e cc                               0xcc 
                          .reloc:0100728f 32                               0x32 '2'
                          .reloc:01007290 d0                               0xd0 
                          .reloc:01007291 32                               0x32 '2'
                          .reloc:01007292 00                               0x00 
                          .reloc:01007293 00                               0x00 
                          .reloc:01007294 00                               0x00 
                          .reloc:01007295 00                               0x00 
                          .reloc:01007296 00                               0x00 
                          .reloc:01007297 00                               0x00 
                          .reloc:01007298 00                               0x00 
                          .reloc:01007299 00                               0x00 
                          .reloc:0100729a 00                               0x00 
                          .reloc:0100729b 00                               0x00 
                          .reloc:0100729c 00                               0x00 
                          .reloc:0100729d 00                               0x00 
                          .reloc:0100729e 00                               0x00 
                          .reloc:0100729f 00                               0x00 
                          .reloc:010072a0 00                               0x00 
                          .reloc:010072a1 00                               0x00 
                          .reloc:010072a2 00                               0x00 
                          .reloc:010072a3 00                               0x00 
                          .reloc:010072a4 00                               0x00 
                          .reloc:010072a5 00                               0x00 
                          .reloc:010072a6 00                               0x00 
                          .reloc:010072a7 00                               0x00 
                          .reloc:010072a8 00                               0x00 
                          .reloc:010072a9 00                               0x00 
                          .reloc:010072aa 00                               0x00 
                          .reloc:010072ab 00                               0x00 
                          .reloc:010072ac 00                               0x00 
                          .reloc:010072ad 00                               0x00 
                          .reloc:010072ae 00                               0x00 
                          .reloc:010072af 00                               0x00 
                          .reloc:010072b0 00                               0x00 
                          .reloc:010072b1 00                               0x00 
                          .reloc:010072b2 00                               0x00 
                          .reloc:010072b3 00                               0x00 
                          .reloc:010072b4 00                               0x00 
                          .reloc:010072b5 00                               0x00 
                          .reloc:010072b6 00                               0x00 
                          .reloc:010072b7 00                               0x00 
                          .reloc:010072b8 00                               0x00 
                          .reloc:010072b9 00                               0x00 
                          .reloc:010072ba 00                               0x00 
                          .reloc:010072bb 00                               0x00 
                          .reloc:010072bc 00                               0x00 
                          .reloc:010072bd 00                               0x00 
                          .reloc:010072be 00                               0x00 
                          .reloc:010072bf 00                               0x00 
                          .reloc:010072c0 00                               0x00 
                          .reloc:010072c1 00                               0x00 
                          .reloc:010072c2 00                               0x00 
                          .reloc:010072c3 00                               0x00 
                          .reloc:010072c4 00                               0x00 
                          .reloc:010072c5 00                               0x00 
                          .reloc:010072c6 00                               0x00 
                          .reloc:010072c7 00                               0x00 
                          .reloc:010072c8 00                               0x00 
                          .reloc:010072c9 00                               0x00 
                          .reloc:010072ca 00                               0x00 
                          .reloc:010072cb 00                               0x00 
                          .reloc:010072cc 00                               0x00 
                          .reloc:010072cd 00                               0x00 
                          .reloc:010072ce 00                               0x00 
                          .reloc:010072cf 00                               0x00 
                          .reloc:010072d0 00                               0x00 
                          .reloc:010072d1 00                               0x00 
                          .reloc:010072d2 00                               0x00 
                          .reloc:010072d3 00                               0x00 
                          .reloc:010072d4 00                               0x00 
                          .reloc:010072d5 00                               0x00 
                          .reloc:010072d6 00                               0x00 
                          .reloc:010072d7 00                               0x00 
                          .reloc:010072d8 00                               0x00 
                          .reloc:010072d9 00                               0x00 
                          .reloc:010072da 00                               0x00 
                          .reloc:010072db 00                               0x00 
                          .reloc:010072dc 00                               0x00 
                          .reloc:010072dd 00                               0x00 
                          .reloc:010072de 00                               0x00 
                          .reloc:010072df 00                               0x00 
                          .reloc:010072e0 00                               0x00 
                          .reloc:010072e1 00                               0x00 
                          .reloc:010072e2 00                               0x00 
                          .reloc:010072e3 00                               0x00 
                          .reloc:010072e4 00                               0x00 
                          .reloc:010072e5 00                               0x00 
                          .reloc:010072e6 00                               0x00 
                          .reloc:010072e7 00                               0x00 
                          .reloc:010072e8 00                               0x00 
                          .reloc:010072e9 00                               0x00 
                          .reloc:010072ea 00                               0x00 
                          .reloc:010072eb 00                               0x00 
                          .reloc:010072ec 00                               0x00 
                          .reloc:010072ed 00                               0x00 
                          .reloc:010072ee 00                               0x00 
                          .reloc:010072ef 00                               0x00 
                          .reloc:010072f0 00                               0x00 
                          .reloc:010072f1 00                               0x00 
                          .reloc:010072f2 00                               0x00 
                          .reloc:010072f3 00                               0x00 
                          .reloc:010072f4 00                               0x00 
                          .reloc:010072f5 00                               0x00 
                          .reloc:010072f6 00                               0x00 
                          .reloc:010072f7 00                               0x00 
                          .reloc:010072f8 00                               0x00 
                          .reloc:010072f9 00                               0x00 
                          .reloc:010072fa 00                               0x00 
                          .reloc:010072fb 00                               0x00 
                          .reloc:010072fc 00                               0x00 
                          .reloc:010072fd 00                               0x00 
                          .reloc:010072fe 00                               0x00 
                          .reloc:010072ff 00                               0x00 
                          .reloc:01007300 00                               0x00 
                          .reloc:01007301 00                               0x00 
                          .reloc:01007302 00                               0x00 
                          .reloc:01007303 00                               0x00 
                          .reloc:01007304 00                               0x00 
                          .reloc:01007305 00                               0x00 
                          .reloc:01007306 00                               0x00 
                          .reloc:01007307 00                               0x00 
                          .reloc:01007308 00                               0x00 
                          .reloc:01007309 00                               0x00 
                          .reloc:0100730a 00                               0x00 
                          .reloc:0100730b 00                               0x00 
                          .reloc:0100730c 00                               0x00 
                          .reloc:0100730d 00                               0x00 
                          .reloc:0100730e 00                               0x00 
                          .reloc:0100730f 00                               0x00 
                          .reloc:01007310 00                               0x00 
                          .reloc:01007311 00                               0x00 
                          .reloc:01007312 00                               0x00 
                          .reloc:01007313 00                               0x00 
                          .reloc:01007314 00                               0x00 
                          .reloc:01007315 00                               0x00 
                          .reloc:01007316 00                               0x00 
                          .reloc:01007317 00                               0x00 
                          .reloc:01007318 00                               0x00 
                          .reloc:01007319 00                               0x00 
                          .reloc:0100731a 00                               0x00 
                          .reloc:0100731b 00                               0x00 
                          .reloc:0100731c 00                               0x00 
                          .reloc:0100731d 00                               0x00 
                          .reloc:0100731e 00                               0x00 
                          .reloc:0100731f 00                               0x00 
                          .reloc:01007320 00                               0x00 
                          .reloc:01007321 00                               0x00 
                          .reloc:01007322 00                               0x00 
                          .reloc:01007323 00                               0x00 
                          .reloc:01007324 00                               0x00 
                          .reloc:01007325 00                               0x00 
                          .reloc:01007326 00                               0x00 
                          .reloc:01007327 00                               0x00 
                          .reloc:01007328 00                               0x00 
                          .reloc:01007329 00                               0x00 
                          .reloc:0100732a 00                               0x00 
                          .reloc:0100732b 00                               0x00 
                          .reloc:0100732c 00                               0x00 
                          .reloc:0100732d 00                               0x00 
                          .reloc:0100732e 00                               0x00 
                          .reloc:0100732f 00                               0x00 
                          .reloc:01007330 00                               0x00 
                          .reloc:01007331 00                               0x00 
                          .reloc:01007332 00                               0x00 
                          .reloc:01007333 00                               0x00 
                          .reloc:01007334 00                               0x00 
                          .reloc:01007335 00                               0x00 
                          .reloc:01007336 00                               0x00 
                          .reloc:01007337 00                               0x00 
                          .reloc:01007338 00                               0x00 
                          .reloc:01007339 00                               0x00 
                          .reloc:0100733a 00                               0x00 
                          .reloc:0100733b 00                               0x00 
                          .reloc:0100733c 00                               0x00 
                          .reloc:0100733d 00                               0x00 
                          .reloc:0100733e 00                               0x00 
                          .reloc:0100733f 00                               0x00 
                          .reloc:01007340 00                               0x00 
                          .reloc:01007341 00                               0x00 
                          .reloc:01007342 00                               0x00 
                          .reloc:01007343 00                               0x00 
                          .reloc:01007344 00                               0x00 
                          .reloc:01007345 00                               0x00 
                          .reloc:01007346 00                               0x00 
                          .reloc:01007347 00                               0x00 
                          .reloc:01007348 00                               0x00 
                          .reloc:01007349 00                               0x00 
                          .reloc:0100734a 00                               0x00 
                          .reloc:0100734b 00                               0x00 
                          .reloc:0100734c 00                               0x00 
                          .reloc:0100734d 00                               0x00 
                          .reloc:0100734e 00                               0x00 
                          .reloc:0100734f 00                               0x00 
                          .reloc:01007350 00                               0x00 
                          .reloc:01007351 00                               0x00 
                          .reloc:01007352 00                               0x00 
                          .reloc:01007353 00                               0x00 
                          .reloc:01007354 00                               0x00 
                          .reloc:01007355 00                               0x00 
                          .reloc:01007356 00                               0x00 
                          .reloc:01007357 00                               0x00 
                          .reloc:01007358 00                               0x00 
                          .reloc:01007359 00                               0x00 
                          .reloc:0100735a 00                               0x00 
                          .reloc:0100735b 00                               0x00 
                          .reloc:0100735c 00                               0x00 
                          .reloc:0100735d 00                               0x00 
                          .reloc:0100735e 00                               0x00 
                          .reloc:0100735f 00                               0x00 
                          .reloc:01007360 00                               0x00 
                          .reloc:01007361 00                               0x00 
                          .reloc:01007362 00                               0x00 
                          .reloc:01007363 00                               0x00 
                          .reloc:01007364 00                               0x00 
                          .reloc:01007365 00                               0x00 
                          .reloc:01007366 00                               0x00 
                          .reloc:01007367 00                               0x00 
                          .reloc:01007368 00                               0x00 
                          .reloc:01007369 00                               0x00 
                          .reloc:0100736a 00                               0x00 
                          .reloc:0100736b 00                               0x00 
                          .reloc:0100736c 00                               0x00 
                          .reloc:0100736d 00                               0x00 
                          .reloc:0100736e 00                               0x00 
                          .reloc:0100736f 00                               0x00 
                          .reloc:01007370 00                               0x00 
                          .reloc:01007371 00                               0x00 
                          .reloc:01007372 00                               0x00 
                          .reloc:01007373 00                               0x00 
                          .reloc:01007374 00                               0x00 
                          .reloc:01007375 00                               0x00 
                          .reloc:01007376 00                               0x00 
                          .reloc:01007377 00                               0x00 
                          .reloc:01007378 00                               0x00 
                          .reloc:01007379 00                               0x00 
                          .reloc:0100737a 00                               0x00 
                          .reloc:0100737b 00                               0x00 
                          .reloc:0100737c 00                               0x00 
                          .reloc:0100737d 00                               0x00 
                          .reloc:0100737e 00                               0x00 
                          .reloc:0100737f 00                               0x00 
                          .reloc:01007380 00                               0x00 
                          .reloc:01007381 00                               0x00 
                          .reloc:01007382 00                               0x00 
                          .reloc:01007383 00                               0x00 
                          .reloc:01007384 00                               0x00 
                          .reloc:01007385 00                               0x00 
                          .reloc:01007386 00                               0x00 
                          .reloc:01007387 00                               0x00 
                          .reloc:01007388 00                               0x00 
                          .reloc:01007389 00                               0x00 
                          .reloc:0100738a 00                               0x00 
                          .reloc:0100738b 00                               0x00 
                          .reloc:0100738c 00                               0x00 
                          .reloc:0100738d 00                               0x00 
