                           .text:01001000 f4                               hlt    
                           .text:01001001 b7 c7                            mov    $0xc7,%bh
                           .text:01001003 77 dc                            ja     0x01000fe1
                           .text:01001005 b7 c7                            mov    $0xc7,%bh
                           .text:01001007 77 f4                            ja     0x01000ffd
                           .text:01001009 e4 c6                            in     $0xc6,%al
                           .text:0100100b 77 00                            ja     0x0100100d
                           .text:0100100d 00 00                            add    %al,(%eax)
                           .text:0100100f 00 e7                            add    %ah,%bh
                           .text:01001011 22 ca                            and    %dl,%cl
                           .text:01001013 40                               inc    %eax
                           .text:01001014 7a 5f                            jp     0x01001075
                           .text:01001016 c9                               leave  
                           .text:01001017 40                               inc    %eax
                           .text:01001018 7d e2                            jge    0x01000ffc
                           .text:0100101a c9                               leave  
                           .text:0100101b 40                               inc    %eax
                           .text:0100101c 16                               push   %ss
                           .text:0100101d 07                               pop    %es
                           .text:0100101e ca 40 51                         lret   $0x5140
                           .text:01001021 eb c9                            jmp    0x01000fec
                           .text:01001023 40                               inc    %eax
                           .text:01001024 00 00                            add    %al,(%eax)
                           .text:01001026 00 00                            add    %al,(%eax)
                           .text:01001028 76 f1                            jbe    0x0100101b
                           .text:0100102a e2 77                            loop   0x010010a3
                           .text:0100102c 64 28 e3                         fs sub %ah,%bl
                           .text:0100102f 77 37                            ja     0x01001068
                           .text:01001031 18 e3                            sbb    %ah,%bl
                           .text:01001033 77 84                            ja     0x01000fb9
                           .text:01001035 2e e3 77                         jecxz,pn 0x010010af
                           .text:01001038 b6 18                            mov    $0x18,%dh
                           .text:0100103a e2 77                            loop   0x010010b3
                           .text:0100103c f4                               hlt    
                           .text:0100103d c5 e2 77                         (bad)  
                           .text:01001040 35 2b e4 77 0c                   xor    $0xc77e42b,%eax
                           .text:01001045 06                               push   %es
                           .text:01001046 e3 77                            jecxz  0x010010bf
                           .text:01001048 9b                               fwait
                           .text:01001049 50                               push   %eax
                           .text:0100104a e2 77                            loop   0x010010c3
                           .text:0100104c 44                               inc    %esp
                           .text:0100104d fe                               (bad)  
                           .text:0100104e e2 77                            loop   0x010010c7
                           .text:01001050 23 0d e3 77 12 f2                and    0xf21277e3,%ecx
                           .text:01001056 e2 77                            loop   0x010010cf
                           .text:01001058 76 ef                            jbe    0x01001049
                           .text:0100105a e2 77                            loop   0x010010d3
                           .text:0100105c a7                               cmpsl  %es:(%edi),%ds:(%esi)
                           .text:0100105d f2 e2 77                         repnz loop 0x010010d7
                           .text:01001060 d7                               xlat   %ds:(%ebx)
                           .text:01001061 28 e3                            sub    %ah,%bl
                           .text:01001063 77 42                            ja     0x010010a7
                           .text:01001065 31 e3                            xor    %esp,%ebx
                           .text:01001067 77 3c                            ja     0x010010a5
                           .text:01001069 f2 e2 77                         repnz loop 0x010010e3
                           .text:0100106c 66 ef                            out    %ax,(%dx)
                           .text:0100106e e2 77                            loop   0x010010e7
                           .text:01001070 5e                               pop    %esi
                           .text:01001071 f2 e2 77                         repnz loop 0x010010eb
                           .text:01001074 1a c4                            sbb    %ah,%al
                           .text:01001076 e3 77                            jecxz  0x010010ef
                           .text:01001078 5c                               pop    %esp
                           .text:01001079 b6 e2                            mov    $0xe2,%dh
                           .text:0100107b 77 7c                            ja     0x010010f9
                           .text:0100107d 05 e3 77 00 00                   add    $0x77e3,%eax
                           .text:01001082 00 00                            add    %al,(%eax)
                           .text:01001084 7f f1                            jg     0x01001077
                           .text:01001086 d6                               (bad)  
                           .text:01001087 77 00                            ja     0x01001089
                           .text:01001089 00 00                            add    %al,(%eax)
                           .text:0100108b 00 fb                            add    %bh,%bl
                           .text:0100108d c0 ac 41 77 2f ac 41 34          shrb   $0x34,0x41ac2f77(%ecx,%eax,2)
                           .text:01001095 32 ac 41 33 71 ad 41             xor    0x41ad7133(%ecx,%eax,2),%ch
                           .text:0100109c 00 00                            add    %al,(%eax)
                           .text:0100109e 00 00                            add    %al,(%eax)
                           .text:010010a0 e1 e1                            loope  0x01001083
                           .text:010010a2 f5                               cmc    
                           .text:010010a3 6f                               outsl  %ds:(%esi),(%dx)
                           .text:010010a4 27                               daa    
                           .text:010010a5 3e f7 6f cf                      imull  %ds:-0x31(%edi)
                           .text:010010a9 61                               popa   
                           .text:010010aa fa                               cli    
                           .text:010010ab 6f                               outsl  %ds:(%esi),(%dx)
                           .text:010010ac 04 28                            add    $0x28,%al
                           .text:010010ae f6 6f ce                         imulb  -0x32(%edi)
                           .text:010010b1 27                               daa    
                           .text:010010b2 f6 6f c3                         imulb  -0x3d(%edi)
                           .text:010010b5 27                               daa    
                           .text:010010b6 f6 6f ad                         imulb  -0x53(%edi)
                           .text:010010b9 77 fe                            ja     0x010010b9
                           .text:010010bb 6f                               outsl  %ds:(%esi),(%dx)
                           .text:010010bc ef                               out    %eax,(%dx)
                           .text:010010bd b2 fb                            mov    $0xfb,%dl
                           .text:010010bf 6f                               outsl  %ds:(%esi),(%dx)
                           .text:010010c0 51                               push   %ecx
                           .text:010010c1 c1                               (bad)  
                           .text:010010c2 f5                               cmc    
                           .text:010010c3 6f                               outsl  %ds:(%esi),(%dx)
                           .text:010010c4 75 dc                            jne    0x010010a2
                           .text:010010c6 f7 6f c0                         imull  -0x40(%edi)
                           .text:010010c9 b2 fb                            mov    $0xfb,%dl
                           .text:010010cb 6f                               outsl  %ds:(%esi),(%dx)
                           .text:010010cc d4 37                            aam    $0x37
                           .text:010010ce f6 6f c0                         imulb  -0x40(%edi)
                           .text:010010d1 2b f6                            sub    %esi,%esi
                           .text:010010d3 6f                               outsl  %ds:(%esi),(%dx)
                           .text:010010d4 4c                               dec    %esp
                           .text:010010d5 ed                               in     (%dx),%eax
                           .text:010010d6 f6 6f aa                         imulb  -0x56(%edi)
                           .text:010010d9 36 f6 6f 00                      imulb  %ss:0x0(%edi)
                           .text:010010dd 3e f6 6f 73                      imulb  %ds:0x73(%edi)
                           .text:010010e1 cc                               int3   
                           .text:010010e2 f6 6f 15                         imulb  0x15(%edi)
                           .text:010010e5 ac                               lods   %ds:(%esi),%al
                           .text:010010e6 f5                               cmc    
                           .text:010010e7 6f                               outsl  %ds:(%esi),(%dx)
                           .text:010010e8 00 29                            add    %ch,(%ecx)
                           .text:010010ea ff 6f fd                         ljmp   *-0x3(%edi)
                           .text:010010ed d0                               (bad)  
                           .text:010010ee f6 6f 08                         imulb  0x8(%edi)
                           .text:010010f1 f7 f5                            div    %ebp
                           .text:010010f3 6f                               outsl  %ds:(%esi),(%dx)
                           .text:010010f4 07                               pop    %es
                           .text:010010f5 b4 f5                            mov    $0xf5,%ah
                           .text:010010f7 6f                               outsl  %ds:(%esi),(%dx)
                           .text:010010f8 70 10                            jo     0x0100110a
                           .text:010010fa f6 6f f7                         imulb  -0x9(%edi)
                           .text:010010fd f0 f7 6f 95                      lock imull -0x6b(%edi)
                           .text:01001101 c3                               ret    
                           .text:01001102 f5                               cmc    
                           .text:01001103 6f                               outsl  %ds:(%esi),(%dx)
                           .text:01001104 ce                               into   
                           .text:01001105 bb f5 6f a8 d1                   mov    $0xd1a86ff5,%ebx
                           .text:0100110a f5                               cmc    
                           .text:0100110b 6f                               outsl  %ds:(%esi),(%dx)
                           .text:0100110c fa                               cli    
                           .text:0100110d f7 f5                            div    %ebp
                           .text:0100110f 6f                               outsl  %ds:(%esi),(%dx)
                           .text:01001110 00 00                            add    %al,(%eax)
                           .text:01001112 00 00                            add    %al,(%eax)
                           .text:01001114 96                               xchg   %eax,%esi
                           .text:01001115 d5 ec                            aad    $0xec
                           .text:01001117 77 00                            ja     0x01001119
                           .text:01001119 00 00                            add    %al,(%eax)
                           .text:0100111b 00 d8                            add    %bl,%al
                           .text:0100111d 1e                               push   %ds
                           .text:0100111e f2 3f                            repnz aas 
                           .text:01001120 bd 1e f2 3f 60                   mov    $0x603ff21e,%ebp
                           .text:01001125 47                               inc    %edi
                           .text:01001126 f2 3f                            repnz aas 
                           .text:01001128 69 20 f2 3f 00 00                imul   $0x3ff2,(%eax),%esp
                           .text:0100112e 00 00                            add    %al,(%eax)
                           .text:01001130 00 00                            add    %al,(%eax)
                           .text:01001132 00 00                            add    %al,(%eax)
                           .text:01001134 75 22                            jne    0x01001158
                           .text:01001136 00 01                            add    %al,(%ecx)
                           .text:01001138 00 00                            add    %al,(%eax)
                           .text:0100113a 00 00                            add    %al,(%eax)
                           .text:0100113c 00 00                            add    %al,(%eax)
                           .text:0100113e 00 00                            add    %al,(%eax)
                           .text:01001140 1b 24 00                         sbb    (%eax,%eax,1),%esp
                           .text:01001143 01 4c 25 00                      add    %ecx,0x0(%ebp,%eiz,1)
                           .text:01001147 01 00                            add    %eax,(%eax)
                           .text:01001149 00 00                            add    %al,(%eax)
                           .text:0100114b 00 00                            add    %al,(%eax)
                           .text:0100114d 00 00                            add    %al,(%eax)
                           .text:0100114f 00 00                            add    %al,(%eax)
                           .text:01001151 00 00                            add    %al,(%eax)
                           .text:01001153 00 5f c9                         add    %bl,-0x37(%edi)
                           .text:01001156 5b                               pop    %ebx
                           .text:01001157 4a                               dec    %edx
                           .text:01001158 00 00                            add    %al,(%eax)
                           .text:0100115a 00 00                            add    %al,(%eax)
                           .text:0100115c 02 00                            add    (%eax),%al
                           .text:0100115e 00 00                            add    %al,(%eax)
                           .text:01001160 20 00                            and    %al,(%eax)
                           .text:01001162 00 00                            add    %al,(%eax)
                           .text:01001164 d0 12                            rclb   (%edx)
                           .text:01001166 00 00                            add    %al,(%eax)
                           .text:01001168 d0 06                            rolb   (%esi)
                           .text:0100116a 00 00                            add    %al,(%eax)
                           .text:0100116c 25 32 78 2d 25                   and    $0x252d7832,%eax
                           .text:01001171 32 78 2d                         xor    0x2d(%eax),%bh
                           .text:01001174 25 32 78 2d 25                   and    $0x252d7832,%eax
                           .text:01001179 32 78 2d                         xor    0x2d(%eax),%bh
                           .text:0100117c 25 32 78 2d 25                   and    $0x252d7832,%eax
                           .text:01001181 32 78 00                         xor    0x0(%eax),%bh
                           .text:01001184 2a 00                            sub    (%eax),%al
                           .text:01001186 00 00                            add    %al,(%eax)
                           .text:01001188 2d 00 25 00 30                   sub    $0x30002500,%eax
                           .text:0100118d 00 32                            add    %dh,(%edx)
                           .text:0100118f 00 78 00                         add    %bh,0x0(%eax)
                           .text:01001192 00 00                            add    %al,(%eax)
                           .text:01001194 25 00 30 00 32                   and    $0x32003000,%eax
                           .text:01001199 00 78 00                         add    %bh,0x0(%eax)
                           .text:0100119c 00 00                            add    %al,(%eax)
                           .text:0100119e 00 00                            add    %al,(%eax)
                           .text:010011a0 25 75 2e 25 75                   and    $0x75252e75,%eax
                           .text:010011a5 2e 25 75 2e 25 75                cs and $0x75252e75,%eax
                           .text:010011ab 20 2d 2d 2d 20 30                and    %ch,0x30202d2d
                           .text:010011b1 78 25                            js     0x010011d8
                           .text:010011b3 78 00                            js     0x010011b5
                           .text:010011b5 00 00                            add    %al,(%eax)
                           .text:010011b7 00 90 59 00 01 e0                add    %dl,-0x1ffeffa7(%eax)
                           .text:010011bd 59                               pop    %ecx
                           .text:010011be 00 01                            add    %al,(%ecx)
                           .text:010011c0 25 77 73 00 2e                   and    $0x2e007377,%eax
                           .text:010011c5 00 25 00 75 00 00                add    %ah,0x7500
                           .text:010011cb 00 53 6e                         add    %dl,0x6e(%ebx)
                           .text:010011ce 6d                               insl   (%dx),%es:(%edi)
                           .text:010011cf 70 45                            jo     0x01001216
                           .text:010011d1 78 74                            js     0x01001247
                           .text:010011d3 65 6e                            outsb  %gs:(%esi),(%dx)
                           .text:010011d5 73 69                            jae    0x01001240
                           .text:010011d7 6f                               outsl  %ds:(%esi),(%dx)
                           .text:010011d8 6e                               outsb  %ds:(%esi),(%dx)
                           .text:010011d9 51                               push   %ecx
                           .text:010011da 75 65                            jne    0x01001241
                           .text:010011dc 72 79                            jb     0x01001257
                           .text:010011de 00 00                            add    %al,(%eax)
                           .text:010011e0 53                               push   %ebx
                           .text:010011e1 6e                               outsb  %ds:(%esi),(%dx)
                           .text:010011e2 6d                               insl   (%dx),%es:(%edi)
                           .text:010011e3 70 45                            jo     0x0100122a
                           .text:010011e5 78 74                            js     0x0100125b
                           .text:010011e7 65 6e                            outsb  %gs:(%esi),(%dx)
                           .text:010011e9 73 69                            jae    0x01001254
                           .text:010011eb 6f                               outsl  %ds:(%esi),(%dx)
                           .text:010011ec 6e                               outsb  %ds:(%esi),(%dx)
                           .text:010011ed 49                               dec    %ecx
                           .text:010011ee 6e                               outsb  %ds:(%esi),(%dx)
                           .text:010011ef 69 74 00 00 00 5c 69 6e          imul   $0x6e695c00,0x0(%eax,%eax,1),%esi
                           .text:010011f7 65 74 6d                         gs je  0x01001267
                           .text:010011fa 69 62 31 2e 64 6c 6c             imul   $0x6c6c642e,0x31(%edx),%esp
                           .text:01001201 00 00                            add    %al,(%eax)
                           .text:01001203 00 53 6e                         add    %dl,0x6e(%ebx)
                           .text:01001206 6d                               insl   (%dx),%es:(%edi)
                           .text:01001207 70 4d                            jo     0x01001256
                           .text:01001209 67 72 4f                         addr16 jb 0x0100125b
                           .text:0100120c 69 64 54 6f 53 74 72 00          imul   $0x727453,0x6f(%esp,%edx,2),%esp
                           .text:01001214 5c                               pop    %esp
                           .text:01001215 6d                               insl   (%dx),%es:(%edi)
                           .text:01001216 67 6d                            insl   (%dx),%es:(%di)
                           .text:01001218 74 61                            je     0x0100127b
                           .text:0100121a 70 69                            jo     0x01001285
                           .text:0100121c 2e 64 6c                         cs fs insb (%dx),%es:(%edi)
                           .text:0100121f 6c                               insb   (%dx),%es:(%edi)
                           .text:01001220 00 00                            add    %al,(%eax)
                           .text:01001222 00 00                            add    %al,(%eax)
                           .text:01001224 0a 00                            or     (%eax),%al
                           .text:01001226 00 00                            add    %al,(%eax)
                           .text:01001228 25 33 64 2e 00                   and    $0x2e6433,%eax
                           .text:0100122d 00 00                            add    %al,(%eax)
                           .text:0100122f 00 25 32 64 2e 00                add    %ah,0x2e6432
                           .text:01001235 00 00                            add    %al,(%eax)
                           .text:01001237 00 25 64 2e 00 20                add    %ah,0x20002e64
                           .text:0100123d 25 73 20 00 00                   and    $0x2073,%eax
                           .text:01001242 00 00                            add    %al,(%eax)
                           .text:01001244 76 61                            jbe    0x010012a7
                           .text:01001246 6c                               insb   (%dx),%es:(%edi)
                           .text:01001247 75 65                            jne    0x010012ae
                           .text:01001249 3d 25 38 64 20                   cmp    $0x20643825,%eax
                           .text:0100124e 6f                               outsl  %ds:(%esi),(%dx)
                           .text:0100124f 69 64 3d 20 00 52 65 61          imul   $0x61655200,0x20(%ebp,%edi,1),%esp
                           .text:01001257 64 54                            fs push %esp
                           .text:01001259 61                               popa   
                           .text:0100125a 62 6c 65 3a                      bound  %ebp,0x3a(%ebp,%eiz,2)
                           .text:0100125e 20 74 79 70                      and    %dh,0x70(%ecx,%edi,2)
                           .text:01001262 65 20 3d 20 25 64 0a             and    %bh,%gs:0xa642520
                           .text:01001269 00 00                            add    %al,(%eax)
                           .text:0100126b 00 47 65                         add    %al,0x65(%edi)
                           .text:0100126e 74 54                            je     0x010012c4
                           .text:01001270 61                               popa   
                           .text:01001271 62 6c 65 3a                      bound  %ebp,0x3a(%ebp,%eiz,2)
                           .text:01001275 20 74 79 70                      and    %dh,0x70(%ecx,%edi,2)
                           .text:01001279 65 20 3d 20 25 64 0a             and    %bh,%gs:0xa642520
                           .text:01001280 00 00                            add    %al,(%eax)
                           .text:01001282 00 00                            add    %al,(%eax)
                           .text:01001284 00 00                            add    %al,(%eax)
                           .text:01001286 00 00                            add    %al,(%eax)
                           .text:01001288 48                               dec    %eax
                           .text:01001289 00 00                            add    %al,(%eax)
                           .text:0100128b 00 00                            add    %al,(%eax)
                           .text:0100128d 00 00                            add    %al,(%eax)
                           .text:0100128f 00 00                            add    %al,(%eax)
                           .text:01001291 00 00                            add    %al,(%eax)
                           .text:01001293 00 00                            add    %al,(%eax)
                           .text:01001295 00 00                            add    %al,(%eax)
                           .text:01001297 00 00                            add    %al,(%eax)
                           .text:01001299 00 00                            add    %al,(%eax)
                           .text:0100129b 00 00                            add    %al,(%eax)
                           .text:0100129d 00 00                            add    %al,(%eax)
                           .text:0100129f 00 00                            add    %al,(%eax)
                           .text:010012a1 00 00                            add    %al,(%eax)
                           .text:010012a3 00 00                            add    %al,(%eax)
                           .text:010012a5 00 00                            add    %al,(%eax)
                           .text:010012a7 00 00                            add    %al,(%eax)
                           .text:010012a9 00 00                            add    %al,(%eax)
                           .text:010012ab 00 00                            add    %al,(%eax)
                           .text:010012ad 00 00                            add    %al,(%eax)
                           .text:010012af 00 00                            add    %al,(%eax)
                           .text:010012b1 00 00                            add    %al,(%eax)
                           .text:010012b3 00 00                            add    %al,(%eax)
                           .text:010012b5 00 00                            add    %al,(%eax)
                           .text:010012b7 00 00                            add    %al,(%eax)
                           .text:010012b9 00 00                            add    %al,(%eax)
                           .text:010012bb 00 00                            add    %al,(%eax)
                           .text:010012bd 00 00                            add    %al,(%eax)
                           .text:010012bf 00 00                            add    %al,(%eax)
                           .text:010012c1 00 00                            add    %al,(%eax)
                           .text:010012c3 00 00                            add    %al,(%eax)
                           .text:010012c5 50                               push   %eax
                           .text:010012c6 00 01                            add    %al,(%ecx)
                           .text:010012c8 f0 12 00                         lock adc (%eax),%al
                           .text:010012cb 01 01                            add    %eax,(%ecx)
                           .text:010012cd 00 00                            add    %al,(%eax)
                           .text:010012cf 00 52 53                         add    %dl,0x53(%edx)
                           .text:010012d2 44                               inc    %esp
                           .text:010012d3 53                               push   %ebx
                           .text:010012d4 bd d0 5d b4 07                   mov    $0x7b45dd0,%ebp
                           .text:010012d9 d8 41 46                         fadds  0x46(%ecx)
                           .text:010012dc ba 10 24 a7 57                   mov    $0x57a72410,%edx
                           .text:010012e1 e6 40                            out    %al,$0x40
                           .text:010012e3 9c                               pushf  
                           .text:010012e4 01 00                            add    %eax,(%eax)
                           .text:010012e6 00 00                            add    %al,(%eax)
                           .text:010012e8 61                               popa   
                           .text:010012e9 72 70                            jb     0x0100135b
                           .text:010012eb 2e 70 64                         jo,pn  0x01001352
                           .text:010012ee 62 00                            bound  %eax,(%eax)
                           .text:010012f0 e2 26                            loop   0x01001318
                           .text:010012f2 00 00                            add    %al,(%eax)
                           .text:010012f4 00 00                            add    %al,(%eax)
                           .text:010012f6 00 00                            add    %al,(%eax)
                           .text:010012f8 00 00                            add    %al,(%eax)
                           .text:010012fa 00 00                            add    %al,(%eax)
                           .text:010012fc 00 00                            add    %al,(%eax)
                           .text:010012fe 00 00                            add    %al,(%eax)
                           .text:01001300 00 00                            add    %al,(%eax)
                           .text:01001302 00 00                            add    %al,(%eax)
                           .text:01001304 00 8b ff 55 8b ec                add    %cl,-0x1374aa01(%ebx)
                           .text:0100130a 56                               push   %esi
                           .text:0100130b 33 f6                            xor    %esi,%esi
                           .text:0100130d 46                               inc    %esi
                           .text:0100130e 89 30                            mov    %esi,(%eax)
                           .text:01001310 6a 04                            push   $0x4
                           .text:01001312 59                               pop    %ecx
                           .text:01001313 03 c1                            add    %ecx,%eax
                           .text:01001315 c7 00 03 00 00 00                movl   $0x3,(%eax)
                           .text:0100131b 03 c1                            add    %ecx,%eax
                           .text:0100131d c7 00 06 00 00 00                movl   $0x6,(%eax)
                           .text:01001323 03 c1                            add    %ecx,%eax
                           .text:01001325 89 30                            mov    %esi,(%eax)
                           .text:01001327 03 c1                            add    %ecx,%eax
                           .text:01001329 c7 00 02 00 00 00                movl   $0x2,(%eax)
                           .text:0100132f 03 c1                            add    %ecx,%eax
                           .text:01001331 89 30                            mov    %esi,(%eax)
                           .text:01001333 03 c1                            add    %ecx,%eax
                           .text:01001335 89 08                            mov    %ecx,(%eax)
                           .text:01001337 03 c1                            add    %ecx,%eax
                           .text:01001339 c7 00 16 00 00 00                movl   $0x16,(%eax)
                           .text:0100133f 03 c1                            add    %ecx,%eax
                           .text:01001341 89 30                            mov    %esi,(%eax)
                           .text:01001343 8b 75 08                         mov    0x8(%ebp),%esi
                           .text:01001346 03 c1                            add    %ecx,%eax
                           .text:01001348 89 30                            mov    %esi,(%eax)
                           .text:0100134a 8b 75 0c                         mov    0xc(%ebp),%esi
                           .text:0100134d 03 c1                            add    %ecx,%eax
                           .text:0100134f 89 30                            mov    %esi,(%eax)
                           .text:01001351 0f b6 32                         movzbl (%edx),%esi
                           .text:01001354 03 c1                            add    %ecx,%eax
                           .text:01001356 89 30                            mov    %esi,(%eax)
                           .text:01001358 0f b6 72 01                      movzbl 0x1(%edx),%esi
                           .text:0100135c 03 c1                            add    %ecx,%eax
                           .text:0100135e 89 30                            mov    %esi,(%eax)
                           .text:01001360 03 c1                            add    %ecx,%eax
                           .text:01001362 0f b6 4a 02                      movzbl 0x2(%edx),%ecx
                           .text:01001366 89 08                            mov    %ecx,(%eax)
                           .text:01001368 0f b6 4a 03                      movzbl 0x3(%edx),%ecx
                           .text:0100136c 89 48 04                         mov    %ecx,0x4(%eax)
                           .text:0100136f 5e                               pop    %esi
                           .text:01001370 5d                               pop    %ebp
                           .text:01001371 c2 08 00                         ret    $0x8
                           .text:01001374 cc                               int3   
                           .text:01001375 cc                               int3   
                           .text:01001376 cc                               int3   
                           .text:01001377 cc                               int3   
                           .text:01001378 cc                               int3   
                           .text:01001379 8b ff                            mov    %edi,%edi
                           .text:0100137b 55                               push   %ebp
                           .text:0100137c 8b ec                            mov    %esp,%ebp
                           .text:0100137e 53                               push   %ebx
                           .text:0100137f ff 75 08                         pushl  0x8(%ebp)
                           .text:01001382 83 cb ff                         or     $0xffffffff,%ebx
                           .text:01001385 e8 e7 15 00 00                   call   0x01002971
                           .text:0100138a 89 45 08                         mov    %eax,0x8(%ebp)
                           .text:0100138d 3b c3                            cmp    %ebx,%eax
                           .text:0100138f 74 22                            je     0x010013b3
                           .text:01001391 56                               push   %esi
                           .text:01001392 8b 37                            mov    (%edi),%esi
                           .text:01001394 eb 13                            jmp    0x010013a9
                           .text:01001396 8d 46 08                         lea    0x8(%esi),%eax
                           .text:01001399 50                               push   %eax
                           .text:0100139a 8d 45 08                         lea    0x8(%ebp),%eax
                           .text:0100139d 50                               push   %eax
                           .text:0100139e e8 b2 16 00 00                   call   0x01002a55
                           .text:010013a3 85 c0                            test   %eax,%eax
                           .text:010013a5 75 08                            jne    0x010013af
                           .text:010013a7 8b 36                            mov    (%esi),%esi
                           .text:010013a9 3b f7                            cmp    %edi,%esi
                           .text:010013ab 75 e9                            jne    0x01001396
                           .text:010013ad eb 03                            jmp    0x010013b2
                           .text:010013af 8b 5e 0c                         mov    0xc(%esi),%ebx
                           .text:010013b2 5e                               pop    %esi
                           .text:010013b3 8b c3                            mov    %ebx,%eax
                           .text:010013b5 5b                               pop    %ebx
                           .text:010013b6 5d                               pop    %ebp
                           .text:010013b7 c2 04 00                         ret    $0x4
                           .text:010013ba cc                               int3   
                           .text:010013bb cc                               int3   
                           .text:010013bc cc                               int3   
                           .text:010013bd cc                               int3   
                           .text:010013be cc                               int3   
                           .text:010013bf 8b ff                            mov    %edi,%edi
                           .text:010013c1 55                               push   %ebp
                           .text:010013c2 8b ec                            mov    %esp,%ebp
                           .text:010013c4 8b 4d 0c                         mov    0xc(%ebp),%ecx
                           .text:010013c7 8b 01                            mov    (%ecx),%eax
                           .text:010013c9 eb 0a                            jmp    0x010013d5
                           .text:010013cb 8b 50 0c                         mov    0xc(%eax),%edx
                           .text:010013ce 3b 55 08                         cmp    0x8(%ebp),%edx
                           .text:010013d1 74 0f                            je     0x010013e2
                           .text:010013d3 8b 00                            mov    (%eax),%eax
                           .text:010013d5 3b c1                            cmp    %ecx,%eax
                           .text:010013d7 75 f2                            jne    0x010013cb
                           .text:010013d9 b8 90 04 00 00                   mov    $0x490,%eax
                           .text:010013de 5d                               pop    %ebp
                           .text:010013df c2 0c 00                         ret    $0xc
                           .text:010013e2 8b 40 08                         mov    0x8(%eax),%eax
                           .text:010013e5 8b 4d 10                         mov    0x10(%ebp),%ecx
                           .text:010013e8 89 01                            mov    %eax,(%ecx)
                           .text:010013ea 33 c0                            xor    %eax,%eax
                           .text:010013ec eb f0                            jmp    0x010013de
                           .text:010013ee cc                               int3   
                           .text:010013ef cc                               int3   
                           .text:010013f0 cc                               int3   
                           .text:010013f1 cc                               int3   
                           .text:010013f2 cc                               int3   
                           .text:010013f3 8b ff                            mov    %edi,%edi
                           .text:010013f5 55                               push   %ebp
                           .text:010013f6 8b ec                            mov    %esp,%ebp
                           .text:010013f8 8b 4d 0c                         mov    0xc(%ebp),%ecx
                           .text:010013fb 83 ec 14                         sub    $0x14,%esp
                           .text:010013fe 53                               push   %ebx
                           .text:010013ff 56                               push   %esi
                           .text:01001400 8b 75 08                         mov    0x8(%ebp),%esi
                           .text:01001403 57                               push   %edi
                           .text:01001404 8d 5d ec                         lea    -0x14(%ebp),%ebx
                           .text:01001407 c7 01 01 00 00 00                movl   $0x1,(%ecx)
                           .text:0100140d 33 ff                            xor    %edi,%edi
                           .text:0100140f 80 3e 30                         cmpb   $0x30,(%esi)
                           .text:01001412 89 7d 08                         mov    %edi,0x8(%ebp)
                           .text:01001415 c7 45 fc 0a 00 00 00             movl   $0xa,-0x4(%ebp)
                           .text:0100141c 75 1a                            jne    0x01001438
                           .text:0100141e 46                               inc    %esi
                           .text:0100141f 8a 06                            mov    (%esi),%al
                           .text:01001421 c7 45 fc 08 00 00 00             movl   $0x8,-0x4(%ebp)
                           .text:01001428 3c 78                            cmp    $0x78,%al
                           .text:0100142a 74 04                            je     0x01001430
                           .text:0100142c 3c 58                            cmp    $0x58,%al
                           .text:0100142e 75 08                            jne    0x01001438
                           .text:01001430 c7 45 fc 10 00 00 00             movl   $0x10,-0x4(%ebp)
                           .text:01001437 46                               inc    %esi
                           .text:01001438 8a 06                            mov    (%esi),%al
                           .text:0100143a 84 c0                            test   %al,%al
                           .text:0100143c 74 5c                            je     0x0100149a
                           .text:0100143e 0f b6 f8                         movzbl %al,%edi
                           .text:01001441 57                               push   %edi
                           .text:01001442 ff 15 f4 10 00 01                call   *0x10010f4
                           .text:01001448 59                               pop    %ecx
                           .text:01001449 85 c0                            test   %eax,%eax
                           .text:0100144b 74 0d                            je     0x0100145a
                           .text:0100144d 8b 45 fc                         mov    -0x4(%ebp),%eax
                           .text:01001450 0f af 45 08                      imul   0x8(%ebp),%eax
                           .text:01001454 8d 44 38 d0                      lea    -0x30(%eax,%edi,1),%eax
                           .text:01001458 eb 30                            jmp    0x0100148a
                           .text:0100145a 83 7d fc 10                      cmpl   $0x10,-0x4(%ebp)
                           .text:0100145e 75 34                            jne    0x01001494
                           .text:01001460 57                               push   %edi
                           .text:01001461 ff 15 f8 10 00 01                call   *0x10010f8
                           .text:01001467 59                               pop    %ecx
                           .text:01001468 85 c0                            test   %eax,%eax
                           .text:0100146a 74 28                            je     0x01001494
                           .text:0100146c 57                               push   %edi
                           .text:0100146d ff 15 fc 10 00 01                call   *0x10010fc
                           .text:01001473 f7 d8                            neg    %eax
                           .text:01001475 1b c0                            sbb    %eax,%eax
                           .text:01001477 83 e0 20                         and    $0x20,%eax
                           .text:0100147a 59                               pop    %ecx
                           .text:0100147b 8b 4d 08                         mov    0x8(%ebp),%ecx
                           .text:0100147e 83 c0 41                         add    $0x41,%eax
                           .text:01001481 c1 e1 04                         shl    $0x4,%ecx
                           .text:01001484 2b c8                            sub    %eax,%ecx
                           .text:01001486 8d 44 39 0a                      lea    0xa(%ecx,%edi,1),%eax
                           .text:0100148a 46                               inc    %esi
                           .text:0100148b 89 45 08                         mov    %eax,0x8(%ebp)
                           .text:0100148e 8a 06                            mov    (%esi),%al
                           .text:01001490 84 c0                            test   %al,%al
                           .text:01001492 75 aa                            jne    0x0100143e
                           .text:01001494 8b 7d 08                         mov    0x8(%ebp),%edi
                           .text:01001497 8b 4d 0c                         mov    0xc(%ebp),%ecx
                           .text:0100149a 80 3e 2e                         cmpb   $0x2e,(%esi)
                           .text:0100149d 75 1d                            jne    0x010014bc
                           .text:0100149f 8d 45 f8                         lea    -0x8(%ebp),%eax
                           .text:010014a2 3b d8                            cmp    %eax,%ebx
                           .text:010014a4 73 0b                            jae    0x010014b1
                           .text:010014a6 89 3b                            mov    %edi,(%ebx)
                           .text:010014a8 83 c3 04                         add    $0x4,%ebx
                           .text:010014ab 46                               inc    %esi
                           .text:010014ac e9 5c ff ff ff                   jmp    0x0100140d
                           .text:010014b1 83 21 00                         andl   $0x0,(%ecx)
                           .text:010014b4 83 c8 ff                         or     $0xffffffff,%eax
                           .text:010014b7 e9 f2 00 00 00                   jmp    0x010015ae
                           .text:010014bc 8a 06                            mov    (%esi),%al
                           .text:010014be 84 c0                            test   %al,%al
                           .text:010014c0 74 1a                            je     0x010014dc
                           .text:010014c2 0f b6 c0                         movzbl %al,%eax
                           .text:010014c5 50                               push   %eax
                           .text:010014c6 ff 15 00 11 00 01                call   *0x1001100
                           .text:010014cc 59                               pop    %ecx
                           .text:010014cd 85 c0                            test   %eax,%eax
                           .text:010014cf 75 08                            jne    0x010014d9
                           .text:010014d1 8b 45 0c                         mov    0xc(%ebp),%eax
                           .text:010014d4 83 20 00                         andl   $0x0,(%eax)
                           .text:010014d7 eb db                            jmp    0x010014b4
                           .text:010014d9 8b 4d 0c                         mov    0xc(%ebp),%ecx
                           .text:010014dc 89 3b                            mov    %edi,(%ebx)
                           .text:010014de 8d 45 ec                         lea    -0x14(%ebp),%eax
                           .text:010014e1 2b d8                            sub    %eax,%ebx
                           .text:010014e3 83 c3 04                         add    $0x4,%ebx
                           .text:010014e6 c1 fb 02                         sar    $0x2,%ebx
                           .text:010014e9 4b                               dec    %ebx
                           .text:010014ea 0f 84 a2 00 00 00                je     0x01001592
                           .text:010014f0 4b                               dec    %ebx
                           .text:010014f1 74 74                            je     0x01001567
                           .text:010014f3 4b                               dec    %ebx
                           .text:010014f4 74 39                            je     0x0100152f
                           .text:010014f6 4b                               dec    %ebx
                           .text:010014f7 75 b8                            jne    0x010014b1
                           .text:010014f9 8b 55 ec                         mov    -0x14(%ebp),%edx
                           .text:010014fc b8 ff 00 00 00                   mov    $0xff,%eax
                           .text:01001501 3b d0                            cmp    %eax,%edx
                           .text:01001503 77 ac                            ja     0x010014b1
                           .text:01001505 39 45 f0                         cmp    %eax,-0x10(%ebp)
                           .text:01001508 77 a7                            ja     0x010014b1
                           .text:0100150a 39 45 f4                         cmp    %eax,-0xc(%ebp)
                           .text:0100150d 77 a2                            ja     0x010014b1
                           .text:0100150f 39 45 f8                         cmp    %eax,-0x8(%ebp)
                           .text:01001512 77 9d                            ja     0x010014b1
                           .text:01001514 0f b6 4d f0                      movzbl -0x10(%ebp),%ecx
                           .text:01001518 0f b6 45 f4                      movzbl -0xc(%ebp),%eax
                           .text:0100151c c1 e2 08                         shl    $0x8,%edx
                           .text:0100151f 0b ca                            or     %edx,%ecx
                           .text:01001521 c1 e1 08                         shl    $0x8,%ecx
                           .text:01001524 0b c8                            or     %eax,%ecx
                           .text:01001526 0f b6 45 f8                      movzbl -0x8(%ebp),%eax
                           .text:0100152a c1 e1 08                         shl    $0x8,%ecx
                           .text:0100152d eb 57                            jmp    0x01001586
                           .text:0100152f 8b 55 ec                         mov    -0x14(%ebp),%edx
                           .text:01001532 b8 ff 00 00 00                   mov    $0xff,%eax
                           .text:01001537 3b d0                            cmp    %eax,%edx
                           .text:01001539 0f 87 72 ff ff ff                ja     0x010014b1
                           .text:0100153f 39 45 f0                         cmp    %eax,-0x10(%ebp)
                           .text:01001542 0f 87 69 ff ff ff                ja     0x010014b1
                           .text:01001548 81 7d f4 ff ff 00 00             cmpl   $0xffff,-0xc(%ebp)
                           .text:0100154f 0f 87 5c ff ff ff                ja     0x010014b1
                           .text:01001555 0f b6 4d f0                      movzbl -0x10(%ebp),%ecx
                           .text:01001559 0f b7 45 f4                      movzwl -0xc(%ebp),%eax
                           .text:0100155d c1 e2 08                         shl    $0x8,%edx
                           .text:01001560 0b ca                            or     %edx,%ecx
                           .text:01001562 c1 e1 10                         shl    $0x10,%ecx
                           .text:01001565 eb 1f                            jmp    0x01001586
                           .text:01001567 8b 45 ec                         mov    -0x14(%ebp),%eax
                           .text:0100156a 3d ff 00 00 00                   cmp    $0xff,%eax
                           .text:0100156f 0f 87 3c ff ff ff                ja     0x010014b1
                           .text:01001575 8b 4d f0                         mov    -0x10(%ebp),%ecx
                           .text:01001578 ba ff ff ff 00                   mov    $0xffffff,%edx
                           .text:0100157d 3b ca                            cmp    %edx,%ecx
                           .text:0100157f 77 09                            ja     0x0100158a
                           .text:01001581 23 ca                            and    %edx,%ecx
                           .text:01001583 c1 e0 18                         shl    $0x18,%eax
                           .text:01001586 0b c8                            or     %eax,%ecx
                           .text:01001588 eb 0b                            jmp    0x01001595
                           .text:0100158a 8b 4d 0c                         mov    0xc(%ebp),%ecx
                           .text:0100158d e9 1f ff ff ff                   jmp    0x010014b1
                           .text:01001592 8b 4d ec                         mov    -0x14(%ebp),%ecx
                           .text:01001595 8b c1                            mov    %ecx,%eax
                           .text:01001597 c1 e8 08                         shr    $0x8,%eax
                           .text:0100159a 8b d1                            mov    %ecx,%edx
                           .text:0100159c c1 e2 08                         shl    $0x8,%edx
                           .text:0100159f 33 c2                            xor    %edx,%eax
                           .text:010015a1 25 ff 00 ff 00                   and    $0xff00ff,%eax
                           .text:010015a6 c1 e1 08                         shl    $0x8,%ecx
                           .text:010015a9 33 c1                            xor    %ecx,%eax
                           .text:010015ab c1 c0 10                         rol    $0x10,%eax
                           .text:010015ae 5f                               pop    %edi
                           .text:010015af 5e                               pop    %esi
                           .text:010015b0 5b                               pop    %ebx
                           .text:010015b1 c9                               leave  
                           .text:010015b2 c2 08 00                         ret    $0x8
                           .text:010015b5 cc                               int3   
                           .text:010015b6 cc                               int3   
                           .text:010015b7 cc                               int3   
                           .text:010015b8 cc                               int3   
                           .text:010015b9 cc                               int3   
                           .text:010015ba ff 35 b4 5c 00 01                pushl  0x1005cb4
                           .text:010015c0 68 10 27 00 00                   push   $0x2710
                           .text:010015c5 6a 01                            push   $0x1
                           .text:010015c7 e8 c2 14 00 00                   call   0x01002a8e
                           .text:010015cc 83 c4 0c                         add    $0xc,%esp
                           .text:010015cf 6a 01                            push   $0x1
                           .text:010015d1 ff 15 d8 10 00 01                call   *0x10010d8
                           .text:010015d7 cc                               int3   
                           .text:010015d8 cc                               int3   
                           .text:010015d9 cc                               int3   
                           .text:010015da cc                               int3   
                           .text:010015db cc                               int3   
                           .text:010015dc cc                               int3   
                           .text:010015dd 8b ff                            mov    %edi,%edi
                           .text:010015df 55                               push   %ebp
                           .text:010015e0 8b ec                            mov    %esp,%ebp
                           .text:010015e2 83 ec 18                         sub    $0x18,%esp
                           .text:010015e5 8d 45 fc                         lea    -0x4(%ebp),%eax
                           .text:010015e8 50                               push   %eax
                           .text:010015e9 8d 45 f8                         lea    -0x8(%ebp),%eax
                           .text:010015ec 50                               push   %eax
                           .text:010015ed 8d 45 f4                         lea    -0xc(%ebp),%eax
                           .text:010015f0 50                               push   %eax
                           .text:010015f1 8d 45 f0                         lea    -0x10(%ebp),%eax
                           .text:010015f4 50                               push   %eax
                           .text:010015f5 8d 45 ec                         lea    -0x14(%ebp),%eax
                           .text:010015f8 50                               push   %eax
                           .text:010015f9 8d 45 e8                         lea    -0x18(%ebp),%eax
                           .text:010015fc 50                               push   %eax
                           .text:010015fd 68 6c 11 00 01                   push   $0x100116c
                           .text:01001602 ff 75 08                         pushl  0x8(%ebp)
                           .text:01001605 ff 15 d4 10 00 01                call   *0x10010d4
                           .text:0100160b 83 c4 20                         add    $0x20,%esp
                           .text:0100160e 83 f8 06                         cmp    $0x6,%eax
                           .text:01001611 74 05                            je     0x01001618
                           .text:01001613 6a 57                            push   $0x57
                           .text:01001615 58                               pop    %eax
                           .text:01001616 eb 28                            jmp    0x01001640
                           .text:01001618 8b 45 0c                         mov    0xc(%ebp),%eax
                           .text:0100161b 8a 4d e8                         mov    -0x18(%ebp),%cl
                           .text:0100161e 88 08                            mov    %cl,(%eax)
                           .text:01001620 8a 4d ec                         mov    -0x14(%ebp),%cl
                           .text:01001623 88 48 01                         mov    %cl,0x1(%eax)
                           .text:01001626 8a 4d f0                         mov    -0x10(%ebp),%cl
                           .text:01001629 88 48 02                         mov    %cl,0x2(%eax)
                           .text:0100162c 8a 4d f4                         mov    -0xc(%ebp),%cl
                           .text:0100162f 88 48 03                         mov    %cl,0x3(%eax)
                           .text:01001632 8a 4d f8                         mov    -0x8(%ebp),%cl
                           .text:01001635 88 48 04                         mov    %cl,0x4(%eax)
                           .text:01001638 8a 4d fc                         mov    -0x4(%ebp),%cl
                           .text:0100163b 88 48 05                         mov    %cl,0x5(%eax)
                           .text:0100163e 33 c0                            xor    %eax,%eax
                           .text:01001640 c9                               leave  
                           .text:01001641 c2 08 00                         ret    $0x8
                           .text:01001644 cc                               int3   
                           .text:01001645 cc                               int3   
                           .text:01001646 cc                               int3   
                           .text:01001647 cc                               int3   
                           .text:01001648 cc                               int3   
                           .text:01001649 8b ff                            mov    %edi,%edi
                           .text:0100164b 55                               push   %ebp
                           .text:0100164c 8b ec                            mov    %esp,%ebp
                           .text:0100164e 8b 4d 0c                         mov    0xc(%ebp),%ecx
                           .text:01001651 33 c0                            xor    %eax,%eax
                           .text:01001653 85 c9                            test   %ecx,%ecx
                           .text:01001655 74 08                            je     0x0100165f
                           .text:01001657 81 f9 ff ff ff 7f                cmp    $0x7fffffff,%ecx
                           .text:0100165d 76 05                            jbe    0x01001664
                           .text:0100165f b8 57 00 07 80                   mov    $0x80070057,%eax
                           .text:01001664 85 c0                            test   %eax,%eax
                           .text:01001666 7c 39                            jl     0x010016a1
                           .text:01001668 53                               push   %ebx
                           .text:01001669 56                               push   %esi
                           .text:0100166a 57                               push   %edi
                           .text:0100166b 8b 7d 08                         mov    0x8(%ebp),%edi
                           .text:0100166e 8d 45 14                         lea    0x14(%ebp),%eax
                           .text:01001671 50                               push   %eax
                           .text:01001672 ff 75 10                         pushl  0x10(%ebp)
                           .text:01001675 8d 71 ff                         lea    -0x1(%ecx),%esi
                           .text:01001678 56                               push   %esi
                           .text:01001679 57                               push   %edi
                           .text:0100167a 33 db                            xor    %ebx,%ebx
                           .text:0100167c ff 15 04 11 00 01                call   *0x1001104
                           .text:01001682 83 c4 10                         add    $0x10,%esp
                           .text:01001685 85 c0                            test   %eax,%eax
                           .text:01001687 7c 08                            jl     0x01001691
                           .text:01001689 3b c6                            cmp    %esi,%eax
                           .text:0100168b 77 04                            ja     0x01001691
                           .text:0100168d 75 0d                            jne    0x0100169c
                           .text:0100168f eb 05                            jmp    0x01001696
                           .text:01001691 bb 7a 00 07 80                   mov    $0x8007007a,%ebx
                           .text:01001696 33 c0                            xor    %eax,%eax
                           .text:01001698 66 89 04 77                      mov    %ax,(%edi,%esi,2)
                           .text:0100169c 5f                               pop    %edi
                           .text:0100169d 5e                               pop    %esi
                           .text:0100169e 8b c3                            mov    %ebx,%eax
                           .text:010016a0 5b                               pop    %ebx
                           .text:010016a1 5d                               pop    %ebp
                           .text:010016a2 c3                               ret    
                           .text:010016a3 cc                               int3   
                           .text:010016a4 cc                               int3   
                           .text:010016a5 cc                               int3   
                           .text:010016a6 cc                               int3   
                           .text:010016a7 cc                               int3   
                           .text:010016a8 8b ff                            mov    %edi,%edi
                           .text:010016aa 55                               push   %ebp
                           .text:010016ab 8b ec                            mov    %esp,%ebp
                           .text:010016ad 8b 4d 0c                         mov    0xc(%ebp),%ecx
                           .text:010016b0 33 c0                            xor    %eax,%eax
                           .text:010016b2 85 c9                            test   %ecx,%ecx
                           .text:010016b4 74 08                            je     0x010016be
                           .text:010016b6 81 f9 ff ff ff 7f                cmp    $0x7fffffff,%ecx
                           .text:010016bc 76 05                            jbe    0x010016c3
                           .text:010016be b8 57 00 07 80                   mov    $0x80070057,%eax
                           .text:010016c3 85 c0                            test   %eax,%eax
                           .text:010016c5 7c 39                            jl     0x01001700
                           .text:010016c7 53                               push   %ebx
                           .text:010016c8 56                               push   %esi
                           .text:010016c9 57                               push   %edi
                           .text:010016ca 8b 7d 08                         mov    0x8(%ebp),%edi
                           .text:010016cd 8d 45 14                         lea    0x14(%ebp),%eax
                           .text:010016d0 50                               push   %eax
                           .text:010016d1 ff 75 10                         pushl  0x10(%ebp)
                           .text:010016d4 8d 71 ff                         lea    -0x1(%ecx),%esi
                           .text:010016d7 56                               push   %esi
                           .text:010016d8 57                               push   %edi
                           .text:010016d9 33 db                            xor    %ebx,%ebx
                           .text:010016db ff 15 08 11 00 01                call   *0x1001108
                           .text:010016e1 83 c4 10                         add    $0x10,%esp
                           .text:010016e4 85 c0                            test   %eax,%eax
                           .text:010016e6 7c 0b                            jl     0x010016f3
                           .text:010016e8 3b c6                            cmp    %esi,%eax
                           .text:010016ea 77 07                            ja     0x010016f3
                           .text:010016ec 75 0d                            jne    0x010016fb
                           .text:010016ee 88 1c 3e                         mov    %bl,(%esi,%edi,1)
                           .text:010016f1 eb 08                            jmp    0x010016fb
                           .text:010016f3 88 1c 3e                         mov    %bl,(%esi,%edi,1)
                           .text:010016f6 bb 7a 00 07 80                   mov    $0x8007007a,%ebx
                           .text:010016fb 5f                               pop    %edi
                           .text:010016fc 5e                               pop    %esi
                           .text:010016fd 8b c3                            mov    %ebx,%eax
                           .text:010016ff 5b                               pop    %ebx
                           .text:01001700 5d                               pop    %ebp
                           .text:01001701 c3                               ret    
                           .text:01001702 cc                               int3   
                           .text:01001703 cc                               int3   
                           .text:01001704 cc                               int3   
                           .text:01001705 cc                               int3   
                           .text:01001706 cc                               int3   
                           .text:01001707 8b ff                            mov    %edi,%edi
                           .text:01001709 55                               push   %ebp
                           .text:0100170a 8b ec                            mov    %esp,%ebp
                           .text:0100170c 83 ec 34                         sub    $0x34,%esp
                           .text:0100170f 83 4d f4 ff                      orl    $0xffffffff,-0xc(%ebp)
                           .text:01001713 8d 45 cc                         lea    -0x34(%ebp),%eax
                           .text:01001716 53                               push   %ebx
                           .text:01001717 8b 5d 08                         mov    0x8(%ebp),%ebx
                           .text:0100171a 89 45 e4                         mov    %eax,-0x1c(%ebp)
                           .text:0100171d 33 c0                            xor    %eax,%eax
                           .text:0100171f 56                               push   %esi
                           .text:01001720 57                               push   %edi
                           .text:01001721 c7 45 e8 01 00 00 00             movl   $0x1,-0x18(%ebp)
                           .text:01001728 89 45 f8                         mov    %eax,-0x8(%ebp)
                           .text:0100172b 89 45 ec                         mov    %eax,-0x14(%ebp)
                           .text:0100172e 89 45 f0                         mov    %eax,-0x10(%ebp)
                           .text:01001731 89 45 fc                         mov    %eax,-0x4(%ebp)
                           .text:01001734 3b d8                            cmp    %eax,%ebx
                           .text:01001736 74 43                            je     0x0100177b
                           .text:01001738 6a 02                            push   $0x2
                           .text:0100173a bf 84 11 00 01                   mov    $0x1001184,%edi
                           .text:0100173f 8b f3                            mov    %ebx,%esi
                           .text:01001741 59                               pop    %ecx
                           .text:01001742 33 d2                            xor    %edx,%edx
                           .text:01001744 f3 a6                            repz cmpsb %es:(%edi),%ds:(%esi)
                           .text:01001746 74 33                            je     0x0100177b
                           .text:01001748 8d 45 08                         lea    0x8(%ebp),%eax
                           .text:0100174b 50                               push   %eax
                           .text:0100174c 53                               push   %ebx
                           .text:0100174d e8 a1 fc ff ff                   call   0x010013f3
                           .text:01001752 83 7d 08 01                      cmpl   $0x1,0x8(%ebp)
                           .text:01001756 89 45 fc                         mov    %eax,-0x4(%ebp)
                           .text:01001759 74 1e                            je     0x01001779
                           .text:0100175b 53                               push   %ebx
                           .text:0100175c ff 35 b4 5c 00 01                pushl  0x1005cb4
                           .text:01001762 68 11 27 00 00                   push   $0x2711
                           .text:01001767 6a 02                            push   $0x2
                           .text:01001769 e8 20 13 00 00                   call   0x01002a8e
                           .text:0100176e 83 c4 10                         add    $0x10,%esp
                           .text:01001771 6a 01                            push   $0x1
                           .text:01001773 ff 15 d8 10 00 01                call   *0x10010d8
                           .text:01001779 33 c0                            xor    %eax,%eax
                           .text:0100177b 39 45 0c                         cmp    %eax,0xc(%ebp)
                           .text:0100177e 74 3f                            je     0x010017bf
                           .text:01001780 8d 45 08                         lea    0x8(%ebp),%eax
                           .text:01001783 50                               push   %eax
                           .text:01001784 6a 02                            push   $0x2
                           .text:01001786 e8 79 24 00 00                   call   0x01003c04
                           .text:0100178b 8b f8                            mov    %eax,%edi
                           .text:0100178d 85 ff                            test   %edi,%edi
                           .text:0100178f 75 08                            jne    0x01001799
                           .text:01001791 8b 45 08                         mov    0x8(%ebp),%eax
                           .text:01001794 e9 e3 00 00 00                   jmp    0x0100187c
                           .text:01001799 ff 75 0c                         pushl  0xc(%ebp)
                           .text:0100179c e8 d8 fb ff ff                   call   0x01001379
                           .text:010017a1 89 45 f4                         mov    %eax,-0xc(%ebp)
                           .text:010017a4 83 f8 ff                         cmp    $0xffffffff,%eax
                           .text:010017a7 75 10                            jne    0x010017b9
                           .text:010017a9 ff 75 0c                         pushl  0xc(%ebp)
                           .text:010017ac ff 35 b4 5c 00 01                pushl  0x1005cb4
                           .text:010017b2 68 12 27 00 00                   push   $0x2712
                           .text:010017b7 eb ae                            jmp    0x01001767
                           .text:010017b9 57                               push   %edi
                           .text:010017ba e8 71 14 00 00                   call   0x01002c30
                           .text:010017bf 8d 45 08                         lea    0x8(%ebp),%eax
                           .text:010017c2 50                               push   %eax
                           .text:010017c3 6a 04                            push   $0x4
                           .text:010017c5 e8 3a 24 00 00                   call   0x01003c04
                           .text:010017ca 8b f8                            mov    %eax,%edi
                           .text:010017cc 33 db                            xor    %ebx,%ebx
                           .text:010017ce 3b fb                            cmp    %ebx,%edi
                           .text:010017d0 74 bf                            je     0x01001791
                           .text:010017d2 8b 37                            mov    (%edi),%esi
                           .text:010017d4 e9 80 00 00 00                   jmp    0x01001859
                           .text:010017d9 8b 45 f4                         mov    -0xc(%ebp),%eax
                           .text:010017dc 83 f8 ff                         cmp    $0xffffffff,%eax
                           .text:010017df 74 05                            je     0x010017e6
                           .text:010017e1 3b 46 08                         cmp    0x8(%esi),%eax
                           .text:010017e4 75 71                            jne    0x01001857
                           .text:010017e6 39 5d fc                         cmp    %ebx,-0x4(%ebp)
                           .text:010017e9 74 11                            je     0x010017fc
                           .text:010017eb 8d 46 18                         lea    0x18(%esi),%eax
                           .text:010017ee 50                               push   %eax
                           .text:010017ef 8d 45 fc                         lea    -0x4(%ebp),%eax
                           .text:010017f2 50                               push   %eax
                           .text:010017f3 e8 5d 12 00 00                   call   0x01002a55
                           .text:010017f8 85 c0                            test   %eax,%eax
                           .text:010017fa 74 5b                            je     0x01001857
                           .text:010017fc 68 c8 00 00 00                   push   $0xc8
                           .text:01001801 e8 60 11 00 00                   call   0x01002966
                           .text:01001806 3b c3                            cmp    %ebx,%eax
                           .text:01001808 74 79                            je     0x01001883
                           .text:0100180a 89 45 d0                         mov    %eax,-0x30(%ebp)
                           .text:0100180d c7 45 cc 0f 00 00 00             movl   $0xf,-0x34(%ebp)
                           .text:01001814 ff 76 08                         pushl  0x8(%esi)
                           .text:01001817 8d 56 18                         lea    0x18(%esi),%edx
                           .text:0100181a 6a 04                            push   $0x4
                           .text:0100181c e8 e4 fa ff ff                   call   0x01001305
                           .text:01001821 8d 45 ec                         lea    -0x14(%ebp),%eax
                           .text:01001824 50                               push   %eax
                           .text:01001825 8d 45 f8                         lea    -0x8(%ebp),%eax
                           .text:01001828 50                               push   %eax
                           .text:01001829 8d 45 e4                         lea    -0x1c(%ebp),%eax
                           .text:0100182c 50                               push   %eax
                           .text:0100182d 68 a3 00 00 00                   push   $0xa3
                           .text:01001832 c6 45 d4 02                      movb   $0x2,-0x2c(%ebp)
                           .text:01001836 c7 45 d8 02 00 00 00             movl   $0x2,-0x28(%ebp)
                           .text:0100183d ff 15 d0 5c 00 01                call   *0x1005cd0
                           .text:01001843 ff 75 d0                         pushl  -0x30(%ebp)
                           .text:01001846 e8 0f 11 00 00                   call   0x0100295a
                           .text:0100184b 39 5d f8                         cmp    %ebx,-0x8(%ebp)
                           .text:0100184e 75 4d                            jne    0x0100189d
                           .text:01001850 c7 45 f0 01 00 00 00             movl   $0x1,-0x10(%ebp)
                           .text:01001857 8b 36                            mov    (%esi),%esi
                           .text:01001859 3b f7                            cmp    %edi,%esi
                           .text:0100185b 0f 85 78 ff ff ff                jne    0x010017d9
                           .text:01001861 57                               push   %edi
                           .text:01001862 e8 c9 13 00 00                   call   0x01002c30
                           .text:01001867 39 5d f0                         cmp    %ebx,-0x10(%ebp)
                           .text:0100186a 75 0e                            jne    0x0100187a
                           .text:0100186c 68 1c 27 00 00                   push   $0x271c
                           .text:01001871 6a 02                            push   $0x2
                           .text:01001873 e8 16 12 00 00                   call   0x01002a8e
                           .text:01001878 59                               pop    %ecx
                           .text:01001879 59                               pop    %ecx
                           .text:0100187a 33 c0                            xor    %eax,%eax
                           .text:0100187c 5f                               pop    %edi
                           .text:0100187d 5e                               pop    %esi
                           .text:0100187e 5b                               pop    %ebx
                           .text:0100187f c9                               leave  
                           .text:01001880 c2 08 00                         ret    $0x8
                           .text:01001883 ff 35 b4 5c 00 01                pushl  0x1005cb4
                           .text:01001889 68 14 27 00 00                   push   $0x2714
                           .text:0100188e 6a 02                            push   $0x2
                           .text:01001890 e8 f9 11 00 00                   call   0x01002a8e
                           .text:01001895 83 c4 0c                         add    $0xc,%esp
                           .text:01001898 e9 d4 fe ff ff                   jmp    0x01001771
                           .text:0100189d ff 75 f8                         pushl  -0x8(%ebp)
                           .text:010018a0 e8 b9 13 00 00                   call   0x01002c5e
                           .text:010018a5 eb d5                            jmp    0x0100187c
                           .text:010018a7 cc                               int3   
                           .text:010018a8 cc                               int3   
                           .text:010018a9 cc                               int3   
                           .text:010018aa cc                               int3   
                           .text:010018ab cc                               int3   
                           .text:010018ac 8b ff                            mov    %edi,%edi
                           .text:010018ae 55                               push   %ebp
                           .text:010018af 8b ec                            mov    %esp,%ebp
                           .text:010018b1 81 ec 90 00 00 00                sub    $0x90,%esp
                           .text:010018b7 a1 00 50 00 01                   mov    0x1005000,%eax
                           .text:010018bc 33 c5                            xor    %ebp,%eax
                           .text:010018be 89 45 fc                         mov    %eax,-0x4(%ebp)
                           .text:010018c1 8b 45 0c                         mov    0xc(%ebp),%eax
                           .text:010018c4 83 4d f0 ff                      orl    $0xffffffff,-0x10(%ebp)
                           .text:010018c8 53                               push   %ebx
                           .text:010018c9 56                               push   %esi
                           .text:010018ca 8b 75 10                         mov    0x10(%ebp),%esi
                           .text:010018cd 89 45 dc                         mov    %eax,-0x24(%ebp)
                           .text:010018d0 8d 85 70 ff ff ff                lea    -0x90(%ebp),%eax
                           .text:010018d6 89 45 d0                         mov    %eax,-0x30(%ebp)
                           .text:010018d9 33 c0                            xor    %eax,%eax
                           .text:010018db 57                               push   %edi
                           .text:010018dc 8b 7d 08                         mov    0x8(%ebp),%edi
                           .text:010018df 33 c9                            xor    %ecx,%ecx
                           .text:010018e1 3b f0                            cmp    %eax,%esi
                           .text:010018e3 6a 04                            push   $0x4
                           .text:010018e5 0f 94 c1                         sete   %cl
                           .text:010018e8 5b                               pop    %ebx
                           .text:010018e9 89 45 ec                         mov    %eax,-0x14(%ebp)
                           .text:010018ec 89 45 d8                         mov    %eax,-0x28(%ebp)
                           .text:010018ef 89 45 e8                         mov    %eax,-0x18(%ebp)
                           .text:010018f2 8d 45 e8                         lea    -0x18(%ebp),%eax
                           .text:010018f5 50                               push   %eax
                           .text:010018f6 57                               push   %edi
                           .text:010018f7 89 5d d4                         mov    %ebx,-0x2c(%ebp)
                           .text:010018fa 89 4d e0                         mov    %ecx,-0x20(%ebp)
                           .text:010018fd e8 f1 fa ff ff                   call   0x010013f3
                           .text:01001902 83 7d e8 01                      cmpl   $0x1,-0x18(%ebp)
                           .text:01001906 89 45 e4                         mov    %eax,-0x1c(%ebp)
                           .text:01001909 74 1e                            je     0x01001929
                           .text:0100190b 57                               push   %edi
                           .text:0100190c ff 35 b4 5c 00 01                pushl  0x1005cb4
                           .text:01001912 68 11 27 00 00                   push   $0x2711
                           .text:01001917 6a 02                            push   $0x2
                           .text:01001919 e8 70 11 00 00                   call   0x01002a8e
                           .text:0100191e 83 c4 10                         add    $0x10,%esp
                           .text:01001921 6a 01                            push   $0x1
                           .text:01001923 ff 15 d8 10 00 01                call   *0x10010d8
                           .text:01001929 8d 45 f4                         lea    -0xc(%ebp),%eax
                           .text:0100192c 50                               push   %eax
                           .text:0100192d ff 75 dc                         pushl  -0x24(%ebp)
                           .text:01001930 e8 a8 fc ff ff                   call   0x010015dd
                           .text:01001935 89 45 e8                         mov    %eax,-0x18(%ebp)
                           .text:01001938 85 c0                            test   %eax,%eax
                           .text:0100193a 74 10                            je     0x0100194c
                           .text:0100193c ff 75 dc                         pushl  -0x24(%ebp)
                           .text:0100193f ff 35 b4 5c 00 01                pushl  0x1005cb4
                           .text:01001945 68 12 27 00 00                   push   $0x2712
                           .text:0100194a eb cb                            jmp    0x01001917
                           .text:0100194c 83 7d e0 00                      cmpl   $0x0,-0x20(%ebp)
                           .text:01001950 75 2d                            jne    0x0100197f
                           .text:01001952 8d 45 e8                         lea    -0x18(%ebp),%eax
                           .text:01001955 50                               push   %eax
                           .text:01001956 6a 02                            push   $0x2
                           .text:01001958 e8 a7 22 00 00                   call   0x01003c04
                           .text:0100195d 8b f8                            mov    %eax,%edi
                           .text:0100195f 85 ff                            test   %edi,%edi
                           .text:01001961 0f 84 58 03 00 00                je     0x01001cbf
                           .text:01001967 56                               push   %esi
                           .text:01001968 e8 0c fa ff ff                   call   0x01001379
                           .text:0100196d 57                               push   %edi
                           .text:0100196e 89 45 f0                         mov    %eax,-0x10(%ebp)
                           .text:01001971 e8 ba 12 00 00                   call   0x01002c30
                           .text:01001976 83 7d f0 ff                      cmpl   $0xffffffff,-0x10(%ebp)
                           .text:0100197a 75 03                            jne    0x0100197f
                           .text:0100197c 56                               push   %esi
                           .text:0100197d eb 8d                            jmp    0x0100190c
                           .text:0100197f be c8 00 00 00                   mov    $0xc8,%esi
                           .text:01001984 56                               push   %esi
                           .text:01001985 e8 dc 0f 00 00                   call   0x01002966
                           .text:0100198a 85 c0                            test   %eax,%eax
                           .text:0100198c 75 1a                            jne    0x010019a8
                           .text:0100198e ff 35 b4 5c 00 01                pushl  0x1005cb4
                           .text:01001994 68 14 27 00 00                   push   $0x2714
                           .text:01001999 6a 02                            push   $0x2
                           .text:0100199b e8 ee 10 00 00                   call   0x01002a8e
                           .text:010019a0 83 c4 0c                         add    $0xc,%esp
                           .text:010019a3 e9 79 ff ff ff                   jmp    0x01001921
                           .text:010019a8 6a 0f                            push   $0xf
                           .text:010019aa 5f                               pop    %edi
                           .text:010019ab ff 75 f0                         pushl  -0x10(%ebp)
                           .text:010019ae 8d 55 e4                         lea    -0x1c(%ebp),%edx
                           .text:010019b1 6a 01                            push   $0x1
                           .text:010019b3 89 85 74 ff ff ff                mov    %eax,-0x8c(%ebp)
                           .text:010019b9 89 bd 70 ff ff ff                mov    %edi,-0x90(%ebp)
                           .text:010019bf e8 41 f9 ff ff                   call   0x01001305
                           .text:010019c4 8b 45 f0                         mov    -0x10(%ebp),%eax
                           .text:010019c7 56                               push   %esi
                           .text:010019c8 c6 85 78 ff ff ff 02             movb   $0x2,-0x88(%ebp)
                           .text:010019cf 89 85 7c ff ff ff                mov    %eax,-0x84(%ebp)
                           .text:010019d5 e8 8c 0f 00 00                   call   0x01002966
                           .text:010019da 85 c0                            test   %eax,%eax
                           .text:010019dc 74 b0                            je     0x0100198e
                           .text:010019de ff 75 f0                         pushl  -0x10(%ebp)
                           .text:010019e1 8d 55 e4                         lea    -0x1c(%ebp),%edx
                           .text:010019e4 6a 02                            push   $0x2
                           .text:010019e6 89 45 8c                         mov    %eax,-0x74(%ebp)
                           .text:010019e9 89 7d 88                         mov    %edi,-0x78(%ebp)
                           .text:010019ec e8 14 f9 ff ff                   call   0x01001305
                           .text:010019f1 83 65 9c 00                      andl   $0x0,-0x64(%ebp)
                           .text:010019f5 8d 45 f4                         lea    -0xc(%ebp),%eax
                           .text:010019f8 56                               push   %esi
                           .text:010019f9 88 5d 90                         mov    %bl,-0x70(%ebp)
                           .text:010019fc 89 45 94                         mov    %eax,-0x6c(%ebp)
                           .text:010019ff c7 45 98 06 00 00 00             movl   $0x6,-0x68(%ebp)
                           .text:01001a06 e8 5b 0f 00 00                   call   0x01002966
                           .text:01001a0b 85 c0                            test   %eax,%eax
                           .text:01001a0d 0f 84 7b ff ff ff                je     0x0100198e
                           .text:01001a13 ff 75 f0                         pushl  -0x10(%ebp)
                           .text:01001a16 8d 55 e4                         lea    -0x1c(%ebp),%edx
                           .text:01001a19 6a 03                            push   $0x3
                           .text:01001a1b 89 45 a4                         mov    %eax,-0x5c(%ebp)
                           .text:01001a1e 89 7d a0                         mov    %edi,-0x60(%ebp)
                           .text:01001a21 e8 df f8 ff ff                   call   0x01001305
                           .text:01001a26 83 65 b4 00                      andl   $0x0,-0x4c(%ebp)
                           .text:01001a2a 8b c2                            mov    %edx,%eax
                           .text:01001a2c 56                               push   %esi
                           .text:01001a2d c6 45 a8 40                      movb   $0x40,-0x58(%ebp)
                           .text:01001a31 89 45 ac                         mov    %eax,-0x54(%ebp)
                           .text:01001a34 89 5d b0                         mov    %ebx,-0x50(%ebp)
                           .text:01001a37 e8 2a 0f 00 00                   call   0x01002966
                           .text:01001a3c 33 f6                            xor    %esi,%esi
                           .text:01001a3e 3b c6                            cmp    %esi,%eax
                           .text:01001a40 0f 84 48 ff ff ff                je     0x0100198e
                           .text:01001a46 ff 75 f0                         pushl  -0x10(%ebp)
                           .text:01001a49 8d 55 e4                         lea    -0x1c(%ebp),%edx
                           .text:01001a4c 53                               push   %ebx
                           .text:01001a4d 89 45 bc                         mov    %eax,-0x44(%ebp)
                           .text:01001a50 89 7d b8                         mov    %edi,-0x48(%ebp)
                           .text:01001a53 e8 ad f8 ff ff                   call   0x01001305
                           .text:01001a58 c6 45 c0 02                      movb   $0x2,-0x40(%ebp)
                           .text:01001a5c 89 5d c4                         mov    %ebx,-0x3c(%ebp)
                           .text:01001a5f 39 75 e0                         cmp    %esi,-0x20(%ebp)
                           .text:01001a62 75 1c                            jne    0x01001a80
                           .text:01001a64 8d 45 d8                         lea    -0x28(%ebp),%eax
                           .text:01001a67 50                               push   %eax
                           .text:01001a68 8d 45 ec                         lea    -0x14(%ebp),%eax
                           .text:01001a6b 50                               push   %eax
                           .text:01001a6c 8d 45 d0                         lea    -0x30(%ebp),%eax
                           .text:01001a6f 50                               push   %eax
                           .text:01001a70 68 a3 00 00 00                   push   $0xa3
                           .text:01001a75 ff 15 d0 5c 00 01                call   *0x1005cd0
                           .text:01001a7b e9 15 02 00 00                   jmp    0x01001c95
                           .text:01001a80 8d 45 e8                         lea    -0x18(%ebp),%eax
                           .text:01001a83 50                               push   %eax
                           .text:01001a84 53                               push   %ebx
                           .text:01001a85 89 75 dc                         mov    %esi,-0x24(%ebp)
                           .text:01001a88 e8 77 21 00 00                   call   0x01003c04
                           .text:01001a8d 89 45 e0                         mov    %eax,-0x20(%ebp)
                           .text:01001a90 bf a3 00 00 00                   mov    $0xa3,%edi
                           .text:01001a95 3b c6                            cmp    %esi,%eax
                           .text:01001a97 0f 84 b5 00 00 00                je     0x01001b52
                           .text:01001a9d 8b 30                            mov    (%eax),%esi
                           .text:01001a9f 3b f0                            cmp    %eax,%esi
                           .text:01001aa1 0f 84 ab 00 00 00                je     0x01001b52
                           .text:01001aa7 8a 45 e4                         mov    -0x1c(%ebp),%al
                           .text:01001aaa 83 cb ff                         or     $0xffffffff,%ebx
                           .text:01001aad 24 c0                            and    $0xc0,%al
                           .text:01001aaf 74 2d                            je     0x01001ade
                           .text:01001ab1 3c 40                            cmp    $0x40,%al
                           .text:01001ab3 74 29                            je     0x01001ade
                           .text:01001ab5 3c 80                            cmp    $0x80,%al
                           .text:01001ab7 75 07                            jne    0x01001ac0
                           .text:01001ab9 bb ff ff 00 00                   mov    $0xffff,%ebx
                           .text:01001abe eb 23                            jmp    0x01001ae3
                           .text:01001ac0 3c c0                            cmp    $0xc0,%al
                           .text:01001ac2 75 1f                            jne    0x01001ae3
                           .text:01001ac4 8a 45 e4                         mov    -0x1c(%ebp),%al
                           .text:01001ac7 24 30                            and    $0x30,%al
                           .text:01001ac9 0f b6 d8                         movzbl %al,%ebx
                           .text:01001acc f7 db                            neg    %ebx
                           .text:01001ace 1b db                            sbb    %ebx,%ebx
                           .text:01001ad0 81 e3 00 00 00 ff                and    $0xff000000,%ebx
                           .text:01001ad6 81 c3 ff ff ff 00                add    $0xffffff,%ebx
                           .text:01001adc eb 05                            jmp    0x01001ae3
                           .text:01001ade bb ff 00 00 00                   mov    $0xff,%ebx
                           .text:01001ae3 8b 46 18                         mov    0x18(%esi),%eax
                           .text:01001ae6 8b cb                            mov    %ebx,%ecx
                           .text:01001ae8 23 4d e4                         and    -0x1c(%ebp),%ecx
                           .text:01001aeb 23 c3                            and    %ebx,%eax
                           .text:01001aed 3b c1                            cmp    %ecx,%eax
                           .text:01001aef 75 4f                            jne    0x01001b40
                           .text:01001af1 8b 46 08                         mov    0x8(%esi),%eax
                           .text:01001af4 8b 8d 74 ff ff ff                mov    -0x8c(%ebp),%ecx
                           .text:01001afa 89 85 7c ff ff ff                mov    %eax,-0x84(%ebp)
                           .text:01001b00 89 41 28                         mov    %eax,0x28(%ecx)
                           .text:01001b03 8b 85 7c ff ff ff                mov    -0x84(%ebp),%eax
                           .text:01001b09 8b 4d 8c                         mov    -0x74(%ebp),%ecx
                           .text:01001b0c 89 41 28                         mov    %eax,0x28(%ecx)
                           .text:01001b0f 8b 85 7c ff ff ff                mov    -0x84(%ebp),%eax
                           .text:01001b15 8b 4d a4                         mov    -0x5c(%ebp),%ecx
                           .text:01001b18 89 41 28                         mov    %eax,0x28(%ecx)
                           .text:01001b1b 8b 45 bc                         mov    -0x44(%ebp),%eax
                           .text:01001b1e 8b 8d 7c ff ff ff                mov    -0x84(%ebp),%ecx
                           .text:01001b24 89 48 28                         mov    %ecx,0x28(%eax)
                           .text:01001b27 8d 45 d8                         lea    -0x28(%ebp),%eax
                           .text:01001b2a 50                               push   %eax
                           .text:01001b2b 8d 45 ec                         lea    -0x14(%ebp),%eax
                           .text:01001b2e 50                               push   %eax
                           .text:01001b2f 8d 45 d0                         lea    -0x30(%ebp),%eax
                           .text:01001b32 50                               push   %eax
                           .text:01001b33 57                               push   %edi
                           .text:01001b34 ff 15 d0 5c 00 01                call   *0x1005cd0
                           .text:01001b3a 83 7d ec 00                      cmpl   $0x0,-0x14(%ebp)
                           .text:01001b3e 74 09                            je     0x01001b49
                           .text:01001b40 8b 36                            mov    (%esi),%esi
                           .text:01001b42 3b 75 e0                         cmp    -0x20(%ebp),%esi
                           .text:01001b45 75 9c                            jne    0x01001ae3
                           .text:01001b47 eb 09                            jmp    0x01001b52
                           .text:01001b49 8b 85 7c ff ff ff                mov    -0x84(%ebp),%eax
                           .text:01001b4f 89 45 f0                         mov    %eax,-0x10(%ebp)
                           .text:01001b52 83 7d f0 ff                      cmpl   $0xffffffff,-0x10(%ebp)
                           .text:01001b56 0f 85 06 01 00 00                jne    0x01001c62
                           .text:01001b5c 8d 45 e8                         lea    -0x18(%ebp),%eax
                           .text:01001b5f 50                               push   %eax
                           .text:01001b60 6a 02                            push   $0x2
                           .text:01001b62 e8 9d 20 00 00                   call   0x01003c04
                           .text:01001b67 8b d8                            mov    %eax,%ebx
                           .text:01001b69 89 5d dc                         mov    %ebx,-0x24(%ebp)
                           .text:01001b6c 85 db                            test   %ebx,%ebx
                           .text:01001b6e 0f 84 ee 00 00 00                je     0x01001c62
                           .text:01001b74 8b 33                            mov    (%ebx),%esi
                           .text:01001b76 3b f3                            cmp    %ebx,%esi
                           .text:01001b78 0f 84 e4 00 00 00                je     0x01001c62
                           .text:01001b7e 8b 4e 08                         mov    0x8(%esi),%ecx
                           .text:01001b81 85 c9                            test   %ecx,%ecx
                           .text:01001b83 74 5d                            je     0x01001be2
                           .text:01001b85 8b 46 10                         mov    0x10(%esi),%eax
                           .text:01001b88 8b d0                            mov    %eax,%edx
                           .text:01001b8a 23 55 e4                         and    -0x1c(%ebp),%edx
                           .text:01001b8d 23 c1                            and    %ecx,%eax
                           .text:01001b8f 3b c2                            cmp    %edx,%eax
                           .text:01001b91 75 4f                            jne    0x01001be2
                           .text:01001b93 8b 46 0c                         mov    0xc(%esi),%eax
                           .text:01001b96 8b 8d 74 ff ff ff                mov    -0x8c(%ebp),%ecx
                           .text:01001b9c 89 85 7c ff ff ff                mov    %eax,-0x84(%ebp)
                           .text:01001ba2 89 41 28                         mov    %eax,0x28(%ecx)
                           .text:01001ba5 8b 85 7c ff ff ff                mov    -0x84(%ebp),%eax
                           .text:01001bab 8b 4d 8c                         mov    -0x74(%ebp),%ecx
                           .text:01001bae 89 41 28                         mov    %eax,0x28(%ecx)
                           .text:01001bb1 8b 85 7c ff ff ff                mov    -0x84(%ebp),%eax
                           .text:01001bb7 8b 4d a4                         mov    -0x5c(%ebp),%ecx
                           .text:01001bba 89 41 28                         mov    %eax,0x28(%ecx)
                           .text:01001bbd 8b 45 bc                         mov    -0x44(%ebp),%eax
                           .text:01001bc0 8b 8d 7c ff ff ff                mov    -0x84(%ebp),%ecx
                           .text:01001bc6 89 48 28                         mov    %ecx,0x28(%eax)
                           .text:01001bc9 8d 45 d8                         lea    -0x28(%ebp),%eax
                           .text:01001bcc 50                               push   %eax
                           .text:01001bcd 8d 45 ec                         lea    -0x14(%ebp),%eax
                           .text:01001bd0 50                               push   %eax
                           .text:01001bd1 8d 45 d0                         lea    -0x30(%ebp),%eax
                           .text:01001bd4 50                               push   %eax
                           .text:01001bd5 57                               push   %edi
                           .text:01001bd6 ff 15 d0 5c 00 01                call   *0x1005cd0
                           .text:01001bdc 83 7d ec 00                      cmpl   $0x0,-0x14(%ebp)
                           .text:01001be0 74 08                            je     0x01001bea
                           .text:01001be2 8b 36                            mov    (%esi),%esi
                           .text:01001be4 3b f3                            cmp    %ebx,%esi
                           .text:01001be6 75 96                            jne    0x01001b7e
                           .text:01001be8 eb 0e                            jmp    0x01001bf8
                           .text:01001bea 8b 85 7c ff ff ff                mov    -0x84(%ebp),%eax
                           .text:01001bf0 89 45 f0                         mov    %eax,-0x10(%ebp)
                           .text:01001bf3 83 f8 ff                         cmp    $0xffffffff,%eax
                           .text:01001bf6 75 6a                            jne    0x01001c62
                           .text:01001bf8 8b 33                            mov    (%ebx),%esi
                           .text:01001bfa eb 57                            jmp    0x01001c53
                           .text:01001bfc 80 7e 08 7f                      cmpb   $0x7f,0x8(%esi)
                           .text:01001c00 74 4f                            je     0x01001c51
                           .text:01001c02 8b 46 0c                         mov    0xc(%esi),%eax
                           .text:01001c05 8b 8d 74 ff ff ff                mov    -0x8c(%ebp),%ecx
                           .text:01001c0b 89 85 7c ff ff ff                mov    %eax,-0x84(%ebp)
                           .text:01001c11 89 41 28                         mov    %eax,0x28(%ecx)
                           .text:01001c14 8b 85 7c ff ff ff                mov    -0x84(%ebp),%eax
                           .text:01001c1a 8b 4d 8c                         mov    -0x74(%ebp),%ecx
                           .text:01001c1d 89 41 28                         mov    %eax,0x28(%ecx)
                           .text:01001c20 8b 85 7c ff ff ff                mov    -0x84(%ebp),%eax
                           .text:01001c26 8b 4d a4                         mov    -0x5c(%ebp),%ecx
                           .text:01001c29 89 41 28                         mov    %eax,0x28(%ecx)
                           .text:01001c2c 8b 45 bc                         mov    -0x44(%ebp),%eax
                           .text:01001c2f 8b 8d 7c ff ff ff                mov    -0x84(%ebp),%ecx
                           .text:01001c35 89 48 28                         mov    %ecx,0x28(%eax)
                           .text:01001c38 8d 45 d8                         lea    -0x28(%ebp),%eax
                           .text:01001c3b 50                               push   %eax
                           .text:01001c3c 8d 45 ec                         lea    -0x14(%ebp),%eax
                           .text:01001c3f 50                               push   %eax
                           .text:01001c40 8d 45 d0                         lea    -0x30(%ebp),%eax
                           .text:01001c43 50                               push   %eax
                           .text:01001c44 57                               push   %edi
                           .text:01001c45 ff 15 d0 5c 00 01                call   *0x1005cd0
                           .text:01001c4b 83 7d ec 00                      cmpl   $0x0,-0x14(%ebp)
                           .text:01001c4f 74 08                            je     0x01001c59
                           .text:01001c51 8b 36                            mov    (%esi),%esi
                           .text:01001c53 3b f3                            cmp    %ebx,%esi
                           .text:01001c55 75 a5                            jne    0x01001bfc
                           .text:01001c57 eb 09                            jmp    0x01001c62
                           .text:01001c59 8b 85 7c ff ff ff                mov    -0x84(%ebp),%eax
                           .text:01001c5f 89 45 f0                         mov    %eax,-0x10(%ebp)
                           .text:01001c62 33 f6                            xor    %esi,%esi
                           .text:01001c64 39 75 e0                         cmp    %esi,-0x20(%ebp)
                           .text:01001c67 74 08                            je     0x01001c71
                           .text:01001c69 ff 75 e0                         pushl  -0x20(%ebp)
                           .text:01001c6c e8 bf 0f 00 00                   call   0x01002c30
                           .text:01001c71 39 75 dc                         cmp    %esi,-0x24(%ebp)
                           .text:01001c74 74 08                            je     0x01001c7e
                           .text:01001c76 ff 75 dc                         pushl  -0x24(%ebp)
                           .text:01001c79 e8 b2 0f 00 00                   call   0x01002c30
                           .text:01001c7e 83 7d f0 ff                      cmpl   $0xffffffff,-0x10(%ebp)
                           .text:01001c82 75 11                            jne    0x01001c95
                           .text:01001c84 39 75 ec                         cmp    %esi,-0x14(%ebp)
                           .text:01001c87 75 0c                            jne    0x01001c95
                           .text:01001c89 39 75 e8                         cmp    %esi,-0x18(%ebp)
                           .text:01001c8c 75 07                            jne    0x01001c95
                           .text:01001c8e c7 45 ec 05 00 00 00             movl   $0x5,-0x14(%ebp)
                           .text:01001c95 ff b5 74 ff ff ff                pushl  -0x8c(%ebp)
                           .text:01001c9b e8 ba 0c 00 00                   call   0x0100295a
                           .text:01001ca0 ff 75 8c                         pushl  -0x74(%ebp)
                           .text:01001ca3 e8 b2 0c 00 00                   call   0x0100295a
                           .text:01001ca8 ff 75 a4                         pushl  -0x5c(%ebp)
                           .text:01001cab e8 aa 0c 00 00                   call   0x0100295a
                           .text:01001cb0 ff 75 bc                         pushl  -0x44(%ebp)
                           .text:01001cb3 e8 a2 0c 00 00                   call   0x0100295a
                           .text:01001cb8 8b 45 ec                         mov    -0x14(%ebp),%eax
                           .text:01001cbb 3b c6                            cmp    %esi,%eax
                           .text:01001cbd 75 03                            jne    0x01001cc2
                           .text:01001cbf 8b 45 e8                         mov    -0x18(%ebp),%eax
                           .text:01001cc2 8b 4d fc                         mov    -0x4(%ebp),%ecx
                           .text:01001cc5 5f                               pop    %edi
                           .text:01001cc6 5e                               pop    %esi
                           .text:01001cc7 33 cd                            xor    %ebp,%ecx
                           .text:01001cc9 5b                               pop    %ebx
                           .text:01001cca e8 20 08 00 00                   call   0x010024ef
                           .text:01001ccf c9                               leave  
                           .text:01001cd0 c2 0c 00                         ret    $0xc
                           .text:01001cd3 cc                               int3   
                           .text:01001cd4 cc                               int3   
                           .text:01001cd5 cc                               int3   
                           .text:01001cd6 cc                               int3   
                           .text:01001cd7 cc                               int3   
                           .text:01001cd8 8b ff                            mov    %edi,%edi
                           .text:01001cda 55                               push   %ebp
                           .text:01001cdb 8b ec                            mov    %esp,%ebp
                           .text:01001cdd 83 ec 74                         sub    $0x74,%esp
                           .text:01001ce0 a1 00 50 00 01                   mov    0x1005000,%eax
                           .text:01001ce5 33 c5                            xor    %ebp,%eax
                           .text:01001ce7 89 45 fc                         mov    %eax,-0x4(%ebp)
                           .text:01001cea 53                               push   %ebx
                           .text:01001ceb 56                               push   %esi
                           .text:01001cec 8b 75 08                         mov    0x8(%ebp),%esi
                           .text:01001cef 57                               push   %edi
                           .text:01001cf0 8d 45 90                         lea    -0x70(%ebp),%eax
                           .text:01001cf3 50                               push   %eax
                           .text:01001cf4 8d 46 18                         lea    0x18(%esi),%eax
                           .text:01001cf7 50                               push   %eax
                           .text:01001cf8 ff 15 14 11 00 01                call   *0x1001114
                           .text:01001cfe 83 7e 0c 00                      cmpl   $0x0,0xc(%esi)
                           .text:01001d02 74 58                            je     0x01001d5c
                           .text:01001d04 0f b6 46 10                      movzbl 0x10(%esi),%eax
                           .text:01001d08 50                               push   %eax
                           .text:01001d09 68 94 11 00 01                   push   $0x1001194
                           .text:01001d0e 8d 45 bc                         lea    -0x44(%ebp),%eax
                           .text:01001d11 6a 20                            push   $0x20
                           .text:01001d13 50                               push   %eax
                           .text:01001d14 e8 30 f9 ff ff                   call   0x01001649
                           .text:01001d19 83 c4 10                         add    $0x10,%esp
                           .text:01001d1c 85 c0                            test   %eax,%eax
                           .text:01001d1e 7c 3c                            jl     0x01001d5c
                           .text:01001d20 33 ff                            xor    %edi,%edi
                           .text:01001d22 47                               inc    %edi
                           .text:01001d23 8d 5d c0                         lea    -0x40(%ebp),%ebx
                           .text:01001d26 c7 45 8c 1e 00 00 00             movl   $0x1e,-0x74(%ebp)
                           .text:01001d2d 39 7e 0c                         cmp    %edi,0xc(%esi)
                           .text:01001d30 76 30                            jbe    0x01001d62
                           .text:01001d32 0f b6 44 3e 10                   movzbl 0x10(%esi,%edi,1),%eax
                           .text:01001d37 50                               push   %eax
                           .text:01001d38 68 88 11 00 01                   push   $0x1001188
                           .text:01001d3d ff 75 8c                         pushl  -0x74(%ebp)
                           .text:01001d40 53                               push   %ebx
                           .text:01001d41 e8 03 f9 ff ff                   call   0x01001649
                           .text:01001d46 83 c4 10                         add    $0x10,%esp
                           .text:01001d49 85 c0                            test   %eax,%eax
                           .text:01001d4b 7c 0f                            jl     0x01001d5c
                           .text:01001d4d 83 6d 8c 03                      subl   $0x3,-0x74(%ebp)
                           .text:01001d51 83 c3 06                         add    $0x6,%ebx
                           .text:01001d54 47                               inc    %edi
                           .text:01001d55 3b 7e 0c                         cmp    0xc(%esi),%edi
                           .text:01001d58 72 d8                            jb     0x01001d32
                           .text:01001d5a eb 06                            jmp    0x01001d62
                           .text:01001d5c 33 c0                            xor    %eax,%eax
                           .text:01001d5e 66 89 45 bc                      mov    %ax,-0x44(%ebp)
                           .text:01001d62 8b 76 1c                         mov    0x1c(%esi),%esi
                           .text:01001d65 4e                               dec    %esi
                           .text:01001d66 74 25                            je     0x01001d8d
                           .text:01001d68 4e                               dec    %esi
                           .text:01001d69 74 1b                            je     0x01001d86
                           .text:01001d6b 4e                               dec    %esi
                           .text:01001d6c 74 11                            je     0x01001d7f
                           .text:01001d6e 4e                               dec    %esi
                           .text:01001d6f 74 07                            je     0x01001d78
                           .text:01001d71 68 23 27 00 00                   push   $0x2723
                           .text:01001d76 eb 1a                            jmp    0x01001d92
                           .text:01001d78 68 18 27 00 00                   push   $0x2718
                           .text:01001d7d eb 13                            jmp    0x01001d92
                           .text:01001d7f 68 17 27 00 00                   push   $0x2717
                           .text:01001d84 eb 0c                            jmp    0x01001d92
                           .text:01001d86 68 16 27 00 00                   push   $0x2716
                           .text:01001d8b eb 05                            jmp    0x01001d92
                           .text:01001d8d 68 15 27 00 00                   push   $0x2715
                           .text:01001d92 e8 a7 0d 00 00                   call   0x01002b3e
                           .text:01001d97 59                               pop    %ecx
                           .text:01001d98 8b f0                            mov    %eax,%esi
                           .text:01001d9a 56                               push   %esi
                           .text:01001d9b 8d 45 bc                         lea    -0x44(%ebp),%eax
                           .text:01001d9e 50                               push   %eax
                           .text:01001d9f 8d 45 90                         lea    -0x70(%ebp),%eax
                           .text:01001da2 50                               push   %eax
                           .text:01001da3 68 1d 27 00 00                   push   $0x271d
                           .text:01001da8 6a 01                            push   $0x1
                           .text:01001daa e8 df 0c 00 00                   call   0x01002a8e
                           .text:01001daf 83 c4 14                         add    $0x14,%esp
                           .text:01001db2 56                               push   %esi
                           .text:01001db3 ff 15 7c 10 00 01                call   *0x100107c
                           .text:01001db9 8b 4d fc                         mov    -0x4(%ebp),%ecx
                           .text:01001dbc 5f                               pop    %edi
                           .text:01001dbd 5e                               pop    %esi
                           .text:01001dbe 33 cd                            xor    %ebp,%ecx
                           .text:01001dc0 5b                               pop    %ebx
                           .text:01001dc1 e8 29 07 00 00                   call   0x010024ef
                           .text:01001dc6 c9                               leave  
                           .text:01001dc7 c2 04 00                         ret    $0x4
                           .text:01001dca cc                               int3   
                           .text:01001dcb cc                               int3   
                           .text:01001dcc cc                               int3   
                           .text:01001dcd cc                               int3   
                           .text:01001dce cc                               int3   
                           .text:01001dcf 8b ff                            mov    %edi,%edi
                           .text:01001dd1 55                               push   %ebp
                           .text:01001dd2 8b ec                            mov    %esp,%ebp
                           .text:01001dd4 83 ec 60                         sub    $0x60,%esp
                           .text:01001dd7 a1 00 50 00 01                   mov    0x1005000,%eax
                           .text:01001ddc 33 c5                            xor    %ebp,%eax
                           .text:01001dde 89 45 fc                         mov    %eax,-0x4(%ebp)
                           .text:01001de1 53                               push   %ebx
                           .text:01001de2 56                               push   %esi
                           .text:01001de3 8b 75 08                         mov    0x8(%ebp),%esi
                           .text:01001de6 57                               push   %edi
                           .text:01001de7 8b 7d 0c                         mov    0xc(%ebp),%edi
                           .text:01001dea 83 cb ff                         or     $0xffffffff,%ebx
                           .text:01001ded 89 5d a8                         mov    %ebx,-0x58(%ebp)
                           .text:01001df0 c6 45 bb 00                      movb   $0x0,-0x45(%ebp)
                           .text:01001df4 85 ff                            test   %edi,%edi
                           .text:01001df6 75 0e                            jne    0x01001e06
                           .text:01001df8 80 7d 10 00                      cmpb   $0x0,0x10(%ebp)
                           .text:01001dfc 74 08                            je     0x01001e06
                           .text:01001dfe 21 7d ac                         and    %edi,-0x54(%ebp)
                           .text:01001e01 21 7d b0                         and    %edi,-0x50(%ebp)
                           .text:01001e04 eb 3a                            jmp    0x01001e40
                           .text:01001e06 89 75 ac                         mov    %esi,-0x54(%ebp)
                           .text:01001e09 85 f6                            test   %esi,%esi
                           .text:01001e0b 74 31                            je     0x01001e3e
                           .text:01001e0d 8d 45 b4                         lea    -0x4c(%ebp),%eax
                           .text:01001e10 50                               push   %eax
                           .text:01001e11 56                               push   %esi
                           .text:01001e12 e8 dc f5 ff ff                   call   0x010013f3
                           .text:01001e17 83 7d b4 01                      cmpl   $0x1,-0x4c(%ebp)
                           .text:01001e1b 89 45 b0                         mov    %eax,-0x50(%ebp)
                           .text:01001e1e 74 1e                            je     0x01001e3e
                           .text:01001e20 56                               push   %esi
                           .text:01001e21 ff 35 b4 5c 00 01                pushl  0x1005cb4
                           .text:01001e27 68 12 27 00 00                   push   $0x2712
                           .text:01001e2c 6a 02                            push   $0x2
                           .text:01001e2e e8 5b 0c 00 00                   call   0x01002a8e
                           .text:01001e33 83 c4 10                         add    $0x10,%esp
                           .text:01001e36 6a 01                            push   $0x1
                           .text:01001e38 ff 15 d8 10 00 01                call   *0x10010d8
                           .text:01001e3e 8b f7                            mov    %edi,%esi
                           .text:01001e40 8d 45 b4                         lea    -0x4c(%ebp),%eax
                           .text:01001e43 50                               push   %eax
                           .text:01001e44 6a 02                            push   $0x2
                           .text:01001e46 e8 b9 1d 00 00                   call   0x01003c04
                           .text:01001e4b 8b f8                            mov    %eax,%edi
                           .text:01001e4d 85 ff                            test   %edi,%edi
                           .text:01001e4f 75 08                            jne    0x01001e59
                           .text:01001e51 8b 45 b4                         mov    -0x4c(%ebp),%eax
                           .text:01001e54 e9 33 01 00 00                   jmp    0x01001f8c
                           .text:01001e59 85 f6                            test   %esi,%esi
                           .text:01001e5b 74 0d                            je     0x01001e6a
                           .text:01001e5d 56                               push   %esi
                           .text:01001e5e e8 16 f5 ff ff                   call   0x01001379
                           .text:01001e63 8b d8                            mov    %eax,%ebx
                           .text:01001e65 83 fb ff                         cmp    $0xffffffff,%ebx
                           .text:01001e68 74 b6                            je     0x01001e20
                           .text:01001e6a 8d 45 b4                         lea    -0x4c(%ebp),%eax
                           .text:01001e6d 50                               push   %eax
                           .text:01001e6e 6a 04                            push   $0x4
                           .text:01001e70 e8 8f 1d 00 00                   call   0x01003c04
                           .text:01001e75 89 45 a0                         mov    %eax,-0x60(%ebp)
                           .text:01001e78 85 c0                            test   %eax,%eax
                           .text:01001e7a 74 d5                            je     0x01001e51
                           .text:01001e7c 8b 30                            mov    (%eax),%esi
                           .text:01001e7e e9 df 00 00 00                   jmp    0x01001f62
                           .text:01001e83 80 7d 14 00                      cmpb   $0x0,0x14(%ebp)
                           .text:01001e87 74 29                            je     0x01001eb2
                           .text:01001e89 83 7e 1c 02                      cmpl   $0x2,0x1c(%esi)
                           .text:01001e8d 0f 84 ca 00 00 00                je     0x01001f5d
                           .text:01001e93 8d 45 a4                         lea    -0x5c(%ebp),%eax
                           .text:01001e96 50                               push   %eax
                           .text:01001e97 57                               push   %edi
                           .text:01001e98 ff 76 08                         pushl  0x8(%esi)
                           .text:01001e9b e8 1f f5 ff ff                   call   0x010013bf
                           .text:01001ea0 85 c0                            test   %eax,%eax
                           .text:01001ea2 0f 85 b5 00 00 00                jne    0x01001f5d
                           .text:01001ea8 80 7d a4 7f                      cmpb   $0x7f,-0x5c(%ebp)
                           .text:01001eac 0f 84 ab 00 00 00                je     0x01001f5d
                           .text:01001eb2 83 7d ac 00                      cmpl   $0x0,-0x54(%ebp)
                           .text:01001eb6 74 15                            je     0x01001ecd
                           .text:01001eb8 8d 45 b0                         lea    -0x50(%ebp),%eax
                           .text:01001ebb 50                               push   %eax
                           .text:01001ebc 8d 46 18                         lea    0x18(%esi),%eax
                           .text:01001ebf 50                               push   %eax
                           .text:01001ec0 e8 90 0b 00 00                   call   0x01002a55
                           .text:01001ec5 85 c0                            test   %eax,%eax
                           .text:01001ec7 0f 84 90 00 00 00                je     0x01001f5d
                           .text:01001ecd 80 7d 10 00                      cmpb   $0x0,0x10(%ebp)
                           .text:01001ed1 74 09                            je     0x01001edc
                           .text:01001ed3 3b 5e 08                         cmp    0x8(%esi),%ebx
                           .text:01001ed6 0f 85 81 00 00 00                jne    0x01001f5d
                           .text:01001edc 8b 46 08                         mov    0x8(%esi),%eax
                           .text:01001edf 39 45 a8                         cmp    %eax,-0x58(%ebp)
                           .text:01001ee2 74 6f                            je     0x01001f53
                           .text:01001ee4 8b c8                            mov    %eax,%ecx
                           .text:01001ee6 8b 07                            mov    (%edi),%eax
                           .text:01001ee8 89 4d a8                         mov    %ecx,-0x58(%ebp)
                           .text:01001eeb 83 cb ff                         or     $0xffffffff,%ebx
                           .text:01001eee eb 07                            jmp    0x01001ef7
                           .text:01001ef0 3b 48 0c                         cmp    0xc(%eax),%ecx
                           .text:01001ef3 74 08                            je     0x01001efd
                           .text:01001ef5 8b 00                            mov    (%eax),%eax
                           .text:01001ef7 3b c7                            cmp    %edi,%eax
                           .text:01001ef9 75 f5                            jne    0x01001ef0
                           .text:01001efb eb 08                            jmp    0x01001f05
                           .text:01001efd 8b 58 0c                         mov    0xc(%eax),%ebx
                           .text:01001f00 83 fb ff                         cmp    $0xffffffff,%ebx
                           .text:01001f03 75 04                            jne    0x01001f09
                           .text:01001f05 33 c0                            xor    %eax,%eax
                           .text:01001f07 eb 03                            jmp    0x01001f0c
                           .text:01001f09 8b 40 08                         mov    0x8(%eax),%eax
                           .text:01001f0c 53                               push   %ebx
                           .text:01001f0d 8b c8                            mov    %eax,%ecx
                           .text:01001f0f c1 e9 18                         shr    $0x18,%ecx
                           .text:01001f12 51                               push   %ecx
                           .text:01001f13 8b c8                            mov    %eax,%ecx
                           .text:01001f15 c1 e9 10                         shr    $0x10,%ecx
                           .text:01001f18 0f b6 c9                         movzbl %cl,%ecx
                           .text:01001f1b 51                               push   %ecx
                           .text:01001f1c 8b c8                            mov    %eax,%ecx
                           .text:01001f1e c1 e9 08                         shr    $0x8,%ecx
                           .text:01001f21 0f b6 c9                         movzbl %cl,%ecx
                           .text:01001f24 51                               push   %ecx
                           .text:01001f25 0f b6 c0                         movzbl %al,%eax
                           .text:01001f28 50                               push   %eax
                           .text:01001f29 68 a0 11 00 01                   push   $0x10011a0
                           .text:01001f2e 8d 45 bc                         lea    -0x44(%ebp),%eax
                           .text:01001f31 6a 40                            push   $0x40
                           .text:01001f33 50                               push   %eax
                           .text:01001f34 e8 6f f7 ff ff                   call   0x010016a8
                           .text:01001f39 83 c4 20                         add    $0x20,%esp
                           .text:01001f3c 85 c0                            test   %eax,%eax
                           .text:01001f3e 7c 13                            jl     0x01001f53
                           .text:01001f40 8d 45 bc                         lea    -0x44(%ebp),%eax
                           .text:01001f43 50                               push   %eax
                           .text:01001f44 68 13 27 00 00                   push   $0x2713
                           .text:01001f49 6a 01                            push   $0x1
                           .text:01001f4b e8 3e 0b 00 00                   call   0x01002a8e
                           .text:01001f50 83 c4 0c                         add    $0xc,%esp
                           .text:01001f53 56                               push   %esi
                           .text:01001f54 c6 45 bb 01                      movb   $0x1,-0x45(%ebp)
                           .text:01001f58 e8 7b fd ff ff                   call   0x01001cd8
                           .text:01001f5d 8b 36                            mov    (%esi),%esi
                           .text:01001f5f 8b 45 a0                         mov    -0x60(%ebp),%eax
                           .text:01001f62 3b f0                            cmp    %eax,%esi
                           .text:01001f64 0f 85 19 ff ff ff                jne    0x01001e83
                           .text:01001f6a 50                               push   %eax
                           .text:01001f6b e8 c0 0c 00 00                   call   0x01002c30
                           .text:01001f70 57                               push   %edi
                           .text:01001f71 e8 ba 0c 00 00                   call   0x01002c30
                           .text:01001f76 80 7d bb 00                      cmpb   $0x0,-0x45(%ebp)
                           .text:01001f7a 75 0e                            jne    0x01001f8a
                           .text:01001f7c 68 22 27 00 00                   push   $0x2722
                           .text:01001f81 6a 01                            push   $0x1
                           .text:01001f83 e8 06 0b 00 00                   call   0x01002a8e
                           .text:01001f88 59                               pop    %ecx
                           .text:01001f89 59                               pop    %ecx
                           .text:01001f8a 33 c0                            xor    %eax,%eax
                           .text:01001f8c 8b 4d fc                         mov    -0x4(%ebp),%ecx
                           .text:01001f8f 5f                               pop    %edi
                           .text:01001f90 5e                               pop    %esi
                           .text:01001f91 33 cd                            xor    %ebp,%ecx
                           .text:01001f93 5b                               pop    %ebx
                           .text:01001f94 e8 56 05 00 00                   call   0x010024ef
                           .text:01001f99 c9                               leave  
                           .text:01001f9a c2 10 00                         ret    $0x10
                           .text:01001f9d cc                               int3   
                           .text:01001f9e cc                               int3   
                           .text:01001f9f cc                               int3   
                           .text:01001fa0 cc                               int3   
                           .text:01001fa1 cc                               int3   
                           .text:01001fa2 8b ff                            mov    %edi,%edi
                           .text:01001fa4 55                               push   %ebp
                           .text:01001fa5 8b ec                            mov    %esp,%ebp
                           .text:01001fa7 81 ec b0 01 00 00                sub    $0x1b0,%esp
                           .text:01001fad a1 00 50 00 01                   mov    0x1005000,%eax
                           .text:01001fb2 33 c5                            xor    %ebp,%eax
                           .text:01001fb4 89 45 fc                         mov    %eax,-0x4(%ebp)
                           .text:01001fb7 53                               push   %ebx
                           .text:01001fb8 56                               push   %esi
                           .text:01001fb9 8b 75 0c                         mov    0xc(%ebp),%esi
                           .text:01001fbc 57                               push   %edi
                           .text:01001fbd 33 db                            xor    %ebx,%ebx
                           .text:01001fbf 56                               push   %esi
                           .text:01001fc0 ff 75 08                         pushl  0x8(%ebp)
                           .text:01001fc3 89 9d 64 fe ff ff                mov    %ebx,-0x19c(%ebp)
                           .text:01001fc9 88 9d 58 fe ff ff                mov    %bl,-0x1a8(%ebp)
                           .text:01001fcf c6 85 54 fe ff ff 01             movb   $0x1,-0x1ac(%ebp)
                           .text:01001fd6 89 9d 68 fe ff ff                mov    %ebx,-0x198(%ebp)
                           .text:01001fdc 89 9d 60 fe ff ff                mov    %ebx,-0x1a0(%ebp)
                           .text:01001fe2 89 9d 5c fe ff ff                mov    %ebx,-0x1a4(%ebp)
                           .text:01001fe8 e8 18 1d 00 00                   call   0x01003d05
                           .text:01001fed 53                               push   %ebx
                           .text:01001fee 53                               push   %ebx
                           .text:01001fef 33 ff                            xor    %edi,%edi
                           .text:01001ff1 47                               inc    %edi
                           .text:01001ff2 57                               push   %edi
                           .text:01001ff3 53                               push   %ebx
                           .text:01001ff4 ff 15 74 10 00 01                call   *0x1001074
                           .text:01001ffa e8 9d 0b 00 00                   call   0x01002b9c
                           .text:01001fff 8b 06                            mov    (%esi),%eax
                           .text:01002001 a3 b4 5c 00 01                   mov    %eax,0x1005cb4
                           .text:01002006 8d 85 6c fe ff ff                lea    -0x194(%ebp),%eax
                           .text:0100200c 50                               push   %eax
                           .text:0100200d 68 01 01 00 00                   push   $0x101
                           .text:01002012 ff 15 8c 10 00 01                call   *0x100108c
                           .text:01002018 3b c3                            cmp    %ebx,%eax
                           .text:0100201a 74 1d                            je     0x01002039
                           .text:0100201c 50                               push   %eax
                           .text:0100201d ff 35 b4 5c 00 01                pushl  0x1005cb4
                           .text:01002023 68 19 27 00 00                   push   $0x2719
                           .text:01002028 6a 02                            push   $0x2
                           .text:0100202a e8 5f 0a 00 00                   call   0x01002a8e
                           .text:0100202f 83 c4 10                         add    $0x10,%esp
                           .text:01002032 57                               push   %edi
                           .text:01002033 ff 15 d8 10 00 01                call   *0x10010d8
                           .text:01002039 83 7d 08 02                      cmpl   $0x2,0x8(%ebp)
                           .text:0100203d 7d 05                            jge    0x01002044
                           .text:0100203f e8 76 f5 ff ff                   call   0x010015ba
                           .text:01002044 39 7d 08                         cmp    %edi,0x8(%ebp)
                           .text:01002047 8b c7                            mov    %edi,%eax
                           .text:01002049 89 bd 50 fe ff ff                mov    %edi,-0x1b0(%ebp)
                           .text:0100204f 0f 8e d3 00 00 00                jle    0x01002128
                           .text:01002055 8b 04 86                         mov    (%esi,%eax,4),%eax
                           .text:01002058 8a 08                            mov    (%eax),%cl
                           .text:0100205a 80 f9 2d                         cmp    $0x2d,%cl
                           .text:0100205d 74 3b                            je     0x0100209a
                           .text:0100205f 80 f9 2f                         cmp    $0x2f,%cl
                           .text:01002062 74 36                            je     0x0100209a
                           .text:01002064 39 9d 68 fe ff ff                cmp    %ebx,-0x198(%ebp)
                           .text:0100206a 75 0b                            jne    0x01002077
                           .text:0100206c 89 85 68 fe ff ff                mov    %eax,-0x198(%ebp)
                           .text:01002072 e9 9b 00 00 00                   jmp    0x01002112
                           .text:01002077 39 9d 60 fe ff ff                cmp    %ebx,-0x1a0(%ebp)
                           .text:0100207d 75 0b                            jne    0x0100208a
                           .text:0100207f 89 85 60 fe ff ff                mov    %eax,-0x1a0(%ebp)
                           .text:01002085 e9 88 00 00 00                   jmp    0x01002112
                           .text:0100208a 39 9d 5c fe ff ff                cmp    %ebx,-0x1a4(%ebp)
                           .text:01002090 75 ad                            jne    0x0100203f
                           .text:01002092 89 85 5c fe ff ff                mov    %eax,-0x1a4(%ebp)
                           .text:01002098 eb 78                            jmp    0x01002112
                           .text:0100209a 8d 78 01                         lea    0x1(%eax),%edi
                           .text:0100209d eb 6d                            jmp    0x0100210c
                           .text:0100209f 0f be c0                         movsbl %al,%eax
                           .text:010020a2 50                               push   %eax
                           .text:010020a3 ff 15 0c 11 00 01                call   *0x100110c
                           .text:010020a9 59                               pop    %ecx
                           .text:010020aa 83 f8 41                         cmp    $0x41,%eax
                           .text:010020ad 74 52                            je     0x01002101
                           .text:010020af 83 f8 44                         cmp    $0x44,%eax
                           .text:010020b2 74 41                            je     0x010020f5
                           .text:010020b4 83 f8 47                         cmp    $0x47,%eax
                           .text:010020b7 74 48                            je     0x01002101
                           .text:010020b9 83 f8 4e                         cmp    $0x4e,%eax
                           .text:010020bc 74 22                            je     0x010020e0
                           .text:010020be 83 f8 53                         cmp    $0x53,%eax
                           .text:010020c1 74 11                            je     0x010020d4
                           .text:010020c3 83 f8 56                         cmp    $0x56,%eax
                           .text:010020c6 0f 85 73 ff ff ff                jne    0x0100203f
                           .text:010020cc 88 9d 54 fe ff ff                mov    %bl,-0x1ac(%ebp)
                           .text:010020d2 eb 13                            jmp    0x010020e7
                           .text:010020d4 c7 85 64 fe ff ff 02 00 00 00    movl   $0x2,-0x19c(%ebp)
                           .text:010020de eb 2b                            jmp    0x0100210b
                           .text:010020e0 c6 85 58 fe ff ff 01             movb   $0x1,-0x1a8(%ebp)
                           .text:010020e7 39 9d 64 fe ff ff                cmp    %ebx,-0x19c(%ebp)
                           .text:010020ed 0f 84 4c ff ff ff                je     0x0100203f
                           .text:010020f3 eb 16                            jmp    0x0100210b
                           .text:010020f5 c7 85 64 fe ff ff 03 00 00 00    movl   $0x3,-0x19c(%ebp)
                           .text:010020ff eb 0a                            jmp    0x0100210b
                           .text:01002101 c7 85 64 fe ff ff 01 00 00 00    movl   $0x1,-0x19c(%ebp)
                           .text:0100210b 47                               inc    %edi
                           .text:0100210c 8a 07                            mov    (%edi),%al
                           .text:0100210e 3a c3                            cmp    %bl,%al
                           .text:01002110 75 8d                            jne    0x0100209f
                           .text:01002112 8b 85 50 fe ff ff                mov    -0x1b0(%ebp),%eax
                           .text:01002118 40                               inc    %eax
                           .text:01002119 3b 45 08                         cmp    0x8(%ebp),%eax
                           .text:0100211c 89 85 50 fe ff ff                mov    %eax,-0x1b0(%ebp)
                           .text:01002122 0f 8c 2d ff ff ff                jl     0x01002055
                           .text:01002128 e8 4c 0a 00 00                   call   0x01002b79
                           .text:0100212d 84 c0                            test   %al,%al
                           .text:0100212f 75 15                            jne    0x01002146
                           .text:01002131 68 24 27 00 00                   push   $0x2724
                           .text:01002136 6a 02                            push   $0x2
                           .text:01002138 e8 51 09 00 00                   call   0x01002a8e
                           .text:0100213d 59                               pop    %ecx
                           .text:0100213e 59                               pop    %ecx
                           .text:0100213f 6a 01                            push   $0x1
                           .text:01002141 e9 ed fe ff ff                   jmp    0x01002033
                           .text:01002146 e8 3b 14 00 00                   call   0x01003586
                           .text:0100214b 3b c3                            cmp    %ebx,%eax
                           .text:0100214d 74 0f                            je     0x0100215e
                           .text:0100214f 50                               push   %eax
                           .text:01002150 68 1e 27 00 00                   push   $0x271e
                           .text:01002155 6a 02                            push   $0x2
                           .text:01002157 e8 9e 0a 00 00                   call   0x01002bfa
                           .text:0100215c eb e1                            jmp    0x0100213f
                           .text:0100215e 8b 85 64 fe ff ff                mov    -0x19c(%ebp),%eax
                           .text:01002164 48                               dec    %eax
                           .text:01002165 0f 84 89 00 00 00                je     0x010021f4
                           .text:0100216b 48                               dec    %eax
                           .text:0100216c 74 3b                            je     0x010021a9
                           .text:0100216e 48                               dec    %eax
                           .text:0100216f 0f 85 c1 00 00 00                jne    0x01002236
                           .text:01002175 e8 b3 08 00 00                   call   0x01002a2d
                           .text:0100217a 84 c0                            test   %al,%al
                           .text:0100217c 75 07                            jne    0x01002185
                           .text:0100217e b8 e4 02 00 00                   mov    $0x2e4,%eax
                           .text:01002183 eb 19                            jmp    0x0100219e
                           .text:01002185 ff b5 60 fe ff ff                pushl  -0x1a0(%ebp)
                           .text:0100218b ff b5 68 fe ff ff                pushl  -0x198(%ebp)
                           .text:01002191 e8 71 f5 ff ff                   call   0x01001707
                           .text:01002196 3b c3                            cmp    %ebx,%eax
                           .text:01002198 0f 84 98 00 00 00                je     0x01002236
                           .text:0100219e 50                               push   %eax
                           .text:0100219f 68 21 27 00 00                   push   $0x2721
                           .text:010021a4 e9 86 00 00 00                   jmp    0x0100222f
                           .text:010021a9 39 9d 68 fe ff ff                cmp    %ebx,-0x198(%ebp)
                           .text:010021af 0f 84 8a fe ff ff                je     0x0100203f
                           .text:010021b5 39 9d 60 fe ff ff                cmp    %ebx,-0x1a0(%ebp)
                           .text:010021bb 0f 84 7e fe ff ff                je     0x0100203f
                           .text:010021c1 e8 67 08 00 00                   call   0x01002a2d
                           .text:010021c6 84 c0                            test   %al,%al
                           .text:010021c8 75 07                            jne    0x010021d1
                           .text:010021ca b8 e4 02 00 00                   mov    $0x2e4,%eax
                           .text:010021cf eb 1b                            jmp    0x010021ec
                           .text:010021d1 ff b5 5c fe ff ff                pushl  -0x1a4(%ebp)
                           .text:010021d7 ff b5 60 fe ff ff                pushl  -0x1a0(%ebp)
                           .text:010021dd ff b5 68 fe ff ff                pushl  -0x198(%ebp)
                           .text:010021e3 e8 c4 f6 ff ff                   call   0x010018ac
                           .text:010021e8 3b c3                            cmp    %ebx,%eax
                           .text:010021ea 74 4a                            je     0x01002236
                           .text:010021ec 50                               push   %eax
                           .text:010021ed 68 20 27 00 00                   push   $0x2720
                           .text:010021f2 eb 3b                            jmp    0x0100222f
                           .text:010021f4 38 9d 58 fe ff ff                cmp    %bl,-0x1a8(%ebp)
                           .text:010021fa 74 0c                            je     0x01002208
                           .text:010021fc 39 9d 68 fe ff ff                cmp    %ebx,-0x198(%ebp)
                           .text:01002202 0f 84 37 fe ff ff                je     0x0100203f
                           .text:01002208 ff b5 54 fe ff ff                pushl  -0x1ac(%ebp)
                           .text:0100220e ff b5 58 fe ff ff                pushl  -0x1a8(%ebp)
                           .text:01002214 ff b5 60 fe ff ff                pushl  -0x1a0(%ebp)
                           .text:0100221a ff b5 68 fe ff ff                pushl  -0x198(%ebp)
                           .text:01002220 e8 aa fb ff ff                   call   0x01001dcf
                           .text:01002225 3b c3                            cmp    %ebx,%eax
                           .text:01002227 74 0d                            je     0x01002236
                           .text:01002229 50                               push   %eax
                           .text:0100222a 68 1f 27 00 00                   push   $0x271f
                           .text:0100222f 6a 02                            push   $0x2
                           .text:01002231 e8 c4 09 00 00                   call   0x01002bfa
                           .text:01002236 8b 4d fc                         mov    -0x4(%ebp),%ecx
                           .text:01002239 5f                               pop    %edi
                           .text:0100223a 5e                               pop    %esi
                           .text:0100223b 33 cd                            xor    %ebp,%ecx
                           .text:0100223d 33 c0                            xor    %eax,%eax
                           .text:0100223f 5b                               pop    %ebx
                           .text:01002240 e8 aa 02 00 00                   call   0x010024ef
                           .text:01002245 c9                               leave  
                           .text:01002246 c3                               ret    
                           .text:01002247 cc                               int3   
                           .text:01002248 cc                               int3   
                           .text:01002249 cc                               int3   
                           .text:0100224a cc                               int3   
                           .text:0100224b cc                               int3   
                           .text:0100224c 8b ff                            mov    %edi,%edi
                           .text:0100224e 55                               push   %ebp
                           .text:0100224f 8b ec                            mov    %esp,%ebp
                           .text:01002251 56                               push   %esi
                           .text:01002252 8b 75 08                         mov    0x8(%ebp),%esi
                           .text:01002255 33 c0                            xor    %eax,%eax
                           .text:01002257 eb 0f                            jmp    0x01002268
                           .text:01002259 85 c0                            test   %eax,%eax
                           .text:0100225b 75 10                            jne    0x0100226d
                           .text:0100225d 8b 0e                            mov    (%esi),%ecx
                           .text:0100225f 85 c9                            test   %ecx,%ecx
                           .text:01002261 74 02                            je     0x01002265
                           .text:01002263 ff d1                            call   *%ecx
                           .text:01002265 83 c6 04                         add    $0x4,%esi
                           .text:01002268 3b 75 0c                         cmp    0xc(%ebp),%esi
                           .text:0100226b 72 ec                            jb     0x01002259
                           .text:0100226d 5e                               pop    %esi
                           .text:0100226e 5d                               pop    %ebp
                           .text:0100226f c3                               ret    
                           .text:01002270 cc                               int3   
                           .text:01002271 cc                               int3   
                           .text:01002272 cc                               int3   
                           .text:01002273 cc                               int3   
                           .text:01002274 cc                               int3   
                           .text:01002275 a1 84 59 00 01                   mov    0x1005984,%eax
                           .text:0100227a 68 74 59 00 01                   push   $0x1005974
                           .text:0100227f ff 35 80 59 00 01                pushl  0x1005980
                           .text:01002285 a3 74 59 00 01                   mov    %eax,0x1005974
                           .text:0100228a 68 64 59 00 01                   push   $0x1005964
                           .text:0100228f 68 68 59 00 01                   push   $0x1005968
                           .text:01002294 68 60 59 00 01                   push   $0x1005960
                           .text:01002299 ff 15 d0 10 00 01                call   *0x10010d0
                           .text:0100229f 83 c4 14                         add    $0x14,%esp
                           .text:010022a2 a3 70 59 00 01                   mov    %eax,0x1005970
                           .text:010022a7 c3                               ret    
                           .text:010022a8 cc                               int3   
                           .text:010022a9 cc                               int3   
                           .text:010022aa cc                               int3   
                           .text:010022ab cc                               int3   
                           .text:010022ac cc                               int3   
                           .text:010022ad 6a 10                            push   $0x10
                           .text:010022af 68 60 3d 00 01                   push   $0x1003d60
                           .text:010022b4 e8 cb 03 00 00                   call   0x01002684
                           .text:010022b9 33 db                            xor    %ebx,%ebx
                           .text:010022bb 89 5d fc                         mov    %ebx,-0x4(%ebp)
                           .text:010022be 64 a1 18 00 00 00                mov    %fs:0x18,%eax
                           .text:010022c4 8b 70 04                         mov    0x4(%eax),%esi
                           .text:010022c7 89 5d e4                         mov    %ebx,-0x1c(%ebp)
                           .text:010022ca bf c4 5c 00 01                   mov    $0x1005cc4,%edi
                           .text:010022cf 53                               push   %ebx
                           .text:010022d0 56                               push   %esi
                           .text:010022d1 57                               push   %edi
                           .text:010022d2 ff 15 68 10 00 01                call   *0x1001068
                           .text:010022d8 3b c3                            cmp    %ebx,%eax
                           .text:010022da 74 19                            je     0x010022f5
                           .text:010022dc 3b c6                            cmp    %esi,%eax
                           .text:010022de 75 08                            jne    0x010022e8
                           .text:010022e0 33 f6                            xor    %esi,%esi
                           .text:010022e2 46                               inc    %esi
                           .text:010022e3 89 75 e4                         mov    %esi,-0x1c(%ebp)
                           .text:010022e6 eb 10                            jmp    0x010022f8
                           .text:010022e8 68 e8 03 00 00                   push   $0x3e8
                           .text:010022ed ff 15 6c 10 00 01                call   *0x100106c
                           .text:010022f3 eb da                            jmp    0x010022cf
                           .text:010022f5 33 f6                            xor    %esi,%esi
                           .text:010022f7 46                               inc    %esi
                           .text:010022f8 a1 c0 5c 00 01                   mov    0x1005cc0,%eax
                           .text:010022fd 3b c6                            cmp    %esi,%eax
                           .text:010022ff 75 0a                            jne    0x0100230b
                           .text:01002301 6a 1f                            push   $0x1f
                           .text:01002303 e8 6e 03 00 00                   call   0x01002676
                           .text:01002308 59                               pop    %ecx
                           .text:01002309 eb 3b                            jmp    0x01002346
                           .text:0100230b a1 c0 5c 00 01                   mov    0x1005cc0,%eax
                           .text:01002310 85 c0                            test   %eax,%eax
                           .text:01002312 75 2c                            jne    0x01002340
                           .text:01002314 89 35 c0 5c 00 01                mov    %esi,0x1005cc0
                           .text:0100231a 68 48 11 00 01                   push   $0x1001148
                           .text:0100231f 68 3c 11 00 01                   push   $0x100113c
                           .text:01002324 e8 23 ff ff ff                   call   0x0100224c
                           .text:01002329 59                               pop    %ecx
                           .text:0100232a 59                               pop    %ecx
                           .text:0100232b 85 c0                            test   %eax,%eax
                           .text:0100232d 74 17                            je     0x01002346
                           .text:0100232f c7 45 fc fe ff ff ff             movl   $0xfffffffe,-0x4(%ebp)
                           .text:01002336 b8 ff 00 00 00                   mov    $0xff,%eax
                           .text:0100233b e9 d0 00 00 00                   jmp    0x01002410
                           .text:01002340 89 35 7c 59 00 01                mov    %esi,0x100597c
                           .text:01002346 a1 c0 5c 00 01                   mov    0x1005cc0,%eax
                           .text:0100234b 3b c6                            cmp    %esi,%eax
                           .text:0100234d 75 1b                            jne    0x0100236a
                           .text:0100234f 68 38 11 00 01                   push   $0x1001138
                           .text:01002354 68 30 11 00 01                   push   $0x1001130
                           .text:01002359 e8 0c 03 00 00                   call   0x0100266a
                           .text:0100235e 59                               pop    %ecx
                           .text:0100235f 59                               pop    %ecx
                           .text:01002360 c7 05 c0 5c 00 01 02 00 00 00    movl   $0x2,0x1005cc0
                           .text:0100236a 39 5d e4                         cmp    %ebx,-0x1c(%ebp)
                           .text:0100236d 75 08                            jne    0x01002377
                           .text:0100236f 53                               push   %ebx
                           .text:01002370 57                               push   %edi
                           .text:01002371 ff 15 70 10 00 01                call   *0x1001070
                           .text:01002377 39 1d c8 5c 00 01                cmp    %ebx,0x1005cc8
                           .text:0100237d 74 19                            je     0x01002398
                           .text:0100237f 68 c8 5c 00 01                   push   $0x1005cc8
                           .text:01002384 e8 70 02 00 00                   call   0x010025f9
                           .text:01002389 59                               pop    %ecx
                           .text:0100238a 85 c0                            test   %eax,%eax
                           .text:0100238c 74 0a                            je     0x01002398
                           .text:0100238e 53                               push   %ebx
                           .text:0100238f 6a 02                            push   $0x2
                           .text:01002391 53                               push   %ebx
                           .text:01002392 ff 15 c8 5c 00 01                call   *0x1005cc8
                           .text:01002398 ff 35 64 59 00 01                pushl  0x1005964
                           .text:0100239e ff 35 68 59 00 01                pushl  0x1005968
                           .text:010023a4 ff 35 60 59 00 01                pushl  0x1005960
                           .text:010023aa e8 f3 fb ff ff                   call   0x01001fa2
                           .text:010023af 83 c4 0c                         add    $0xc,%esp
                           .text:010023b2 a3 78 59 00 01                   mov    %eax,0x1005978
                           .text:010023b7 39 1d 6c 59 00 01                cmp    %ebx,0x100596c
                           .text:010023bd 75 37                            jne    0x010023f6
                           .text:010023bf 50                               push   %eax
                           .text:010023c0 ff 15 d8 10 00 01                call   *0x10010d8
                           .text:010023c6 8b 45 ec                         mov    -0x14(%ebp),%eax
                           .text:010023c9 8b 08                            mov    (%eax),%ecx
                           .text:010023cb 8b 09                            mov    (%ecx),%ecx
                           .text:010023cd 89 4d e0                         mov    %ecx,-0x20(%ebp)
                           .text:010023d0 50                               push   %eax
                           .text:010023d1 51                               push   %ecx
                           .text:010023d2 e8 89 01 00 00                   call   0x01002560
                           .text:010023d7 59                               pop    %ecx
                           .text:010023d8 59                               pop    %ecx
                           .text:010023d9 c3                               ret    
                           .text:010023da 8b 65 e8                         mov    -0x18(%ebp),%esp
                           .text:010023dd 8b 45 e0                         mov    -0x20(%ebp),%eax
                           .text:010023e0 a3 78 59 00 01                   mov    %eax,0x1005978
                           .text:010023e5 33 db                            xor    %ebx,%ebx
                           .text:010023e7 39 1d 6c 59 00 01                cmp    %ebx,0x100596c
                           .text:010023ed 75 07                            jne    0x010023f6
                           .text:010023ef 50                               push   %eax
                           .text:010023f0 ff 15 c8 10 00 01                call   *0x10010c8
                           .text:010023f6 39 1d 7c 59 00 01                cmp    %ebx,0x100597c
                           .text:010023fc 75 06                            jne    0x01002404
                           .text:010023fe ff 15 cc 10 00 01                call   *0x10010cc
                           .text:01002404 c7 45 fc fe ff ff ff             movl   $0xfffffffe,-0x4(%ebp)
                           .text:0100240b a1 78 59 00 01                   mov    0x1005978,%eax
                           .text:01002410 e8 b4 02 00 00                   call   0x010026c9
                           .text:01002415 c3                               ret    
                           .text:01002416 cc                               int3   
                           .text:01002417 cc                               int3   
                           .text:01002418 cc                               int3   
                           .text:01002419 cc                               int3   
                           .text:0100241a cc                               int3   
                           .text:0100241b b8 4d 5a 00 00                   mov    $0x5a4d,%eax
                           .text:01002420 66 39 05 00 00 00 01             cmp    %ax,0x1000000
                           .text:01002427 74 04                            je     0x0100242d
                           .text:01002429 33 c0                            xor    %eax,%eax
                           .text:0100242b eb 4d                            jmp    0x0100247a
                           .text:0100242d a1 3c 00 00 01                   mov    0x100003c,%eax
                           .text:01002432 8d 80 00 00 00 01                lea    0x1000000(%eax),%eax
                           .text:01002438 81 38 50 45 00 00                cmpl   $0x4550,(%eax)
                           .text:0100243e 75 e9                            jne    0x01002429
                           .text:01002440 0f b7 48 18                      movzwl 0x18(%eax),%ecx
                           .text:01002444 81 f9 0b 01 00 00                cmp    $0x10b,%ecx
                           .text:0100244a 74 1b                            je     0x01002467
                           .text:0100244c 81 f9 0b 02 00 00                cmp    $0x20b,%ecx
                           .text:01002452 75 d5                            jne    0x01002429
                           .text:01002454 83 b8 84 00 00 00 0e             cmpl   $0xe,0x84(%eax)
                           .text:0100245b 76 cc                            jbe    0x01002429
                           .text:0100245d 33 c9                            xor    %ecx,%ecx
                           .text:0100245f 39 88 f8 00 00 00                cmp    %ecx,0xf8(%eax)
                           .text:01002465 eb 0e                            jmp    0x01002475
                           .text:01002467 83 78 74 0e                      cmpl   $0xe,0x74(%eax)
                           .text:0100246b 76 bc                            jbe    0x01002429
                           .text:0100246d 33 c9                            xor    %ecx,%ecx
                           .text:0100246f 39 88 e8 00 00 00                cmp    %ecx,0xe8(%eax)
                           .text:01002475 0f 95 c1                         setne  %cl
                           .text:01002478 8b c1                            mov    %ecx,%eax
                           .text:0100247a 6a 01                            push   $0x1
                           .text:0100247c a3 6c 59 00 01                   mov    %eax,0x100596c
                           .text:01002481 e8 0c 03 00 00                   call   0x01002792
                           .text:01002486 50                               push   %eax
                           .text:01002487 ff 15 ac 10 00 01                call   *0x10010ac
                           .text:0100248d 83 0d b8 5c 00 01 ff             orl    $0xffffffff,0x1005cb8
                           .text:01002494 83 0d bc 5c 00 01 ff             orl    $0xffffffff,0x1005cbc
                           .text:0100249b 59                               pop    %ecx
                           .text:0100249c 59                               pop    %ecx
                           .text:0100249d ff 15 b0 10 00 01                call   *0x10010b0
                           .text:010024a3 8b 0d 8c 59 00 01                mov    0x100598c,%ecx
                           .text:010024a9 89 08                            mov    %ecx,(%eax)
                           .text:010024ab ff 15 b4 10 00 01                call   *0x10010b4
                           .text:010024b1 8b 0d 88 59 00 01                mov    0x1005988,%ecx
                           .text:010024b7 89 08                            mov    %ecx,(%eax)
                           .text:010024b9 e8 66 02 00 00                   call   0x01002724
                           .text:010024be 83 3d 10 50 00 01 00             cmpl   $0x0,0x1005010
                           .text:010024c5 75 0c                            jne    0x010024d3
                           .text:010024c7 68 24 27 00 01                   push   $0x1002724
                           .text:010024cc ff 15 b8 10 00 01                call   *0x10010b8
                           .text:010024d2 59                               pop    %ecx
                           .text:010024d3 e8 34 02 00 00                   call   0x0100270c
                           .text:010024d8 33 c0                            xor    %eax,%eax
                           .text:010024da c3                               ret    
                           .text:010024db cc                               int3   
                           .text:010024dc cc                               int3   
                           .text:010024dd cc                               int3   
                           .text:010024de cc                               int3   
                           .text:010024df cc                               int3   
                           .text:010024e0 e8 ec 02 00 00                   call   0x010027d1
                           .text:010024e5 e9 c3 fd ff ff                   jmp    0x010022ad
                           .text:010024ea cc                               int3   
                           .text:010024eb cc                               int3   
                           .text:010024ec cc                               int3   
                           .text:010024ed cc                               int3   
                           .text:010024ee cc                               int3   
                           .text:010024ef 3b 0d 00 50 00 01                cmp    0x1005000,%ecx
                           .text:010024f5 75 03                            jne    0x010024fa
                           .text:010024f7 c2 00 00                         ret    $0x0
                           .text:010024fa e9 68 03 00 00                   jmp    0x01002867
                           .text:010024ff cc                               int3   
                           .text:01002500 cc                               int3   
                           .text:01002501 cc                               int3   
                           .text:01002502 cc                               int3   
                           .text:01002503 cc                               int3   
                           .text:01002504 8b ff                            mov    %edi,%edi
                           .text:01002506 55                               push   %ebp
                           .text:01002507 8b ec                            mov    %esp,%ebp
                           .text:01002509 8b 45 08                         mov    0x8(%ebp),%eax
                           .text:0100250c 8b 00                            mov    (%eax),%eax
                           .text:0100250e 81 38 63 73 6d e0                cmpl   $0xe06d7363,(%eax)
                           .text:01002514 75 2b                            jne    0x01002541
                           .text:01002516 83 78 10 03                      cmpl   $0x3,0x10(%eax)
                           .text:0100251a 75 25                            jne    0x01002541
                           .text:0100251c 8b 40 14                         mov    0x14(%eax),%eax
                           .text:0100251f 3d 20 05 93 19                   cmp    $0x19930520,%eax
                           .text:01002524 74 15                            je     0x0100253b
                           .text:01002526 3d 21 05 93 19                   cmp    $0x19930521,%eax
                           .text:0100252b 74 0e                            je     0x0100253b
                           .text:0100252d 3d 22 05 93 19                   cmp    $0x19930522,%eax
                           .text:01002532 74 07                            je     0x0100253b
                           .text:01002534 3d 00 40 99 01                   cmp    $0x1994000,%eax
                           .text:01002539 75 06                            jne    0x01002541
                           .text:0100253b ff 15 a8 10 00 01                call   *0x10010a8
                           .text:01002541 33 c0                            xor    %eax,%eax
                           .text:01002543 5d                               pop    %ebp
                           .text:01002544 c2 04 00                         ret    $0x4
                           .text:01002547 cc                               int3   
                           .text:01002548 cc                               int3   
                           .text:01002549 cc                               int3   
                           .text:0100254a cc                               int3   
                           .text:0100254b cc                               int3   
                           .text:0100254c 68 04 25 00 01                   push   $0x1002504
                           .text:01002551 ff 15 64 10 00 01                call   *0x1001064
                           .text:01002557 33 c0                            xor    %eax,%eax
                           .text:01002559 c3                               ret    
                           .text:0100255a cc                               int3   
                           .text:0100255b cc                               int3   
                           .text:0100255c cc                               int3   
                           .text:0100255d cc                               int3   
                           .text:0100255e cc                               int3   
                           .text:0100255f cc                               int3   
                           .text:01002560 ff 25 c4 10 00 01                jmp    *0x10010c4
                           .text:01002566 cc                               int3   
                           .text:01002567 cc                               int3   
                           .text:01002568 cc                               int3   
                           .text:01002569 cc                               int3   
                           .text:0100256a cc                               int3   
                           .text:0100256b cc                               int3   
                           .text:0100256c cc                               int3   
                           .text:0100256d cc                               int3   
                           .text:0100256e cc                               int3   
                           .text:0100256f cc                               int3   
                           .text:01002570 8b ff                            mov    %edi,%edi
                           .text:01002572 55                               push   %ebp
                           .text:01002573 8b ec                            mov    %esp,%ebp
                           .text:01002575 8b 4d 08                         mov    0x8(%ebp),%ecx
                           .text:01002578 b8 4d 5a 00 00                   mov    $0x5a4d,%eax
                           .text:0100257d 66 39 01                         cmp    %ax,(%ecx)
                           .text:01002580 74 04                            je     0x01002586
                           .text:01002582 33 c0                            xor    %eax,%eax
                           .text:01002584 5d                               pop    %ebp
                           .text:01002585 c3                               ret    
                           .text:01002586 8b 41 3c                         mov    0x3c(%ecx),%eax
                           .text:01002589 03 c1                            add    %ecx,%eax
                           .text:0100258b 81 38 50 45 00 00                cmpl   $0x4550,(%eax)
                           .text:01002591 75 ef                            jne    0x01002582
                           .text:01002593 33 d2                            xor    %edx,%edx
                           .text:01002595 b9 0b 01 00 00                   mov    $0x10b,%ecx
                           .text:0100259a 66 39 48 18                      cmp    %cx,0x18(%eax)
                           .text:0100259e 0f 94 c2                         sete   %dl
                           .text:010025a1 8b c2                            mov    %edx,%eax
                           .text:010025a3 5d                               pop    %ebp
                           .text:010025a4 c3                               ret    
                           .text:010025a5 cc                               int3   
                           .text:010025a6 cc                               int3   
                           .text:010025a7 cc                               int3   
                           .text:010025a8 cc                               int3   
                           .text:010025a9 cc                               int3   
                           .text:010025aa cc                               int3   
                           .text:010025ab cc                               int3   
                           .text:010025ac cc                               int3   
                           .text:010025ad cc                               int3   
                           .text:010025ae cc                               int3   
                           .text:010025af cc                               int3   
                           .text:010025b0 8b ff                            mov    %edi,%edi
                           .text:010025b2 55                               push   %ebp
                           .text:010025b3 8b ec                            mov    %esp,%ebp
                           .text:010025b5 8b 45 08                         mov    0x8(%ebp),%eax
                           .text:010025b8 8b 48 3c                         mov    0x3c(%eax),%ecx
                           .text:010025bb 03 c8                            add    %eax,%ecx
                           .text:010025bd 0f b7 41 14                      movzwl 0x14(%ecx),%eax
                           .text:010025c1 53                               push   %ebx
                           .text:010025c2 56                               push   %esi
                           .text:010025c3 0f b7 71 06                      movzwl 0x6(%ecx),%esi
                           .text:010025c7 33 d2                            xor    %edx,%edx
                           .text:010025c9 57                               push   %edi
                           .text:010025ca 8d 44 08 18                      lea    0x18(%eax,%ecx,1),%eax
                           .text:010025ce 85 f6                            test   %esi,%esi
                           .text:010025d0 76 1b                            jbe    0x010025ed
                           .text:010025d2 8b 7d 0c                         mov    0xc(%ebp),%edi
                           .text:010025d5 8b 48 0c                         mov    0xc(%eax),%ecx
                           .text:010025d8 3b f9                            cmp    %ecx,%edi
                           .text:010025da 72 09                            jb     0x010025e5
                           .text:010025dc 8b 58 08                         mov    0x8(%eax),%ebx
                           .text:010025df 03 d9                            add    %ecx,%ebx
                           .text:010025e1 3b fb                            cmp    %ebx,%edi
                           .text:010025e3 72 0a                            jb     0x010025ef
                           .text:010025e5 42                               inc    %edx
                           .text:010025e6 83 c0 28                         add    $0x28,%eax
                           .text:010025e9 3b d6                            cmp    %esi,%edx
                           .text:010025eb 72 e8                            jb     0x010025d5
                           .text:010025ed 33 c0                            xor    %eax,%eax
                           .text:010025ef 5f                               pop    %edi
                           .text:010025f0 5e                               pop    %esi
                           .text:010025f1 5b                               pop    %ebx
                           .text:010025f2 5d                               pop    %ebp
                           .text:010025f3 c3                               ret    
                           .text:010025f4 cc                               int3   
                           .text:010025f5 cc                               int3   
                           .text:010025f6 cc                               int3   
                           .text:010025f7 cc                               int3   
                           .text:010025f8 cc                               int3   
                           .text:010025f9 6a 08                            push   $0x8
                           .text:010025fb 68 80 3d 00 01                   push   $0x1003d80
                           .text:01002600 e8 7f 00 00 00                   call   0x01002684
                           .text:01002605 83 65 fc 00                      andl   $0x0,-0x4(%ebp)
                           .text:01002609 be 00 00 00 01                   mov    $0x1000000,%esi
                           .text:0100260e 56                               push   %esi
                           .text:0100260f e8 5c ff ff ff                   call   0x01002570
                           .text:01002614 59                               pop    %ecx
                           .text:01002615 85 c0                            test   %eax,%eax
                           .text:01002617 74 3d                            je     0x01002656
                           .text:01002619 8b 45 08                         mov    0x8(%ebp),%eax
                           .text:0100261c 2b c6                            sub    %esi,%eax
                           .text:0100261e 50                               push   %eax
                           .text:0100261f 56                               push   %esi
                           .text:01002620 e8 8b ff ff ff                   call   0x010025b0
                           .text:01002625 59                               pop    %ecx
                           .text:01002626 59                               pop    %ecx
                           .text:01002627 85 c0                            test   %eax,%eax
                           .text:01002629 74 2b                            je     0x01002656
                           .text:0100262b 8b 40 24                         mov    0x24(%eax),%eax
                           .text:0100262e c1 e8 1f                         shr    $0x1f,%eax
                           .text:01002631 f7 d0                            not    %eax
                           .text:01002633 83 e0 01                         and    $0x1,%eax
                           .text:01002636 c7 45 fc fe ff ff ff             movl   $0xfffffffe,-0x4(%ebp)
                           .text:0100263d eb 20                            jmp    0x0100265f
                           .text:0100263f 8b 45 ec                         mov    -0x14(%ebp),%eax
                           .text:01002642 8b 00                            mov    (%eax),%eax
                           .text:01002644 8b 00                            mov    (%eax),%eax
                           .text:01002646 33 c9                            xor    %ecx,%ecx
                           .text:01002648 3d 05 00 00 c0                   cmp    $0xc0000005,%eax
                           .text:0100264d 0f 94 c1                         sete   %cl
                           .text:01002650 8b c1                            mov    %ecx,%eax
                           .text:01002652 c3                               ret    
                           .text:01002653 8b 65 e8                         mov    -0x18(%ebp),%esp
                           .text:01002656 c7 45 fc fe ff ff ff             movl   $0xfffffffe,-0x4(%ebp)
                           .text:0100265d 33 c0                            xor    %eax,%eax
                           .text:0100265f e8 65 00 00 00                   call   0x010026c9
                           .text:01002664 c3                               ret    
                           .text:01002665 cc                               int3   
                           .text:01002666 cc                               int3   
                           .text:01002667 cc                               int3   
                           .text:01002668 cc                               int3   
                           .text:01002669 cc                               int3   
                           .text:0100266a ff 25 c0 10 00 01                jmp    *0x10010c0
                           .text:01002670 cc                               int3   
                           .text:01002671 cc                               int3   
                           .text:01002672 cc                               int3   
                           .text:01002673 cc                               int3   
                           .text:01002674 cc                               int3   
                           .text:01002675 cc                               int3   
                           .text:01002676 ff 25 bc 10 00 01                jmp    *0x10010bc
                           .text:0100267c cc                               int3   
                           .text:0100267d cc                               int3   
                           .text:0100267e cc                               int3   
                           .text:0100267f cc                               int3   
                           .text:01002680 cc                               int3   
                           .text:01002681 cc                               int3   
                           .text:01002682 cc                               int3   
                           .text:01002683 cc                               int3   
                           .text:01002684 68 e2 26 00 01                   push   $0x10026e2
                           .text:01002689 64 ff 35 00 00 00 00             pushl  %fs:0x0
                           .text:01002690 8b 44 24 10                      mov    0x10(%esp),%eax
                           .text:01002694 89 6c 24 10                      mov    %ebp,0x10(%esp)
                           .text:01002698 8d 6c 24 10                      lea    0x10(%esp),%ebp
                           .text:0100269c 2b e0                            sub    %eax,%esp
                           .text:0100269e 53                               push   %ebx
                           .text:0100269f 56                               push   %esi
                           .text:010026a0 57                               push   %edi
                           .text:010026a1 a1 00 50 00 01                   mov    0x1005000,%eax
                           .text:010026a6 31 45 fc                         xor    %eax,-0x4(%ebp)
                           .text:010026a9 33 c5                            xor    %ebp,%eax
                           .text:010026ab 50                               push   %eax
                           .text:010026ac 89 65 e8                         mov    %esp,-0x18(%ebp)
                           .text:010026af ff 75 f8                         pushl  -0x8(%ebp)
                           .text:010026b2 8b 45 fc                         mov    -0x4(%ebp),%eax
                           .text:010026b5 c7 45 fc fe ff ff ff             movl   $0xfffffffe,-0x4(%ebp)
                           .text:010026bc 89 45 f8                         mov    %eax,-0x8(%ebp)
                           .text:010026bf 8d 45 f0                         lea    -0x10(%ebp),%eax
                           .text:010026c2 64 a3 00 00 00 00                mov    %eax,%fs:0x0
                           .text:010026c8 c3                               ret    
                           .text:010026c9 8b 4d f0                         mov    -0x10(%ebp),%ecx
                           .text:010026cc 64 89 0d 00 00 00 00             mov    %ecx,%fs:0x0
                           .text:010026d3 59                               pop    %ecx
                           .text:010026d4 5f                               pop    %edi
                           .text:010026d5 5f                               pop    %edi
                           .text:010026d6 5e                               pop    %esi
                           .text:010026d7 5b                               pop    %ebx
                           .text:010026d8 8b e5                            mov    %ebp,%esp
                           .text:010026da 5d                               pop    %ebp
                           .text:010026db 51                               push   %ecx
                           .text:010026dc c3                               ret    
                           .text:010026dd cc                               int3   
                           .text:010026de cc                               int3   
                           .text:010026df cc                               int3   
                           .text:010026e0 cc                               int3   
                           .text:010026e1 cc                               int3   
                           .text:010026e2 8b ff                            mov    %edi,%edi
                           .text:010026e4 55                               push   %ebp
                           .text:010026e5 8b ec                            mov    %esp,%ebp
                           .text:010026e7 ff 75 14                         pushl  0x14(%ebp)
                           .text:010026ea ff 75 10                         pushl  0x10(%ebp)
                           .text:010026ed ff 75 0c                         pushl  0xc(%ebp)
                           .text:010026f0 ff 75 08                         pushl  0x8(%ebp)
                           .text:010026f3 68 ef 24 00 01                   push   $0x10024ef
                           .text:010026f8 68 00 50 00 01                   push   $0x1005000
                           .text:010026fd e8 4c 02 00 00                   call   0x0100294e
                           .text:01002702 83 c4 18                         add    $0x18,%esp
                           .text:01002705 5d                               pop    %ebp
                           .text:01002706 c3                               ret    
                           .text:01002707 cc                               int3   
                           .text:01002708 cc                               int3   
                           .text:01002709 cc                               int3   
                           .text:0100270a cc                               int3   
                           .text:0100270b cc                               int3   
                           .text:0100270c 68 00 00 03 00                   push   $0x30000
                           .text:01002711 68 00 00 01 00                   push   $0x10000
                           .text:01002716 ff 15 a0 10 00 01                call   *0x10010a0
                           .text:0100271c 59                               pop    %ecx
                           .text:0100271d 59                               pop    %ecx
                           .text:0100271e c3                               ret    
                           .text:0100271f cc                               int3   
                           .text:01002720 cc                               int3   
                           .text:01002721 cc                               int3   
                           .text:01002722 cc                               int3   
                           .text:01002723 cc                               int3   
                           .text:01002724 33 c0                            xor    %eax,%eax
                           .text:01002726 c3                               ret    
                           .text:01002727 cc                               int3   
                           .text:01002728 cc                               int3   
                           .text:01002729 cc                               int3   
                           .text:0100272a cc                               int3   
                           .text:0100272b cc                               int3   
                           .text:0100272c 6a 0c                            push   $0xc
                           .text:0100272e 68 a0 3d 00 01                   push   $0x1003da0
                           .text:01002733 e8 4c ff ff ff                   call   0x01002684
                           .text:01002738 33 c0                            xor    %eax,%eax
                           .text:0100273a 8b 4d 08                         mov    0x8(%ebp),%ecx
                           .text:0100273d 85 c9                            test   %ecx,%ecx
                           .text:0100273f 74 44                            je     0x01002785
                           .text:01002741 83 f9 ff                         cmp    $0xffffffff,%ecx
                           .text:01002744 74 3f                            je     0x01002785
                           .text:01002746 21 45 fc                         and    %eax,-0x4(%ebp)
                           .text:01002749 ba 4d 5a 00 00                   mov    $0x5a4d,%edx
                           .text:0100274e 66 39 11                         cmp    %dx,(%ecx)
                           .text:01002751 75 2b                            jne    0x0100277e
                           .text:01002753 8b 51 3c                         mov    0x3c(%ecx),%edx
                           .text:01002756 85 d2                            test   %edx,%edx
                           .text:01002758 7c 24                            jl     0x0100277e
                           .text:0100275a 81 fa 00 00 00 10                cmp    $0x10000000,%edx
                           .text:01002760 73 1c                            jae    0x0100277e
                           .text:01002762 8d 04 0a                         lea    (%edx,%ecx,1),%eax
                           .text:01002765 89 45 e4                         mov    %eax,-0x1c(%ebp)
                           .text:01002768 81 38 50 45 00 00                cmpl   $0x4550,(%eax)
                           .text:0100276e 74 0e                            je     0x0100277e
                           .text:01002770 eb 07                            jmp    0x01002779
                           .text:01002772 33 c0                            xor    %eax,%eax
                           .text:01002774 40                               inc    %eax
                           .text:01002775 c3                               ret    
                           .text:01002776 8b 65 e8                         mov    -0x18(%ebp),%esp
                           .text:01002779 33 c0                            xor    %eax,%eax
                           .text:0100277b 89 45 e4                         mov    %eax,-0x1c(%ebp)
                           .text:0100277e c7 45 fc fe ff ff ff             movl   $0xfffffffe,-0x4(%ebp)
                           .text:01002785 e8 3f ff ff ff                   call   0x010026c9
                           .text:0100278a c2 04 00                         ret    $0x4
                           .text:0100278d cc                               int3   
                           .text:0100278e cc                               int3   
                           .text:0100278f cc                               int3   
                           .text:01002790 cc                               int3   
                           .text:01002791 cc                               int3   
                           .text:01002792 8b ff                            mov    %edi,%edi
                           .text:01002794 55                               push   %ebp
                           .text:01002795 8b ec                            mov    %esp,%ebp
                           .text:01002797 6a 00                            push   $0x0
                           .text:01002799 ff 15 60 10 00 01                call   *0x1001060
                           .text:0100279f 85 c0                            test   %eax,%eax
                           .text:010027a1 74 24                            je     0x010027c7
                           .text:010027a3 50                               push   %eax
                           .text:010027a4 e8 83 ff ff ff                   call   0x0100272c
                           .text:010027a9 85 c0                            test   %eax,%eax
                           .text:010027ab 74 1a                            je     0x010027c7
                           .text:010027ad 0f b7 40 5c                      movzwl 0x5c(%eax),%eax
                           .text:010027b1 66 83 f8 02                      cmp    $0x2,%ax
                           .text:010027b5 75 05                            jne    0x010027bc
                           .text:010027b7 6a 02                            push   $0x2
                           .text:010027b9 58                               pop    %eax
                           .text:010027ba 5d                               pop    %ebp
                           .text:010027bb c3                               ret    
                           .text:010027bc 66 83 f8 03                      cmp    $0x3,%ax
                           .text:010027c0 75 05                            jne    0x010027c7
                           .text:010027c2 33 c0                            xor    %eax,%eax
                           .text:010027c4 40                               inc    %eax
                           .text:010027c5 5d                               pop    %ebp
                           .text:010027c6 c3                               ret    
                           .text:010027c7 8b 45 08                         mov    0x8(%ebp),%eax
                           .text:010027ca 5d                               pop    %ebp
                           .text:010027cb c3                               ret    
                           .text:010027cc cc                               int3   
                           .text:010027cd cc                               int3   
                           .text:010027ce cc                               int3   
                           .text:010027cf cc                               int3   
                           .text:010027d0 cc                               int3   
                           .text:010027d1 8b ff                            mov    %edi,%edi
                           .text:010027d3 55                               push   %ebp
                           .text:010027d4 8b ec                            mov    %esp,%ebp
                           .text:010027d6 83 ec 10                         sub    $0x10,%esp
                           .text:010027d9 a1 00 50 00 01                   mov    0x1005000,%eax
                           .text:010027de 83 65 f8 00                      andl   $0x0,-0x8(%ebp)
                           .text:010027e2 83 65 fc 00                      andl   $0x0,-0x4(%ebp)
                           .text:010027e6 53                               push   %ebx
                           .text:010027e7 57                               push   %edi
                           .text:010027e8 bf 4e e6 40 bb                   mov    $0xbb40e64e,%edi
                           .text:010027ed bb 00 00 ff ff                   mov    $0xffff0000,%ebx
                           .text:010027f2 3b c7                            cmp    %edi,%eax
                           .text:010027f4 74 0d                            je     0x01002803
                           .text:010027f6 85 c3                            test   %eax,%ebx
                           .text:010027f8 74 09                            je     0x01002803
                           .text:010027fa f7 d0                            not    %eax
                           .text:010027fc a3 04 50 00 01                   mov    %eax,0x1005004
                           .text:01002801 eb 5b                            jmp    0x0100285e
                           .text:01002803 56                               push   %esi
                           .text:01002804 8d 45 f8                         lea    -0x8(%ebp),%eax
                           .text:01002807 50                               push   %eax
                           .text:01002808 ff 15 4c 10 00 01                call   *0x100104c
                           .text:0100280e 8b 75 fc                         mov    -0x4(%ebp),%esi
                           .text:01002811 33 75 f8                         xor    -0x8(%ebp),%esi
                           .text:01002814 ff 15 50 10 00 01                call   *0x1001050
                           .text:0100281a 33 f0                            xor    %eax,%esi
                           .text:0100281c ff 15 54 10 00 01                call   *0x1001054
                           .text:01002822 33 f0                            xor    %eax,%esi
                           .text:01002824 ff 15 58 10 00 01                call   *0x1001058
                           .text:0100282a 33 f0                            xor    %eax,%esi
                           .text:0100282c 8d 45 f0                         lea    -0x10(%ebp),%eax
                           .text:0100282f 50                               push   %eax
                           .text:01002830 ff 15 5c 10 00 01                call   *0x100105c
                           .text:01002836 8b 45 f4                         mov    -0xc(%ebp),%eax
                           .text:01002839 33 45 f0                         xor    -0x10(%ebp),%eax
                           .text:0100283c 33 f0                            xor    %eax,%esi
                           .text:0100283e 3b f7                            cmp    %edi,%esi
                           .text:01002840 74 08                            je     0x0100284a
                           .text:01002842 85 1d 00 50 00 01                test   %ebx,0x1005000
                           .text:01002848 75 05                            jne    0x0100284f
                           .text:0100284a be 4f e6 40 bb                   mov    $0xbb40e64f,%esi
                           .text:0100284f 89 35 00 50 00 01                mov    %esi,0x1005000
                           .text:01002855 f7 d6                            not    %esi
                           .text:01002857 89 35 04 50 00 01                mov    %esi,0x1005004
                           .text:0100285d 5e                               pop    %esi
                           .text:0100285e 5f                               pop    %edi
                           .text:0100285f 5b                               pop    %ebx
                           .text:01002860 c9                               leave  
                           .text:01002861 c3                               ret    
                           .text:01002862 cc                               int3   
                           .text:01002863 cc                               int3   
                           .text:01002864 cc                               int3   
                           .text:01002865 cc                               int3   
                           .text:01002866 cc                               int3   
                           .text:01002867 8b ff                            mov    %edi,%edi
                           .text:01002869 55                               push   %ebp
                           .text:0100286a 8b ec                            mov    %esp,%ebp
                           .text:0100286c 81 ec 28 03 00 00                sub    $0x328,%esp
                           .text:01002872 a3 90 5a 00 01                   mov    %eax,0x1005a90
                           .text:01002877 89 0d 8c 5a 00 01                mov    %ecx,0x1005a8c
                           .text:0100287d 89 15 88 5a 00 01                mov    %edx,0x1005a88
                           .text:01002883 89 1d 84 5a 00 01                mov    %ebx,0x1005a84
                           .text:01002889 89 35 80 5a 00 01                mov    %esi,0x1005a80
                           .text:0100288f 89 3d 7c 5a 00 01                mov    %edi,0x1005a7c
                           .text:01002895 66 8c 15 a8 5a 00 01             data16 mov %ss,0x1005aa8
                           .text:0100289c 66 8c 0d 9c 5a 00 01             data16 mov %cs,0x1005a9c
                           .text:010028a3 66 8c 1d 78 5a 00 01             data16 mov %ds,0x1005a78
                           .text:010028aa 66 8c 05 74 5a 00 01             data16 mov %es,0x1005a74
                           .text:010028b1 66 8c 25 70 5a 00 01             data16 mov %fs,0x1005a70
                           .text:010028b8 66 8c 2d 6c 5a 00 01             data16 mov %gs,0x1005a6c
                           .text:010028bf 9c                               pushf  
                           .text:010028c0 8f 05 a0 5a 00 01                popl   0x1005aa0
                           .text:010028c6 8b 45 00                         mov    0x0(%ebp),%eax
                           .text:010028c9 a3 94 5a 00 01                   mov    %eax,0x1005a94
                           .text:010028ce 8b 45 04                         mov    0x4(%ebp),%eax
                           .text:010028d1 a3 98 5a 00 01                   mov    %eax,0x1005a98
                           .text:010028d6 8d 45 08                         lea    0x8(%ebp),%eax
                           .text:010028d9 a3 a4 5a 00 01                   mov    %eax,0x1005aa4
                           .text:010028de 8b 85 e0 fc ff ff                mov    -0x320(%ebp),%eax
                           .text:010028e4 c7 05 e0 59 00 01 01 00 01 00    movl   $0x10001,0x10059e0
                           .text:010028ee a1 98 5a 00 01                   mov    0x1005a98,%eax
                           .text:010028f3 a3 9c 59 00 01                   mov    %eax,0x100599c
                           .text:010028f8 c7 05 90 59 00 01 09 04 00 c0    movl   $0xc0000409,0x1005990
                           .text:01002902 c7 05 94 59 00 01 01 00 00 00    movl   $0x1,0x1005994
                           .text:0100290c a1 00 50 00 01                   mov    0x1005000,%eax
                           .text:01002911 89 85 d8 fc ff ff                mov    %eax,-0x328(%ebp)
                           .text:01002917 a1 04 50 00 01                   mov    0x1005004,%eax
                           .text:0100291c 89 85 dc fc ff ff                mov    %eax,-0x324(%ebp)
                           .text:01002922 6a 00                            push   $0x0
                           .text:01002924 ff 15 64 10 00 01                call   *0x1001064
                           .text:0100292a 68 b8 11 00 01                   push   $0x10011b8
                           .text:0100292f ff 15 40 10 00 01                call   *0x1001040
                           .text:01002935 68 09 04 00 c0                   push   $0xc0000409
                           .text:0100293a ff 15 44 10 00 01                call   *0x1001044
                           .text:01002940 50                               push   %eax
                           .text:01002941 ff 15 48 10 00 01                call   *0x1001048
                           .text:01002947 c9                               leave  
                           .text:01002948 c3                               ret    
                           .text:01002949 cc                               int3   
                           .text:0100294a cc                               int3   
                           .text:0100294b cc                               int3   
                           .text:0100294c cc                               int3   
                           .text:0100294d cc                               int3   
                           .text:0100294e ff 25 a4 10 00 01                jmp    *0x10010a4
                           .text:01002954 cc                               int3   
                           .text:01002955 cc                               int3   
                           .text:01002956 cc                               int3   
                           .text:01002957 cc                               int3   
                           .text:01002958 cc                               int3   
                           .text:01002959 cc                               int3   
                           .text:0100295a ff 25 20 11 00 01                jmp    *0x1001120
                           .text:01002960 cc                               int3   
                           .text:01002961 cc                               int3   
                           .text:01002962 cc                               int3   
                           .text:01002963 cc                               int3   
                           .text:01002964 cc                               int3   
                           .text:01002965 cc                               int3   
                           .text:01002966 ff 25 1c 11 00 01                jmp    *0x100111c
                           .text:0100296c cc                               int3   
                           .text:0100296d cc                               int3   
                           .text:0100296e cc                               int3   
                           .text:0100296f cc                               int3   
                           .text:01002970 cc                               int3   
                           .text:01002971 8b ff                            mov    %edi,%edi
                           .text:01002973 55                               push   %ebp
                           .text:01002974 8b ec                            mov    %esp,%ebp
                           .text:01002976 ff 75 08                         pushl  0x8(%ebp)
                           .text:01002979 ff 15 94 10 00 01                call   *0x1001094
                           .text:0100297f 83 f8 ff                         cmp    $0xffffffff,%eax
                           .text:01002982 75 19                            jne    0x0100299d
                           .text:01002984 ff 75 08                         pushl  0x8(%ebp)
                           .text:01002987 ff 15 98 10 00 01                call   *0x1001098
                           .text:0100298d 85 c0                            test   %eax,%eax
                           .text:0100298f 74 09                            je     0x0100299a
                           .text:01002991 8b 40 0c                         mov    0xc(%eax),%eax
                           .text:01002994 8b 00                            mov    (%eax),%eax
                           .text:01002996 8b 00                            mov    (%eax),%eax
                           .text:01002998 eb 03                            jmp    0x0100299d
                           .text:0100299a 83 c8 ff                         or     $0xffffffff,%eax
                           .text:0100299d 5d                               pop    %ebp
                           .text:0100299e c2 04 00                         ret    $0x4
                           .text:010029a1 cc                               int3   
                           .text:010029a2 cc                               int3   
                           .text:010029a3 cc                               int3   
                           .text:010029a4 cc                               int3   
                           .text:010029a5 cc                               int3   
                           .text:010029a6 8b ff                            mov    %edi,%edi
                           .text:010029a8 55                               push   %ebp
                           .text:010029a9 8b ec                            mov    %esp,%ebp
                           .text:010029ab 83 ec 14                         sub    $0x14,%esp
                           .text:010029ae a1 00 50 00 01                   mov    0x1005000,%eax
                           .text:010029b3 33 c5                            xor    %ebp,%eax
                           .text:010029b5 89 45 fc                         mov    %eax,-0x4(%ebp)
                           .text:010029b8 53                               push   %ebx
                           .text:010029b9 33 db                            xor    %ebx,%ebx
                           .text:010029bb 8d 45 ec                         lea    -0x14(%ebp),%eax
                           .text:010029be 50                               push   %eax
                           .text:010029bf 53                               push   %ebx
                           .text:010029c0 53                               push   %ebx
                           .text:010029c1 53                               push   %ebx
                           .text:010029c2 53                               push   %ebx
                           .text:010029c3 53                               push   %ebx
                           .text:010029c4 53                               push   %ebx
                           .text:010029c5 ff 75 08                         pushl  0x8(%ebp)
                           .text:010029c8 8d 45 f4                         lea    -0xc(%ebp),%eax
                           .text:010029cb 6a 20                            push   $0x20
                           .text:010029cd 6a 02                            push   $0x2
                           .text:010029cf 50                               push   %eax
                           .text:010029d0 88 5d f4                         mov    %bl,-0xc(%ebp)
                           .text:010029d3 88 5d f5                         mov    %bl,-0xb(%ebp)
                           .text:010029d6 88 5d f6                         mov    %bl,-0xa(%ebp)
                           .text:010029d9 88 5d f7                         mov    %bl,-0x9(%ebp)
                           .text:010029dc 88 5d f8                         mov    %bl,-0x8(%ebp)
                           .text:010029df c6 45 f9 05                      movb   $0x5,-0x7(%ebp)
                           .text:010029e3 ff 15 04 10 00 01                call   *0x1001004
                           .text:010029e9 89 45 f0                         mov    %eax,-0x10(%ebp)
                           .text:010029ec 3b c3                            cmp    %ebx,%eax
                           .text:010029ee 74 27                            je     0x01002a17
                           .text:010029f0 8d 45 f0                         lea    -0x10(%ebp),%eax
                           .text:010029f3 50                               push   %eax
                           .text:010029f4 ff 75 ec                         pushl  -0x14(%ebp)
                           .text:010029f7 53                               push   %ebx
                           .text:010029f8 ff 15 08 10 00 01                call   *0x1001008
                           .text:010029fe 85 c0                            test   %eax,%eax
                           .text:01002a00 75 03                            jne    0x01002a05
                           .text:01002a02 89 5d f0                         mov    %ebx,-0x10(%ebp)
                           .text:01002a05 ff 75 ec                         pushl  -0x14(%ebp)
                           .text:01002a08 ff 15 00 10 00 01                call   *0x1001000
                           .text:01002a0e 39 5d f0                         cmp    %ebx,-0x10(%ebp)
                           .text:01002a11 74 04                            je     0x01002a17
                           .text:01002a13 b0 01                            mov    $0x1,%al
                           .text:01002a15 eb 02                            jmp    0x01002a19
                           .text:01002a17 32 c0                            xor    %al,%al
                           .text:01002a19 8b 4d fc                         mov    -0x4(%ebp),%ecx
                           .text:01002a1c 33 cd                            xor    %ebp,%ecx
                           .text:01002a1e 5b                               pop    %ebx
                           .text:01002a1f e8 cb fa ff ff                   call   0x010024ef
                           .text:01002a24 c9                               leave  
                           .text:01002a25 c2 04 00                         ret    $0x4
                           .text:01002a28 cc                               int3   
                           .text:01002a29 cc                               int3   
                           .text:01002a2a cc                               int3   
                           .text:01002a2b cc                               int3   
                           .text:01002a2c cc                               int3   
                           .text:01002a2d 68 20 02 00 00                   push   $0x220
                           .text:01002a32 e8 6f ff ff ff                   call   0x010029a6
                           .text:01002a37 84 c0                            test   %al,%al
                           .text:01002a39 75 11                            jne    0x01002a4c
                           .text:01002a3b 68 2c 02 00 00                   push   $0x22c
                           .text:01002a40 e8 61 ff ff ff                   call   0x010029a6
                           .text:01002a45 84 c0                            test   %al,%al
                           .text:01002a47 75 03                            jne    0x01002a4c
                           .text:01002a49 33 c0                            xor    %eax,%eax
                           .text:01002a4b c3                               ret    
                           .text:01002a4c 33 c0                            xor    %eax,%eax
                           .text:01002a4e 40                               inc    %eax
                           .text:01002a4f c3                               ret    
                           .text:01002a50 cc                               int3   
                           .text:01002a51 cc                               int3   
                           .text:01002a52 cc                               int3   
                           .text:01002a53 cc                               int3   
                           .text:01002a54 cc                               int3   
                           .text:01002a55 8b ff                            mov    %edi,%edi
                           .text:01002a57 55                               push   %ebp
                           .text:01002a58 8b ec                            mov    %esp,%ebp
                           .text:01002a5a 8b 45 08                         mov    0x8(%ebp),%eax
                           .text:01002a5d 8a 10                            mov    (%eax),%dl
                           .text:01002a5f 8b 4d 0c                         mov    0xc(%ebp),%ecx
                           .text:01002a62 3a 11                            cmp    (%ecx),%dl
                           .text:01002a64 75 1d                            jne    0x01002a83
                           .text:01002a66 8a 50 01                         mov    0x1(%eax),%dl
                           .text:01002a69 3a 51 01                         cmp    0x1(%ecx),%dl
                           .text:01002a6c 75 15                            jne    0x01002a83
                           .text:01002a6e 8a 50 02                         mov    0x2(%eax),%dl
                           .text:01002a71 3a 51 02                         cmp    0x2(%ecx),%dl
                           .text:01002a74 75 0d                            jne    0x01002a83
                           .text:01002a76 8a 40 03                         mov    0x3(%eax),%al
                           .text:01002a79 3a 41 03                         cmp    0x3(%ecx),%al
                           .text:01002a7c 75 05                            jne    0x01002a83
                           .text:01002a7e 33 c0                            xor    %eax,%eax
                           .text:01002a80 40                               inc    %eax
                           .text:01002a81 eb 02                            jmp    0x01002a85
                           .text:01002a83 33 c0                            xor    %eax,%eax
                           .text:01002a85 5d                               pop    %ebp
                           .text:01002a86 c2 08 00                         ret    $0x8
                           .text:01002a89 cc                               int3   
                           .text:01002a8a cc                               int3   
                           .text:01002a8b cc                               int3   
                           .text:01002a8c cc                               int3   
                           .text:01002a8d cc                               int3   
                           .text:01002a8e 8b ff                            mov    %edi,%edi
                           .text:01002a90 55                               push   %ebp
                           .text:01002a91 8b ec                            mov    %esp,%ebp
                           .text:01002a93 51                               push   %ecx
                           .text:01002a94 51                               push   %ecx
                           .text:01002a95 53                               push   %ebx
                           .text:01002a96 57                               push   %edi
                           .text:01002a97 8d 45 10                         lea    0x10(%ebp),%eax
                           .text:01002a9a 89 45 f8                         mov    %eax,-0x8(%ebp)
                           .text:01002a9d 33 ff                            xor    %edi,%edi
                           .text:01002a9f 8d 45 f8                         lea    -0x8(%ebp),%eax
                           .text:01002aa2 50                               push   %eax
                           .text:01002aa3 57                               push   %edi
                           .text:01002aa4 8d 45 fc                         lea    -0x4(%ebp),%eax
                           .text:01002aa7 50                               push   %eax
                           .text:01002aa8 57                               push   %edi
                           .text:01002aa9 ff 75 0c                         pushl  0xc(%ebp)
                           .text:01002aac 89 7d fc                         mov    %edi,-0x4(%ebp)
                           .text:01002aaf 57                               push   %edi
                           .text:01002ab0 68 00 09 00 00                   push   $0x900
                           .text:01002ab5 ff 15 78 10 00 01                call   *0x1001078
                           .text:01002abb 8b d8                            mov    %eax,%ebx
                           .text:01002abd 3b df                            cmp    %edi,%ebx
                           .text:01002abf 76 64                            jbe    0x01002b25
                           .text:01002ac1 39 7d fc                         cmp    %edi,-0x4(%ebp)
                           .text:01002ac4 74 6d                            je     0x01002b33
                           .text:01002ac6 83 7d 08 02                      cmpl   $0x2,0x8(%ebp)
                           .text:01002aca 56                               push   %esi
                           .text:01002acb 8b 35 e8 10 00 01                mov    0x10010e8,%esi
                           .text:01002ad1 75 05                            jne    0x01002ad8
                           .text:01002ad3 83 c6 40                         add    $0x40,%esi
                           .text:01002ad6 eb 03                            jmp    0x01002adb
                           .text:01002ad8 83 c6 20                         add    $0x20,%esi
                           .text:01002adb 68 00 80 00 00                   push   $0x8000
                           .text:01002ae0 56                               push   %esi
                           .text:01002ae1 ff 15 e4 10 00 01                call   *0x10010e4
                           .text:01002ae7 59                               pop    %ecx
                           .text:01002ae8 50                               push   %eax
                           .text:01002ae9 ff 15 e0 10 00 01                call   *0x10010e0
                           .text:01002aef 8b 45 fc                         mov    -0x4(%ebp),%eax
                           .text:01002af2 59                               pop    %ecx
                           .text:01002af3 59                               pop    %ecx
                           .text:01002af4 8d 50 02                         lea    0x2(%eax),%edx
                           .text:01002af7 66 8b 08                         mov    (%eax),%cx
                           .text:01002afa 40                               inc    %eax
                           .text:01002afb 40                               inc    %eax
                           .text:01002afc 66 3b cf                         cmp    %di,%cx
                           .text:01002aff 75 f6                            jne    0x01002af7
                           .text:01002b01 2b c2                            sub    %edx,%eax
                           .text:01002b03 d1 f8                            sar    %eax
                           .text:01002b05 50                               push   %eax
                           .text:01002b06 ff 75 fc                         pushl  -0x4(%ebp)
                           .text:01002b09 ff 75 fc                         pushl  -0x4(%ebp)
                           .text:01002b0c ff 15 84 10 00 01                call   *0x1001084
                           .text:01002b12 ff 75 fc                         pushl  -0x4(%ebp)
                           .text:01002b15 68 c0 11 00 01                   push   $0x10011c0
                           .text:01002b1a 56                               push   %esi
                           .text:01002b1b ff 15 dc 10 00 01                call   *0x10010dc
                           .text:01002b21 83 c4 0c                         add    $0xc,%esp
                           .text:01002b24 5e                               pop    %esi
                           .text:01002b25 39 7d fc                         cmp    %edi,-0x4(%ebp)
                           .text:01002b28 74 09                            je     0x01002b33
                           .text:01002b2a ff 75 fc                         pushl  -0x4(%ebp)
                           .text:01002b2d ff 15 7c 10 00 01                call   *0x100107c
                           .text:01002b33 5f                               pop    %edi
                           .text:01002b34 8b c3                            mov    %ebx,%eax
                           .text:01002b36 5b                               pop    %ebx
                           .text:01002b37 c9                               leave  
                           .text:01002b38 c3                               ret    
                           .text:01002b39 cc                               int3   
                           .text:01002b3a cc                               int3   
                           .text:01002b3b cc                               int3   
                           .text:01002b3c cc                               int3   
                           .text:01002b3d cc                               int3   
                           .text:01002b3e 8b ff                            mov    %edi,%edi
                           .text:01002b40 55                               push   %ebp
                           .text:01002b41 8b ec                            mov    %esp,%ebp
                           .text:01002b43 51                               push   %ecx
                           .text:01002b44 51                               push   %ecx
                           .text:01002b45 8d 4d 0c                         lea    0xc(%ebp),%ecx
                           .text:01002b48 89 4d f8                         mov    %ecx,-0x8(%ebp)
                           .text:01002b4b 33 c0                            xor    %eax,%eax
                           .text:01002b4d 8d 4d f8                         lea    -0x8(%ebp),%ecx
                           .text:01002b50 51                               push   %ecx
                           .text:01002b51 50                               push   %eax
                           .text:01002b52 8d 4d fc                         lea    -0x4(%ebp),%ecx
                           .text:01002b55 51                               push   %ecx
                           .text:01002b56 50                               push   %eax
                           .text:01002b57 ff 75 08                         pushl  0x8(%ebp)
                           .text:01002b5a 89 45 fc                         mov    %eax,-0x4(%ebp)
                           .text:01002b5d 50                               push   %eax
                           .text:01002b5e 68 00 19 00 00                   push   $0x1900
                           .text:01002b63 ff 15 78 10 00 01                call   *0x1001078
                           .text:01002b69 33 c9                            xor    %ecx,%ecx
                           .text:01002b6b 3b c8                            cmp    %eax,%ecx
                           .text:01002b6d 1b c0                            sbb    %eax,%eax
                           .text:01002b6f 23 45 fc                         and    -0x4(%ebp),%eax
                           .text:01002b72 c9                               leave  
                           .text:01002b73 c3                               ret    
                           .text:01002b74 cc                               int3   
                           .text:01002b75 cc                               int3   
                           .text:01002b76 cc                               int3   
                           .text:01002b77 cc                               int3   
                           .text:01002b78 cc                               int3   
                           .text:01002b79 8b ff                            mov    %edi,%edi
                           .text:01002b7b 55                               push   %ebp
                           .text:01002b7c 8b ec                            mov    %esp,%ebp
                           .text:01002b7e 51                               push   %ecx
                           .text:01002b7f 33 c0                            xor    %eax,%eax
                           .text:01002b81 50                               push   %eax
                           .text:01002b82 8d 4d fc                         lea    -0x4(%ebp),%ecx
                           .text:01002b85 51                               push   %ecx
                           .text:01002b86 50                               push   %eax
                           .text:01002b87 89 45 fc                         mov    %eax,-0x4(%ebp)
                           .text:01002b8a e8 7f 11 00 00                   call   0x01003d0e
                           .text:01002b8f 83 f8 7a                         cmp    $0x7a,%eax
                           .text:01002b92 0f 94 c0                         sete   %al
                           .text:01002b95 c9                               leave  
                           .text:01002b96 c3                               ret    
                           .text:01002b97 cc                               int3   
                           .text:01002b98 cc                               int3   
                           .text:01002b99 cc                               int3   
                           .text:01002b9a cc                               int3   
                           .text:01002b9b cc                               int3   
                           .text:01002b9c 8b ff                            mov    %edi,%edi
                           .text:01002b9e 55                               push   %ebp
                           .text:01002b9f 8b ec                            mov    %esp,%ebp
                           .text:01002ba1 83 ec 1c                         sub    $0x1c,%esp
                           .text:01002ba4 a1 00 50 00 01                   mov    0x1005000,%eax
                           .text:01002ba9 33 c5                            xor    %ebp,%eax
                           .text:01002bab 89 45 fc                         mov    %eax,-0x4(%ebp)
                           .text:01002bae ff 15 34 10 00 01                call   *0x1001034
                           .text:01002bb4 50                               push   %eax
                           .text:01002bb5 68 c4 11 00 01                   push   $0x10011c4
                           .text:01002bba 8d 45 e4                         lea    -0x1c(%ebp),%eax
                           .text:01002bbd 6a 0c                            push   $0xc
                           .text:01002bbf 50                               push   %eax
                           .text:01002bc0 e8 84 ea ff ff                   call   0x01001649
                           .text:01002bc5 83 c4 10                         add    $0x10,%esp
                           .text:01002bc8 85 c0                            test   %eax,%eax
                           .text:01002bca 75 0e                            jne    0x01002bda
                           .text:01002bcc 8d 45 e4                         lea    -0x1c(%ebp),%eax
                           .text:01002bcf 50                               push   %eax
                           .text:01002bd0 6a 00                            push   $0x0
                           .text:01002bd2 ff 15 ec 10 00 01                call   *0x10010ec
                           .text:01002bd8 59                               pop    %ecx
                           .text:01002bd9 59                               pop    %ecx
                           .text:01002bda 6a 00                            push   $0x0
                           .text:01002bdc 6a 00                            push   $0x0
                           .text:01002bde 68 00 01 00 00                   push   $0x100
                           .text:01002be3 ff 15 38 10 00 01                call   *0x1001038
                           .text:01002be9 8b 4d fc                         mov    -0x4(%ebp),%ecx
                           .text:01002bec 33 cd                            xor    %ebp,%ecx
                           .text:01002bee e8 fc f8 ff ff                   call   0x010024ef
                           .text:01002bf3 c9                               leave  
                           .text:01002bf4 c3                               ret    
                           .text:01002bf5 cc                               int3   
                           .text:01002bf6 cc                               int3   
                           .text:01002bf7 cc                               int3   
                           .text:01002bf8 cc                               int3   
                           .text:01002bf9 cc                               int3   
                           .text:01002bfa 8b ff                            mov    %edi,%edi
                           .text:01002bfc 55                               push   %ebp
                           .text:01002bfd 8b ec                            mov    %esp,%ebp
                           .text:01002bff 56                               push   %esi
                           .text:01002c00 57                               push   %edi
                           .text:01002c01 ff 75 10                         pushl  0x10(%ebp)
                           .text:01002c04 e8 35 ff ff ff                   call   0x01002b3e
                           .text:01002c09 8b f0                            mov    %eax,%esi
                           .text:01002c0b 56                               push   %esi
                           .text:01002c0c ff 75 0c                         pushl  0xc(%ebp)
                           .text:01002c0f ff 75 08                         pushl  0x8(%ebp)
                           .text:01002c12 e8 77 fe ff ff                   call   0x01002a8e
                           .text:01002c17 83 c4 10                         add    $0x10,%esp
                           .text:01002c1a 56                               push   %esi
                           .text:01002c1b 8b f8                            mov    %eax,%edi
                           .text:01002c1d ff 15 7c 10 00 01                call   *0x100107c
                           .text:01002c23 8b c7                            mov    %edi,%eax
                           .text:01002c25 5f                               pop    %edi
                           .text:01002c26 5e                               pop    %esi
                           .text:01002c27 5d                               pop    %ebp
                           .text:01002c28 c2 0c 00                         ret    $0xc
                           .text:01002c2b cc                               int3   
                           .text:01002c2c cc                               int3   
                           .text:01002c2d cc                               int3   
                           .text:01002c2e cc                               int3   
                           .text:01002c2f cc                               int3   
                           .text:01002c30 8b ff                            mov    %edi,%edi
                           .text:01002c32 55                               push   %ebp
                           .text:01002c33 8b ec                            mov    %esp,%ebp
                           .text:01002c35 56                               push   %esi
                           .text:01002c36 8b 75 08                         mov    0x8(%ebp),%esi
                           .text:01002c39 eb 0f                            jmp    0x01002c4a
                           .text:01002c3b 8b 0e                            mov    (%esi),%ecx
                           .text:01002c3d 8b 01                            mov    (%ecx),%eax
                           .text:01002c3f 89 06                            mov    %eax,(%esi)
                           .text:01002c41 51                               push   %ecx
                           .text:01002c42 89 70 04                         mov    %esi,0x4(%eax)
                           .text:01002c45 e8 10 fd ff ff                   call   0x0100295a
                           .text:01002c4a 39 36                            cmp    %esi,(%esi)
                           .text:01002c4c 75 ed                            jne    0x01002c3b
                           .text:01002c4e 56                               push   %esi
                           .text:01002c4f e8 06 fd ff ff                   call   0x0100295a
                           .text:01002c54 5e                               pop    %esi
                           .text:01002c55 5d                               pop    %ebp
                           .text:01002c56 c2 04 00                         ret    $0x4
                           .text:01002c59 cc                               int3   
                           .text:01002c5a cc                               int3   
                           .text:01002c5b cc                               int3   
                           .text:01002c5c cc                               int3   
                           .text:01002c5d cc                               int3   
                           .text:01002c5e 8b ff                            mov    %edi,%edi
                           .text:01002c60 55                               push   %ebp
                           .text:01002c61 8b ec                            mov    %esp,%ebp
                           .text:01002c63 8b 45 08                         mov    0x8(%ebp),%eax
                           .text:01002c66 83 e8 00                         sub    $0x0,%eax
                           .text:01002c69 74 16                            je     0x01002c81
                           .text:01002c6b 48                               dec    %eax
                           .text:01002c6c 74 0a                            je     0x01002c78
                           .text:01002c6e 48                               dec    %eax
                           .text:01002c6f 74 07                            je     0x01002c78
                           .text:01002c71 48                               dec    %eax
                           .text:01002c72 74 04                            je     0x01002c78
                           .text:01002c74 48                               dec    %eax
                           .text:01002c75 74 06                            je     0x01002c7d
                           .text:01002c77 48                               dec    %eax
                           .text:01002c78 6a 57                            push   $0x57
                           .text:01002c7a 58                               pop    %eax
                           .text:01002c7b eb 06                            jmp    0x01002c83
                           .text:01002c7d 6a 0c                            push   $0xc
                           .text:01002c7f eb f9                            jmp    0x01002c7a
                           .text:01002c81 33 c0                            xor    %eax,%eax
                           .text:01002c83 5d                               pop    %ebp
                           .text:01002c84 c2 04 00                         ret    $0x4
                           .text:01002c87 cc                               int3   
                           .text:01002c88 cc                               int3   
                           .text:01002c89 cc                               int3   
                           .text:01002c8a cc                               int3   
                           .text:01002c8b cc                               int3   
                           .text:01002c8c 8b ff                            mov    %edi,%edi
                           .text:01002c8e 55                               push   %ebp
                           .text:01002c8f 8b ec                            mov    %esp,%ebp
                           .text:01002c91 8b 45 24                         mov    0x24(%ebp),%eax
                           .text:01002c94 8b 80 cc 00 00 00                mov    0xcc(%eax),%eax
                           .text:01002c9a 8b 4d 10                         mov    0x10(%ebp),%ecx
                           .text:01002c9d 8b 04 81                         mov    (%ecx,%eax,4),%eax
                           .text:01002ca0 48                               dec    %eax
                           .text:01002ca1 83 f8 14                         cmp    $0x14,%eax
                           .text:01002ca4 0f 87 3b 01 00 00                ja     0x01002de5
                           .text:01002caa ff 24 85 ec 2d 00 01             jmp    *0x1002dec(,%eax,4)
                           .text:01002cb1 8b 45 18                         mov    0x18(%ebp),%eax
                           .text:01002cb4 8b 4d 08                         mov    0x8(%ebp),%ecx
                           .text:01002cb7 89 41 08                         mov    %eax,0x8(%ecx)
                           .text:01002cba e9 26 01 00 00                   jmp    0x01002de5
                           .text:01002cbf 8b 55 1c                         mov    0x1c(%ebp),%edx
                           .text:01002cc2 8b 4d 08                         mov    0x8(%ebp),%ecx
                           .text:01002cc5 33 c0                            xor    %eax,%eax
                           .text:01002cc7 89 51 60                         mov    %edx,0x60(%ecx)
                           .text:01002cca 85 d2                            test   %edx,%edx
                           .text:01002ccc 0f 86 13 01 00 00                jbe    0x01002de5
                           .text:01002cd2 8b 55 18                         mov    0x18(%ebp),%edx
                           .text:01002cd5 8a 14 10                         mov    (%eax,%edx,1),%dl
                           .text:01002cd8 88 54 01 64                      mov    %dl,0x64(%ecx,%eax,1)
                           .text:01002cdc 40                               inc    %eax
                           .text:01002cdd 3b 41 60                         cmp    0x60(%ecx),%eax
                           .text:01002ce0 72 f0                            jb     0x01002cd2
                           .text:01002ce2 e9 fe 00 00 00                   jmp    0x01002de5
                           .text:01002ce7 8b 45 18                         mov    0x18(%ebp),%eax
                           .text:01002cea 8b 4d 08                         mov    0x8(%ebp),%ecx
                           .text:01002ced 89 41 0c                         mov    %eax,0xc(%ecx)
                           .text:01002cf0 e9 f0 00 00 00                   jmp    0x01002de5
                           .text:01002cf5 8b 45 18                         mov    0x18(%ebp),%eax
                           .text:01002cf8 8b 4d 08                         mov    0x8(%ebp),%ecx
                           .text:01002cfb 89 41 10                         mov    %eax,0x10(%ecx)
                           .text:01002cfe e9 e2 00 00 00                   jmp    0x01002de5
                           .text:01002d03 8b 45 18                         mov    0x18(%ebp),%eax
                           .text:01002d06 8b 4d 08                         mov    0x8(%ebp),%ecx
                           .text:01002d09 89 41 14                         mov    %eax,0x14(%ecx)
                           .text:01002d0c e9 d4 00 00 00                   jmp    0x01002de5
                           .text:01002d11 8b 55 1c                         mov    0x1c(%ebp),%edx
                           .text:01002d14 8b 4d 08                         mov    0x8(%ebp),%ecx
                           .text:01002d17 33 c0                            xor    %eax,%eax
                           .text:01002d19 89 51 18                         mov    %edx,0x18(%ecx)
                           .text:01002d1c 85 d2                            test   %edx,%edx
                           .text:01002d1e 0f 86 c1 00 00 00                jbe    0x01002de5
                           .text:01002d24 8b 55 18                         mov    0x18(%ebp),%edx
                           .text:01002d27 8a 14 10                         mov    (%eax,%edx,1),%dl
                           .text:01002d2a 88 54 01 1c                      mov    %dl,0x1c(%ecx,%eax,1)
                           .text:01002d2e 40                               inc    %eax
                           .text:01002d2f 3b 41 18                         cmp    0x18(%ecx),%eax
                           .text:01002d32 72 f0                            jb     0x01002d24
                           .text:01002d34 e9 ac 00 00 00                   jmp    0x01002de5
                           .text:01002d39 8b 45 18                         mov    0x18(%ebp),%eax
                           .text:01002d3c 8b 4d 08                         mov    0x8(%ebp),%ecx
                           .text:01002d3f 89 41 24                         mov    %eax,0x24(%ecx)
                           .text:01002d42 e9 9e 00 00 00                   jmp    0x01002de5
                           .text:01002d47 8b 45 18                         mov    0x18(%ebp),%eax
                           .text:01002d4a 8b 4d 08                         mov    0x8(%ebp),%ecx
                           .text:01002d4d 89 41 28                         mov    %eax,0x28(%ecx)
                           .text:01002d50 e9 90 00 00 00                   jmp    0x01002de5
                           .text:01002d55 8b 45 18                         mov    0x18(%ebp),%eax
                           .text:01002d58 8b 4d 08                         mov    0x8(%ebp),%ecx
                           .text:01002d5b 89 41 2c                         mov    %eax,0x2c(%ecx)
                           .text:01002d5e e9 82 00 00 00                   jmp    0x01002de5
                           .text:01002d63 8b 45 18                         mov    0x18(%ebp),%eax
                           .text:01002d66 8b 4d 08                         mov    0x8(%ebp),%ecx
                           .text:01002d69 89 41 30                         mov    %eax,0x30(%ecx)
                           .text:01002d6c eb 77                            jmp    0x01002de5
                           .text:01002d6e 8b 45 18                         mov    0x18(%ebp),%eax
                           .text:01002d71 8b 4d 08                         mov    0x8(%ebp),%ecx
                           .text:01002d74 89 41 34                         mov    %eax,0x34(%ecx)
                           .text:01002d77 eb 6c                            jmp    0x01002de5
                           .text:01002d79 8b 45 18                         mov    0x18(%ebp),%eax
                           .text:01002d7c 8b 4d 08                         mov    0x8(%ebp),%ecx
                           .text:01002d7f 89 41 38                         mov    %eax,0x38(%ecx)
                           .text:01002d82 eb 61                            jmp    0x01002de5
                           .text:01002d84 8b 45 18                         mov    0x18(%ebp),%eax
                           .text:01002d87 8b 4d 08                         mov    0x8(%ebp),%ecx
                           .text:01002d8a 89 41 3c                         mov    %eax,0x3c(%ecx)
                           .text:01002d8d eb 56                            jmp    0x01002de5
                           .text:01002d8f 8b 45 18                         mov    0x18(%ebp),%eax
                           .text:01002d92 8b 4d 08                         mov    0x8(%ebp),%ecx
                           .text:01002d95 89 41 40                         mov    %eax,0x40(%ecx)
                           .text:01002d98 eb 4b                            jmp    0x01002de5
                           .text:01002d9a 8b 45 18                         mov    0x18(%ebp),%eax
                           .text:01002d9d 8b 4d 08                         mov    0x8(%ebp),%ecx
                           .text:01002da0 89 41 44                         mov    %eax,0x44(%ecx)
                           .text:01002da3 eb 40                            jmp    0x01002de5
                           .text:01002da5 8b 45 18                         mov    0x18(%ebp),%eax
                           .text:01002da8 8b 4d 08                         mov    0x8(%ebp),%ecx
                           .text:01002dab 89 41 48                         mov    %eax,0x48(%ecx)
                           .text:01002dae eb 35                            jmp    0x01002de5
                           .text:01002db0 8b 45 18                         mov    0x18(%ebp),%eax
                           .text:01002db3 8b 4d 08                         mov    0x8(%ebp),%ecx
                           .text:01002db6 89 41 4c                         mov    %eax,0x4c(%ecx)
                           .text:01002db9 eb 2a                            jmp    0x01002de5
                           .text:01002dbb 8b 45 18                         mov    0x18(%ebp),%eax
                           .text:01002dbe 8b 4d 08                         mov    0x8(%ebp),%ecx
                           .text:01002dc1 89 41 50                         mov    %eax,0x50(%ecx)
                           .text:01002dc4 eb 1f                            jmp    0x01002de5
                           .text:01002dc6 8b 45 18                         mov    0x18(%ebp),%eax
                           .text:01002dc9 8b 4d 08                         mov    0x8(%ebp),%ecx
                           .text:01002dcc 89 41 54                         mov    %eax,0x54(%ecx)
                           .text:01002dcf eb 14                            jmp    0x01002de5
                           .text:01002dd1 8b 45 18                         mov    0x18(%ebp),%eax
                           .text:01002dd4 8b 4d 08                         mov    0x8(%ebp),%ecx
                           .text:01002dd7 89 41 58                         mov    %eax,0x58(%ecx)
                           .text:01002dda eb 09                            jmp    0x01002de5
                           .text:01002ddc 8b 45 18                         mov    0x18(%ebp),%eax
                           .text:01002ddf 8b 4d 08                         mov    0x8(%ebp),%ecx
                           .text:01002de2 89 41 5c                         mov    %eax,0x5c(%ecx)
                           .text:01002de5 5d                               pop    %ebp
                           .text:01002de6 c2 20 00                         ret    $0x20
                           .text:01002de9 8d 49 00                         lea    0x0(%ecx),%ecx
                           .text:01002dec b1 2c                            mov    $0x2c,%cl
                           .text:01002dee 00 01                            add    %al,(%ecx)
                           .text:01002df0 bf 2c 00 01 e7                   mov    $0xe701002c,%edi
                           .text:01002df5 2c 00                            sub    $0x0,%al
                           .text:01002df7 01 f5                            add    %esi,%ebp
                           .text:01002df9 2c 00                            sub    $0x0,%al
                           .text:01002dfb 01 03                            add    %eax,(%ebx)
                           .text:01002dfd 2d 00 01 11 2d                   sub    $0x2d110100,%eax
                           .text:01002e02 00 01                            add    %al,(%ecx)
                           .text:01002e04 39 2d 00 01 47 2d                cmp    %ebp,0x2d470100
                           .text:01002e0a 00 01                            add    %al,(%ecx)
                           .text:01002e0c 55                               push   %ebp
                           .text:01002e0d 2d 00 01 63 2d                   sub    $0x2d630100,%eax
                           .text:01002e12 00 01                            add    %al,(%ecx)
                           .text:01002e14 6e                               outsb  %ds:(%esi),(%dx)
                           .text:01002e15 2d 00 01 79 2d                   sub    $0x2d790100,%eax
                           .text:01002e1a 00 01                            add    %al,(%ecx)
                           .text:01002e1c 84 2d 00 01 8f 2d                test   %ch,0x2d8f0100
                           .text:01002e22 00 01                            add    %al,(%ecx)
                           .text:01002e24 9a 2d 00 01 a5 2d 00             lcall  $0x2d,$0xa501002d
                           .text:01002e2b 01 b0 2d 00 01 bb                add    %esi,-0x44feffd3(%eax)
                           .text:01002e31 2d 00 01 c6 2d                   sub    $0x2dc60100,%eax
                           .text:01002e36 00 01                            add    %al,(%ecx)
                           .text:01002e38 d1 2d 00 01 dc 2d                shrl   0x2ddc0100
                           .text:01002e3e 00 01                            add    %al,(%ecx)
                           .text:01002e40 cc                               int3   
                           .text:01002e41 cc                               int3   
                           .text:01002e42 cc                               int3   
                           .text:01002e43 cc                               int3   
                           .text:01002e44 cc                               int3   
                           .text:01002e45 8b ff                            mov    %edi,%edi
                           .text:01002e47 55                               push   %ebp
                           .text:01002e48 8b ec                            mov    %esp,%ebp
                           .text:01002e4a 8b 45 24                         mov    0x24(%ebp),%eax
                           .text:01002e4d 8b 80 cc 00 00 00                mov    0xcc(%eax),%eax
                           .text:01002e53 8b 4d 10                         mov    0x10(%ebp),%ecx
                           .text:01002e56 8b 04 81                         mov    (%ecx,%eax,4),%eax
                           .text:01002e59 48                               dec    %eax
                           .text:01002e5a 83 f8 12                         cmp    $0x12,%eax
                           .text:01002e5d 0f 87 eb 00 00 00                ja     0x01002f4e
                           .text:01002e63 ff 24 85 55 2f 00 01             jmp    *0x1002f55(,%eax,4)
                           .text:01002e6a 8b 45 18                         mov    0x18(%ebp),%eax
                           .text:01002e6d 8b 4d 08                         mov    0x8(%ebp),%ecx
                           .text:01002e70 89 41 08                         mov    %eax,0x8(%ecx)
                           .text:01002e73 e9 d6 00 00 00                   jmp    0x01002f4e
                           .text:01002e78 8b 45 18                         mov    0x18(%ebp),%eax
                           .text:01002e7b 8b 4d 08                         mov    0x8(%ebp),%ecx
                           .text:01002e7e 89 41 0c                         mov    %eax,0xc(%ecx)
                           .text:01002e81 e9 c8 00 00 00                   jmp    0x01002f4e
                           .text:01002e86 8b 45 18                         mov    0x18(%ebp),%eax
                           .text:01002e89 8b 4d 08                         mov    0x8(%ebp),%ecx
                           .text:01002e8c 89 41 10                         mov    %eax,0x10(%ecx)
                           .text:01002e8f e9 ba 00 00 00                   jmp    0x01002f4e
                           .text:01002e94 8b 45 18                         mov    0x18(%ebp),%eax
                           .text:01002e97 8b 4d 08                         mov    0x8(%ebp),%ecx
                           .text:01002e9a 89 41 14                         mov    %eax,0x14(%ecx)
                           .text:01002e9d e9 ac 00 00 00                   jmp    0x01002f4e
                           .text:01002ea2 8b 45 18                         mov    0x18(%ebp),%eax
                           .text:01002ea5 8b 4d 08                         mov    0x8(%ebp),%ecx
                           .text:01002ea8 89 41 18                         mov    %eax,0x18(%ecx)
                           .text:01002eab e9 9e 00 00 00                   jmp    0x01002f4e
                           .text:01002eb0 8b 45 18                         mov    0x18(%ebp),%eax
                           .text:01002eb3 8b 4d 08                         mov    0x8(%ebp),%ecx
                           .text:01002eb6 89 41 1c                         mov    %eax,0x1c(%ecx)
                           .text:01002eb9 e9 90 00 00 00                   jmp    0x01002f4e
                           .text:01002ebe 8b 45 18                         mov    0x18(%ebp),%eax
                           .text:01002ec1 8b 4d 08                         mov    0x8(%ebp),%ecx
                           .text:01002ec4 89 41 20                         mov    %eax,0x20(%ecx)
                           .text:01002ec7 e9 82 00 00 00                   jmp    0x01002f4e
                           .text:01002ecc 8b 45 18                         mov    0x18(%ebp),%eax
                           .text:01002ecf 8b 4d 08                         mov    0x8(%ebp),%ecx
                           .text:01002ed2 89 41 24                         mov    %eax,0x24(%ecx)
                           .text:01002ed5 eb 77                            jmp    0x01002f4e
                           .text:01002ed7 8b 45 18                         mov    0x18(%ebp),%eax
                           .text:01002eda 8b 4d 08                         mov    0x8(%ebp),%ecx
                           .text:01002edd 89 41 28                         mov    %eax,0x28(%ecx)
                           .text:01002ee0 eb 6c                            jmp    0x01002f4e
                           .text:01002ee2 8b 45 18                         mov    0x18(%ebp),%eax
                           .text:01002ee5 8b 4d 08                         mov    0x8(%ebp),%ecx
                           .text:01002ee8 89 41 2c                         mov    %eax,0x2c(%ecx)
                           .text:01002eeb eb 61                            jmp    0x01002f4e
                           .text:01002eed 8b 45 18                         mov    0x18(%ebp),%eax
                           .text:01002ef0 8b 4d 08                         mov    0x8(%ebp),%ecx
                           .text:01002ef3 89 41 34                         mov    %eax,0x34(%ecx)
                           .text:01002ef6 eb 56                            jmp    0x01002f4e
                           .text:01002ef8 8b 45 18                         mov    0x18(%ebp),%eax
                           .text:01002efb 8b 4d 08                         mov    0x8(%ebp),%ecx
                           .text:01002efe 89 41 38                         mov    %eax,0x38(%ecx)
                           .text:01002f01 eb 4b                            jmp    0x01002f4e
                           .text:01002f03 8b 45 18                         mov    0x18(%ebp),%eax
                           .text:01002f06 8b 4d 08                         mov    0x8(%ebp),%ecx
                           .text:01002f09 89 41 3c                         mov    %eax,0x3c(%ecx)
                           .text:01002f0c eb 40                            jmp    0x01002f4e
                           .text:01002f0e 8b 45 18                         mov    0x18(%ebp),%eax
                           .text:01002f11 8b 4d 08                         mov    0x8(%ebp),%ecx
                           .text:01002f14 89 41 40                         mov    %eax,0x40(%ecx)
                           .text:01002f17 eb 35                            jmp    0x01002f4e
                           .text:01002f19 8b 45 18                         mov    0x18(%ebp),%eax
                           .text:01002f1c 8b 4d 08                         mov    0x8(%ebp),%ecx
                           .text:01002f1f 89 41 44                         mov    %eax,0x44(%ecx)
                           .text:01002f22 eb 2a                            jmp    0x01002f4e
                           .text:01002f24 8b 45 18                         mov    0x18(%ebp),%eax
                           .text:01002f27 8b 4d 08                         mov    0x8(%ebp),%ecx
                           .text:01002f2a 89 41 48                         mov    %eax,0x48(%ecx)
                           .text:01002f2d eb 1f                            jmp    0x01002f4e
                           .text:01002f2f 8b 45 18                         mov    0x18(%ebp),%eax
                           .text:01002f32 8b 4d 08                         mov    0x8(%ebp),%ecx
                           .text:01002f35 89 41 4c                         mov    %eax,0x4c(%ecx)
                           .text:01002f38 eb 14                            jmp    0x01002f4e
                           .text:01002f3a 8b 45 18                         mov    0x18(%ebp),%eax
                           .text:01002f3d 8b 4d 08                         mov    0x8(%ebp),%ecx
                           .text:01002f40 89 41 50                         mov    %eax,0x50(%ecx)
                           .text:01002f43 eb 09                            jmp    0x01002f4e
                           .text:01002f45 8b 45 18                         mov    0x18(%ebp),%eax
                           .text:01002f48 8b 4d 08                         mov    0x8(%ebp),%ecx
                           .text:01002f4b 89 41 54                         mov    %eax,0x54(%ecx)
                           .text:01002f4e 5d                               pop    %ebp
                           .text:01002f4f c2 20 00                         ret    $0x20
                           .text:01002f52 8d 49 00                         lea    0x0(%ecx),%ecx
                           .text:01002f55 6a 2e                            push   $0x2e
                           .text:01002f57 00 01                            add    %al,(%ecx)
                           .text:01002f59 78 2e                            js     0x01002f89
                           .text:01002f5b 00 01                            add    %al,(%ecx)
                           .text:01002f5d 86 2e                            xchg   %ch,(%esi)
                           .text:01002f5f 00 01                            add    %al,(%ecx)
                           .text:01002f61 94                               xchg   %eax,%esp
                           .text:01002f62 2e 00 01                         add    %al,%cs:(%ecx)
                           .text:01002f65 a2 2e 00 01 b0                   mov    %al,0xb001002e
                           .text:01002f6a 2e 00 01                         add    %al,%cs:(%ecx)
                           .text:01002f6d be 2e 00 01 cc                   mov    $0xcc01002e,%esi
                           .text:01002f72 2e 00 01                         add    %al,%cs:(%ecx)
                           .text:01002f75 d7                               xlat   %ds:(%ebx)
                           .text:01002f76 2e 00 01                         add    %al,%cs:(%ecx)
                           .text:01002f79 e2 2e                            loop   0x01002fa9
                           .text:01002f7b 00 01                            add    %al,(%ecx)
                           .text:01002f7d ed                               in     (%dx),%eax
                           .text:01002f7e 2e 00 01                         add    %al,%cs:(%ecx)
                           .text:01002f81 f8                               clc    
                           .text:01002f82 2e 00 01                         add    %al,%cs:(%ecx)
                           .text:01002f85 03 2f                            add    (%edi),%ebp
                           .text:01002f87 00 01                            add    %al,(%ecx)
                           .text:01002f89 0e                               push   %cs
                           .text:01002f8a 2f                               das    
                           .text:01002f8b 00 01                            add    %al,(%ecx)
                           .text:01002f8d 19 2f                            sbb    %ebp,(%edi)
                           .text:01002f8f 00 01                            add    %al,(%ecx)
                           .text:01002f91 24 2f                            and    $0x2f,%al
                           .text:01002f93 00 01                            add    %al,(%ecx)
                           .text:01002f95 2f                               das    
                           .text:01002f96 2f                               das    
                           .text:01002f97 00 01                            add    %al,(%ecx)
                           .text:01002f99 3a 2f                            cmp    (%edi),%ch
                           .text:01002f9b 00 01                            add    %al,(%ecx)
                           .text:01002f9d 45                               inc    %ebp
                           .text:01002f9e 2f                               das    
                           .text:01002f9f 00 01                            add    %al,(%ecx)
                           .text:01002fa1 cc                               int3   
                           .text:01002fa2 cc                               int3   
                           .text:01002fa3 cc                               int3   
                           .text:01002fa4 cc                               int3   
                           .text:01002fa5 cc                               int3   
                           .text:01002fa6 8b ff                            mov    %edi,%edi
                           .text:01002fa8 55                               push   %ebp
                           .text:01002fa9 8b ec                            mov    %esp,%ebp
                           .text:01002fab 8b 45 24                         mov    0x24(%ebp),%eax
                           .text:01002fae 8b 80 cc 00 00 00                mov    0xcc(%eax),%eax
                           .text:01002fb4 8b 4d 10                         mov    0x10(%ebp),%ecx
                           .text:01002fb7 8b 04 81                         mov    (%ecx,%eax,4),%eax
                           .text:01002fba 48                               dec    %eax
                           .text:01002fbb 74 4c                            je     0x01003009
                           .text:01002fbd 48                               dec    %eax
                           .text:01002fbe 74 3e                            je     0x01002ffe
                           .text:01002fc0 48                               dec    %eax
                           .text:01002fc1 74 1c                            je     0x01002fdf
                           .text:01002fc3 48                               dec    %eax
                           .text:01002fc4 74 0e                            je     0x01002fd4
                           .text:01002fc6 48                               dec    %eax
                           .text:01002fc7 75 5d                            jne    0x01003026
                           .text:01002fc9 8b 45 18                         mov    0x18(%ebp),%eax
                           .text:01002fcc 8b 4d 08                         mov    0x8(%ebp),%ecx
                           .text:01002fcf 89 41 18                         mov    %eax,0x18(%ecx)
                           .text:01002fd2 eb 52                            jmp    0x01003026
                           .text:01002fd4 8b 45 18                         mov    0x18(%ebp),%eax
                           .text:01002fd7 8b 4d 08                         mov    0x8(%ebp),%ecx
                           .text:01002fda 89 41 14                         mov    %eax,0x14(%ecx)
                           .text:01002fdd eb 47                            jmp    0x01003026
                           .text:01002fdf 8b 4d 18                         mov    0x18(%ebp),%ecx
                           .text:01002fe2 8a 11                            mov    (%ecx),%dl
                           .text:01002fe4 8b 45 08                         mov    0x8(%ebp),%eax
                           .text:01002fe7 88 50 10                         mov    %dl,0x10(%eax)
                           .text:01002fea 8a 51 01                         mov    0x1(%ecx),%dl
                           .text:01002fed 88 50 11                         mov    %dl,0x11(%eax)
                           .text:01002ff0 8a 51 02                         mov    0x2(%ecx),%dl
                           .text:01002ff3 88 50 12                         mov    %dl,0x12(%eax)
                           .text:01002ff6 8a 49 03                         mov    0x3(%ecx),%cl
                           .text:01002ff9 88 48 13                         mov    %cl,0x13(%eax)
                           .text:01002ffc eb 28                            jmp    0x01003026
                           .text:01002ffe 8b 45 18                         mov    0x18(%ebp),%eax
                           .text:01003001 8b 4d 08                         mov    0x8(%ebp),%ecx
                           .text:01003004 89 41 0c                         mov    %eax,0xc(%ecx)
                           .text:01003007 eb 1d                            jmp    0x01003026
                           .text:01003009 8b 4d 18                         mov    0x18(%ebp),%ecx
                           .text:0100300c 8a 11                            mov    (%ecx),%dl
                           .text:0100300e 8b 45 08                         mov    0x8(%ebp),%eax
                           .text:01003011 88 50 08                         mov    %dl,0x8(%eax)
                           .text:01003014 8a 51 01                         mov    0x1(%ecx),%dl
                           .text:01003017 88 50 09                         mov    %dl,0x9(%eax)
                           .text:0100301a 8a 51 02                         mov    0x2(%ecx),%dl
                           .text:0100301d 88 50 0a                         mov    %dl,0xa(%eax)
                           .text:01003020 8a 49 03                         mov    0x3(%ecx),%cl
                           .text:01003023 88 48 0b                         mov    %cl,0xb(%eax)
                           .text:01003026 5d                               pop    %ebp
                           .text:01003027 c2 20 00                         ret    $0x20
                           .text:0100302a cc                               int3   
                           .text:0100302b cc                               int3   
                           .text:0100302c cc                               int3   
                           .text:0100302d cc                               int3   
                           .text:0100302e cc                               int3   
                           .text:0100302f 8b ff                            mov    %edi,%edi
                           .text:01003031 55                               push   %ebp
                           .text:01003032 8b ec                            mov    %esp,%ebp
                           .text:01003034 8b 45 24                         mov    0x24(%ebp),%eax
                           .text:01003037 8b 80 cc 00 00 00                mov    0xcc(%eax),%eax
                           .text:0100303d 8b 4d 10                         mov    0x10(%ebp),%ecx
                           .text:01003040 8b 04 81                         mov    (%ecx,%eax,4),%eax
                           .text:01003043 48                               dec    %eax
                           .text:01003044 83 f8 0b                         cmp    $0xb,%eax
                           .text:01003047 0f 87 ce 00 00 00                ja     0x0100311b
                           .text:0100304d ff 24 85 1f 31 00 01             jmp    *0x100311f(,%eax,4)
                           .text:01003054 8b 4d 18                         mov    0x18(%ebp),%ecx
                           .text:01003057 8a 11                            mov    (%ecx),%dl
                           .text:01003059 8b 45 08                         mov    0x8(%ebp),%eax
                           .text:0100305c 88 50 08                         mov    %dl,0x8(%eax)
                           .text:0100305f 8a 51 01                         mov    0x1(%ecx),%dl
                           .text:01003062 88 50 09                         mov    %dl,0x9(%eax)
                           .text:01003065 8a 51 02                         mov    0x2(%ecx),%dl
                           .text:01003068 88 50 0a                         mov    %dl,0xa(%eax)
                           .text:0100306b 8a 49 03                         mov    0x3(%ecx),%cl
                           .text:0100306e 88 48 0b                         mov    %cl,0xb(%eax)
                           .text:01003071 e9 a5 00 00 00                   jmp    0x0100311b
                           .text:01003076 8b 45 18                         mov    0x18(%ebp),%eax
                           .text:01003079 8b 4d 08                         mov    0x8(%ebp),%ecx
                           .text:0100307c 89 41 0c                         mov    %eax,0xc(%ecx)
                           .text:0100307f e9 97 00 00 00                   jmp    0x0100311b
                           .text:01003084 8b 45 18                         mov    0x18(%ebp),%eax
                           .text:01003087 8b 4d 08                         mov    0x8(%ebp),%ecx
                           .text:0100308a 89 41 10                         mov    %eax,0x10(%ecx)
                           .text:0100308d e9 89 00 00 00                   jmp    0x0100311b
                           .text:01003092 8b 45 18                         mov    0x18(%ebp),%eax
                           .text:01003095 8b 4d 08                         mov    0x8(%ebp),%ecx
                           .text:01003098 89 41 14                         mov    %eax,0x14(%ecx)
                           .text:0100309b eb 7e                            jmp    0x0100311b
                           .text:0100309d 8b 45 18                         mov    0x18(%ebp),%eax
                           .text:010030a0 8b 4d 08                         mov    0x8(%ebp),%ecx
                           .text:010030a3 89 41 18                         mov    %eax,0x18(%ecx)
                           .text:010030a6 eb 73                            jmp    0x0100311b
                           .text:010030a8 8b 45 18                         mov    0x18(%ebp),%eax
                           .text:010030ab 8b 4d 08                         mov    0x8(%ebp),%ecx
                           .text:010030ae 89 41 1c                         mov    %eax,0x1c(%ecx)
                           .text:010030b1 eb 68                            jmp    0x0100311b
                           .text:010030b3 8b 4d 18                         mov    0x18(%ebp),%ecx
                           .text:010030b6 8a 11                            mov    (%ecx),%dl
                           .text:010030b8 8b 45 08                         mov    0x8(%ebp),%eax
                           .text:010030bb 88 50 20                         mov    %dl,0x20(%eax)
                           .text:010030be 8a 51 01                         mov    0x1(%ecx),%dl
                           .text:010030c1 88 50 21                         mov    %dl,0x21(%eax)
                           .text:010030c4 8a 51 02                         mov    0x2(%ecx),%dl
                           .text:010030c7 88 50 22                         mov    %dl,0x22(%eax)
                           .text:010030ca 8a 49 03                         mov    0x3(%ecx),%cl
                           .text:010030cd 88 48 23                         mov    %cl,0x23(%eax)
                           .text:010030d0 eb 49                            jmp    0x0100311b
                           .text:010030d2 8b 45 18                         mov    0x18(%ebp),%eax
                           .text:010030d5 8b 4d 08                         mov    0x8(%ebp),%ecx
                           .text:010030d8 89 41 24                         mov    %eax,0x24(%ecx)
                           .text:010030db eb 3e                            jmp    0x0100311b
                           .text:010030dd 8b 45 18                         mov    0x18(%ebp),%eax
                           .text:010030e0 8b 4d 08                         mov    0x8(%ebp),%ecx
                           .text:010030e3 89 41 28                         mov    %eax,0x28(%ecx)
                           .text:010030e6 eb 33                            jmp    0x0100311b
                           .text:010030e8 8b 45 18                         mov    0x18(%ebp),%eax
                           .text:010030eb 8b 4d 08                         mov    0x8(%ebp),%ecx
                           .text:010030ee 89 41 2c                         mov    %eax,0x2c(%ecx)
                           .text:010030f1 eb 28                            jmp    0x0100311b
                           .text:010030f3 8b 4d 18                         mov    0x18(%ebp),%ecx
                           .text:010030f6 8a 11                            mov    (%ecx),%dl
                           .text:010030f8 8b 45 08                         mov    0x8(%ebp),%eax
                           .text:010030fb 88 50 30                         mov    %dl,0x30(%eax)
                           .text:010030fe 8a 51 01                         mov    0x1(%ecx),%dl
                           .text:01003101 88 50 31                         mov    %dl,0x31(%eax)
                           .text:01003104 8a 51 02                         mov    0x2(%ecx),%dl
                           .text:01003107 88 50 32                         mov    %dl,0x32(%eax)
                           .text:0100310a 8a 49 03                         mov    0x3(%ecx),%cl
                           .text:0100310d 88 48 33                         mov    %cl,0x33(%eax)
                           .text:01003110 eb 09                            jmp    0x0100311b
                           .text:01003112 8b 45 18                         mov    0x18(%ebp),%eax
                           .text:01003115 8b 4d 08                         mov    0x8(%ebp),%ecx
                           .text:01003118 89 41 34                         mov    %eax,0x34(%ecx)
                           .text:0100311b 5d                               pop    %ebp
                           .text:0100311c c2 20 00                         ret    $0x20
                           .text:0100311f 54                               push   %esp
                           .text:01003120 30 00                            xor    %al,(%eax)
                           .text:01003122 01 76 30                         add    %esi,0x30(%esi)
                           .text:01003125 00 01                            add    %al,(%ecx)
                           .text:01003127 84 30                            test   %dh,(%eax)
                           .text:01003129 00 01                            add    %al,(%ecx)
                           .text:0100312b 92                               xchg   %eax,%edx
                           .text:0100312c 30 00                            xor    %al,(%eax)
                           .text:0100312e 01 9d 30 00 01 a8                add    %ebx,-0x57feffd0(%ebp)
                           .text:01003134 30 00                            xor    %al,(%eax)
                           .text:01003136 01 b3 30 00 01 d2                add    %esi,-0x2dfeffd0(%ebx)
                           .text:0100313c 30 00                            xor    %al,(%eax)
                           .text:0100313e 01 dd                            add    %ebx,%ebp
                           .text:01003140 30 00                            xor    %al,(%eax)
                           .text:01003142 01 e8                            add    %ebp,%eax
                           .text:01003144 30 00                            xor    %al,(%eax)
                           .text:01003146 01 f3                            add    %esi,%ebx
                           .text:01003148 30 00                            xor    %al,(%eax)
                           .text:0100314a 01 12                            add    %edx,(%edx)
                           .text:0100314c 31 00                            xor    %eax,(%eax)
                           .text:0100314e 01 cc                            add    %ecx,%esp
                           .text:01003150 cc                               int3   
                           .text:01003151 cc                               int3   
                           .text:01003152 cc                               int3   
                           .text:01003153 cc                               int3   
                           .text:01003154 8b ff                            mov    %edi,%edi
                           .text:01003156 55                               push   %ebp
                           .text:01003157 8b ec                            mov    %esp,%ebp
                           .text:01003159 8b 45 24                         mov    0x24(%ebp),%eax
                           .text:0100315c 8b 80 cc 00 00 00                mov    0xcc(%eax),%eax
                           .text:01003162 8b 4d 10                         mov    0x10(%ebp),%ecx
                           .text:01003165 8b 04 81                         mov    (%ecx,%eax,4),%eax
                           .text:01003168 48                               dec    %eax
                           .text:01003169 74 54                            je     0x010031bf
                           .text:0100316b 48                               dec    %eax
                           .text:0100316c 74 30                            je     0x0100319e
                           .text:0100316e 48                               dec    %eax
                           .text:0100316f 74 0e                            je     0x0100317f
                           .text:01003171 48                               dec    %eax
                           .text:01003172 75 54                            jne    0x010031c8
                           .text:01003174 8b 45 18                         mov    0x18(%ebp),%eax
                           .text:01003177 8b 4d 08                         mov    0x8(%ebp),%ecx
                           .text:0100317a 89 41 1c                         mov    %eax,0x1c(%ecx)
                           .text:0100317d eb 49                            jmp    0x010031c8
                           .text:0100317f 8b 4d 18                         mov    0x18(%ebp),%ecx
                           .text:01003182 8a 11                            mov    (%ecx),%dl
                           .text:01003184 8b 45 08                         mov    0x8(%ebp),%eax
                           .text:01003187 88 50 18                         mov    %dl,0x18(%eax)
                           .text:0100318a 8a 51 01                         mov    0x1(%ecx),%dl
                           .text:0100318d 88 50 19                         mov    %dl,0x19(%eax)
                           .text:01003190 8a 51 02                         mov    0x2(%ecx),%dl
                           .text:01003193 88 50 1a                         mov    %dl,0x1a(%eax)
                           .text:01003196 8a 49 03                         mov    0x3(%ecx),%cl
                           .text:01003199 88 48 1b                         mov    %cl,0x1b(%eax)
                           .text:0100319c eb 2a                            jmp    0x010031c8
                           .text:0100319e 8b 55 1c                         mov    0x1c(%ebp),%edx
                           .text:010031a1 8b 4d 08                         mov    0x8(%ebp),%ecx
                           .text:010031a4 33 c0                            xor    %eax,%eax
                           .text:010031a6 89 51 0c                         mov    %edx,0xc(%ecx)
                           .text:010031a9 85 d2                            test   %edx,%edx
                           .text:010031ab 76 1b                            jbe    0x010031c8
                           .text:010031ad 8b 55 18                         mov    0x18(%ebp),%edx
                           .text:010031b0 8a 14 10                         mov    (%eax,%edx,1),%dl
                           .text:010031b3 88 54 01 10                      mov    %dl,0x10(%ecx,%eax,1)
                           .text:010031b7 40                               inc    %eax
                           .text:010031b8 3b 41 0c                         cmp    0xc(%ecx),%eax
                           .text:010031bb 72 f0                            jb     0x010031ad
                           .text:010031bd eb 09                            jmp    0x010031c8
                           .text:010031bf 8b 45 18                         mov    0x18(%ebp),%eax
                           .text:010031c2 8b 4d 08                         mov    0x8(%ebp),%ecx
                           .text:010031c5 89 41 08                         mov    %eax,0x8(%ecx)
                           .text:010031c8 5d                               pop    %ebp
                           .text:010031c9 c2 20 00                         ret    $0x20
                           .text:010031cc cc                               int3   
                           .text:010031cd cc                               int3   
                           .text:010031ce cc                               int3   
                           .text:010031cf cc                               int3   
                           .text:010031d0 cc                               int3   
                           .text:010031d1 8b ff                            mov    %edi,%edi
                           .text:010031d3 55                               push   %ebp
                           .text:010031d4 8b ec                            mov    %esp,%ebp
                           .text:010031d6 8b 45 24                         mov    0x24(%ebp),%eax
                           .text:010031d9 8b 80 cc 00 00 00                mov    0xcc(%eax),%eax
                           .text:010031df 8b 4d 10                         mov    0x10(%ebp),%ecx
                           .text:010031e2 8b 04 81                         mov    (%ecx,%eax,4),%eax
                           .text:010031e5 48                               dec    %eax
                           .text:010031e6 83 f8 0e                         cmp    $0xe,%eax
                           .text:010031e9 0f 87 a5 00 00 00                ja     0x01003294
                           .text:010031ef ff 24 85 99 32 00 01             jmp    *0x1003299(,%eax,4)
                           .text:010031f6 8b 45 18                         mov    0x18(%ebp),%eax
                           .text:010031f9 8b 4d 08                         mov    0x8(%ebp),%ecx
                           .text:010031fc 89 41 08                         mov    %eax,0x8(%ecx)
                           .text:010031ff e9 90 00 00 00                   jmp    0x01003294
                           .text:01003204 8b 45 18                         mov    0x18(%ebp),%eax
                           .text:01003207 8b 4d 08                         mov    0x8(%ebp),%ecx
                           .text:0100320a 89 41 0c                         mov    %eax,0xc(%ecx)
                           .text:0100320d e9 82 00 00 00                   jmp    0x01003294
                           .text:01003212 8b 45 18                         mov    0x18(%ebp),%eax
                           .text:01003215 8b 4d 08                         mov    0x8(%ebp),%ecx
                           .text:01003218 89 41 10                         mov    %eax,0x10(%ecx)
                           .text:0100321b eb 77                            jmp    0x01003294
                           .text:0100321d 8b 45 18                         mov    0x18(%ebp),%eax
                           .text:01003220 8b 4d 08                         mov    0x8(%ebp),%ecx
                           .text:01003223 89 41 14                         mov    %eax,0x14(%ecx)
                           .text:01003226 eb 6c                            jmp    0x01003294
                           .text:01003228 8b 45 18                         mov    0x18(%ebp),%eax
                           .text:0100322b 8b 4d 08                         mov    0x8(%ebp),%ecx
                           .text:0100322e 89 41 18                         mov    %eax,0x18(%ecx)
                           .text:01003231 eb 61                            jmp    0x01003294
                           .text:01003233 8b 45 18                         mov    0x18(%ebp),%eax
                           .text:01003236 8b 4d 08                         mov    0x8(%ebp),%ecx
                           .text:01003239 89 41 1c                         mov    %eax,0x1c(%ecx)
                           .text:0100323c eb 56                            jmp    0x01003294
                           .text:0100323e 8b 45 18                         mov    0x18(%ebp),%eax
                           .text:01003241 8b 4d 08                         mov    0x8(%ebp),%ecx
                           .text:01003244 89 41 20                         mov    %eax,0x20(%ecx)
                           .text:01003247 eb 4b                            jmp    0x01003294
                           .text:01003249 8b 45 18                         mov    0x18(%ebp),%eax
                           .text:0100324c 8b 4d 08                         mov    0x8(%ebp),%ecx
                           .text:0100324f 89 41 24                         mov    %eax,0x24(%ecx)
                           .text:01003252 eb 40                            jmp    0x01003294
                           .text:01003254 8b 45 18                         mov    0x18(%ebp),%eax
                           .text:01003257 8b 4d 08                         mov    0x8(%ebp),%ecx
                           .text:0100325a 89 41 28                         mov    %eax,0x28(%ecx)
                           .text:0100325d eb 35                            jmp    0x01003294
                           .text:0100325f 8b 45 18                         mov    0x18(%ebp),%eax
                           .text:01003262 8b 4d 08                         mov    0x8(%ebp),%ecx
                           .text:01003265 89 41 2c                         mov    %eax,0x2c(%ecx)
                           .text:01003268 eb 2a                            jmp    0x01003294
                           .text:0100326a 8b 45 18                         mov    0x18(%ebp),%eax
                           .text:0100326d 8b 4d 08                         mov    0x8(%ebp),%ecx
                           .text:01003270 89 41 30                         mov    %eax,0x30(%ecx)
                           .text:01003273 eb 1f                            jmp    0x01003294
                           .text:01003275 8b 45 18                         mov    0x18(%ebp),%eax
                           .text:01003278 8b 4d 08                         mov    0x8(%ebp),%ecx
                           .text:0100327b 89 41 34                         mov    %eax,0x34(%ecx)
                           .text:0100327e eb 14                            jmp    0x01003294
                           .text:01003280 8b 45 18                         mov    0x18(%ebp),%eax
                           .text:01003283 8b 4d 08                         mov    0x8(%ebp),%ecx
                           .text:01003286 89 41 38                         mov    %eax,0x38(%ecx)
                           .text:01003289 eb 09                            jmp    0x01003294
                           .text:0100328b 8b 45 18                         mov    0x18(%ebp),%eax
                           .text:0100328e 8b 4d 08                         mov    0x8(%ebp),%ecx
                           .text:01003291 89 41 3c                         mov    %eax,0x3c(%ecx)
                           .text:01003294 5d                               pop    %ebp
                           .text:01003295 c2 20 00                         ret    $0x20
                           .text:01003298 90                               nop
                           .text:01003299 f6 31                            divb   (%ecx)
                           .text:0100329b 00 01                            add    %al,(%ecx)
                           .text:0100329d 04 32                            add    $0x32,%al
                           .text:0100329f 00 01                            add    %al,(%ecx)
                           .text:010032a1 12 32                            adc    (%edx),%dh
                           .text:010032a3 00 01                            add    %al,(%ecx)
                           .text:010032a5 1d 32 00 01 28                   sbb    $0x28010032,%eax
                           .text:010032aa 32 00                            xor    (%eax),%al
                           .text:010032ac 01 33                            add    %esi,(%ebx)
                           .text:010032ae 32 00                            xor    (%eax),%al
                           .text:010032b0 01 3e                            add    %edi,(%esi)
                           .text:010032b2 32 00                            xor    (%eax),%al
                           .text:010032b4 01 49 32                         add    %ecx,0x32(%ecx)
                           .text:010032b7 00 01                            add    %al,(%ecx)
                           .text:010032b9 54                               push   %esp
                           .text:010032ba 32 00                            xor    (%eax),%al
                           .text:010032bc 01 5f 32                         add    %ebx,0x32(%edi)
                           .text:010032bf 00 01                            add    %al,(%ecx)
                           .text:010032c1 6a 32                            push   $0x32
                           .text:010032c3 00 01                            add    %al,(%ecx)
                           .text:010032c5 75 32                            jne    0x010032f9
                           .text:010032c7 00 01                            add    %al,(%ecx)
                           .text:010032c9 94                               xchg   %eax,%esp
                           .text:010032ca 32 00                            xor    (%eax),%al
                           .text:010032cc 01 80 32 00 01 8b                add    %eax,-0x74feffce(%eax)
                           .text:010032d2 32 00                            xor    (%eax),%al
                           .text:010032d4 01 cc                            add    %ecx,%esp
                           .text:010032d6 cc                               int3   
                           .text:010032d7 cc                               int3   
                           .text:010032d8 cc                               int3   
                           .text:010032d9 cc                               int3   
                           .text:010032da 8b ff                            mov    %edi,%edi
                           .text:010032dc 55                               push   %ebp
                           .text:010032dd 8b ec                            mov    %esp,%ebp
                           .text:010032df 8b 45 24                         mov    0x24(%ebp),%eax
                           .text:010032e2 8b 80 cc 00 00 00                mov    0xcc(%eax),%eax
                           .text:010032e8 8b 4d 10                         mov    0x10(%ebp),%ecx
                           .text:010032eb 8b 04 81                         mov    (%ecx,%eax,4),%eax
                           .text:010032ee 48                               dec    %eax
                           .text:010032ef 74 60                            je     0x01003351
                           .text:010032f1 48                               dec    %eax
                           .text:010032f2 74 3e                            je     0x01003332
                           .text:010032f4 48                               dec    %eax
                           .text:010032f5 74 30                            je     0x01003327
                           .text:010032f7 48                               dec    %eax
                           .text:010032f8 74 0e                            je     0x01003308
                           .text:010032fa 48                               dec    %eax
                           .text:010032fb 75 5d                            jne    0x0100335a
                           .text:010032fd 8b 45 18                         mov    0x18(%ebp),%eax
                           .text:01003300 8b 4d 08                         mov    0x8(%ebp),%ecx
                           .text:01003303 89 41 18                         mov    %eax,0x18(%ecx)
                           .text:01003306 eb 52                            jmp    0x0100335a
                           .text:01003308 8b 4d 18                         mov    0x18(%ebp),%ecx
                           .text:0100330b 8a 11                            mov    (%ecx),%dl
                           .text:0100330d 8b 45 08                         mov    0x8(%ebp),%eax
                           .text:01003310 88 50 14                         mov    %dl,0x14(%eax)
                           .text:01003313 8a 51 01                         mov    0x1(%ecx),%dl
                           .text:01003316 88 50 15                         mov    %dl,0x15(%eax)
                           .text:01003319 8a 51 02                         mov    0x2(%ecx),%dl
                           .text:0100331c 88 50 16                         mov    %dl,0x16(%eax)
                           .text:0100331f 8a 49 03                         mov    0x3(%ecx),%cl
                           .text:01003322 88 48 17                         mov    %cl,0x17(%eax)
                           .text:01003325 eb 33                            jmp    0x0100335a
                           .text:01003327 8b 45 18                         mov    0x18(%ebp),%eax
                           .text:0100332a 8b 4d 08                         mov    0x8(%ebp),%ecx
                           .text:0100332d 89 41 10                         mov    %eax,0x10(%ecx)
                           .text:01003330 eb 28                            jmp    0x0100335a
                           .text:01003332 8b 4d 18                         mov    0x18(%ebp),%ecx
                           .text:01003335 8a 11                            mov    (%ecx),%dl
                           .text:01003337 8b 45 08                         mov    0x8(%ebp),%eax
                           .text:0100333a 88 50 0c                         mov    %dl,0xc(%eax)
                           .text:0100333d 8a 51 01                         mov    0x1(%ecx),%dl
                           .text:01003340 88 50 0d                         mov    %dl,0xd(%eax)
                           .text:01003343 8a 51 02                         mov    0x2(%ecx),%dl
                           .text:01003346 88 50 0e                         mov    %dl,0xe(%eax)
                           .text:01003349 8a 49 03                         mov    0x3(%ecx),%cl
                           .text:0100334c 88 48 0f                         mov    %cl,0xf(%eax)
                           .text:0100334f eb 09                            jmp    0x0100335a
                           .text:01003351 8b 45 18                         mov    0x18(%ebp),%eax
                           .text:01003354 8b 4d 08                         mov    0x8(%ebp),%ecx
                           .text:01003357 89 41 08                         mov    %eax,0x8(%ecx)
                           .text:0100335a 5d                               pop    %ebp
                           .text:0100335b c2 20 00                         ret    $0x20
                           .text:0100335e cc                               int3   
                           .text:0100335f cc                               int3   
                           .text:01003360 cc                               int3   
                           .text:01003361 cc                               int3   
                           .text:01003362 cc                               int3   
                           .text:01003363 8b ff                            mov    %edi,%edi
                           .text:01003365 55                               push   %ebp
                           .text:01003366 8b ec                            mov    %esp,%ebp
                           .text:01003368 8b 45 24                         mov    0x24(%ebp),%eax
                           .text:0100336b 8b 88 cc 00 00 00                mov    0xcc(%eax),%ecx
                           .text:01003371 8b 45 10                         mov    0x10(%ebp),%eax
                           .text:01003374 83 3c 88 07                      cmpl   $0x7,(%eax,%ecx,4)
                           .text:01003378 0f 85 8f 00 00 00                jne    0x0100340d
                           .text:0100337e 8b 50 2c                         mov    0x2c(%eax),%edx
                           .text:01003381 56                               push   %esi
                           .text:01003382 57                               push   %edi
                           .text:01003383 8b 7d 08                         mov    0x8(%ebp),%edi
                           .text:01003386 6a 0c                            push   $0xc
                           .text:01003388 5e                               pop    %esi
                           .text:01003389 33 c9                            xor    %ecx,%ecx
                           .text:0100338b 53                               push   %ebx
                           .text:0100338c 8a 1c b0                         mov    (%eax,%esi,4),%bl
                           .text:0100338f 46                               inc    %esi
                           .text:01003390 88 5c 0f 08                      mov    %bl,0x8(%edi,%ecx,1)
                           .text:01003394 41                               inc    %ecx
                           .text:01003395 83 f9 10                         cmp    $0x10,%ecx
                           .text:01003398 72 f2                            jb     0x0100338c
                           .text:0100339a 83 fa 10                         cmp    $0x10,%edx
                           .text:0100339d 76 1f                            jbe    0x010033be
                           .text:0100339f 33 c9                            xor    %ecx,%ecx
                           .text:010033a1 8a 14 b0                         mov    (%eax,%esi,4),%dl
                           .text:010033a4 46                               inc    %esi
                           .text:010033a5 88 54 0f 18                      mov    %dl,0x18(%edi,%ecx,1)
                           .text:010033a9 41                               inc    %ecx
                           .text:010033aa 83 f9 04                         cmp    $0x4,%ecx
                           .text:010033ad 72 f2                            jb     0x010033a1
                           .text:010033af ff 77 18                         pushl  0x18(%edi)
                           .text:010033b2 ff 15 90 10 00 01                call   *0x1001090
                           .text:010033b8 89 47 18                         mov    %eax,0x18(%edi)
                           .text:010033bb 8b 45 10                         mov    0x10(%ebp),%eax
                           .text:010033be 8b 0c b0                         mov    (%eax,%esi,4),%ecx
                           .text:010033c1 46                               inc    %esi
                           .text:010033c2 46                               inc    %esi
                           .text:010033c3 89 4f 1c                         mov    %ecx,0x1c(%edi)
                           .text:010033c6 8b 14 b0                         mov    (%eax,%esi,4),%edx
                           .text:010033c9 46                               inc    %esi
                           .text:010033ca 33 c9                            xor    %ecx,%ecx
                           .text:010033cc 8a 1c b0                         mov    (%eax,%esi,4),%bl
                           .text:010033cf 46                               inc    %esi
                           .text:010033d0 88 5c 0f 20                      mov    %bl,0x20(%edi,%ecx,1)
                           .text:010033d4 41                               inc    %ecx
                           .text:010033d5 83 f9 10                         cmp    $0x10,%ecx
                           .text:010033d8 72 f2                            jb     0x010033cc
                           .text:010033da 5b                               pop    %ebx
                           .text:010033db 83 fa 10                         cmp    $0x10,%edx
                           .text:010033de 76 1f                            jbe    0x010033ff
                           .text:010033e0 33 c9                            xor    %ecx,%ecx
                           .text:010033e2 8a 14 b0                         mov    (%eax,%esi,4),%dl
                           .text:010033e5 46                               inc    %esi
                           .text:010033e6 88 54 0f 30                      mov    %dl,0x30(%edi,%ecx,1)
                           .text:010033ea 41                               inc    %ecx
                           .text:010033eb 83 f9 04                         cmp    $0x4,%ecx
                           .text:010033ee 72 f2                            jb     0x010033e2
                           .text:010033f0 ff 77 30                         pushl  0x30(%edi)
                           .text:010033f3 ff 15 90 10 00 01                call   *0x1001090
                           .text:010033f9 89 47 30                         mov    %eax,0x30(%edi)
                           .text:010033fc 8b 45 10                         mov    0x10(%ebp),%eax
                           .text:010033ff 8b 04 b0                         mov    (%eax,%esi,4),%eax
                           .text:01003402 89 47 34                         mov    %eax,0x34(%edi)
                           .text:01003405 8b 45 18                         mov    0x18(%ebp),%eax
                           .text:01003408 89 47 38                         mov    %eax,0x38(%edi)
                           .text:0100340b 5f                               pop    %edi
                           .text:0100340c 5e                               pop    %esi
                           .text:0100340d 5d                               pop    %ebp
                           .text:0100340e c2 20 00                         ret    $0x20
                           .text:01003411 cc                               int3   
                           .text:01003412 cc                               int3   
                           .text:01003413 cc                               int3   
                           .text:01003414 cc                               int3   
                           .text:01003415 cc                               int3   
                           .text:01003416 8b ff                            mov    %edi,%edi
                           .text:01003418 55                               push   %ebp
                           .text:01003419 8b ec                            mov    %esp,%ebp
                           .text:0100341b 8b 45 24                         mov    0x24(%ebp),%eax
                           .text:0100341e 8b 80 cc 00 00 00                mov    0xcc(%eax),%eax
                           .text:01003424 8b 4d 10                         mov    0x10(%ebp),%ecx
                           .text:01003427 8b 04 81                         mov    (%ecx,%eax,4),%eax
                           .text:0100342a 48                               dec    %eax
                           .text:0100342b 74 2a                            je     0x01003457
                           .text:0100342d 48                               dec    %eax
                           .text:0100342e 74 1c                            je     0x0100344c
                           .text:01003430 48                               dec    %eax
                           .text:01003431 74 0e                            je     0x01003441
                           .text:01003433 48                               dec    %eax
                           .text:01003434 75 2a                            jne    0x01003460
                           .text:01003436 8b 45 18                         mov    0x18(%ebp),%eax
                           .text:01003439 8b 4d 08                         mov    0x8(%ebp),%ecx
                           .text:0100343c 89 41 14                         mov    %eax,0x14(%ecx)
                           .text:0100343f eb 1f                            jmp    0x01003460
                           .text:01003441 8b 45 18                         mov    0x18(%ebp),%eax
                           .text:01003444 8b 4d 08                         mov    0x8(%ebp),%ecx
                           .text:01003447 89 41 10                         mov    %eax,0x10(%ecx)
                           .text:0100344a eb 14                            jmp    0x01003460
                           .text:0100344c 8b 45 18                         mov    0x18(%ebp),%eax
                           .text:0100344f 8b 4d 08                         mov    0x8(%ebp),%ecx
                           .text:01003452 89 41 0c                         mov    %eax,0xc(%ecx)
                           .text:01003455 eb 09                            jmp    0x01003460
                           .text:01003457 8b 45 18                         mov    0x18(%ebp),%eax
                           .text:0100345a 8b 4d 08                         mov    0x8(%ebp),%ecx
                           .text:0100345d 89 41 08                         mov    %eax,0x8(%ecx)
                           .text:01003460 5d                               pop    %ebp
                           .text:01003461 c2 20 00                         ret    $0x20
                           .text:01003464 cc                               int3   
                           .text:01003465 cc                               int3   
                           .text:01003466 cc                               int3   
                           .text:01003467 cc                               int3   
                           .text:01003468 cc                               int3   
                           .text:01003469 8b ff                            mov    %edi,%edi
                           .text:0100346b 55                               push   %ebp
                           .text:0100346c 8b ec                            mov    %esp,%ebp
                           .text:0100346e 8b 45 24                         mov    0x24(%ebp),%eax
                           .text:01003471 8b 80 cc 00 00 00                mov    0xcc(%eax),%eax
                           .text:01003477 8b 4d 10                         mov    0x10(%ebp),%ecx
                           .text:0100347a 8b 04 81                         mov    (%ecx,%eax,4),%eax
                           .text:0100347d 48                               dec    %eax
                           .text:0100347e 74 0e                            je     0x0100348e
                           .text:01003480 48                               dec    %eax
                           .text:01003481 75 28                            jne    0x010034ab
                           .text:01003483 8b 45 18                         mov    0x18(%ebp),%eax
                           .text:01003486 8b 4d 08                         mov    0x8(%ebp),%ecx
                           .text:01003489 89 41 0c                         mov    %eax,0xc(%ecx)
                           .text:0100348c eb 1d                            jmp    0x010034ab
                           .text:0100348e 8b 4d 18                         mov    0x18(%ebp),%ecx
                           .text:01003491 8a 11                            mov    (%ecx),%dl
                           .text:01003493 8b 45 08                         mov    0x8(%ebp),%eax
                           .text:01003496 88 50 08                         mov    %dl,0x8(%eax)
                           .text:01003499 8a 51 01                         mov    0x1(%ecx),%dl
                           .text:0100349c 88 50 09                         mov    %dl,0x9(%eax)
                           .text:0100349f 8a 51 02                         mov    0x2(%ecx),%dl
                           .text:010034a2 88 50 0a                         mov    %dl,0xa(%eax)
                           .text:010034a5 8a 49 03                         mov    0x3(%ecx),%cl
                           .text:010034a8 88 48 0b                         mov    %cl,0xb(%eax)
                           .text:010034ab 5d                               pop    %ebp
                           .text:010034ac c2 20 00                         ret    $0x20
                           .text:010034af cc                               int3   
                           .text:010034b0 cc                               int3   
                           .text:010034b1 cc                               int3   
                           .text:010034b2 cc                               int3   
                           .text:010034b3 cc                               int3   
                           .text:010034b4 8b ff                            mov    %edi,%edi
                           .text:010034b6 55                               push   %ebp
                           .text:010034b7 8b ec                            mov    %esp,%ebp
                           .text:010034b9 8b 45 24                         mov    0x24(%ebp),%eax
                           .text:010034bc 8b 88 cc 00 00 00                mov    0xcc(%eax),%ecx
                           .text:010034c2 8b 45 10                         mov    0x10(%ebp),%eax
                           .text:010034c5 83 3c 88 03                      cmpl   $0x3,(%eax,%ecx,4)
                           .text:010034c9 75 4a                            jne    0x01003515
                           .text:010034cb 8b 50 2c                         mov    0x2c(%eax),%edx
                           .text:010034ce 53                               push   %ebx
                           .text:010034cf 56                               push   %esi
                           .text:010034d0 57                               push   %edi
                           .text:010034d1 8b 7d 08                         mov    0x8(%ebp),%edi
                           .text:010034d4 6a 0c                            push   $0xc
                           .text:010034d6 59                               pop    %ecx
                           .text:010034d7 33 f6                            xor    %esi,%esi
                           .text:010034d9 8a 1c 88                         mov    (%eax,%ecx,4),%bl
                           .text:010034dc 41                               inc    %ecx
                           .text:010034dd 88 5c 37 08                      mov    %bl,0x8(%edi,%esi,1)
                           .text:010034e1 46                               inc    %esi
                           .text:010034e2 83 fe 10                         cmp    $0x10,%esi
                           .text:010034e5 72 f2                            jb     0x010034d9
                           .text:010034e7 83 fa 10                         cmp    $0x10,%edx
                           .text:010034ea 76 20                            jbe    0x0100350c
                           .text:010034ec 33 d2                            xor    %edx,%edx
                           .text:010034ee 8d 04 88                         lea    (%eax,%ecx,4),%eax
                           .text:010034f1 8a 08                            mov    (%eax),%cl
                           .text:010034f3 83 c0 04                         add    $0x4,%eax
                           .text:010034f6 88 4c 17 18                      mov    %cl,0x18(%edi,%edx,1)
                           .text:010034fa 42                               inc    %edx
                           .text:010034fb 83 fa 04                         cmp    $0x4,%edx
                           .text:010034fe 72 f1                            jb     0x010034f1
                           .text:01003500 ff 77 18                         pushl  0x18(%edi)
                           .text:01003503 ff 15 90 10 00 01                call   *0x1001090
                           .text:01003509 89 47 18                         mov    %eax,0x18(%edi)
                           .text:0100350c 8b 45 18                         mov    0x18(%ebp),%eax
                           .text:0100350f 89 47 1c                         mov    %eax,0x1c(%edi)
                           .text:01003512 5f                               pop    %edi
                           .text:01003513 5e                               pop    %esi
                           .text:01003514 5b                               pop    %ebx
                           .text:01003515 5d                               pop    %ebp
                           .text:01003516 c2 20 00                         ret    $0x20
                           .text:01003519 cc                               int3   
                           .text:0100351a cc                               int3   
                           .text:0100351b cc                               int3   
                           .text:0100351c cc                               int3   
                           .text:0100351d cc                               int3   
                           .text:0100351e 8b ff                            mov    %edi,%edi
                           .text:01003520 55                               push   %ebp
                           .text:01003521 8b ec                            mov    %esp,%ebp
                           .text:01003523 8b 4d 0c                         mov    0xc(%ebp),%ecx
                           .text:01003526 33 c0                            xor    %eax,%eax
                           .text:01003528 85 c9                            test   %ecx,%ecx
                           .text:0100352a 74 08                            je     0x01003534
                           .text:0100352c 81 f9 ff ff ff 7f                cmp    $0x7fffffff,%ecx
                           .text:01003532 76 05                            jbe    0x01003539
                           .text:01003534 b8 57 00 07 80                   mov    $0x80070057,%eax
                           .text:01003539 85 c0                            test   %eax,%eax
                           .text:0100353b 7c 40                            jl     0x0100357d
                           .text:0100353d 8b 45 08                         mov    0x8(%ebp),%eax
                           .text:01003540 53                               push   %ebx
                           .text:01003541 33 db                            xor    %ebx,%ebx
                           .text:01003543 56                               push   %esi
                           .text:01003544 8b f1                            mov    %ecx,%esi
                           .text:01003546 85 c9                            test   %ecx,%ecx
                           .text:01003548 74 26                            je     0x01003570
                           .text:0100354a 8b 55 10                         mov    0x10(%ebp),%edx
                           .text:0100354d 57                               push   %edi
                           .text:0100354e bf fe ff ff 7f                   mov    $0x7ffffffe,%edi
                           .text:01003553 2b f9                            sub    %ecx,%edi
                           .text:01003555 2b d0                            sub    %eax,%edx
                           .text:01003557 8d 0c 37                         lea    (%edi,%esi,1),%ecx
                           .text:0100355a 85 c9                            test   %ecx,%ecx
                           .text:0100355c 74 0d                            je     0x0100356b
                           .text:0100355e 8a 0c 02                         mov    (%edx,%eax,1),%cl
                           .text:01003561 84 c9                            test   %cl,%cl
                           .text:01003563 74 06                            je     0x0100356b
                           .text:01003565 88 08                            mov    %cl,(%eax)
                           .text:01003567 40                               inc    %eax
                           .text:01003568 4e                               dec    %esi
                           .text:01003569 75 ec                            jne    0x01003557
                           .text:0100356b 5f                               pop    %edi
                           .text:0100356c 85 f6                            test   %esi,%esi
                           .text:0100356e 75 06                            jne    0x01003576
                           .text:01003570 48                               dec    %eax
                           .text:01003571 bb 7a 00 07 80                   mov    $0x8007007a,%ebx
                           .text:01003576 c6 00 00                         movb   $0x0,(%eax)
                           .text:01003579 5e                               pop    %esi
                           .text:0100357a 8b c3                            mov    %ebx,%eax
                           .text:0100357c 5b                               pop    %ebx
                           .text:0100357d 5d                               pop    %ebp
                           .text:0100357e c2 0c 00                         ret    $0xc
                           .text:01003581 cc                               int3   
                           .text:01003582 cc                               int3   
                           .text:01003583 cc                               int3   
                           .text:01003584 cc                               int3   
                           .text:01003585 cc                               int3   
                           .text:01003586 8b ff                            mov    %edi,%edi
                           .text:01003588 55                               push   %ebp
                           .text:01003589 8b ec                            mov    %esp,%ebp
                           .text:0100358b 81 ec 28 01 00 00                sub    $0x128,%esp
                           .text:01003591 a1 00 50 00 01                   mov    0x1005000,%eax
                           .text:01003596 33 c5                            xor    %ebp,%eax
                           .text:01003598 89 45 fc                         mov    %eax,-0x4(%ebp)
                           .text:0100359b 6a 00                            push   $0x0
                           .text:0100359d ff 15 f0 10 00 01                call   *0x10010f0
                           .text:010035a3 89 85 e4 fe ff ff                mov    %eax,-0x11c(%ebp)
                           .text:010035a9 8d 85 e8 fe ff ff                lea    -0x118(%ebp),%eax
                           .text:010035af c7 04 24 04 01 00 00             movl   $0x104,(%esp)
                           .text:010035b6 50                               push   %eax
                           .text:010035b7 ff 15 3c 10 00 01                call   *0x100103c
                           .text:010035bd 85 c0                            test   %eax,%eax
                           .text:010035bf 75 0b                            jne    0x010035cc
                           .text:010035c1 ff 15 28 10 00 01                call   *0x1001028
                           .text:010035c7 e9 ce 00 00 00                   jmp    0x0100369a
                           .text:010035cc 8d 85 e8 fe ff ff                lea    -0x118(%ebp),%eax
                           .text:010035d2 8d 50 01                         lea    0x1(%eax),%edx
                           .text:010035d5 8a 08                            mov    (%eax),%cl
                           .text:010035d7 40                               inc    %eax
                           .text:010035d8 84 c9                            test   %cl,%cl
                           .text:010035da 75 f9                            jne    0x010035d5
                           .text:010035dc 53                               push   %ebx
                           .text:010035dd 8b 1d 2c 10 00 01                mov    0x100102c,%ebx
                           .text:010035e3 56                               push   %esi
                           .text:010035e4 8b 35 30 10 00 01                mov    0x1001030,%esi
                           .text:010035ea 2b c2                            sub    %edx,%eax
                           .text:010035ec 83 3d ac 5c 00 01 00             cmpl   $0x0,0x1005cac
                           .text:010035f3 57                               push   %edi
                           .text:010035f4 8d bc 05 e8 fe ff ff             lea    -0x118(%ebp,%eax,1),%edi
                           .text:010035fb 74 2f                            je     0x0100362c
                           .text:010035fd 68 14 12 00 01                   push   $0x1001214
                           .text:01003602 8d 45 fc                         lea    -0x4(%ebp),%eax
                           .text:01003605 2b c7                            sub    %edi,%eax
                           .text:01003607 50                               push   %eax
                           .text:01003608 57                               push   %edi
                           .text:01003609 e8 10 ff ff ff                   call   0x0100351e
                           .text:0100360e 85 c0                            test   %eax,%eax
                           .text:01003610 7c 2f                            jl     0x01003641
                           .text:01003612 8d 85 e8 fe ff ff                lea    -0x118(%ebp),%eax
                           .text:01003618 50                               push   %eax
                           .text:01003619 ff d3                            call   *%ebx
                           .text:0100361b 85 c0                            test   %eax,%eax
                           .text:0100361d 74 0d                            je     0x0100362c
                           .text:0100361f 68 04 12 00 01                   push   $0x1001204
                           .text:01003624 50                               push   %eax
                           .text:01003625 ff d6                            call   *%esi
                           .text:01003627 a3 d4 5c 00 01                   mov    %eax,0x1005cd4
                           .text:0100362c 68 f4 11 00 01                   push   $0x10011f4
                           .text:01003631 8d 45 fc                         lea    -0x4(%ebp),%eax
                           .text:01003634 2b c7                            sub    %edi,%eax
                           .text:01003636 50                               push   %eax
                           .text:01003637 57                               push   %edi
                           .text:01003638 e8 e1 fe ff ff                   call   0x0100351e
                           .text:0100363d 85 c0                            test   %eax,%eax
                           .text:0100363f 7d 04                            jge    0x01003645
                           .text:01003641 6a 08                            push   $0x8
                           .text:01003643 eb 33                            jmp    0x01003678
                           .text:01003645 8d 85 e8 fe ff ff                lea    -0x118(%ebp),%eax
                           .text:0100364b 50                               push   %eax
                           .text:0100364c ff d3                            call   *%ebx
                           .text:0100364e 8b f8                            mov    %eax,%edi
                           .text:01003650 85 ff                            test   %edi,%edi
                           .text:01003652 74 22                            je     0x01003676
                           .text:01003654 68 e0 11 00 01                   push   $0x10011e0
                           .text:01003659 57                               push   %edi
                           .text:0100365a ff d6                            call   *%esi
                           .text:0100365c a3 cc 5c 00 01                   mov    %eax,0x1005ccc
                           .text:01003661 85 c0                            test   %eax,%eax
                           .text:01003663 74 11                            je     0x01003676
                           .text:01003665 68 cc 11 00 01                   push   $0x10011cc
                           .text:0100366a 57                               push   %edi
                           .text:0100366b ff d6                            call   *%esi
                           .text:0100366d a3 d0 5c 00 01                   mov    %eax,0x1005cd0
                           .text:01003672 85 c0                            test   %eax,%eax
                           .text:01003674 75 05                            jne    0x0100367b
                           .text:01003676 6a 02                            push   $0x2
                           .text:01003678 58                               pop    %eax
                           .text:01003679 eb 1c                            jmp    0x01003697
                           .text:0100367b 8d 85 d8 fe ff ff                lea    -0x128(%ebp),%eax
                           .text:01003681 50                               push   %eax
                           .text:01003682 8d 85 e0 fe ff ff                lea    -0x120(%ebp),%eax
                           .text:01003688 50                               push   %eax
                           .text:01003689 ff b5 e4 fe ff ff                pushl  -0x11c(%ebp)
                           .text:0100368f ff 15 cc 5c 00 01                call   *0x1005ccc
                           .text:01003695 33 c0                            xor    %eax,%eax
                           .text:01003697 5f                               pop    %edi
                           .text:01003698 5e                               pop    %esi
                           .text:01003699 5b                               pop    %ebx
                           .text:0100369a 8b 4d fc                         mov    -0x4(%ebp),%ecx
                           .text:0100369d 33 cd                            xor    %ebp,%ecx
                           .text:0100369f e8 4b ee ff ff                   call   0x010024ef
                           .text:010036a4 c9                               leave  
                           .text:010036a5 c3                               ret    
                           .text:010036a6 cc                               int3   
                           .text:010036a7 cc                               int3   
                           .text:010036a8 cc                               int3   
                           .text:010036a9 cc                               int3   
                           .text:010036aa cc                               int3   
                           .text:010036ab 8b ff                            mov    %edi,%edi
                           .text:010036ad 55                               push   %ebp
                           .text:010036ae 8b ec                            mov    %esp,%ebp
                           .text:010036b0 83 ec 3c                         sub    $0x3c,%esp
                           .text:010036b3 53                               push   %ebx
                           .text:010036b4 33 db                            xor    %ebx,%ebx
                           .text:010036b6 56                               push   %esi
                           .text:010036b7 8b 75 0c                         mov    0xc(%ebp),%esi
                           .text:010036ba 8d 45 c4                         lea    -0x3c(%ebp),%eax
                           .text:010036bd 57                               push   %edi
                           .text:010036be 8b 3d dc 10 00 01                mov    0x10010dc,%edi
                           .text:010036c4 89 45 e4                         mov    %eax,-0x1c(%ebp)
                           .text:010036c7 c7 45 e8 01 00 00 00             movl   $0x1,-0x18(%ebp)
                           .text:010036ce 89 5d f0                         mov    %ebx,-0x10(%ebp)
                           .text:010036d1 89 5d ec                         mov    %ebx,-0x14(%ebp)
                           .text:010036d4 89 5d f4                         mov    %ebx,-0xc(%ebp)
                           .text:010036d7 39 1d ac 5c 00 01                cmp    %ebx,0x1005cac
                           .text:010036dd 74 14                            je     0x010036f3
                           .text:010036df a1 e8 10 00 01                   mov    0x10010e8,%eax
                           .text:010036e4 56                               push   %esi
                           .text:010036e5 83 c0 40                         add    $0x40,%eax
                           .text:010036e8 68 54 12 00 01                   push   $0x1001254
                           .text:010036ed 50                               push   %eax
                           .text:010036ee ff d7                            call   *%edi
                           .text:010036f0 83 c4 0c                         add    $0xc,%esp
                           .text:010036f3 83 fe 0a                         cmp    $0xa,%esi
                           .text:010036f6 77 4b                            ja     0x01003743
                           .text:010036f8 74 36                            je     0x01003730
                           .text:010036fa 8b c6                            mov    %esi,%eax
                           .text:010036fc 48                               dec    %eax
                           .text:010036fd 74 2d                            je     0x0100372c
                           .text:010036ff 83 e8 04                         sub    $0x4,%eax
                           .text:01003702 74 21                            je     0x01003725
                           .text:01003704 48                               dec    %eax
                           .text:01003705 74 17                            je     0x0100371e
                           .text:01003707 48                               dec    %eax
                           .text:01003708 48                               dec    %eax
                           .text:01003709 75 53                            jne    0x0100375e
                           .text:0100370b 6a 02                            push   $0x2
                           .text:0100370d 8b 45 08                         mov    0x8(%ebp),%eax
                           .text:01003710 83 c0 08                         add    $0x8,%eax
                           .text:01003713 50                               push   %eax
                           .text:01003714 e8 25 06 00 00                   call   0x01003d3e
                           .text:01003719 e9 9d 04 00 00                   jmp    0x01003bbb
                           .text:0100371e 6a 02                            push   $0x2
                           .text:01003720 e9 8a 04 00 00                   jmp    0x01003baf
                           .text:01003725 6a 02                            push   $0x2
                           .text:01003727 e9 6c 04 00 00                   jmp    0x01003b98
                           .text:0100372c 6a 02                            push   $0x2
                           .text:0100372e eb 02                            jmp    0x01003732
                           .text:01003730 6a 17                            push   $0x17
                           .text:01003732 8b 45 08                         mov    0x8(%ebp),%eax
                           .text:01003735 83 c0 08                         add    $0x8,%eax
                           .text:01003738 50                               push   %eax
                           .text:01003739 e8 f4 05 00 00                   call   0x01003d32
                           .text:0100373e e9 78 04 00 00                   jmp    0x01003bbb
                           .text:01003743 8b c6                            mov    %esi,%eax
                           .text:01003745 83 e8 0b                         sub    $0xb,%eax
                           .text:01003748 0f 84 5f 04 00 00                je     0x01003bad
                           .text:0100374e 48                               dec    %eax
                           .text:0100374f 48                               dec    %eax
                           .text:01003750 0f 84 50 04 00 00                je     0x01003ba6
                           .text:01003756 48                               dec    %eax
                           .text:01003757 48                               dec    %eax
                           .text:01003758 0f 84 38 04 00 00                je     0x01003b96
                           .text:0100375e 68 c8 00 00 00                   push   $0xc8
                           .text:01003763 e8 fe f1 ff ff                   call   0x01002966
                           .text:01003768 3b c3                            cmp    %ebx,%eax
                           .text:0100376a 75 08                            jne    0x01003774
                           .text:0100376c 6a 08                            push   $0x8
                           .text:0100376e 58                               pop    %eax
                           .text:0100376f e9 47 04 00 00                   jmp    0x01003bbb
                           .text:01003774 33 c9                            xor    %ecx,%ecx
                           .text:01003776 89 45 c8                         mov    %eax,-0x38(%ebp)
                           .text:01003779 39 1d 18 50 00 01                cmp    %ebx,0x1005018
                           .text:0100377f 76 15                            jbe    0x01003796
                           .text:01003781 8b 14 8d 1c 50 00 01             mov    0x100501c(,%ecx,4),%edx
                           .text:01003788 89 10                            mov    %edx,(%eax)
                           .text:0100378a 83 c0 04                         add    $0x4,%eax
                           .text:0100378d 41                               inc    %ecx
                           .text:0100378e 3b 0d 18 50 00 01                cmp    0x1005018,%ecx
                           .text:01003794 72 eb                            jb     0x01003781
                           .text:01003796 83 fe 04                         cmp    $0x4,%esi
                           .text:01003799 77 34                            ja     0x010037cf
                           .text:0100379b 74 2b                            je     0x010037c8
                           .text:0100379d 8b ce                            mov    %esi,%ecx
                           .text:0100379f 2b cb                            sub    %ebx,%ecx
                           .text:010037a1 74 1e                            je     0x010037c1
                           .text:010037a3 49                               dec    %ecx
                           .text:010037a4 74 14                            je     0x010037ba
                           .text:010037a6 49                               dec    %ecx
                           .text:010037a7 74 0a                            je     0x010037b3
                           .text:010037a9 49                               dec    %ecx
                           .text:010037aa 75 53                            jne    0x010037ff
                           .text:010037ac bb 78 53 00 01                   mov    $0x1005378,%ebx
                           .text:010037b1 eb 4f                            jmp    0x01003802
                           .text:010037b3 bb a0 52 00 01                   mov    $0x10052a0,%ebx
                           .text:010037b8 eb 48                            jmp    0x01003802
                           .text:010037ba bb c8 51 00 01                   mov    $0x10051c8,%ebx
                           .text:010037bf eb 41                            jmp    0x01003802
                           .text:010037c1 bb f0 50 00 01                   mov    $0x10050f0,%ebx
                           .text:010037c6 eb 3a                            jmp    0x01003802
                           .text:010037c8 bb 50 54 00 01                   mov    $0x1005450,%ebx
                           .text:010037cd eb 33                            jmp    0x01003802
                           .text:010037cf 8b ce                            mov    %esi,%ecx
                           .text:010037d1 83 e9 07                         sub    $0x7,%ecx
                           .text:010037d4 74 22                            je     0x010037f8
                           .text:010037d6 49                               dec    %ecx
                           .text:010037d7 49                               dec    %ecx
                           .text:010037d8 74 17                            je     0x010037f1
                           .text:010037da 83 e9 03                         sub    $0x3,%ecx
                           .text:010037dd 74 0b                            je     0x010037ea
                           .text:010037df 49                               dec    %ecx
                           .text:010037e0 49                               dec    %ecx
                           .text:010037e1 75 1c                            jne    0x010037ff
                           .text:010037e3 bb 88 58 00 01                   mov    $0x1005888,%ebx
                           .text:010037e8 eb 18                            jmp    0x01003802
                           .text:010037ea bb b0 57 00 01                   mov    $0x10057b0,%ebx
                           .text:010037ef eb 11                            jmp    0x01003802
                           .text:010037f1 bb d8 56 00 01                   mov    $0x10056d8,%ebx
                           .text:010037f6 eb 0a                            jmp    0x01003802
                           .text:010037f8 bb 00 56 00 01                   mov    $0x1005600,%ebx
                           .text:010037fd eb 03                            jmp    0x01003802
                           .text:010037ff 8b 5d 08                         mov    0x8(%ebp),%ebx
                           .text:01003802 33 d2                            xor    %edx,%edx
                           .text:01003804 39 13                            cmp    %edx,(%ebx)
                           .text:01003806 76 12                            jbe    0x0100381a
                           .text:01003808 8d 4b 04                         lea    0x4(%ebx),%ecx
                           .text:0100380b 8b 31                            mov    (%ecx),%esi
                           .text:0100380d 89 30                            mov    %esi,(%eax)
                           .text:0100380f 83 c0 04                         add    $0x4,%eax
                           .text:01003812 42                               inc    %edx
                           .text:01003813 83 c1 04                         add    $0x4,%ecx
                           .text:01003816 3b 13                            cmp    (%ebx),%edx
                           .text:01003818 72 f1                            jb     0x0100380b
                           .text:0100381a 8b 03                            mov    (%ebx),%eax
                           .text:0100381c 03 05 18 50 00 01                add    0x1005018,%eax
                           .text:01003822 c6 45 cc 05                      movb   $0x5,-0x34(%ebp)
                           .text:01003826 89 45 c4                         mov    %eax,-0x3c(%ebp)
                           .text:01003829 8b 45 08                         mov    0x8(%ebp),%eax
                           .text:0100382c 89 45 fc                         mov    %eax,-0x4(%ebp)
                           .text:0100382f eb 06                            jmp    0x01003837
                           .text:01003831 8b 3d dc 10 00 01                mov    0x10010dc,%edi
                           .text:01003837 8d 45 ec                         lea    -0x14(%ebp),%eax
                           .text:0100383a 50                               push   %eax
                           .text:0100383b 8d 45 f0                         lea    -0x10(%ebp),%eax
                           .text:0100383e 50                               push   %eax
                           .text:0100383f 8d 45 e4                         lea    -0x1c(%ebp),%eax
                           .text:01003842 50                               push   %eax
                           .text:01003843 68 a1 00 00 00                   push   $0xa1
                           .text:01003848 ff 15 d0 5c 00 01                call   *0x1005cd0
                           .text:0100384e 33 f6                            xor    %esi,%esi
                           .text:01003850 39 35 ac 5c 00 01                cmp    %esi,0x1005cac
                           .text:01003856 0f 84 af 00 00 00                je     0x0100390b
                           .text:0100385c ff 75 d0                         pushl  -0x30(%ebp)
                           .text:0100385f a1 e8 10 00 01                   mov    0x10010e8,%eax
                           .text:01003864 83 c0 40                         add    $0x40,%eax
                           .text:01003867 68 44 12 00 01                   push   $0x1001244
                           .text:0100386c 50                               push   %eax
                           .text:0100386d ff d7                            call   *%edi
                           .text:0100386f a1 d4 5c 00 01                   mov    0x1005cd4,%eax
                           .text:01003874 83 c4 0c                         add    $0xc,%esp
                           .text:01003877 3b c6                            cmp    %esi,%eax
                           .text:01003879 74 40                            je     0x010038bb
                           .text:0100387b 8d 4d f8                         lea    -0x8(%ebp),%ecx
                           .text:0100387e 51                               push   %ecx
                           .text:0100387f 8d 4d c4                         lea    -0x3c(%ebp),%ecx
                           .text:01003882 51                               push   %ecx
                           .text:01003883 89 75 f8                         mov    %esi,-0x8(%ebp)
                           .text:01003886 ff d0                            call   *%eax
                           .text:01003888 85 c0                            test   %eax,%eax
                           .text:0100388a 74 16                            je     0x010038a2
                           .text:0100388c ff 75 f8                         pushl  -0x8(%ebp)
                           .text:0100388f a1 e8 10 00 01                   mov    0x10010e8,%eax
                           .text:01003894 83 c0 40                         add    $0x40,%eax
                           .text:01003897 68 3c 12 00 01                   push   $0x100123c
                           .text:0100389c 50                               push   %eax
                           .text:0100389d ff d7                            call   *%edi
                           .text:0100389f 83 c4 0c                         add    $0xc,%esp
                           .text:010038a2 ff 75 f8                         pushl  -0x8(%ebp)
                           .text:010038a5 e8 b0 f0 ff ff                   call   0x0100295a
                           .text:010038aa 39 35 d4 5c 00 01                cmp    %esi,0x1005cd4
                           .text:010038b0 74 09                            je     0x010038bb
                           .text:010038b2 83 3d ac 5c 00 01 01             cmpl   $0x1,0x1005cac
                           .text:010038b9 76 3e                            jbe    0x010038f9
                           .text:010038bb 33 f6                            xor    %esi,%esi
                           .text:010038bd 39 75 c4                         cmp    %esi,-0x3c(%ebp)
                           .text:010038c0 7e 37                            jle    0x010038f9
                           .text:010038c2 83 fe 06                         cmp    $0x6,%esi
                           .text:010038c5 8b 45 c8                         mov    -0x38(%ebp),%eax
                           .text:010038c8 ff 34 b0                         pushl  (%eax,%esi,4)
                           .text:010038cb 7d 07                            jge    0x010038d4
                           .text:010038cd 68 38 12 00 01                   push   $0x1001238
                           .text:010038d2 eb 11                            jmp    0x010038e5
                           .text:010038d4 83 fe 09                         cmp    $0x9,%esi
                           .text:010038d7 7d 07                            jge    0x010038e0
                           .text:010038d9 68 30 12 00 01                   push   $0x1001230
                           .text:010038de eb 05                            jmp    0x010038e5
                           .text:010038e0 68 28 12 00 01                   push   $0x1001228
                           .text:010038e5 a1 e8 10 00 01                   mov    0x10010e8,%eax
                           .text:010038ea 83 c0 40                         add    $0x40,%eax
                           .text:010038ed 50                               push   %eax
                           .text:010038ee ff d7                            call   *%edi
                           .text:010038f0 83 c4 0c                         add    $0xc,%esp
                           .text:010038f3 46                               inc    %esi
                           .text:010038f4 3b 75 c4                         cmp    -0x3c(%ebp),%esi
                           .text:010038f7 7c c9                            jl     0x010038c2
                           .text:010038f9 a1 e8 10 00 01                   mov    0x10010e8,%eax
                           .text:010038fe 83 c0 40                         add    $0x40,%eax
                           .text:01003901 68 24 12 00 01                   push   $0x1001224
                           .text:01003906 50                               push   %eax
                           .text:01003907 ff d7                            call   *%edi
                           .text:01003909 59                               pop    %ecx
                           .text:0100390a 59                               pop    %ecx
                           .text:0100390b 83 7d f0 00                      cmpl   $0x0,-0x10(%ebp)
                           .text:0100390f 0f 85 53 02 00 00                jne    0x01003b68
                           .text:01003915 8b 0b                            mov    (%ebx),%ecx
                           .text:01003917 a1 18 50 00 01                   mov    0x1005018,%eax
                           .text:0100391c 8d 14 01                         lea    (%ecx,%eax,1),%edx
                           .text:0100391f 39 55 c4                         cmp    %edx,-0x3c(%ebp)
                           .text:01003922 0f 82 53 02 00 00                jb     0x01003b7b
                           .text:01003928 2b 8b d0 00 00 00                sub    0xd0(%ebx),%ecx
                           .text:0100392e 8d 34 01                         lea    (%ecx,%eax,1),%esi
                           .text:01003931 8b 4d c8                         mov    -0x38(%ebp),%ecx
                           .text:01003934 3b c6                            cmp    %esi,%eax
                           .text:01003936 73 1b                            jae    0x01003953
                           .text:01003938 8b d0                            mov    %eax,%edx
                           .text:0100393a 2b d0                            sub    %eax,%edx
                           .text:0100393c 8d 54 93 04                      lea    0x4(%ebx,%edx,4),%edx
                           .text:01003940 8b 3c 81                         mov    (%ecx,%eax,4),%edi
                           .text:01003943 3b 3a                            cmp    (%edx),%edi
                           .text:01003945 0f 85 30 02 00 00                jne    0x01003b7b
                           .text:0100394b 40                               inc    %eax
                           .text:0100394c 83 c2 04                         add    $0x4,%edx
                           .text:0100394f 3b c6                            cmp    %esi,%eax
                           .text:01003951 72 ed                            jb     0x01003940
                           .text:01003953 8b 45 0c                         mov    0xc(%ebp),%eax
                           .text:01003956 48                               dec    %eax
                           .text:01003957 74 38                            je     0x01003991
                           .text:01003959 83 e8 05                         sub    $0x5,%eax
                           .text:0100395c 74 27                            je     0x01003985
                           .text:0100395e 6a 02                            push   $0x2
                           .text:01003960 5a                               pop    %edx
                           .text:01003961 2b c2                            sub    %edx,%eax
                           .text:01003963 74 14                            je     0x01003979
                           .text:01003965 83 e8 04                         sub    $0x4,%eax
                           .text:01003968 74 04                            je     0x0100396e
                           .text:0100396a 2b c2                            sub    %edx,%eax
                           .text:0100396c 75 47                            jne    0x010039b5
                           .text:0100396e 39 51 28                         cmp    %edx,0x28(%ecx)
                           .text:01003971 0f 85 ba fe ff ff                jne    0x01003831
                           .text:01003977 eb 3c                            jmp    0x010039b5
                           .text:01003979 8b 83 cc 00 00 00                mov    0xcc(%ebx),%eax
                           .text:0100397f 83 3c 81 05                      cmpl   $0x5,(%ecx,%eax,4)
                           .text:01003983 eb 2a                            jmp    0x010039af
                           .text:01003985 8b 83 cc 00 00 00                mov    0xcc(%ebx),%eax
                           .text:0100398b 83 3c 81 0d                      cmpl   $0xd,(%ecx,%eax,4)
                           .text:0100398f eb 1e                            jmp    0x010039af
                           .text:01003991 8b 83 cc 00 00 00                mov    0xcc(%ebx),%eax
                           .text:01003997 8b 04 81                         mov    (%ecx,%eax,4),%eax
                           .text:0100399a 83 f8 14                         cmp    $0x14,%eax
                           .text:0100399d 0f 84 8e fe ff ff                je     0x01003831
                           .text:010039a3 83 f8 15                         cmp    $0x15,%eax
                           .text:010039a6 0f 84 85 fe ff ff                je     0x01003831
                           .text:010039ac 83 f8 16                         cmp    $0x16,%eax
                           .text:010039af 0f 84 7c fe ff ff                je     0x01003831
                           .text:010039b5 8b 45 fc                         mov    -0x4(%ebp),%eax
                           .text:010039b8 8b 75 08                         mov    0x8(%ebp),%esi
                           .text:010039bb 3b c6                            cmp    %esi,%eax
                           .text:010039bd 74 29                            je     0x010039e8
                           .text:010039bf 8b 00                            mov    (%eax),%eax
                           .text:010039c1 3b c6                            cmp    %esi,%eax
                           .text:010039c3 75 0e                            jne    0x010039d3
                           .text:010039c5 8b 93 cc 00 00 00                mov    0xcc(%ebx),%edx
                           .text:010039cb 8b 14 91                         mov    (%ecx,%edx,4),%edx
                           .text:010039ce 3b 55 f4                         cmp    -0xc(%ebp),%edx
                           .text:010039d1 74 15                            je     0x010039e8
                           .text:010039d3 8b 93 cc 00 00 00                mov    0xcc(%ebx),%edx
                           .text:010039d9 8b 7d f4                         mov    -0xc(%ebp),%edi
                           .text:010039dc 39 3c 91                         cmp    %edi,(%ecx,%edx,4)
                           .text:010039df 74 02                            je     0x010039e3
                           .text:010039e1 8b 06                            mov    (%esi),%eax
                           .text:010039e3 89 45 fc                         mov    %eax,-0x4(%ebp)
                           .text:010039e6 eb 25                            jmp    0x01003a0d
                           .text:010039e8 ff 75 10                         pushl  0x10(%ebp)
                           .text:010039eb e8 76 ef ff ff                   call   0x01002966
                           .text:010039f0 8b c8                            mov    %eax,%ecx
                           .text:010039f2 89 4d fc                         mov    %ecx,-0x4(%ebp)
                           .text:010039f5 85 c9                            test   %ecx,%ecx
                           .text:010039f7 0f 84 8b 01 00 00                je     0x01003b88
                           .text:010039fd 8b 46 04                         mov    0x4(%esi),%eax
                           .text:01003a00 89 31                            mov    %esi,(%ecx)
                           .text:01003a02 89 41 04                         mov    %eax,0x4(%ecx)
                           .text:01003a05 89 08                            mov    %ecx,(%eax)
                           .text:01003a07 89 4e 04                         mov    %ecx,0x4(%esi)
                           .text:01003a0a 8b 4d c8                         mov    -0x38(%ebp),%ecx
                           .text:01003a0d 8b 83 cc 00 00 00                mov    0xcc(%ebx),%eax
                           .text:01003a13 8b 04 81                         mov    (%ecx,%eax,4),%eax
                           .text:01003a16 89 45 f4                         mov    %eax,-0xc(%ebp)
                           .text:01003a19 8b 45 0c                         mov    0xc(%ebp),%eax
                           .text:01003a1c 83 f8 0e                         cmp    $0xe,%eax
                           .text:01003a1f 0f 87 1c 01 00 00                ja     0x01003b41
                           .text:01003a25 ff 24 85 c3 3b 00 01             jmp    *0x1003bc3(,%eax,4)
                           .text:01003a2c 53                               push   %ebx
                           .text:01003a2d 83 ec 18                         sub    $0x18,%esp
                           .text:01003a30 6a 06                            push   $0x6
                           .text:01003a32 59                               pop    %ecx
                           .text:01003a33 8b fc                            mov    %esp,%edi
                           .text:01003a35 ff 75 fc                         pushl  -0x4(%ebp)
                           .text:01003a38 8d 75 c4                         lea    -0x3c(%ebp),%esi
                           .text:01003a3b f3 a5                            rep movsl %ds:(%esi),%es:(%edi)
                           .text:01003a3d e8 4a f2 ff ff                   call   0x01002c8c
                           .text:01003a42 e9 fa 00 00 00                   jmp    0x01003b41
                           .text:01003a47 53                               push   %ebx
                           .text:01003a48 83 ec 18                         sub    $0x18,%esp
                           .text:01003a4b 6a 06                            push   $0x6
                           .text:01003a4d 59                               pop    %ecx
                           .text:01003a4e 8b fc                            mov    %esp,%edi
                           .text:01003a50 ff 75 fc                         pushl  -0x4(%ebp)
                           .text:01003a53 8d 75 c4                         lea    -0x3c(%ebp),%esi
                           .text:01003a56 f3 a5                            rep movsl %ds:(%esi),%es:(%edi)
                           .text:01003a58 e8 e8 f3 ff ff                   call   0x01002e45
                           .text:01003a5d e9 df 00 00 00                   jmp    0x01003b41
                           .text:01003a62 53                               push   %ebx
                           .text:01003a63 83 ec 18                         sub    $0x18,%esp
                           .text:01003a66 6a 06                            push   $0x6
                           .text:01003a68 59                               pop    %ecx
                           .text:01003a69 8b fc                            mov    %esp,%edi
                           .text:01003a6b ff 75 fc                         pushl  -0x4(%ebp)
                           .text:01003a6e 8d 75 c4                         lea    -0x3c(%ebp),%esi
                           .text:01003a71 f3 a5                            rep movsl %ds:(%esi),%es:(%edi)
                           .text:01003a73 e8 2e f5 ff ff                   call   0x01002fa6
                           .text:01003a78 e9 c4 00 00 00                   jmp    0x01003b41
                           .text:01003a7d 53                               push   %ebx
                           .text:01003a7e 83 ec 18                         sub    $0x18,%esp
                           .text:01003a81 6a 06                            push   $0x6
                           .text:01003a83 59                               pop    %ecx
                           .text:01003a84 8b fc                            mov    %esp,%edi
                           .text:01003a86 ff 75 fc                         pushl  -0x4(%ebp)
                           .text:01003a89 8d 75 c4                         lea    -0x3c(%ebp),%esi
                           .text:01003a8c f3 a5                            rep movsl %ds:(%esi),%es:(%edi)
                           .text:01003a8e e8 9c f5 ff ff                   call   0x0100302f
                           .text:01003a93 e9 a9 00 00 00                   jmp    0x01003b41
                           .text:01003a98 53                               push   %ebx
                           .text:01003a99 83 ec 18                         sub    $0x18,%esp
                           .text:01003a9c 6a 06                            push   $0x6
                           .text:01003a9e 59                               pop    %ecx
                           .text:01003a9f 8b fc                            mov    %esp,%edi
                           .text:01003aa1 ff 75 fc                         pushl  -0x4(%ebp)
                           .text:01003aa4 8d 75 c4                         lea    -0x3c(%ebp),%esi
                           .text:01003aa7 f3 a5                            rep movsl %ds:(%esi),%es:(%edi)
                           .text:01003aa9 e8 a6 f6 ff ff                   call   0x01003154
                           .text:01003aae e9 8e 00 00 00                   jmp    0x01003b41
                           .text:01003ab3 53                               push   %ebx
                           .text:01003ab4 83 ec 18                         sub    $0x18,%esp
                           .text:01003ab7 6a 06                            push   $0x6
                           .text:01003ab9 59                               pop    %ecx
                           .text:01003aba 8b fc                            mov    %esp,%edi
                           .text:01003abc ff 75 fc                         pushl  -0x4(%ebp)
                           .text:01003abf 8d 75 c4                         lea    -0x3c(%ebp),%esi
                           .text:01003ac2 f3 a5                            rep movsl %ds:(%esi),%es:(%edi)
                           .text:01003ac4 e8 08 f7 ff ff                   call   0x010031d1
                           .text:01003ac9 eb 76                            jmp    0x01003b41
                           .text:01003acb 53                               push   %ebx
                           .text:01003acc 83 ec 18                         sub    $0x18,%esp
                           .text:01003acf 6a 06                            push   $0x6
                           .text:01003ad1 59                               pop    %ecx
                           .text:01003ad2 8b fc                            mov    %esp,%edi
                           .text:01003ad4 ff 75 fc                         pushl  -0x4(%ebp)
                           .text:01003ad7 8d 75 c4                         lea    -0x3c(%ebp),%esi
                           .text:01003ada f3 a5                            rep movsl %ds:(%esi),%es:(%edi)
                           .text:01003adc e8 f9 f7 ff ff                   call   0x010032da
                           .text:01003ae1 eb 5e                            jmp    0x01003b41
                           .text:01003ae3 53                               push   %ebx
                           .text:01003ae4 83 ec 18                         sub    $0x18,%esp
                           .text:01003ae7 6a 06                            push   $0x6
                           .text:01003ae9 59                               pop    %ecx
                           .text:01003aea 8b fc                            mov    %esp,%edi
                           .text:01003aec ff 75 fc                         pushl  -0x4(%ebp)
                           .text:01003aef 8d 75 c4                         lea    -0x3c(%ebp),%esi
                           .text:01003af2 f3 a5                            rep movsl %ds:(%esi),%es:(%edi)
                           .text:01003af4 e8 6a f8 ff ff                   call   0x01003363
                           .text:01003af9 eb 46                            jmp    0x01003b41
                           .text:01003afb 53                               push   %ebx
                           .text:01003afc 83 ec 18                         sub    $0x18,%esp
                           .text:01003aff 6a 06                            push   $0x6
                           .text:01003b01 59                               pop    %ecx
                           .text:01003b02 8b fc                            mov    %esp,%edi
                           .text:01003b04 ff 75 fc                         pushl  -0x4(%ebp)
                           .text:01003b07 8d 75 c4                         lea    -0x3c(%ebp),%esi
                           .text:01003b0a f3 a5                            rep movsl %ds:(%esi),%es:(%edi)
                           .text:01003b0c e8 05 f9 ff ff                   call   0x01003416
                           .text:01003b11 eb 2e                            jmp    0x01003b41
                           .text:01003b13 53                               push   %ebx
                           .text:01003b14 83 ec 18                         sub    $0x18,%esp
                           .text:01003b17 6a 06                            push   $0x6
                           .text:01003b19 59                               pop    %ecx
                           .text:01003b1a 8b fc                            mov    %esp,%edi
                           .text:01003b1c ff 75 fc                         pushl  -0x4(%ebp)
                           .text:01003b1f 8d 75 c4                         lea    -0x3c(%ebp),%esi
                           .text:01003b22 f3 a5                            rep movsl %ds:(%esi),%es:(%edi)
                           .text:01003b24 e8 40 f9 ff ff                   call   0x01003469
                           .text:01003b29 eb 16                            jmp    0x01003b41
                           .text:01003b2b 53                               push   %ebx
                           .text:01003b2c 83 ec 18                         sub    $0x18,%esp
                           .text:01003b2f 6a 06                            push   $0x6
                           .text:01003b31 59                               pop    %ecx
                           .text:01003b32 8b fc                            mov    %esp,%edi
                           .text:01003b34 ff 75 fc                         pushl  -0x4(%ebp)
                           .text:01003b37 8d 75 c4                         lea    -0x3c(%ebp),%esi
                           .text:01003b3a f3 a5                            rep movsl %ds:(%esi),%es:(%edi)
                           .text:01003b3c e8 73 f9 ff ff                   call   0x010034b4
                           .text:01003b41 8d 45 c4                         lea    -0x3c(%ebp),%eax
                           .text:01003b44 50                               push   %eax
                           .text:01003b45 8d 45 dc                         lea    -0x24(%ebp),%eax
                           .text:01003b48 50                               push   %eax
                           .text:01003b49 e8 08 02 00 00                   call   0x01003d56
                           .text:01003b4e 8d 45 c4                         lea    -0x3c(%ebp),%eax
                           .text:01003b51 50                               push   %eax
                           .text:01003b52 e8 f3 01 00 00                   call   0x01003d4a
                           .text:01003b57 8b 45 dc                         mov    -0x24(%ebp),%eax
                           .text:01003b5a 89 45 c4                         mov    %eax,-0x3c(%ebp)
                           .text:01003b5d 8b 45 e0                         mov    -0x20(%ebp),%eax
                           .text:01003b60 89 45 c8                         mov    %eax,-0x38(%ebp)
                           .text:01003b63 e9 c9 fc ff ff                   jmp    0x01003831
                           .text:01003b68 8d 45 c4                         lea    -0x3c(%ebp),%eax
                           .text:01003b6b 50                               push   %eax
                           .text:01003b6c e8 d9 01 00 00                   call   0x01003d4a
                           .text:01003b71 ff 75 f0                         pushl  -0x10(%ebp)
                           .text:01003b74 e8 e5 f0 ff ff                   call   0x01002c5e
                           .text:01003b79 eb 40                            jmp    0x01003bbb
                           .text:01003b7b 8d 45 c4                         lea    -0x3c(%ebp),%eax
                           .text:01003b7e 50                               push   %eax
                           .text:01003b7f e8 c6 01 00 00                   call   0x01003d4a
                           .text:01003b84 33 c0                            xor    %eax,%eax
                           .text:01003b86 eb 33                            jmp    0x01003bbb
                           .text:01003b88 8d 45 c4                         lea    -0x3c(%ebp),%eax
                           .text:01003b8b 50                               push   %eax
                           .text:01003b8c e8 b9 01 00 00                   call   0x01003d4a
                           .text:01003b91 e9 d6 fb ff ff                   jmp    0x0100376c
                           .text:01003b96 6a 17                            push   $0x17
                           .text:01003b98 8b 45 08                         mov    0x8(%ebp),%eax
                           .text:01003b9b 83 c0 08                         add    $0x8,%eax
                           .text:01003b9e 50                               push   %eax
                           .text:01003b9f e8 82 01 00 00                   call   0x01003d26
                           .text:01003ba4 eb 15                            jmp    0x01003bbb
                           .text:01003ba6 6a 17                            push   $0x17
                           .text:01003ba8 e9 60 fb ff ff                   jmp    0x0100370d
                           .text:01003bad 6a 17                            push   $0x17
                           .text:01003baf 8b 45 08                         mov    0x8(%ebp),%eax
                           .text:01003bb2 83 c0 08                         add    $0x8,%eax
                           .text:01003bb5 50                               push   %eax
                           .text:01003bb6 e8 5f 01 00 00                   call   0x01003d1a
                           .text:01003bbb 5f                               pop    %edi
                           .text:01003bbc 5e                               pop    %esi
                           .text:01003bbd 5b                               pop    %ebx
                           .text:01003bbe c9                               leave  
                           .text:01003bbf c2 0c 00                         ret    $0xc
                           .text:01003bc2 90                               nop
                           .text:01003bc3 2c 3a                            sub    $0x3a,%al
                           .text:01003bc5 00 01                            add    %al,(%ecx)
                           .text:01003bc7 47                               inc    %edi
                           .text:01003bc8 3a 00                            cmp    (%eax),%al
                           .text:01003bca 01 62 3a                         add    %esp,0x3a(%edx)
                           .text:01003bcd 00 01                            add    %al,(%ecx)
                           .text:01003bcf 7d 3a                            jge    0x01003c0b
                           .text:01003bd1 00 01                            add    %al,(%ecx)
                           .text:01003bd3 98                               cwtl   
                           .text:01003bd4 3a 00                            cmp    (%eax),%al
                           .text:01003bd6 01 41 3b                         add    %eax,0x3b(%ecx)
                           .text:01003bd9 00 01                            add    %al,(%ecx)
                           .text:01003bdb b3 3a                            mov    $0x3a,%bl
                           .text:01003bdd 00 01                            add    %al,(%ecx)
                           .text:01003bdf cb                               lret   
                           .text:01003be0 3a 00                            cmp    (%eax),%al
                           .text:01003be2 01 fb                            add    %edi,%ebx
                           .text:01003be4 3a 00                            cmp    (%eax),%al
                           .text:01003be6 01 13                            add    %edx,(%ebx)
                           .text:01003be8 3b 00                            cmp    (%eax),%eax
                           .text:01003bea 01 41 3b                         add    %eax,0x3b(%ecx)
                           .text:01003bed 00 01                            add    %al,(%ecx)
                           .text:01003bef b3 3a                            mov    $0x3a,%bl
                           .text:01003bf1 00 01                            add    %al,(%ecx)
                           .text:01003bf3 e3 3a                            jecxz  0x01003c2f
                           .text:01003bf5 00 01                            add    %al,(%ecx)
                           .text:01003bf7 fb                               sti    
                           .text:01003bf8 3a 00                            cmp    (%eax),%al
                           .text:01003bfa 01 2b                            add    %ebp,(%ebx)
                           .text:01003bfc 3b 00                            cmp    (%eax),%eax
                           .text:01003bfe 01 cc                            add    %ecx,%esp
                           .text:01003c00 cc                               int3   
                           .text:01003c01 cc                               int3   
                           .text:01003c02 cc                               int3   
                           .text:01003c03 cc                               int3   
                           .text:01003c04 8b ff                            mov    %edi,%edi
                           .text:01003c06 55                               push   %ebp
                           .text:01003c07 8b ec                            mov    %esp,%ebp
                           .text:01003c09 83 3d ac 5c 00 01 00             cmpl   $0x0,0x1005cac
                           .text:01003c10 53                               push   %ebx
                           .text:01003c11 8b 5d 08                         mov    0x8(%ebp),%ebx
                           .text:01003c14 74 18                            je     0x01003c2e
                           .text:01003c16 a1 e8 10 00 01                   mov    0x10010e8,%eax
                           .text:01003c1b 53                               push   %ebx
                           .text:01003c1c 83 c0 40                         add    $0x40,%eax
                           .text:01003c1f 68 6c 12 00 01                   push   $0x100126c
                           .text:01003c24 50                               push   %eax
                           .text:01003c25 ff 15 dc 10 00 01                call   *0x10010dc
                           .text:01003c2b 83 c4 0c                         add    $0xc,%esp
                           .text:01003c2e 83 fb 0f                         cmp    $0xf,%ebx
                           .text:01003c31 76 0d                            jbe    0x01003c40
                           .text:01003c33 8b 45 0c                         mov    0xc(%ebp),%eax
                           .text:01003c36 c7 00 57 00 00 00                movl   $0x57,(%eax)
                           .text:01003c3c 33 c0                            xor    %eax,%eax
                           .text:01003c3e eb 7b                            jmp    0x01003cbb
                           .text:01003c40 57                               push   %edi
                           .text:01003c41 ff 24 9d c0 3c 00 01             jmp    *0x1003cc0(,%ebx,4)
                           .text:01003c48 bf 68 01 00 00                   mov    $0x168,%edi
                           .text:01003c4d eb 28                            jmp    0x01003c77
                           .text:01003c4f 6a 64                            push   $0x64
                           .text:01003c51 5f                               pop    %edi
                           .text:01003c52 eb 23                            jmp    0x01003c77
                           .text:01003c54 6a 20                            push   $0x20
                           .text:01003c56 eb f9                            jmp    0x01003c51
                           .text:01003c58 6a 38                            push   $0x38
                           .text:01003c5a eb f5                            jmp    0x01003c51
                           .text:01003c5c bf 18 08 00 00                   mov    $0x818,%edi
                           .text:01003c61 eb 14                            jmp    0x01003c77
                           .text:01003c63 6a 44                            push   $0x44
                           .text:01003c65 eb ea                            jmp    0x01003c51
                           .text:01003c67 6a 1c                            push   $0x1c
                           .text:01003c69 eb e6                            jmp    0x01003c51
                           .text:01003c6b 6a 40                            push   $0x40
                           .text:01003c6d eb e2                            jmp    0x01003c51
                           .text:01003c6f 6a 10                            push   $0x10
                           .text:01003c71 eb de                            jmp    0x01003c51
                           .text:01003c73 6a 24                            push   $0x24
                           .text:01003c75 eb da                            jmp    0x01003c51
                           .text:01003c77 56                               push   %esi
                           .text:01003c78 57                               push   %edi
                           .text:01003c79 e8 e8 ec ff ff                   call   0x01002966
                           .text:01003c7e 8b f0                            mov    %eax,%esi
                           .text:01003c80 85 f6                            test   %esi,%esi
                           .text:01003c82 75 0b                            jne    0x01003c8f
                           .text:01003c84 8b 45 0c                         mov    0xc(%ebp),%eax
                           .text:01003c87 c7 00 08 00 00 00                movl   $0x8,(%eax)
                           .text:01003c8d eb 1e                            jmp    0x01003cad
                           .text:01003c8f 57                               push   %edi
                           .text:01003c90 53                               push   %ebx
                           .text:01003c91 56                               push   %esi
                           .text:01003c92 89 76 04                         mov    %esi,0x4(%esi)
                           .text:01003c95 89 36                            mov    %esi,(%esi)
                           .text:01003c97 e8 0f fa ff ff                   call   0x010036ab
                           .text:01003c9c 8b f8                            mov    %eax,%edi
                           .text:01003c9e 85 ff                            test   %edi,%edi
                           .text:01003ca0 74 0f                            je     0x01003cb1
                           .text:01003ca2 56                               push   %esi
                           .text:01003ca3 e8 88 ef ff ff                   call   0x01002c30
                           .text:01003ca8 8b 45 0c                         mov    0xc(%ebp),%eax
                           .text:01003cab 89 38                            mov    %edi,(%eax)
                           .text:01003cad 33 c0                            xor    %eax,%eax
                           .text:01003caf eb 08                            jmp    0x01003cb9
                           .text:01003cb1 8b 45 0c                         mov    0xc(%ebp),%eax
                           .text:01003cb4 83 20 00                         andl   $0x0,(%eax)
                           .text:01003cb7 8b c6                            mov    %esi,%eax
                           .text:01003cb9 5e                               pop    %esi
                           .text:01003cba 5f                               pop    %edi
                           .text:01003cbb 5b                               pop    %ebx
                           .text:01003cbc 5d                               pop    %ebp
                           .text:01003cbd c2 08 00                         ret    $0x8
                           .text:01003cc0 48                               dec    %eax
                           .text:01003cc1 3c 00                            cmp    $0x0,%al
                           .text:01003cc3 01 4f 3c                         add    %ecx,0x3c(%edi)
                           .text:01003cc6 00 01                            add    %al,(%ecx)
                           .text:01003cc8 54                               push   %esp
                           .text:01003cc9 3c 00                            cmp    $0x0,%al
                           .text:01003ccb 01 58 3c                         add    %ebx,0x3c(%eax)
                           .text:01003cce 00 01                            add    %al,(%ecx)
                           .text:01003cd0 54                               push   %esp
                           .text:01003cd1 3c 00                            cmp    $0x0,%al
                           .text:01003cd3 01 5c 3c 00                      add    %ebx,0x0(%esp,%edi,1)
                           .text:01003cd7 01 63 3c                         add    %esp,0x3c(%ebx)
                           .text:01003cda 00 01                            add    %al,(%ecx)
                           .text:01003cdc 67 3c 00                         addr16 cmp $0x0,%al
                           .text:01003cdf 01 67 3c                         add    %esp,0x3c(%edi)
                           .text:01003ce2 00 01                            add    %al,(%ecx)
                           .text:01003ce4 6f                               outsl  %ds:(%esi),(%dx)
                           .text:01003ce5 3c 00                            cmp    $0x0,%al
                           .text:01003ce7 01 4f 3c                         add    %ecx,0x3c(%edi)
                           .text:01003cea 00 01                            add    %al,(%ecx)
                           .text:01003cec 63 3c 00                         arpl   %di,(%eax,%eax,1)
                           .text:01003cef 01 6b 3c                         add    %ebp,0x3c(%ebx)
                           .text:01003cf2 00 01                            add    %al,(%ecx)
                           .text:01003cf4 67 3c 00                         addr16 cmp $0x0,%al
                           .text:01003cf7 01 73 3c                         add    %esi,0x3c(%ebx)
                           .text:01003cfa 00 01                            add    %al,(%ecx)
                           .text:01003cfc 5c                               pop    %esp
                           .text:01003cfd 3c 00                            cmp    $0x0,%al
                           .text:01003cff 01 cc                            add    %ecx,%esp
                           .text:01003d01 cc                               int3   
                           .text:01003d02 cc                               int3   
                           .text:01003d03 cc                               int3   
                           .text:01003d04 cc                               int3   
                           .text:01003d05 c2 08 00                         ret    $0x8
                           .text:01003d08 cc                               int3   
                           .text:01003d09 cc                               int3   
                           .text:01003d0a cc                               int3   
                           .text:01003d0b cc                               int3   
                           .text:01003d0c cc                               int3   
                           .text:01003d0d cc                               int3   
                           .text:01003d0e ff 25 20 10 00 01                jmp    *0x1001020
                           .text:01003d14 cc                               int3   
                           .text:01003d15 cc                               int3   
                           .text:01003d16 cc                               int3   
                           .text:01003d17 cc                               int3   
                           .text:01003d18 cc                               int3   
                           .text:01003d19 cc                               int3   
                           .text:01003d1a ff 25 1c 10 00 01                jmp    *0x100101c
                           .text:01003d20 cc                               int3   
                           .text:01003d21 cc                               int3   
                           .text:01003d22 cc                               int3   
                           .text:01003d23 cc                               int3   
                           .text:01003d24 cc                               int3   
                           .text:01003d25 cc                               int3   
                           .text:01003d26 ff 25 18 10 00 01                jmp    *0x1001018
                           .text:01003d2c cc                               int3   
                           .text:01003d2d cc                               int3   
                           .text:01003d2e cc                               int3   
                           .text:01003d2f cc                               int3   
                           .text:01003d30 cc                               int3   
                           .text:01003d31 cc                               int3   
                           .text:01003d32 ff 25 14 10 00 01                jmp    *0x1001014
                           .text:01003d38 cc                               int3   
                           .text:01003d39 cc                               int3   
                           .text:01003d3a cc                               int3   
                           .text:01003d3b cc                               int3   
                           .text:01003d3c cc                               int3   
                           .text:01003d3d cc                               int3   
                           .text:01003d3e ff 25 10 10 00 01                jmp    *0x1001010
                           .text:01003d44 cc                               int3   
                           .text:01003d45 cc                               int3   
                           .text:01003d46 cc                               int3   
                           .text:01003d47 cc                               int3   
                           .text:01003d48 cc                               int3   
                           .text:01003d49 cc                               int3   
                           .text:01003d4a ff 25 24 11 00 01                jmp    *0x1001124
                           .text:01003d50 cc                               int3   
                           .text:01003d51 cc                               int3   
                           .text:01003d52 cc                               int3   
                           .text:01003d53 cc                               int3   
                           .text:01003d54 cc                               int3   
                           .text:01003d55 cc                               int3   
                           .text:01003d56 ff 25 28 11 00 01                jmp    *0x1001128
                           .text:01003d5c cc                               int3   
                           .text:01003d5d cc                               int3   
                           .text:01003d5e cc                               int3   
                           .text:01003d5f cc                               int3   
                           .text:01003d60 fe                               (bad)  
                           .text:01003d61 ff                               (bad)  
                           .text:01003d62 ff                               (bad)  
                           .text:01003d63 ff 00                            incl   (%eax)
                           .text:01003d65 00 00                            add    %al,(%eax)
                           .text:01003d67 00 d0                            add    %dl,%al
                           .text:01003d69 ff                               (bad)  
                           .text:01003d6a ff                               (bad)  
                           .text:01003d6b ff 00                            incl   (%eax)
                           .text:01003d6d 00 00                            add    %al,(%eax)
                           .text:01003d6f 00 fe                            add    %bh,%dh
                           .text:01003d71 ff                               (bad)  
                           .text:01003d72 ff                               (bad)  
                           .text:01003d73 ff c6                            inc    %esi
                           .text:01003d75 23 00                            and    (%eax),%eax
                           .text:01003d77 01 da                            add    %ebx,%edx
                           .text:01003d79 23 00                            and    (%eax),%eax
                           .text:01003d7b 01 00                            add    %eax,(%eax)
                           .text:01003d7d 00 00                            add    %al,(%eax)
                           .text:01003d7f 00 fe                            add    %bh,%dh
                           .text:01003d81 ff                               (bad)  
                           .text:01003d82 ff                               (bad)  
                           .text:01003d83 ff 00                            incl   (%eax)
                           .text:01003d85 00 00                            add    %al,(%eax)
                           .text:01003d87 00 d8                            add    %bl,%al
                           .text:01003d89 ff                               (bad)  
                           .text:01003d8a ff                               (bad)  
                           .text:01003d8b ff 00                            incl   (%eax)
                           .text:01003d8d 00 00                            add    %al,(%eax)
                           .text:01003d8f 00 fe                            add    %bh,%dh
                           .text:01003d91 ff                               (bad)  
                           .text:01003d92 ff                               (bad)  
                           .text:01003d93 ff                               (bad)  
                           .text:01003d94 3f                               aas    
                           .text:01003d95 26 00 01                         add    %al,%es:(%ecx)
                           .text:01003d98 53                               push   %ebx
                           .text:01003d99 26 00 01                         add    %al,%es:(%ecx)
                           .text:01003d9c 00 00                            add    %al,(%eax)
                           .text:01003d9e 00 00                            add    %al,(%eax)
                           .text:01003da0 fe                               (bad)  
                           .text:01003da1 ff                               (bad)  
                           .text:01003da2 ff                               (bad)  
                           .text:01003da3 ff 00                            incl   (%eax)
                           .text:01003da5 00 00                            add    %al,(%eax)
                           .text:01003da7 00 d4                            add    %dl,%ah
                           .text:01003da9 ff                               (bad)  
                           .text:01003daa ff                               (bad)  
                           .text:01003dab ff 00                            incl   (%eax)
                           .text:01003dad 00 00                            add    %al,(%eax)
                           .text:01003daf 00 fe                            add    %bh,%dh
                           .text:01003db1 ff                               (bad)  
                           .text:01003db2 ff                               (bad)  
                           .text:01003db3 ff 72 27                         pushl  0x27(%edx)
                           .text:01003db6 00 01                            add    %al,(%ecx)
                           .text:01003db8 76 27                            jbe    0x01003de1
                           .text:01003dba 00 01                            add    %al,(%ecx)
                           .text:01003dbc 98                               cwtl   
                           .text:01003dbd 3e 00 00                         add    %al,%ds:(%eax)
                           .text:01003dc0 ff                               (bad)  
                           .text:01003dc1 ff                               (bad)  
                           .text:01003dc2 ff                               (bad)  
                           .text:01003dc3 ff                               (bad)  
                           .text:01003dc4 ff                               (bad)  
                           .text:01003dc5 ff                               (bad)  
                           .text:01003dc6 ff                               (bad)  
                           .text:01003dc7 ff c2                            inc    %edx
                           .text:01003dc9 3f                               aas    
                           .text:01003dca 00 00                            add    %al,(%eax)
                           .text:01003dcc 28 10                            sub    %dl,(%eax)
                           .text:01003dce 00 00                            add    %al,(%eax)
                           .text:01003dd0 10 3f                            adc    %bh,(%edi)
                           .text:01003dd2 00 00                            add    %al,(%eax)
                           .text:01003dd4 ff                               (bad)  
                           .text:01003dd5 ff                               (bad)  
                           .text:01003dd6 ff                               (bad)  
                           .text:01003dd7 ff                               (bad)  
                           .text:01003dd8 ff                               (bad)  
                           .text:01003dd9 ff                               (bad)  
                           .text:01003dda ff                               (bad)  
                           .text:01003ddb ff c0                            inc    %eax
                           .text:01003ddd 40                               inc    %eax
                           .text:01003dde 00 00                            add    %al,(%eax)
                           .text:01003de0 a0 10 00 00 8c                   mov    0x8c000010,%al
                           .text:01003de5 3f                               aas    
                           .text:01003de6 00 00                            add    %al,(%eax)
                           .text:01003de8 ff                               (bad)  
                           .text:01003de9 ff                               (bad)  
                           .text:01003dea ff                               (bad)  
                           .text:01003deb ff                               (bad)  
                           .text:01003dec ff                               (bad)  
                           .text:01003ded ff                               (bad)  
                           .text:01003dee ff                               (bad)  
                           .text:01003def ff 2e                            ljmp   *(%esi)
                           .text:01003df1 41                               inc    %ecx
                           .text:01003df2 00 00                            add    %al,(%eax)
                           .text:01003df4 1c 11                            sbb    $0x11,%al
                           .text:01003df6 00 00                            add    %al,(%eax)
                           .text:01003df8 fc                               cld    
                           .text:01003df9 3e 00 00                         add    %al,%ds:(%eax)
                           .text:01003dfc ff                               (bad)  
                           .text:01003dfd ff                               (bad)  
                           .text:01003dfe ff                               (bad)  
                           .text:01003dff ff                               (bad)  
                           .text:01003e00 ff                               (bad)  
                           .text:01003e01 ff                               (bad)  
                           .text:01003e02 ff                               (bad)  
                           .text:01003e03 ff                               (bad)  
                           .text:01003e04 3a 41 00                         cmp    0x0(%ecx),%al
                           .text:01003e07 00 8c 10 00 00 84 3f             add    %cl,0x3f840000(%eax,%edx,1)
                           .text:01003e0e 00 00                            add    %al,(%eax)
                           .text:01003e10 ff                               (bad)  
                           .text:01003e11 ff                               (bad)  
                           .text:01003e12 ff                               (bad)  
                           .text:01003e13 ff                               (bad)  
                           .text:01003e14 ff                               (bad)  
                           .text:01003e15 ff                               (bad)  
                           .text:01003e16 ff                               (bad)  
                           .text:01003e17 ff 60 41                         jmp    *0x41(%eax)
                           .text:01003e1a 00 00                            add    %al,(%eax)
                           .text:01003e1c 14 11                            adc    $0x11,%al
                           .text:01003e1e 00 00                            add    %al,(%eax)
                           .text:01003e20 70 3e                            jo     0x01003e60
                           .text:01003e22 00 00                            add    %al,(%eax)
                           .text:01003e24 ff                               (bad)  
                           .text:01003e25 ff                               (bad)  
                           .text:01003e26 ff                               (bad)  
                           .text:01003e27 ff                               (bad)  
                           .text:01003e28 ff                               (bad)  
                           .text:01003e29 ff                               (bad)  
                           .text:01003e2a ff                               (bad)  
                           .text:01003e2b ff a8 41 00 00 00                ljmp   *0x41(%eax)
                           .text:01003e31 10 00                            adc    %al,(%eax)
                           .text:01003e33 00 80 3e 00 00 ff                add    %al,-0xffffc2(%eax)
                           .text:01003e39 ff                               (bad)  
                           .text:01003e3a ff                               (bad)  
                           .text:01003e3b ff                               (bad)  
                           .text:01003e3c ff                               (bad)  
                           .text:01003e3d ff                               (bad)  
                           .text:01003e3e ff                               (bad)  
                           .text:01003e3f ff 10                            call   *(%eax)
                           .text:01003e41 44                               inc    %esp
                           .text:01003e42 00 00                            add    %al,(%eax)
                           .text:01003e44 10 10                            adc    %dl,(%eax)
                           .text:01003e46 00 00                            add    %al,(%eax)
                           .text:01003e48 f4                               hlt    
                           .text:01003e49 3e 00 00                         add    %al,%ds:(%eax)
                           .text:01003e4c ff                               (bad)  
                           .text:01003e4d ff                               (bad)  
                           .text:01003e4e ff                               (bad)  
                           .text:01003e4f ff                               (bad)  
                           .text:01003e50 ff                               (bad)  
                           .text:01003e51 ff                               (bad)  
                           .text:01003e52 ff                               (bad)  
                           .text:01003e53 ff 58 44                         lcall  *0x44(%eax)
                           .text:01003e56 00 00                            add    %al,(%eax)
                           .text:01003e58 84 10                            test   %dl,(%eax)
                           .text:01003e5a 00 00                            add    %al,(%eax)
                           .text:01003e5c 00 00                            add    %al,(%eax)
                           .text:01003e5e 00 00                            add    %al,(%eax)
                           .text:01003e60 00 00                            add    %al,(%eax)
                           .text:01003e62 00 00                            add    %al,(%eax)
                           .text:01003e64 00 00                            add    %al,(%eax)
                           .text:01003e66 00 00                            add    %al,(%eax)
                           .text:01003e68 00 00                            add    %al,(%eax)
                           .text:01003e6a 00 00                            add    %al,(%eax)
                           .text:01003e6c 00 00                            add    %al,(%eax)
                           .text:01003e6e 00 00                            add    %al,(%eax)
                           .text:01003e70 6a 41                            push   $0x41
                           .text:01003e72 00 00                            add    %al,(%eax)
                           .text:01003e74 8c 41 00                         mov    %es,0x0(%ecx)
                           .text:01003e77 00 74 41 00                      add    %dh,0x0(%ecx,%eax,2)
                           .text:01003e7b 00 00                            add    %al,(%eax)
                           .text:01003e7d 00 00                            add    %al,(%eax)
                           .text:01003e7f 00 fa                            add    %bh,%dl
                           .text:01003e81 43                               inc    %ebx
                           .text:01003e82 00 00                            add    %al,(%eax)
                           .text:01003e84 e6 43                            out    %al,$0x43
                           .text:01003e86 00 00                            add    %al,(%eax)
                           .text:01003e88 d0 43 00                         rolb   0x0(%ebx)
                           .text:01003e8b 00 ba 43 00 00 a6                add    %bh,-0x59ffffbd(%edx)
                           .text:01003e91 43                               inc    %ebx
                           .text:01003e92 00 00                            add    %al,(%eax)
                           .text:01003e94 00 00                            add    %al,(%eax)
                           .text:01003e96 00 00                            add    %al,(%eax)
                           .text:01003e98 42                               inc    %edx
                           .text:01003e99 43                               inc    %ebx
                           .text:01003e9a 00 00                            add    %al,(%eax)
                           .text:01003e9c 32 43 00                         xor    0x0(%ebx),%al
                           .text:01003e9f 00 20                            add    %ah,(%eax)
                           .text:01003ea1 43                               inc    %ebx
                           .text:01003ea2 00 00                            add    %al,(%eax)
                           .text:01003ea4 0a 43 00                         or     0x0(%ebx),%al
                           .text:01003ea7 00 ea                            add    %ch,%dl
                           .text:01003ea9 42                               inc    %edx
                           .text:01003eaa 00 00                            add    %al,(%eax)
                           .text:01003eac 52                               push   %edx
                           .text:01003ead 43                               inc    %ebx
                           .text:01003eae 00 00                            add    %al,(%eax)
                           .text:01003eb0 bc 42 00 00 a8                   mov    $0xa8000042,%esp
                           .text:01003eb5 42                               inc    %edx
                           .text:01003eb6 00 00                            add    %al,(%eax)
                           .text:01003eb8 94                               xchg   %eax,%esp
                           .text:01003eb9 42                               inc    %edx
                           .text:01003eba 00 00                            add    %al,(%eax)
                           .text:01003ebc 7a 42                            jp     0x01003f00
                           .text:01003ebe 00 00                            add    %al,(%eax)
                           .text:01003ec0 64 42                            fs inc %edx
                           .text:01003ec2 00 00                            add    %al,(%eax)
                           .text:01003ec4 4e                               dec    %esi
                           .text:01003ec5 42                               inc    %edx
                           .text:01003ec6 00 00                            add    %al,(%eax)
                           .text:01003ec8 3e 42                            ds inc %edx
                           .text:01003eca 00 00                            add    %al,(%eax)
                           .text:01003ecc 24 42                            and    $0x42,%al
                           .text:01003ece 00 00                            add    %al,(%eax)
                           .text:01003ed0 10 42 00                         adc    %al,0x0(%edx)
                           .text:01003ed3 00 f2                            add    %dh,%dl
                           .text:01003ed5 41                               inc    %ecx
                           .text:01003ed6 00 00                            add    %al,(%eax)
                           .text:01003ed8 d4 41                            aam    $0x41
                           .text:01003eda 00 00                            add    %al,(%eax)
                           .text:01003edc cc                               int3   
                           .text:01003edd 41                               inc    %ecx
                           .text:01003ede 00 00                            add    %al,(%eax)
                           .text:01003ee0 b6 41                            mov    $0x41,%dh
                           .text:01003ee2 00 00                            add    %al,(%eax)
                           .text:01003ee4 ac                               lods   %ds:(%esi),%al
                           .text:01003ee5 3f                               aas    
                           .text:01003ee6 00 00                            add    %al,(%eax)
                           .text:01003ee8 d8 42 00                         fadds  0x0(%edx)
                           .text:01003eeb 00 a0 3f 00 00 00                add    %ah,0x3f(%eax)
                           .text:01003ef1 00 00                            add    %al,(%eax)
                           .text:01003ef3 00 46 44                         add    %al,0x44(%esi)
                           .text:01003ef6 00 00                            add    %al,(%eax)
                           .text:01003ef8 00 00                            add    %al,(%eax)
                           .text:01003efa 00 00                            add    %al,(%eax)
                           .text:01003efc 73 00                            jae    0x01003efe
                           .text:01003efe 00 80 0e 00 00 80                add    %al,-0x7ffffff2(%eax)
                           .text:01003f04 0b 00                            or     (%eax),%eax
                           .text:01003f06 00 80 34 00 00 80                add    %al,-0x7fffffcc(%eax)
                           .text:01003f0c 00 00                            add    %al,(%eax)
                           .text:01003f0e 00 00                            add    %al,(%eax)
                           .text:01003f10 fa                               cli    
                           .text:01003f11 40                               inc    %eax
                           .text:01003f12 00 00                            add    %al,(%eax)
                           .text:01003f14 e0 40                            loopne 0x01003f56
                           .text:01003f16 00 00                            add    %al,(%eax)
                           .text:01003f18 cc                               int3   
                           .text:01003f19 40                               inc    %eax
                           .text:01003f1a 00 00                            add    %al,(%eax)
                           .text:01003f1c ae                               scas   %es:(%edi),%al
                           .text:01003f1d 40                               inc    %eax
                           .text:01003f1e 00 00                            add    %al,(%eax)
                           .text:01003f20 a0 40 00 00 90                   mov    0x90000040,%al
                           .text:01003f25 40                               inc    %eax
                           .text:01003f26 00 00                            add    %al,(%eax)
                           .text:01003f28 7c 40                            jl     0x01003f6a
                           .text:01003f2a 00 00                            add    %al,(%eax)
                           .text:01003f2c 6e                               outsb  %ds:(%esi),(%dx)
                           .text:01003f2d 40                               inc    %eax
                           .text:01003f2e 00 00                            add    %al,(%eax)
                           .text:01003f30 62 40 00                         bound  %eax,0x0(%eax)
                           .text:01003f33 00 54 40 00                      add    %dl,0x0(%eax,%eax,2)
                           .text:01003f37 00 4c 40 00                      add    %cl,0x0(%eax,%eax,2)
                           .text:01003f3b 00 42 40                         add    %al,0x40(%edx)
                           .text:01003f3e 00 00                            add    %al,(%eax)
                           .text:01003f40 32 40 00                         xor    0x0(%eax),%al
                           .text:01003f43 00 1e                            add    %bl,(%esi)
                           .text:01003f45 40                               inc    %eax
                           .text:01003f46 00 00                            add    %al,(%eax)
                           .text:01003f48 16                               push   %ss
                           .text:01003f49 40                               inc    %eax
                           .text:01003f4a 00 00                            add    %al,(%eax)
                           .text:01003f4c 68 43 00 00 72                   push   $0x72000043
                           .text:01003f51 43                               inc    %ebx
                           .text:01003f52 00 00                            add    %al,(%eax)
                           .text:01003f54 7e 43                            jle    0x01003f99
                           .text:01003f56 00 00                            add    %al,(%eax)
                           .text:01003f58 88 43 00                         mov    %al,0x0(%ebx)
                           .text:01003f5b 00 90 43 00 00 9e                add    %dl,-0x61ffffbd(%eax)
                           .text:01003f61 43                               inc    %ebx
                           .text:01003f62 00 00                            add    %al,(%eax)
                           .text:01003f64 0c 40                            or     $0x40,%al
                           .text:01003f66 00 00                            add    %al,(%eax)
                           .text:01003f68 00 40 00                         add    %al,0x0(%eax)
                           .text:01003f6b 00 f6                            add    %dh,%dh
                           .text:01003f6d 3f                               aas    
                           .text:01003f6e 00 00                            add    %al,(%eax)
                           .text:01003f70 ec                               in     (%dx),%al
                           .text:01003f71 3f                               aas    
                           .text:01003f72 00 00                            add    %al,(%eax)
                           .text:01003f74 de 3f                            fidivr (%edi)
                           .text:01003f76 00 00                            add    %al,(%eax)
                           .text:01003f78 d0 3f                            sarb   (%edi)
                           .text:01003f7a 00 00                            add    %al,(%eax)
                           .text:01003f7c 28 40 00                         sub    %al,0x0(%eax)
                           .text:01003f7f 00 00                            add    %al,(%eax)
                           .text:01003f81 00 00                            add    %al,(%eax)
                           .text:01003f83 00 46 41                         add    %al,0x41(%esi)
                           .text:01003f86 00 00                            add    %al,(%eax)
                           .text:01003f88 00 00                            add    %al,(%eax)
                           .text:01003f8a 00 00                            add    %al,(%eax)
                           .text:01003f8c 1a 41 00                         sbb    0x0(%ecx),%al
                           .text:01003f8f 00 08                            add    %cl,(%eax)
                           .text:01003f91 41                               inc    %ecx
                           .text:01003f92 00 00                            add    %al,(%eax)
                           .text:01003f94 1e                               push   %ds
                           .text:01003f95 44                               inc    %esp
                           .text:01003f96 00 00                            add    %al,(%eax)
                           .text:01003f98 34 44                            xor    $0x44,%al
                           .text:01003f9a 00 00                            add    %al,(%eax)
                           .text:01003f9c 00 00                            add    %al,(%eax)
                           .text:01003f9e 00 00                            add    %al,(%eax)
                           .text:01003fa0 48                               dec    %eax
                           .text:01003fa1 03 4c 6f 63                      add    0x63(%edi,%ebp,2),%ecx
                           .text:01003fa5 61                               popa   
                           .text:01003fa6 6c                               insb   (%dx),%es:(%edi)
                           .text:01003fa7 46                               inc    %esi
                           .text:01003fa8 72 65                            jb     0x0100400f
                           .text:01003faa 65 00 d3                         gs add %dl,%bl
                           .text:01003fad 02 48 65                         add    0x65(%eax),%cl
                           .text:01003fb0 61                               popa   
                           .text:01003fb1 70 53                            jo     0x01004006
                           .text:01003fb3 65 74 49                         gs je  0x01003fff
                           .text:01003fb6 6e                               outsb  %ds:(%esi),(%dx)
                           .text:01003fb7 66 6f                            outsw  %ds:(%esi),(%dx)
                           .text:01003fb9 72 6d                            jb     0x01004028
                           .text:01003fbb 61                               popa   
                           .text:01003fbc 74 69                            je     0x01004027
                           .text:01003fbe 6f                               outsl  %ds:(%esi),(%dx)
                           .text:01003fbf 6e                               outsb  %ds:(%esi),(%dx)
                           .text:01003fc0 00 00                            add    %al,(%eax)
                           .text:01003fc2 4b                               dec    %ebx
                           .text:01003fc3 45                               inc    %ebp
                           .text:01003fc4 52                               push   %edx
                           .text:01003fc5 4e                               dec    %esi
                           .text:01003fc6 45                               inc    %ebp
                           .text:01003fc7 4c                               dec    %esp
                           .text:01003fc8 33 32                            xor    (%edx),%esi
                           .text:01003fca 2e 64 6c                         cs fs insb (%dx),%es:(%edi)
                           .text:01003fcd 6c                               insb   (%dx),%es:(%edi)
                           .text:01003fce 00 00                            add    %al,(%eax)
                           .text:01003fd0 c8 03 5f 76                      enter  $0x5f03,$0x76
                           .text:01003fd4 73 6e                            jae    0x01004044
                           .text:01003fd6 70 72                            jo     0x0100404a
                           .text:01003fd8 69 6e 74 66 00 00 ce             imul   $0xce000066,0x74(%esi),%ebp
                           .text:01003fdf 03 5f 76                         add    0x76(%edi),%ebx
                           .text:01003fe2 73 6e                            jae    0x01004052
                           .text:01003fe4 77 70                            ja     0x01004056
                           .text:01003fe6 72 69                            jb     0x01004051
                           .text:01003fe8 6e                               outsb  %ds:(%esi),(%dx)
                           .text:01003fe9 74 66                            je     0x01004051
                           .text:01003feb 00 c6                            add    %al,%dh
                           .text:01003fed 04 69                            add    $0x69,%al
                           .text:01003fef 73 73                            jae    0x01004064
                           .text:01003ff1 70 61                            jo     0x01004054
                           .text:01003ff3 63 65 00                         arpl   %sp,0x0(%ebp)
                           .text:01003ff6 c3                               ret    
                           .text:01003ff7 04 69                            add    $0x69,%al
                           .text:01003ff9 73 6c                            jae    0x01004067
                           .text:01003ffb 6f                               outsl  %ds:(%esi),(%dx)
                           .text:01003ffc 77 65                            ja     0x01004063
                           .text:01003ffe 72 00                            jb     0x01004000
                           .text:01004000 d5 04                            aad    $0x4
                           .text:01004002 69 73 78 64 69 67 69             imul   $0x69676964,0x78(%ebx),%esi
                           .text:01004009 74 00                            je     0x0100400b
                           .text:0100400b 00 c0                            add    %al,%al
                           .text:0100400d 04 69                            add    $0x69,%al
                           .text:0100400f 73 64                            jae    0x01004075
                           .text:01004011 69 67 69 74 00 8f 04             imul   $0x48f0074,0x69(%edi),%esp
                           .text:01004018 65 78 69                         gs js  0x01004084
                           .text:0100401b 74 00                            je     0x0100401d
                           .text:0100401d 00 0f                            add    %cl,(%edi)
                           .text:0100401f 05 73 73 63 61                   add    $0x61637373,%eax
                           .text:01004024 6e                               outsb  %ds:(%esi),(%dx)
                           .text:01004025 66 00 00                         data16 add %al,(%eax)
                           .text:01004028 3a 05 74 6f 75 70                cmp    0x70756f74,%al
                           .text:0100402e 70 65                            jo     0x01004095
                           .text:01004030 72 00                            jb     0x01004032
                           .text:01004032 91                               xchg   %eax,%ecx
                           .text:01004033 00 5f 5f                         add    %bl,0x5f(%edi)
                           .text:01004036 67 65 74 6d                      addr16 gs je 0x010040a7
                           .text:0100403a 61                               popa   
                           .text:0100403b 69 6e 61 72 67 73 00             imul   $0x736772,0x61(%esi),%ebp
                           .text:01004042 14 01                            adc    $0x1,%al
                           .text:01004044 5f                               pop    %edi
                           .text:01004045 63 65 78                         arpl   %sp,0x78(%ebp)
                           .text:01004048 69 74 00 00 62 01 5f 65          imul   $0x655f0162,0x0(%eax,%eax,1),%esi
                           .text:01004050 78 69                            js     0x010040bb
                           .text:01004052 74 00                            je     0x01004054
                           .text:01004054 6a 00                            push   $0x0
                           .text:01004056 5f                               pop    %edi
                           .text:01004057 58                               pop    %eax
                           .text:01004058 63 70 74                         arpl   %si,0x74(%eax)
                           .text:0100405b 46                               inc    %esi
                           .text:0100405c 69 6c 74 65 72 00 d5 01          imul   $0x1d50072,0x65(%esp,%esi,2),%ebp
                           .text:01004064 5f                               pop    %edi
                           .text:01004065 69 6e 69 74 74 65 72             imul   $0x72657474,0x69(%esi),%ebp
                           .text:0100406c 6d                               insl   (%dx),%es:(%edi)
                           .text:0100406d 00 01                            add    %al,(%ecx)
                           .text:0100406f 01 5f 61                         add    %ebx,0x61(%edi)
                           .text:01004072 6d                               insl   (%dx),%es:(%edi)
                           .text:01004073 73 67                            jae    0x010040dc
                           .text:01004075 5f                               pop    %edi
                           .text:01004076 65 78 69                         gs js  0x010040e2
                           .text:01004079 74 00                            je     0x0100407b
                           .text:0100407b 00 d4                            add    %dl,%ah
                           .text:0100407d 00 5f 5f                         add    %bl,0x5f(%edi)
                           .text:01004080 73 65                            jae    0x010040e7
                           .text:01004082 74 75                            je     0x010040f9
                           .text:01004084 73 65                            jae    0x010040eb
                           .text:01004086 72 6d                            jb     0x010040f5
                           .text:01004088 61                               popa   
                           .text:01004089 74 68                            je     0x010040f3
                           .text:0100408b 65 72 72                         gs jb  0x01004100
                           .text:0100408e 00 00                            add    %al,(%eax)
                           .text:01004090 b9 00 5f 5f 70                   mov    $0x705f5f00,%ecx
                           .text:01004095 5f                               pop    %edi
                           .text:01004096 5f                               pop    %edi
                           .text:01004097 63 6f 6d                         arpl   %bp,0x6d(%edi)
                           .text:0100409a 6d                               insl   (%dx),%es:(%edi)
                           .text:0100409b 6f                               outsl  %ds:(%esi),(%dx)
                           .text:0100409c 64 65 00 00                      fs add %al,%gs:(%eax)
                           .text:010040a0 be 00 5f 5f 70                   mov    $0x705f5f00,%esi
                           .text:010040a5 5f                               pop    %edi
                           .text:010040a6 5f                               pop    %edi
                           .text:010040a7 66 6d                            insw   (%dx),%es:(%edi)
                           .text:010040a9 6f                               outsl  %ds:(%esi),(%dx)
                           .text:010040aa 64 65 00 00                      fs add %al,%gs:(%eax)
                           .text:010040ae d2 00                            rolb   %cl,(%eax)
                           .text:010040b0 5f                               pop    %edi
                           .text:010040b1 5f                               pop    %edi
                           .text:010040b2 73 65                            jae    0x01004119
                           .text:010040b4 74 5f                            je     0x01004115
                           .text:010040b6 61                               popa   
                           .text:010040b7 70 70                            jo     0x01004129
                           .text:010040b9 5f                               pop    %edi
                           .text:010040ba 74 79                            je     0x01004135
                           .text:010040bc 70 65                            jo     0x01004123
                           .text:010040be 00 00                            add    %al,(%eax)
                           .text:010040c0 6d                               insl   (%dx),%es:(%edi)
                           .text:010040c1 73 76                            jae    0x01004139
                           .text:010040c3 63 72 74                         arpl   %si,0x74(%edx)
                           .text:010040c6 2e 64 6c                         cs fs insb (%dx),%es:(%edi)
                           .text:010040c9 6c                               insb   (%dx),%es:(%edi)
                           .text:010040ca 00 00                            add    %al,(%eax)
                           .text:010040cc 37                               aaa    
                           .text:010040cd 00 3f                            add    %bh,(%edi)
                           .text:010040cf 74 65                            je     0x01004136
                           .text:010040d1 72 6d                            jb     0x01004140
                           .text:010040d3 69 6e 61 74 65 40 40             imul   $0x40406574,0x61(%esi),%ebp
                           .text:010040da 59                               pop    %ecx
                           .text:010040db 41                               inc    %ecx
                           .text:010040dc 58                               pop    %eax
                           .text:010040dd 58                               pop    %eax
                           .text:010040de 5a                               pop    %edx
                           .text:010040df 00 59 01                         add    %bl,0x1(%ecx)
                           .text:010040e2 5f                               pop    %edi
                           .text:010040e3 65 78 63                         gs js  0x01004149
                           .text:010040e6 65 70 74                         gs jo  0x0100415d
                           .text:010040e9 5f                               pop    %edi
                           .text:010040ea 68 61 6e 64 6c                   push   $0x6c646e61
                           .text:010040ef 65 72 34                         gs jb  0x01004126
                           .text:010040f2 5f                               pop    %edi
                           .text:010040f3 63 6f 6d                         arpl   %bp,0x6d(%edi)
                           .text:010040f6 6d                               insl   (%dx),%es:(%edi)
                           .text:010040f7 6f                               outsl  %ds:(%esi),(%dx)
                           .text:010040f8 6e                               outsb  %ds:(%esi),(%dx)
                           .text:010040f9 00 27                            add    %ah,(%edi)
                           .text:010040fb 01 5f 63                         add    %ebx,0x63(%edi)
                           .text:010040fe 6f                               outsl  %ds:(%esi),(%dx)
                           .text:010040ff 6e                               outsb  %ds:(%esi),(%dx)
                           .text:01004100 74 72                            je     0x01004174
                           .text:01004102 6f                               outsl  %ds:(%esi),(%dx)
                           .text:01004103 6c                               insb   (%dx),%es:(%edi)
                           .text:01004104 66 70 00                         data16 jo 0x01004107
                           .text:01004107 00 11                            add    %dl,(%ecx)
                           .text:01004109 00 53 6e                         add    %dl,0x6e(%ebx)
                           .text:0100410c 6d                               insl   (%dx),%es:(%edi)
                           .text:0100410d 70 55                            jo     0x01004164
                           .text:0100410f 74 69                            je     0x0100417a
                           .text:01004111 6c                               insb   (%dx),%es:(%edi)
                           .text:01004112 4d                               dec    %ebp
                           .text:01004113 65 6d                            gs insl (%dx),%es:(%edi)
                           .text:01004115 46                               inc    %esi
                           .text:01004116 72 65                            jb     0x0100417d
                           .text:01004118 65 00 10                         add    %dl,%gs:(%eax)
                           .text:0100411b 00 53 6e                         add    %dl,0x6e(%ebx)
                           .text:0100411e 6d                               insl   (%dx),%es:(%edi)
                           .text:0100411f 70 55                            jo     0x01004176
                           .text:01004121 74 69                            je     0x0100418c
                           .text:01004123 6c                               insb   (%dx),%es:(%edi)
                           .text:01004124 4d                               dec    %ebp
                           .text:01004125 65 6d                            gs insl (%dx),%es:(%edi)
                           .text:01004127 41                               inc    %ecx
                           .text:01004128 6c                               insb   (%dx),%es:(%edi)
                           .text:01004129 6c                               insb   (%dx),%es:(%edi)
                           .text:0100412a 6f                               outsl  %ds:(%esi),(%dx)
                           .text:0100412b 63 00                            arpl   %ax,(%eax)
                           .text:0100412d 00 73 6e                         add    %dh,0x6e(%ebx)
                           .text:01004130 6d                               insl   (%dx),%es:(%edi)
                           .text:01004131 70 61                            jo     0x01004194
                           .text:01004133 70 69                            jo     0x0100419e
                           .text:01004135 2e 64 6c                         cs fs insb (%dx),%es:(%edi)
                           .text:01004138 6c                               insb   (%dx),%es:(%edi)
                           .text:01004139 00 57 53                         add    %dl,0x53(%edi)
                           .text:0100413c 32 5f 33                         xor    0x33(%edi),%bl
                           .text:0100413f 32 2e                            xor    (%esi),%ch
                           .text:01004141 64 6c                            fs insb (%dx),%es:(%edi)
                           .text:01004143 6c                               insb   (%dx),%es:(%edi)
                           .text:01004144 00 00                            add    %al,(%eax)
                           .text:01004146 c4 03                            les    (%ebx),%eax
                           .text:01004148 52                               push   %edx
                           .text:01004149 74 6c                            je     0x010041b7
                           .text:0100414b 49                               dec    %ecx
                           .text:0100414c 70 76                            jo     0x010041c4
                           .text:0100414e 34 41                            xor    $0x41,%al
                           .text:01004150 64 64 72 65                      fs fs jb 0x010041b9
                           .text:01004154 73 73                            jae    0x010041c9
                           .text:01004156 54                               push   %esp
                           .text:01004157 6f                               outsl  %ds:(%esi),(%dx)
                           .text:01004158 53                               push   %ebx
                           .text:01004159 74 72                            je     0x010041cd
                           .text:0100415b 69 6e 67 57 00 6e 74             imul   $0x746e0057,0x67(%esi),%ebp
                           .text:01004162 64 6c                            fs insb (%dx),%es:(%edi)
                           .text:01004164 6c                               insb   (%dx),%es:(%edi)
                           .text:01004165 2e 64 6c                         cs fs insb (%dx),%es:(%edi)
                           .text:01004168 6c                               insb   (%dx),%es:(%edi)
                           .text:01004169 00 20                            add    %ah,(%eax)
                           .text:0100416b 01 46 72                         add    %eax,0x72(%esi)
                           .text:0100416e 65 65 53                         gs gs push %ebx
                           .text:01004171 69 64 00 51 00 43 68 65          imul   $0x65684300,0x51(%eax,%eax,1),%esp
                           .text:01004179 63 6b 54                         arpl   %bp,0x54(%ebx)
                           .text:0100417c 6f                               outsl  %ds:(%esi),(%dx)
                           .text:0100417d 6b 65 6e 4d                      imul   $0x4d,0x6e(%ebp),%esp
                           .text:01004181 65 6d                            gs insl (%dx),%es:(%edi)
                           .text:01004183 62 65 72                         bound  %esp,0x72(%ebp)
                           .text:01004186 73 68                            jae    0x010041f0
                           .text:01004188 69 70 00 00 20 00 41             imul   $0x41002000,0x0(%eax),%esi
                           .text:0100418f 6c                               insb   (%dx),%es:(%edi)
                           .text:01004190 6c                               insb   (%dx),%es:(%edi)
                           .text:01004191 6f                               outsl  %ds:(%esi),(%dx)
                           .text:01004192 63 61 74                         arpl   %sp,0x74(%ecx)
                           .text:01004195 65 41                            gs inc %ecx
                           .text:01004197 6e                               outsb  %ds:(%esi),(%dx)
                           .text:01004198 64 49                            fs dec %ecx
                           .text:0100419a 6e                               outsb  %ds:(%esi),(%dx)
                           .text:0100419b 69 74 69 61 6c 69 7a 65          imul   $0x657a696c,0x61(%ecx,%ebp,2),%esi
                           .text:010041a3 53                               push   %ebx
                           .text:010041a4 69 64 00 00 41 44 56 41          imul   $0x41564441,0x0(%eax,%eax,1),%esp
                           .text:010041ac 50                               push   %eax
                           .text:010041ad 49                               dec    %ecx
                           .text:010041ae 33 32                            xor    (%edx),%esi
                           .text:010041b0 2e 64 6c                         cs fs insb (%dx),%es:(%edi)
                           .text:010041b3 6c                               insb   (%dx),%es:(%edi)
                           .text:010041b4 00 00                            add    %al,(%eax)
                           .text:010041b6 ec                               in     (%dx),%al
                           .text:010041b7 02 49 6e                         add    0x6e(%ecx),%cl
                           .text:010041ba 74 65                            je     0x01004221
                           .text:010041bc 72 6c                            jb     0x0100422a
                           .text:010041be 6f                               outsl  %ds:(%esi),(%dx)
                           .text:010041bf 63 6b 65                         arpl   %bp,0x65(%ebx)
                           .text:010041c2 64 45                            fs inc %ebp
                           .text:010041c4 78 63                            js     0x01004229
                           .text:010041c6 68 61 6e 67 65                   push   $0x65676e61
                           .text:010041cb 00 b2 04 53 6c 65                add    %dh,0x656c5304(%edx)
                           .text:010041d1 65 70 00                         gs jo  0x010041d4
                           .text:010041d4 e9 02 49 6e 74                   jmp    0x756e8adb
                           .text:010041d9 65 72 6c                         gs jb  0x01004248
                           .text:010041dc 6f                               outsl  %ds:(%esi),(%dx)
                           .text:010041dd 63 6b 65                         arpl   %bp,0x65(%ebx)
                           .text:010041e0 64 43                            fs inc %ebx
                           .text:010041e2 6f                               outsl  %ds:(%esi),(%dx)
                           .text:010041e3 6d                               insl   (%dx),%es:(%edi)
                           .text:010041e4 70 61                            jo     0x01004247
                           .text:010041e6 72 65                            jb     0x0100424d
                           .text:010041e8 45                               inc    %ebp
                           .text:010041e9 78 63                            js     0x0100424e
                           .text:010041eb 68 61 6e 67 65                   push   $0x65676e61
                           .text:010041f0 00 00                            add    %al,(%eax)
                           .text:010041f2 a5                               movsl  %ds:(%esi),%es:(%edi)
                           .text:010041f3 04 53                            add    $0x53,%al
                           .text:010041f5 65 74 55                         gs je  0x0100424d
                           .text:010041f8 6e                               outsb  %ds:(%esi),(%dx)
                           .text:010041f9 68 61 6e 64 6c                   push   $0x6c646e61
                           .text:010041fe 65 64 45                         gs fs inc %ebp
                           .text:01004201 78 63                            js     0x01004266
                           .text:01004203 65 70 74                         gs jo  0x0100427a
                           .text:01004206 69 6f 6e 46 69 6c 74             imul   $0x746c6946,0x6e(%edi),%ebp
                           .text:0100420d 65 72 00                         gs jb  0x01004210
                           .text:01004210 15 02 47 65 74                   adc    $0x74654702,%eax
                           .text:01004215 4d                               dec    %ebp
                           .text:01004216 6f                               outsl  %ds:(%esi),(%dx)
                           .text:01004217 64 75 6c                         fs jne 0x01004286
                           .text:0100421a 65 48                            gs dec %eax
                           .text:0100421c 61                               popa   
                           .text:0100421d 6e                               outsb  %ds:(%esi),(%dx)
                           .text:0100421e 64 6c                            fs insb (%dx),%es:(%edi)
                           .text:01004220 65 41                            gs inc %ecx
                           .text:01004222 00 00                            add    %al,(%eax)
                           .text:01004224 a7                               cmpsl  %es:(%edi),%ds:(%esi)
                           .text:01004225 03 51 75                         add    0x75(%ecx),%edx
                           .text:01004228 65 72 79                         gs jb  0x010042a4
                           .text:0100422b 50                               push   %eax
                           .text:0100422c 65 72 66                         gs jb  0x01004295
                           .text:0100422f 6f                               outsl  %ds:(%esi),(%dx)
                           .text:01004230 72 6d                            jb     0x0100429f
                           .text:01004232 61                               popa   
                           .text:01004233 6e                               outsb  %ds:(%esi),(%dx)
                           .text:01004234 63 65 43                         arpl   %sp,0x43(%ebp)
                           .text:01004237 6f                               outsl  %ds:(%esi),(%dx)
                           .text:01004238 75 6e                            jne    0x010042a8
                           .text:0100423a 74 65                            je     0x010042a1
                           .text:0100423c 72 00                            jb     0x0100423e
                           .text:0100423e 93                               xchg   %eax,%ebx
                           .text:0100423f 02 47 65                         add    0x65(%edi),%al
                           .text:01004242 74 54                            je     0x01004298
                           .text:01004244 69 63 6b 43 6f 75 6e             imul   $0x6e756f43,0x6b(%ebx),%esp
                           .text:0100424b 74 00                            je     0x0100424d
                           .text:0100424d 00 c5                            add    %al,%ch
                           .text:0100424f 01 47 65                         add    %eax,0x65(%edi)
                           .text:01004252 74 43                            je     0x01004297
                           .text:01004254 75 72                            jne    0x010042c8
                           .text:01004256 72 65                            jb     0x010042bd
                           .text:01004258 6e                               outsb  %ds:(%esi),(%dx)
                           .text:01004259 74 54                            je     0x010042af
                           .text:0100425b 68 72 65 61 64                   push   $0x64616572
                           .text:01004260 49                               dec    %ecx
                           .text:01004261 64 00 00                         add    %al,%fs:(%eax)
                           .text:01004264 c1 01 47                         roll   $0x47,(%ecx)
                           .text:01004267 65 74 43                         gs je  0x010042ad
                           .text:0100426a 75 72                            jne    0x010042de
                           .text:0100426c 72 65                            jb     0x010042d3
                           .text:0100426e 6e                               outsb  %ds:(%esi),(%dx)
                           .text:0100426f 74 50                            je     0x010042c1
                           .text:01004271 72 6f                            jb     0x010042e2
                           .text:01004273 63 65 73                         arpl   %sp,0x73(%ebp)
                           .text:01004276 73 49                            jae    0x010042c1
                           .text:01004278 64 00 79 02                      add    %bh,%fs:0x2(%ecx)
                           .text:0100427c 47                               inc    %edi
                           .text:0100427d 65 74 53                         gs je  0x010042d3
                           .text:01004280 79 73                            jns    0x010042f5
                           .text:01004282 74 65                            je     0x010042e9
                           .text:01004284 6d                               insl   (%dx),%es:(%edi)
                           .text:01004285 54                               push   %esp
                           .text:01004286 69 6d 65 41 73 46 69             imul   $0x69467341,0x65(%ebp),%ebp
                           .text:0100428d 6c                               insb   (%dx),%es:(%edi)
                           .text:0100428e 65 54                            gs push %esp
                           .text:01004290 69 6d 65 00 c0 04 54             imul   $0x5404c000,0x65(%ebp),%ebp
                           .text:01004297 65 72 6d                         gs jb  0x01004307
                           .text:0100429a 69 6e 61 74 65 50 72             imul   $0x72506574,0x61(%esi),%ebp
                           .text:010042a1 6f                               outsl  %ds:(%esi),(%dx)
                           .text:010042a2 63 65 73                         arpl   %sp,0x73(%ebp)
                           .text:010042a5 73 00                            jae    0x010042a7
                           .text:010042a7 00 c0                            add    %al,%al
                           .text:010042a9 01 47 65                         add    %eax,0x65(%edi)
                           .text:010042ac 74 43                            je     0x010042f1
                           .text:010042ae 75 72                            jne    0x01004322
                           .text:010042b0 72 65                            jb     0x01004317
                           .text:010042b2 6e                               outsb  %ds:(%esi),(%dx)
                           .text:010042b3 74 50                            je     0x01004305
                           .text:010042b5 72 6f                            jb     0x01004326
                           .text:010042b7 63 65 73                         arpl   %sp,0x73(%ebp)
                           .text:010042ba 73 00                            jae    0x010042bc
                           .text:010042bc d3 04 55 6e 68 61 6e             roll   %cl,0x6e61686e(,%edx,2)
                           .text:010042c3 64 6c                            fs insb (%dx),%es:(%edi)
                           .text:010042c5 65 64 45                         gs fs inc %ebp
                           .text:010042c8 78 63                            js     0x0100432d
                           .text:010042ca 65 70 74                         gs jo  0x01004341
                           .text:010042cd 69 6f 6e 46 69 6c 74             imul   $0x746c6946,0x6e(%edi),%ebp
                           .text:010042d4 65 72 00                         gs jb  0x010042d7
                           .text:010042d7 00 5e 01                         add    %bl,0x1(%esi)
                           .text:010042da 46                               inc    %esi
                           .text:010042db 6f                               outsl  %ds:(%esi),(%dx)
                           .text:010042dc 72 6d                            jb     0x0100434b
                           .text:010042de 61                               popa   
                           .text:010042df 74 4d                            je     0x0100432e
                           .text:010042e1 65 73 73                         gs jae 0x01004357
                           .text:010042e4 61                               popa   
                           .text:010042e5 67 65 57                         addr16 gs push %edi
                           .text:010042e8 00 00                            add    %al,(%eax)
                           .text:010042ea 98                               cwtl   
                           .text:010042eb 04 53                            add    $0x53,%al
                           .text:010042ed 65 74 54                         gs je  0x01004344
                           .text:010042f0 68 72 65 61 64                   push   $0x64616572
                           .text:010042f5 50                               push   %eax
                           .text:010042f6 72 65                            jb     0x0100435d
                           .text:010042f8 66 65 72 72                      data16 gs jb 0x0100436e
                           .text:010042fc 65 64 55                         gs fs push %ebp
                           .text:010042ff 49                               dec    %ecx
                           .text:01004300 4c                               dec    %esp
                           .text:01004301 61                               popa   
                           .text:01004302 6e                               outsb  %ds:(%esi),(%dx)
                           .text:01004303 67 75 61                         addr16 jne 0x01004367
                           .text:01004306 67 65 73 00                      addr16 gs jae 0x0100430a
                           .text:0100430a b0 01                            mov    $0x1,%al
                           .text:0100430c 47                               inc    %edi
                           .text:0100430d 65 74 43                         gs je  0x01004353
                           .text:01004310 6f                               outsl  %ds:(%esi),(%dx)
                           .text:01004311 6e                               outsb  %ds:(%esi),(%dx)
                           .text:01004312 73 6f                            jae    0x01004383
                           .text:01004314 6c                               insb   (%dx),%es:(%edi)
                           .text:01004315 65 4f                            gs dec %edi
                           .text:01004317 75 74                            jne    0x0100438d
                           .text:01004319 70 75                            jo     0x01004390
                           .text:0100431b 74 43                            je     0x01004360
                           .text:0100431d 50                               push   %eax
                           .text:0100431e 00 00                            add    %al,(%eax)
                           .text:01004320 45                               inc    %ebp
                           .text:01004321 02 47 65                         add    0x65(%edi),%al
                           .text:01004324 74 50                            je     0x01004376
                           .text:01004326 72 6f                            jb     0x01004397
                           .text:01004328 63 41 64                         arpl   %ax,0x64(%ecx)
                           .text:0100432b 64 72 65                         fs jb  0x01004393
                           .text:0100432e 73 73                            jae    0x010043a3
                           .text:01004330 00 00                            add    %al,(%eax)
                           .text:01004332 3c 03                            cmp    $0x3,%al
                           .text:01004334 4c                               dec    %esp
                           .text:01004335 6f                               outsl  %ds:(%esi),(%dx)
                           .text:01004336 61                               popa   
                           .text:01004337 64 4c                            fs dec %esp
                           .text:01004339 69 62 72 61 72 79 41             imul   $0x41797261,0x72(%edx),%esp
                           .text:01004340 00 00                            add    %al,(%eax)
                           .text:01004342 02 02                            add    (%edx),%al
                           .text:01004344 47                               inc    %edi
                           .text:01004345 65 74 4c                         gs je  0x01004394
                           .text:01004348 61                               popa   
                           .text:01004349 73 74                            jae    0x010043bf
                           .text:0100434b 45                               inc    %ebp
                           .text:0100434c 72 72                            jb     0x010043c0
                           .text:0100434e 6f                               outsl  %ds:(%esi),(%dx)
                           .text:0100434f 72 00                            jb     0x01004351
                           .text:01004351 00 6f 02                         add    %ch,0x2(%edi)
                           .text:01004354 47                               inc    %edi
                           .text:01004355 65 74 53                         gs je  0x010043ab
                           .text:01004358 79 73                            jns    0x010043cd
                           .text:0100435a 74 65                            je     0x010043c1
                           .text:0100435c 6d                               insl   (%dx),%es:(%edi)
                           .text:0100435d 44                               inc    %esp
                           .text:0100435e 69 72 65 63 74 6f 72             imul   $0x726f7463,0x65(%edx),%esi
                           .text:01004365 79 41                            jns    0x010043a8
                           .text:01004367 00 9f 04 66 70 72                add    %bl,0x72706604(%edi)
                           .text:0100436d 69 6e 74 66 00 2c 03             imul   $0x32c0066,0x74(%esi),%ebp
                           .text:01004374 5f                               pop    %edi
                           .text:01004375 73 65                            jae    0x010043dc
                           .text:01004377 74 6d                            je     0x010043e6
                           .text:01004379 6f                               outsl  %ds:(%esi),(%dx)
                           .text:0100437a 64 65 00 00                      fs add %al,%gs:(%eax)
                           .text:0100437e 6f                               outsl  %ds:(%esi),(%dx)
                           .text:0100437f 01 5f 66                         add    %ebx,0x66(%edi)
                           .text:01004382 69 6c 65 6e 6f 00 db 01          imul   $0x1db006f,0x6e(%ebp,%eiz,2),%ebp
                           .text:0100438a 5f                               pop    %edi
                           .text:0100438b 69 6f 62 00 00 4e 04             imul   $0x44e0000,0x62(%edi),%ebp
                           .text:01004392 5f                               pop    %edi
                           .text:01004393 77 73                            ja     0x01004408
                           .text:01004395 65 74 6c                         gs je  0x01004404
                           .text:01004398 6f                               outsl  %ds:(%esi),(%dx)
                           .text:01004399 63 61 6c                         arpl   %sp,0x6c(%ecx)
                           .text:0100439c 65 00 34 05 74 69 6d 65          add    %dh,%gs:0x656d6974(,%eax,1)
                           .text:010043a4 00 00                            add    %al,(%eax)
                           .text:010043a6 57                               push   %edi
                           .text:010043a7 00 47 65                         add    %al,0x65(%edi)
                           .text:010043aa 74 49                            je     0x010043f5
                           .text:010043ac 70 46                            jo     0x010043f4
                           .text:010043ae 6f                               outsl  %ds:(%esi),(%dx)
                           .text:010043af 72 77                            jb     0x01004428
                           .text:010043b1 61                               popa   
                           .text:010043b2 72 64                            jb     0x01004418
                           .text:010043b4 54                               push   %esp
                           .text:010043b5 61                               popa   
                           .text:010043b6 62 6c 65 00                      bound  %ebp,0x0(%ebp,%eiz,2)
                           .text:010043ba 76 00                            jbe    0x010043bc
                           .text:010043bc 47                               inc    %edi
                           .text:010043bd 65 74 54                         gs je  0x01004414
                           .text:010043c0 63 70 53                         arpl   %si,0x53(%eax)
                           .text:010043c3 74 61                            je     0x01004426
                           .text:010043c5 74 69                            je     0x01004430
                           .text:010043c7 73 74                            jae    0x0100443d
                           .text:010043c9 69 63 73 45 78 00 00             imul   $0x7845,0x73(%ebx),%esp
                           .text:010043d0 4b                               dec    %ebx
                           .text:010043d1 00 47 65                         add    %al,0x65(%edi)
                           .text:010043d4 74 49                            je     0x0100441f
                           .text:010043d6 63 6d 70                         arpl   %bp,0x70(%ebp)
                           .text:010043d9 53                               push   %ebx
                           .text:010043da 74 61                            je     0x0100443d
                           .text:010043dc 74 69                            je     0x01004447
                           .text:010043de 73 74                            jae    0x01004454
                           .text:010043e0 69 63 73 45 78 00 61             imul   $0x61007845,0x73(%ebx),%esp
                           .text:010043e7 00 47 65                         add    %al,0x65(%edi)
                           .text:010043ea 74 49                            je     0x01004435
                           .text:010043ec 70 53                            jo     0x01004441
                           .text:010043ee 74 61                            je     0x01004451
                           .text:010043f0 74 69                            je     0x0100445b
                           .text:010043f2 73 74                            jae    0x01004468
                           .text:010043f4 69 63 73 45 78 00 7c             imul   $0x7c007845,0x73(%ebx),%esp
                           .text:010043fb 00 47 65                         add    %al,0x65(%edi)
                           .text:010043fe 74 55                            je     0x01004455
                           .text:01004400 64 70 53                         fs jo  0x01004456
                           .text:01004403 74 61                            je     0x01004466
                           .text:01004405 74 69                            je     0x01004470
                           .text:01004407 73 74                            jae    0x0100447d
                           .text:01004409 69 63 73 45 78 00 00             imul   $0x7845,0x73(%ebx),%esp
                           .text:01004410 49                               dec    %ecx
                           .text:01004411 50                               push   %eax
                           .text:01004412 48                               dec    %eax
                           .text:01004413 4c                               dec    %esp
                           .text:01004414 50                               push   %eax
                           .text:01004415 41                               inc    %ecx
                           .text:01004416 50                               push   %eax
                           .text:01004417 49                               dec    %ecx
                           .text:01004418 2e 44                            cs inc %esp
                           .text:0100441a 4c                               dec    %esp
                           .text:0100441b 4c                               dec    %esp
                           .text:0100441c 00 00                            add    %al,(%eax)
                           .text:0100441e 23 00                            and    (%eax),%eax
                           .text:01004420 53                               push   %ebx
                           .text:01004421 6e                               outsb  %ds:(%esi),(%dx)
                           .text:01004422 6d                               insl   (%dx),%es:(%edi)
                           .text:01004423 70 55                            jo     0x0100447a
                           .text:01004425 74 69                            je     0x01004490
                           .text:01004427 6c                               insb   (%dx),%es:(%edi)
                           .text:01004428 56                               push   %esi
                           .text:01004429 61                               popa   
                           .text:0100442a 72 42                            jb     0x0100446e
                           .text:0100442c 69 6e 64 46 72 65 65             imul   $0x65657246,0x64(%esi),%ebp
                           .text:01004433 00 19                            add    %bl,(%ecx)
                           .text:01004435 00 53 6e                         add    %dl,0x6e(%ebx)
                           .text:01004438 6d                               insl   (%dx),%es:(%edi)
                           .text:01004439 70 55                            jo     0x01004490
                           .text:0100443b 74 69                            je     0x010044a6
                           .text:0100443d 6c                               insb   (%dx),%es:(%edi)
                           .text:0100443e 4f                               dec    %edi
                           .text:0100443f 69 64 43 70 79 00 00 37          imul   $0x37000079,0x70(%ebx,%eax,2),%esp
                           .text:01004447 00 43 68                         add    %al,0x68(%ebx)
                           .text:0100444a 61                               popa   
                           .text:0100444b 72 54                            jb     0x010044a1
                           .text:0100444d 6f                               outsl  %ds:(%esi),(%dx)
                           .text:0100444e 4f                               dec    %edi
                           .text:0100444f 65 6d                            gs insl (%dx),%es:(%edi)
                           .text:01004451 42                               inc    %edx
                           .text:01004452 75 66                            jne    0x010044ba
                           .text:01004454 66 57                            push   %di
                           .text:01004456 00 00                            add    %al,(%eax)
                           .text:01004458 55                               push   %ebp
                           .text:01004459 53                               push   %ebx
                           .text:0100445a 45                               inc    %ebp
                           .text:0100445b 52                               push   %edx
                           .text:0100445c 33 32                            xor    (%edx),%esi
                           .text:0100445e 2e 64 6c                         cs fs insb (%dx),%es:(%edi)
                           .text:01004461 6c                               insb   (%dx),%es:(%edi)
                           .text:01004462 00 00                            add    %al,(%eax)
                           .data:01005000 4e                               0x4e 'N'
                           .data:01005001 e6                               0xe6 
                           .data:01005002 40                               0x40 '@'
                           .data:01005003 bb                               0xbb 
                           .data:01005004 b1                               0xb1 
                           .data:01005005 19                               0x19 
                           .data:01005006 bf                               0xbf 
                           .data:01005007 44                               0x44 'D'
                           .data:01005008 ff                               0xff 
                           .data:01005009 ff                               0xff 
                           .data:0100500a ff                               0xff 
                           .data:0100500b ff                               0xff 
                           .data:0100500c ff                               0xff 
                           .data:0100500d ff                               0xff 
                           .data:0100500e ff                               0xff 
                           .data:0100500f ff                               0xff 
                           .data:01005010 01                               0x01 
                           .data:01005011 00                               0x00 
                           .data:01005012 00                               0x00 
                           .data:01005013 00                               0x00 
                           .data:01005014 00                               0x00 
                           .data:01005015 00                               0x00 
                           .data:01005016 00                               0x00 
                           .data:01005017 00                               0x00 
                           .data:01005018 06                               0x06 
                           .data:01005019 00                               0x00 
                           .data:0100501a 00                               0x00 
                           .data:0100501b 00                               0x00 
                           .data:0100501c 01                               0x01 
                           .data:0100501d 00                               0x00 
                           .data:0100501e 00                               0x00 
                           .data:0100501f 00                               0x00 
                           .data:01005020 03                               0x03 
                           .data:01005021 00                               0x00 
                           .data:01005022 00                               0x00 
                           .data:01005023 00                               0x00 
                           .data:01005024 06                               0x06 
                           .data:01005025 00                               0x00 
                           .data:01005026 00                               0x00 
                           .data:01005027 00                               0x00 
                           .data:01005028 01                               0x01 
                           .data:01005029 00                               0x00 
                           .data:0100502a 00                               0x00 
                           .data:0100502b 00                               0x00 
                           .data:0100502c 02                               0x02 
                           .data:0100502d 00                               0x00 
                           .data:0100502e 00                               0x00 
                           .data:0100502f 00                               0x00 
                           .data:01005030 01                               0x01 
                           .data:01005031 00                               0x00 
                           .data:01005032 00                               0x00 
                           .data:01005033 00                               0x00 
                           .data:01005034 00                               0x00 
                           .data:01005035 00                               0x00 
                           .data:01005036 00                               0x00 
                           .data:01005037 00                               0x00 
                           .data:01005038 00                               0x00 
                           .data:01005039 00                               0x00 
                           .data:0100503a 00                               0x00 
                           .data:0100503b 00                               0x00 
                           .data:0100503c 00                               0x00 
                           .data:0100503d 00                               0x00 
                           .data:0100503e 00                               0x00 
                           .data:0100503f 00                               0x00 
                           .data:01005040 00                               0x00 
                           .data:01005041 00                               0x00 
                           .data:01005042 00                               0x00 
                           .data:01005043 00                               0x00 
                           .data:01005044 00                               0x00 
                           .data:01005045 00                               0x00 
                           .data:01005046 00                               0x00 
                           .data:01005047 00                               0x00 
                           .data:01005048 00                               0x00 
                           .data:01005049 00                               0x00 
                           .data:0100504a 00                               0x00 
                           .data:0100504b 00                               0x00 
                           .data:0100504c 00                               0x00 
                           .data:0100504d 00                               0x00 
                           .data:0100504e 00                               0x00 
                           .data:0100504f 00                               0x00 
                           .data:01005050 00                               0x00 
                           .data:01005051 00                               0x00 
                           .data:01005052 00                               0x00 
                           .data:01005053 00                               0x00 
                           .data:01005054 00                               0x00 
                           .data:01005055 00                               0x00 
                           .data:01005056 00                               0x00 
                           .data:01005057 00                               0x00 
                           .data:01005058 00                               0x00 
                           .data:01005059 00                               0x00 
                           .data:0100505a 00                               0x00 
                           .data:0100505b 00                               0x00 
                           .data:0100505c 00                               0x00 
                           .data:0100505d 00                               0x00 
                           .data:0100505e 00                               0x00 
                           .data:0100505f 00                               0x00 
                           .data:01005060 00                               0x00 
                           .data:01005061 00                               0x00 
                           .data:01005062 00                               0x00 
                           .data:01005063 00                               0x00 
                           .data:01005064 00                               0x00 
                           .data:01005065 00                               0x00 
                           .data:01005066 00                               0x00 
                           .data:01005067 00                               0x00 
                           .data:01005068 00                               0x00 
                           .data:01005069 00                               0x00 
                           .data:0100506a 00                               0x00 
                           .data:0100506b 00                               0x00 
                           .data:0100506c 00                               0x00 
                           .data:0100506d 00                               0x00 
                           .data:0100506e 00                               0x00 
                           .data:0100506f 00                               0x00 
                           .data:01005070 00                               0x00 
                           .data:01005071 00                               0x00 
                           .data:01005072 00                               0x00 
                           .data:01005073 00                               0x00 
                           .data:01005074 00                               0x00 
                           .data:01005075 00                               0x00 
                           .data:01005076 00                               0x00 
                           .data:01005077 00                               0x00 
                           .data:01005078 00                               0x00 
                           .data:01005079 00                               0x00 
                           .data:0100507a 00                               0x00 
                           .data:0100507b 00                               0x00 
                           .data:0100507c 00                               0x00 
                           .data:0100507d 00                               0x00 
                           .data:0100507e 00                               0x00 
                           .data:0100507f 00                               0x00 
                           .data:01005080 00                               0x00 
                           .data:01005081 00                               0x00 
                           .data:01005082 00                               0x00 
                           .data:01005083 00                               0x00 
                           .data:01005084 00                               0x00 
                           .data:01005085 00                               0x00 
                           .data:01005086 00                               0x00 
                           .data:01005087 00                               0x00 
                           .data:01005088 00                               0x00 
                           .data:01005089 00                               0x00 
                           .data:0100508a 00                               0x00 
                           .data:0100508b 00                               0x00 
                           .data:0100508c 00                               0x00 
                           .data:0100508d 00                               0x00 
                           .data:0100508e 00                               0x00 
                           .data:0100508f 00                               0x00 
                           .data:01005090 00                               0x00 
                           .data:01005091 00                               0x00 
                           .data:01005092 00                               0x00 
                           .data:01005093 00                               0x00 
                           .data:01005094 00                               0x00 
                           .data:01005095 00                               0x00 
                           .data:01005096 00                               0x00 
                           .data:01005097 00                               0x00 
                           .data:01005098 00                               0x00 
                           .data:01005099 00                               0x00 
                           .data:0100509a 00                               0x00 
                           .data:0100509b 00                               0x00 
                           .data:0100509c 00                               0x00 
                           .data:0100509d 00                               0x00 
                           .data:0100509e 00                               0x00 
                           .data:0100509f 00                               0x00 
                           .data:010050a0 00                               0x00 
                           .data:010050a1 00                               0x00 
                           .data:010050a2 00                               0x00 
                           .data:010050a3 00                               0x00 
                           .data:010050a4 00                               0x00 
                           .data:010050a5 00                               0x00 
                           .data:010050a6 00                               0x00 
                           .data:010050a7 00                               0x00 
                           .data:010050a8 00                               0x00 
                           .data:010050a9 00                               0x00 
                           .data:010050aa 00                               0x00 
                           .data:010050ab 00                               0x00 
                           .data:010050ac 00                               0x00 
                           .data:010050ad 00                               0x00 
                           .data:010050ae 00                               0x00 
                           .data:010050af 00                               0x00 
                           .data:010050b0 00                               0x00 
                           .data:010050b1 00                               0x00 
                           .data:010050b2 00                               0x00 
                           .data:010050b3 00                               0x00 
                           .data:010050b4 00                               0x00 
                           .data:010050b5 00                               0x00 
                           .data:010050b6 00                               0x00 
                           .data:010050b7 00                               0x00 
                           .data:010050b8 00                               0x00 
                           .data:010050b9 00                               0x00 
                           .data:010050ba 00                               0x00 
                           .data:010050bb 00                               0x00 
                           .data:010050bc 00                               0x00 
                           .data:010050bd 00                               0x00 
                           .data:010050be 00                               0x00 
                           .data:010050bf 00                               0x00 
                           .data:010050c0 00                               0x00 
                           .data:010050c1 00                               0x00 
                           .data:010050c2 00                               0x00 
                           .data:010050c3 00                               0x00 
                           .data:010050c4 00                               0x00 
                           .data:010050c5 00                               0x00 
                           .data:010050c6 00                               0x00 
                           .data:010050c7 00                               0x00 
                           .data:010050c8 00                               0x00 
                           .data:010050c9 00                               0x00 
                           .data:010050ca 00                               0x00 
                           .data:010050cb 00                               0x00 
                           .data:010050cc 00                               0x00 
                           .data:010050cd 00                               0x00 
                           .data:010050ce 00                               0x00 
                           .data:010050cf 00                               0x00 
                           .data:010050d0 00                               0x00 
                           .data:010050d1 00                               0x00 
                           .data:010050d2 00                               0x00 
                           .data:010050d3 00                               0x00 
                           .data:010050d4 00                               0x00 
                           .data:010050d5 00                               0x00 
                           .data:010050d6 00                               0x00 
                           .data:010050d7 00                               0x00 
                           .data:010050d8 00                               0x00 
                           .data:010050d9 00                               0x00 
                           .data:010050da 00                               0x00 
                           .data:010050db 00                               0x00 
                           .data:010050dc 00                               0x00 
                           .data:010050dd 00                               0x00 
                           .data:010050de 00                               0x00 
                           .data:010050df 00                               0x00 
                           .data:010050e0 00                               0x00 
                           .data:010050e1 00                               0x00 
                           .data:010050e2 00                               0x00 
                           .data:010050e3 00                               0x00 
                           .data:010050e4 00                               0x00 
                           .data:010050e5 00                               0x00 
                           .data:010050e6 00                               0x00 
                           .data:010050e7 00                               0x00 
                           .data:010050e8 00                               0x00 
                           .data:010050e9 00                               0x00 
                           .data:010050ea 00                               0x00 
                           .data:010050eb 00                               0x00 
                           .data:010050ec 00                               0x00 
                           .data:010050ed 00                               0x00 
                           .data:010050ee 00                               0x00 
                           .data:010050ef 00                               0x00 
                           .data:010050f0 04                               0x04 
                           .data:010050f1 00                               0x00 
                           .data:010050f2 00                               0x00 
                           .data:010050f3 00                               0x00 
                           .data:010050f4 02                               0x02 
                           .data:010050f5 00                               0x00 
                           .data:010050f6 00                               0x00 
                           .data:010050f7 00                               0x00 
                           .data:010050f8 02                               0x02 
                           .data:010050f9 00                               0x00 
                           .data:010050fa 00                               0x00 
                           .data:010050fb 00                               0x00 
                           .data:010050fc 01                               0x01 
                           .data:010050fd 00                               0x00 
                           .data:010050fe 00                               0x00 
                           .data:010050ff 00                               0x00 
                           .data:01005100 01                               0x01 
                           .data:01005101 00                               0x00 
                           .data:01005102 00                               0x00 
                           .data:01005103 00                               0x00 
                           .data:01005104 00                               0x00 
                           .data:01005105 00                               0x00 
                           .data:01005106 00                               0x00 
                           .data:01005107 00                               0x00 
                           .data:01005108 00                               0x00 
                           .data:01005109 00                               0x00 
                           .data:0100510a 00                               0x00 
                           .data:0100510b 00                               0x00 
                           .data:0100510c 00                               0x00 
                           .data:0100510d 00                               0x00 
                           .data:0100510e 00                               0x00 
                           .data:0100510f 00                               0x00 
                           .data:01005110 00                               0x00 
                           .data:01005111 00                               0x00 
                           .data:01005112 00                               0x00 
                           .data:01005113 00                               0x00 
                           .data:01005114 00                               0x00 
                           .data:01005115 00                               0x00 
                           .data:01005116 00                               0x00 
                           .data:01005117 00                               0x00 
                           .data:01005118 00                               0x00 
                           .data:01005119 00                               0x00 
                           .data:0100511a 00                               0x00 
                           .data:0100511b 00                               0x00 
                           .data:0100511c 00                               0x00 
                           .data:0100511d 00                               0x00 
                           .data:0100511e 00                               0x00 
                           .data:0100511f 00                               0x00 
                           .data:01005120 00                               0x00 
                           .data:01005121 00                               0x00 
                           .data:01005122 00                               0x00 
                           .data:01005123 00                               0x00 
                           .data:01005124 00                               0x00 
                           .data:01005125 00                               0x00 
                           .data:01005126 00                               0x00 
                           .data:01005127 00                               0x00 
                           .data:01005128 00                               0x00 
                           .data:01005129 00                               0x00 
                           .data:0100512a 00                               0x00 
                           .data:0100512b 00                               0x00 
                           .data:0100512c 00                               0x00 
                           .data:0100512d 00                               0x00 
                           .data:0100512e 00                               0x00 
                           .data:0100512f 00                               0x00 
                           .data:01005130 00                               0x00 
                           .data:01005131 00                               0x00 
                           .data:01005132 00                               0x00 
                           .data:01005133 00                               0x00 
                           .data:01005134 00                               0x00 
                           .data:01005135 00                               0x00 
                           .data:01005136 00                               0x00 
                           .data:01005137 00                               0x00 
                           .data:01005138 00                               0x00 
                           .data:01005139 00                               0x00 
                           .data:0100513a 00                               0x00 
                           .data:0100513b 00                               0x00 
                           .data:0100513c 00                               0x00 
                           .data:0100513d 00                               0x00 
                           .data:0100513e 00                               0x00 
                           .data:0100513f 00                               0x00 
                           .data:01005140 00                               0x00 
                           .data:01005141 00                               0x00 
                           .data:01005142 00                               0x00 
                           .data:01005143 00                               0x00 
                           .data:01005144 00                               0x00 
                           .data:01005145 00                               0x00 
                           .data:01005146 00                               0x00 
                           .data:01005147 00                               0x00 
                           .data:01005148 00                               0x00 
                           .data:01005149 00                               0x00 
                           .data:0100514a 00                               0x00 
                           .data:0100514b 00                               0x00 
                           .data:0100514c 00                               0x00 
                           .data:0100514d 00                               0x00 
                           .data:0100514e 00                               0x00 
                           .data:0100514f 00                               0x00 
                           .data:01005150 00                               0x00 
                           .data:01005151 00                               0x00 
                           .data:01005152 00                               0x00 
                           .data:01005153 00                               0x00 
                           .data:01005154 00                               0x00 
                           .data:01005155 00                               0x00 
                           .data:01005156 00                               0x00 
                           .data:01005157 00                               0x00 
                           .data:01005158 00                               0x00 
                           .data:01005159 00                               0x00 
                           .data:0100515a 00                               0x00 
                           .data:0100515b 00                               0x00 
                           .data:0100515c 00                               0x00 
                           .data:0100515d 00                               0x00 
                           .data:0100515e 00                               0x00 
                           .data:0100515f 00                               0x00 
                           .data:01005160 00                               0x00 
                           .data:01005161 00                               0x00 
                           .data:01005162 00                               0x00 
                           .data:01005163 00                               0x00 
                           .data:01005164 00                               0x00 
                           .data:01005165 00                               0x00 
                           .data:01005166 00                               0x00 
                           .data:01005167 00                               0x00 
                           .data:01005168 00                               0x00 
                           .data:01005169 00                               0x00 
                           .data:0100516a 00                               0x00 
                           .data:0100516b 00                               0x00 
                           .data:0100516c 00                               0x00 
                           .data:0100516d 00                               0x00 
                           .data:0100516e 00                               0x00 
                           .data:0100516f 00                               0x00 
                           .data:01005170 00                               0x00 
                           .data:01005171 00                               0x00 
                           .data:01005172 00                               0x00 
                           .data:01005173 00                               0x00 
                           .data:01005174 00                               0x00 
                           .data:01005175 00                               0x00 
                           .data:01005176 00                               0x00 
                           .data:01005177 00                               0x00 
                           .data:01005178 00                               0x00 
                           .data:01005179 00                               0x00 
                           .data:0100517a 00                               0x00 
                           .data:0100517b 00                               0x00 
                           .data:0100517c 00                               0x00 
                           .data:0100517d 00                               0x00 
                           .data:0100517e 00                               0x00 
                           .data:0100517f 00                               0x00 
                           .data:01005180 00                               0x00 
                           .data:01005181 00                               0x00 
                           .data:01005182 00                               0x00 
                           .data:01005183 00                               0x00 
                           .data:01005184 00                               0x00 
                           .data:01005185 00                               0x00 
                           .data:01005186 00                               0x00 
                           .data:01005187 00                               0x00 
                           .data:01005188 00                               0x00 
                           .data:01005189 00                               0x00 
                           .data:0100518a 00                               0x00 
                           .data:0100518b 00                               0x00 
                           .data:0100518c 00                               0x00 
                           .data:0100518d 00                               0x00 
                           .data:0100518e 00                               0x00 
                           .data:0100518f 00                               0x00 
                           .data:01005190 00                               0x00 
                           .data:01005191 00                               0x00 
                           .data:01005192 00                               0x00 
                           .data:01005193 00                               0x00 
                           .data:01005194 00                               0x00 
                           .data:01005195 00                               0x00 
                           .data:01005196 00                               0x00 
                           .data:01005197 00                               0x00 
                           .data:01005198 00                               0x00 
                           .data:01005199 00                               0x00 
                           .data:0100519a 00                               0x00 
                           .data:0100519b 00                               0x00 
                           .data:0100519c 00                               0x00 
                           .data:0100519d 00                               0x00 
                           .data:0100519e 00                               0x00 
                           .data:0100519f 00                               0x00 
                           .data:010051a0 00                               0x00 
                           .data:010051a1 00                               0x00 
                           .data:010051a2 00                               0x00 
                           .data:010051a3 00                               0x00 
                           .data:010051a4 00                               0x00 
                           .data:010051a5 00                               0x00 
                           .data:010051a6 00                               0x00 
                           .data:010051a7 00                               0x00 
                           .data:010051a8 00                               0x00 
                           .data:010051a9 00                               0x00 
                           .data:010051aa 00                               0x00 
                           .data:010051ab 00                               0x00 
                           .data:010051ac 00                               0x00 
                           .data:010051ad 00                               0x00 
                           .data:010051ae 00                               0x00 
                           .data:010051af 00                               0x00 
                           .data:010051b0 00                               0x00 
                           .data:010051b1 00                               0x00 
                           .data:010051b2 00                               0x00 
                           .data:010051b3 00                               0x00 
                           .data:010051b4 00                               0x00 
                           .data:010051b5 00                               0x00 
                           .data:010051b6 00                               0x00 
                           .data:010051b7 00                               0x00 
                           .data:010051b8 00                               0x00 
                           .data:010051b9 00                               0x00 
                           .data:010051ba 00                               0x00 
                           .data:010051bb 00                               0x00 
                           .data:010051bc 09                               0x09 '	'
                           .data:010051bd 00                               0x00 
                           .data:010051be 00                               0x00 
                           .data:010051bf 00                               0x00 
                           .data:010051c0 02                               0x02 
                           .data:010051c1 00                               0x00 
                           .data:010051c2 00                               0x00 
                           .data:010051c3 00                               0x00 
                           .data:010051c4 00                               0x00 
                           .data:010051c5 00                               0x00 
                           .data:010051c6 00                               0x00 
                           .data:010051c7 00                               0x00 
                           .data:010051c8 02                               0x02 
                           .data:010051c9 00                               0x00 
                           .data:010051ca 00                               0x00 
                           .data:010051cb 00                               0x00 
                           .data:010051cc 04                               0x04 
                           .data:010051cd 00                               0x00 
                           .data:010051ce 00                               0x00 
                           .data:010051cf 00                               0x00 
                           .data:010051d0 01                               0x01 
                           .data:010051d1 00                               0x00 
                           .data:010051d2 00                               0x00 
                           .data:010051d3 00                               0x00 
                           .data:010051d4 00                               0x00 
                           .data:010051d5 00                               0x00 
                           .data:010051d6 00                               0x00 
                           .data:010051d7 00                               0x00 
                           .data:010051d8 00                               0x00 
                           .data:010051d9 00                               0x00 
                           .data:010051da 00                               0x00 
                           .data:010051db 00                               0x00 
                           .data:010051dc 00                               0x00 
                           .data:010051dd 00                               0x00 
                           .data:010051de 00                               0x00 
                           .data:010051df 00                               0x00 
                           .data:010051e0 00                               0x00 
                           .data:010051e1 00                               0x00 
                           .data:010051e2 00                               0x00 
                           .data:010051e3 00                               0x00 
                           .data:010051e4 00                               0x00 
                           .data:010051e5 00                               0x00 
                           .data:010051e6 00                               0x00 
                           .data:010051e7 00                               0x00 
                           .data:010051e8 00                               0x00 
                           .data:010051e9 00                               0x00 
                           .data:010051ea 00                               0x00 
                           .data:010051eb 00                               0x00 
                           .data:010051ec 00                               0x00 
                           .data:010051ed 00                               0x00 
                           .data:010051ee 00                               0x00 
                           .data:010051ef 00                               0x00 
                           .data:010051f0 00                               0x00 
                           .data:010051f1 00                               0x00 
                           .data:010051f2 00                               0x00 
                           .data:010051f3 00                               0x00 
                           .data:010051f4 00                               0x00 
                           .data:010051f5 00                               0x00 
                           .data:010051f6 00                               0x00 
                           .data:010051f7 00                               0x00 
                           .data:010051f8 00                               0x00 
                           .data:010051f9 00                               0x00 
                           .data:010051fa 00                               0x00 
                           .data:010051fb 00                               0x00 
                           .data:010051fc 00                               0x00 
                           .data:010051fd 00                               0x00 
                           .data:010051fe 00                               0x00 
                           .data:010051ff 00                               0x00 
                           .data:01005200 00                               0x00 
                           .data:01005201 00                               0x00 
                           .data:01005202 00                               0x00 
                           .data:01005203 00                               0x00 
                           .data:01005204 00                               0x00 
                           .data:01005205 00                               0x00 
                           .data:01005206 00                               0x00 
                           .data:01005207 00                               0x00 
                           .data:01005208 00                               0x00 
                           .data:01005209 00                               0x00 
                           .data:0100520a 00                               0x00 
                           .data:0100520b 00                               0x00 
                           .data:0100520c 00                               0x00 
                           .data:0100520d 00                               0x00 
                           .data:0100520e 00                               0x00 
                           .data:0100520f 00                               0x00 
                           .data:01005210 00                               0x00 
                           .data:01005211 00                               0x00 
                           .data:01005212 00                               0x00 
                           .data:01005213 00                               0x00 
                           .data:01005214 00                               0x00 
                           .data:01005215 00                               0x00 
                           .data:01005216 00                               0x00 
                           .data:01005217 00                               0x00 
                           .data:01005218 00                               0x00 
                           .data:01005219 00                               0x00 
                           .data:0100521a 00                               0x00 
                           .data:0100521b 00                               0x00 
                           .data:0100521c 00                               0x00 
                           .data:0100521d 00                               0x00 
                           .data:0100521e 00                               0x00 
                           .data:0100521f 00                               0x00 
                           .data:01005220 00                               0x00 
                           .data:01005221 00                               0x00 
                           .data:01005222 00                               0x00 
                           .data:01005223 00                               0x00 
                           .data:01005224 00                               0x00 
                           .data:01005225 00                               0x00 
                           .data:01005226 00                               0x00 
                           .data:01005227 00                               0x00 
                           .data:01005228 00                               0x00 
                           .data:01005229 00                               0x00 
                           .data:0100522a 00                               0x00 
                           .data:0100522b 00                               0x00 
                           .data:0100522c 00                               0x00 
                           .data:0100522d 00                               0x00 
                           .data:0100522e 00                               0x00 
                           .data:0100522f 00                               0x00 
                           .data:01005230 00                               0x00 
                           .data:01005231 00                               0x00 
                           .data:01005232 00                               0x00 
                           .data:01005233 00                               0x00 
                           .data:01005234 00                               0x00 
                           .data:01005235 00                               0x00 
                           .data:01005236 00                               0x00 
                           .data:01005237 00                               0x00 
                           .data:01005238 00                               0x00 
                           .data:01005239 00                               0x00 
                           .data:0100523a 00                               0x00 
                           .data:0100523b 00                               0x00 
                           .data:0100523c 00                               0x00 
                           .data:0100523d 00                               0x00 
                           .data:0100523e 00                               0x00 
                           .data:0100523f 00                               0x00 
                           .data:01005240 00                               0x00 
                           .data:01005241 00                               0x00 
                           .data:01005242 00                               0x00 
                           .data:01005243 00                               0x00 
                           .data:01005244 00                               0x00 
                           .data:01005245 00                               0x00 
                           .data:01005246 00                               0x00 
                           .data:01005247 00                               0x00 
                           .data:01005248 00                               0x00 
                           .data:01005249 00                               0x00 
                           .data:0100524a 00                               0x00 
                           .data:0100524b 00                               0x00 
                           .data:0100524c 00                               0x00 
                           .data:0100524d 00                               0x00 
                           .data:0100524e 00                               0x00 
                           .data:0100524f 00                               0x00 
                           .data:01005250 00                               0x00 
                           .data:01005251 00                               0x00 
                           .data:01005252 00                               0x00 
                           .data:01005253 00                               0x00 
                           .data:01005254 00                               0x00 
                           .data:01005255 00                               0x00 
                           .data:01005256 00                               0x00 
                           .data:01005257 00                               0x00 
                           .data:01005258 00                               0x00 
                           .data:01005259 00                               0x00 
                           .data:0100525a 00                               0x00 
                           .data:0100525b 00                               0x00 
                           .data:0100525c 00                               0x00 
                           .data:0100525d 00                               0x00 
                           .data:0100525e 00                               0x00 
                           .data:0100525f 00                               0x00 
                           .data:01005260 00                               0x00 
                           .data:01005261 00                               0x00 
                           .data:01005262 00                               0x00 
                           .data:01005263 00                               0x00 
                           .data:01005264 00                               0x00 
                           .data:01005265 00                               0x00 
                           .data:01005266 00                               0x00 
                           .data:01005267 00                               0x00 
                           .data:01005268 00                               0x00 
                           .data:01005269 00                               0x00 
                           .data:0100526a 00                               0x00 
                           .data:0100526b 00                               0x00 
                           .data:0100526c 00                               0x00 
                           .data:0100526d 00                               0x00 
                           .data:0100526e 00                               0x00 
                           .data:0100526f 00                               0x00 
                           .data:01005270 00                               0x00 
                           .data:01005271 00                               0x00 
                           .data:01005272 00                               0x00 
                           .data:01005273 00                               0x00 
                           .data:01005274 00                               0x00 
                           .data:01005275 00                               0x00 
                           .data:01005276 00                               0x00 
                           .data:01005277 00                               0x00 
                           .data:01005278 00                               0x00 
                           .data:01005279 00                               0x00 
                           .data:0100527a 00                               0x00 
                           .data:0100527b 00                               0x00 
                           .data:0100527c 00                               0x00 
                           .data:0100527d 00                               0x00 
                           .data:0100527e 00                               0x00 
                           .data:0100527f 00                               0x00 
                           .data:01005280 00                               0x00 
                           .data:01005281 00                               0x00 
                           .data:01005282 00                               0x00 
                           .data:01005283 00                               0x00 
                           .data:01005284 00                               0x00 
                           .data:01005285 00                               0x00 
                           .data:01005286 00                               0x00 
                           .data:01005287 00                               0x00 
                           .data:01005288 00                               0x00 
                           .data:01005289 00                               0x00 
                           .data:0100528a 00                               0x00 
                           .data:0100528b 00                               0x00 
                           .data:0100528c 00                               0x00 
                           .data:0100528d 00                               0x00 
                           .data:0100528e 00                               0x00 
                           .data:0100528f 00                               0x00 
                           .data:01005290 00                               0x00 
                           .data:01005291 00                               0x00 
                           .data:01005292 00                               0x00 
                           .data:01005293 00                               0x00 
                           .data:01005294 07                               0x07 
                           .data:01005295 00                               0x00 
                           .data:01005296 00                               0x00 
                           .data:01005297 00                               0x00 
                           .data:01005298 01                               0x01 
                           .data:01005299 00                               0x00 
                           .data:0100529a 00                               0x00 
                           .data:0100529b 00                               0x00 
                           .data:0100529c 00                               0x00 
                           .data:0100529d 00                               0x00 
                           .data:0100529e 00                               0x00 
                           .data:0100529f 00                               0x00 
                           .data:010052a0 04                               0x04 
                           .data:010052a1 00                               0x00 
                           .data:010052a2 00                               0x00 
                           .data:010052a3 00                               0x00 
                           .data:010052a4 04                               0x04 
                           .data:010052a5 00                               0x00 
                           .data:010052a6 00                               0x00 
                           .data:010052a7 00                               0x00 
                           .data:010052a8 14                               0x14 
                           .data:010052a9 00                               0x00 
                           .data:010052aa 00                               0x00 
                           .data:010052ab 00                               0x00 
                           .data:010052ac 01                               0x01 
                           .data:010052ad 00                               0x00 
                           .data:010052ae 00                               0x00 
                           .data:010052af 00                               0x00 
                           .data:010052b0 01                               0x01 
                           .data:010052b1 00                               0x00 
                           .data:010052b2 00                               0x00 
                           .data:010052b3 00                               0x00 
                           .data:010052b4 00                               0x00 
                           .data:010052b5 00                               0x00 
                           .data:010052b6 00                               0x00 
                           .data:010052b7 00                               0x00 
                           .data:010052b8 00                               0x00 
                           .data:010052b9 00                               0x00 
                           .data:010052ba 00                               0x00 
                           .data:010052bb 00                               0x00 
                           .data:010052bc 00                               0x00 
                           .data:010052bd 00                               0x00 
                           .data:010052be 00                               0x00 
                           .data:010052bf 00                               0x00 
                           .data:010052c0 00                               0x00 
                           .data:010052c1 00                               0x00 
                           .data:010052c2 00                               0x00 
                           .data:010052c3 00                               0x00 
                           .data:010052c4 00                               0x00 
                           .data:010052c5 00                               0x00 
                           .data:010052c6 00                               0x00 
                           .data:010052c7 00                               0x00 
                           .data:010052c8 00                               0x00 
                           .data:010052c9 00                               0x00 
                           .data:010052ca 00                               0x00 
                           .data:010052cb 00                               0x00 
                           .data:010052cc 00                               0x00 
                           .data:010052cd 00                               0x00 
                           .data:010052ce 00                               0x00 
                           .data:010052cf 00                               0x00 
                           .data:010052d0 00                               0x00 
                           .data:010052d1 00                               0x00 
                           .data:010052d2 00                               0x00 
                           .data:010052d3 00                               0x00 
                           .data:010052d4 00                               0x00 
                           .data:010052d5 00                               0x00 
                           .data:010052d6 00                               0x00 
                           .data:010052d7 00                               0x00 
                           .data:010052d8 00                               0x00 
                           .data:010052d9 00                               0x00 
                           .data:010052da 00                               0x00 
                           .data:010052db 00                               0x00 
                           .data:010052dc 00                               0x00 
                           .data:010052dd 00                               0x00 
                           .data:010052de 00                               0x00 
                           .data:010052df 00                               0x00 
                           .data:010052e0 00                               0x00 
                           .data:010052e1 00                               0x00 
                           .data:010052e2 00                               0x00 
                           .data:010052e3 00                               0x00 
                           .data:010052e4 00                               0x00 
                           .data:010052e5 00                               0x00 
                           .data:010052e6 00                               0x00 
                           .data:010052e7 00                               0x00 
                           .data:010052e8 00                               0x00 
                           .data:010052e9 00                               0x00 
                           .data:010052ea 00                               0x00 
                           .data:010052eb 00                               0x00 
                           .data:010052ec 00                               0x00 
                           .data:010052ed 00                               0x00 
                           .data:010052ee 00                               0x00 
                           .data:010052ef 00                               0x00 
                           .data:010052f0 00                               0x00 
                           .data:010052f1 00                               0x00 
                           .data:010052f2 00                               0x00 
                           .data:010052f3 00                               0x00 
                           .data:010052f4 00                               0x00 
                           .data:010052f5 00                               0x00 
                           .data:010052f6 00                               0x00 
                           .data:010052f7 00                               0x00 
                           .data:010052f8 00                               0x00 
                           .data:010052f9 00                               0x00 
                           .data:010052fa 00                               0x00 
                           .data:010052fb 00                               0x00 
                           .data:010052fc 00                               0x00 
                           .data:010052fd 00                               0x00 
                           .data:010052fe 00                               0x00 
                           .data:010052ff 00                               0x00 
                           .data:01005300 00                               0x00 
                           .data:01005301 00                               0x00 
                           .data:01005302 00                               0x00 
                           .data:01005303 00                               0x00 
                           .data:01005304 00                               0x00 
                           .data:01005305 00                               0x00 
                           .data:01005306 00                               0x00 
                           .data:01005307 00                               0x00 
                           .data:01005308 00                               0x00 
                           .data:01005309 00                               0x00 
                           .data:0100530a 00                               0x00 
                           .data:0100530b 00                               0x00 
                           .data:0100530c 00                               0x00 
                           .data:0100530d 00                               0x00 
                           .data:0100530e 00                               0x00 
                           .data:0100530f 00                               0x00 
                           .data:01005310 00                               0x00 
                           .data:01005311 00                               0x00 
                           .data:01005312 00                               0x00 
                           .data:01005313 00                               0x00 
                           .data:01005314 00                               0x00 
                           .data:01005315 00                               0x00 
                           .data:01005316 00                               0x00 
                           .data:01005317 00                               0x00 
                           .data:01005318 00                               0x00 
                           .data:01005319 00                               0x00 
                           .data:0100531a 00                               0x00 
                           .data:0100531b 00                               0x00 
                           .data:0100531c 00                               0x00 
                           .data:0100531d 00                               0x00 
                           .data:0100531e 00                               0x00 
                           .data:0100531f 00                               0x00 
                           .data:01005320 00                               0x00 
                           .data:01005321 00                               0x00 
                           .data:01005322 00                               0x00 
                           .data:01005323 00                               0x00 
                           .data:01005324 00                               0x00 
                           .data:01005325 00                               0x00 
                           .data:01005326 00                               0x00 
                           .data:01005327 00                               0x00 
                           .data:01005328 00                               0x00 
                           .data:01005329 00                               0x00 
                           .data:0100532a 00                               0x00 
                           .data:0100532b 00                               0x00 
                           .data:0100532c 00                               0x00 
                           .data:0100532d 00                               0x00 
                           .data:0100532e 00                               0x00 
                           .data:0100532f 00                               0x00 
                           .data:01005330 00                               0x00 
                           .data:01005331 00                               0x00 
                           .data:01005332 00                               0x00 
                           .data:01005333 00                               0x00 
                           .data:01005334 00                               0x00 
                           .data:01005335 00                               0x00 
                           .data:01005336 00                               0x00 
                           .data:01005337 00                               0x00 
                           .data:01005338 00                               0x00 
                           .data:01005339 00                               0x00 
                           .data:0100533a 00                               0x00 
                           .data:0100533b 00                               0x00 
                           .data:0100533c 00                               0x00 
                           .data:0100533d 00                               0x00 
                           .data:0100533e 00                               0x00 
                           .data:0100533f 00                               0x00 
                           .data:01005340 00                               0x00 
                           .data:01005341 00                               0x00 
                           .data:01005342 00                               0x00 
                           .data:01005343 00                               0x00 
                           .data:01005344 00                               0x00 
                           .data:01005345 00                               0x00 
                           .data:01005346 00                               0x00 
                           .data:01005347 00                               0x00 
                           .data:01005348 00                               0x00 
                           .data:01005349 00                               0x00 
                           .data:0100534a 00                               0x00 
                           .data:0100534b 00                               0x00 
                           .data:0100534c 00                               0x00 
                           .data:0100534d 00                               0x00 
                           .data:0100534e 00                               0x00 
                           .data:0100534f 00                               0x00 
                           .data:01005350 00                               0x00 
                           .data:01005351 00                               0x00 
                           .data:01005352 00                               0x00 
                           .data:01005353 00                               0x00 
                           .data:01005354 00                               0x00 
                           .data:01005355 00                               0x00 
                           .data:01005356 00                               0x00 
                           .data:01005357 00                               0x00 
                           .data:01005358 00                               0x00 
                           .data:01005359 00                               0x00 
                           .data:0100535a 00                               0x00 
                           .data:0100535b 00                               0x00 
                           .data:0100535c 00                               0x00 
                           .data:0100535d 00                               0x00 
                           .data:0100535e 00                               0x00 
                           .data:0100535f 00                               0x00 
                           .data:01005360 00                               0x00 
                           .data:01005361 00                               0x00 
                           .data:01005362 00                               0x00 
                           .data:01005363 00                               0x00 
                           .data:01005364 00                               0x00 
                           .data:01005365 00                               0x00 
                           .data:01005366 00                               0x00 
                           .data:01005367 00                               0x00 
                           .data:01005368 00                               0x00 
                           .data:01005369 00                               0x00 
                           .data:0100536a 00                               0x00 
                           .data:0100536b 00                               0x00 
                           .data:0100536c 09                               0x09 '	'
                           .data:0100536d 00                               0x00 
                           .data:0100536e 00                               0x00 
                           .data:0100536f 00                               0x00 
                           .data:01005370 02                               0x02 
                           .data:01005371 00                               0x00 
                           .data:01005372 00                               0x00 
                           .data:01005373 00                               0x00 
                           .data:01005374 00                               0x00 
                           .data:01005375 00                               0x00 
                           .data:01005376 00                               0x00 
                           .data:01005377 00                               0x00 
                           .data:01005378 04                               0x04 
                           .data:01005379 00                               0x00 
                           .data:0100537a 00                               0x00 
                           .data:0100537b 00                               0x00 
                           .data:0100537c 04                               0x04 
                           .data:0100537d 00                               0x00 
                           .data:0100537e 00                               0x00 
                           .data:0100537f 00                               0x00 
                           .data:01005380 15                               0x15 
                           .data:01005381 00                               0x00 
                           .data:01005382 00                               0x00 
                           .data:01005383 00                               0x00 
                           .data:01005384 01                               0x01 
                           .data:01005385 00                               0x00 
                           .data:01005386 00                               0x00 
                           .data:01005387 00                               0x00 
                           .data:01005388 01                               0x01 
                           .data:01005389 00                               0x00 
                           .data:0100538a 00                               0x00 
                           .data:0100538b 00                               0x00 
                           .data:0100538c 00                               0x00 
                           .data:0100538d 00                               0x00 
                           .data:0100538e 00                               0x00 
                           .data:0100538f 00                               0x00 
                           .data:01005390 00                               0x00 
                           .data:01005391 00                               0x00 
                           .data:01005392 00                               0x00 
                           .data:01005393 00                               0x00 
                           .data:01005394 00                               0x00 
                           .data:01005395 00                               0x00 
                           .data:01005396 00                               0x00 
                           .data:01005397 00                               0x00 
                           .data:01005398 00                               0x00 
                           .data:01005399 00                               0x00 
                           .data:0100539a 00                               0x00 
                           .data:0100539b 00                               0x00 
                           .data:0100539c 00                               0x00 
                           .data:0100539d 00                               0x00 
                           .data:0100539e 00                               0x00 
                           .data:0100539f 00                               0x00 
                           .data:010053a0 00                               0x00 
                           .data:010053a1 00                               0x00 
                           .data:010053a2 00                               0x00 
                           .data:010053a3 00                               0x00 
                           .data:010053a4 00                               0x00 
                           .data:010053a5 00                               0x00 
                           .data:010053a6 00                               0x00 
                           .data:010053a7 00                               0x00 
                           .data:010053a8 00                               0x00 
                           .data:010053a9 00                               0x00 
                           .data:010053aa 00                               0x00 
                           .data:010053ab 00                               0x00 
                           .data:010053ac 00                               0x00 
                           .data:010053ad 00                               0x00 
                           .data:010053ae 00                               0x00 
                           .data:010053af 00                               0x00 
                           .data:010053b0 00                               0x00 
                           .data:010053b1 00                               0x00 
                           .data:010053b2 00                               0x00 
                           .data:010053b3 00                               0x00 
                           .data:010053b4 00                               0x00 
                           .data:010053b5 00                               0x00 
                           .data:010053b6 00                               0x00 
                           .data:010053b7 00                               0x00 
                           .data:010053b8 00                               0x00 
                           .data:010053b9 00                               0x00 
                           .data:010053ba 00                               0x00 
                           .data:010053bb 00                               0x00 
                           .data:010053bc 00                               0x00 
                           .data:010053bd 00                               0x00 
                           .data:010053be 00                               0x00 
                           .data:010053bf 00                               0x00 
                           .data:010053c0 00                               0x00 
                           .data:010053c1 00                               0x00 
                           .data:010053c2 00                               0x00 
                           .data:010053c3 00                               0x00 
                           .data:010053c4 00                               0x00 
                           .data:010053c5 00                               0x00 
                           .data:010053c6 00                               0x00 
                           .data:010053c7 00                               0x00 
                           .data:010053c8 00                               0x00 
                           .data:010053c9 00                               0x00 
                           .data:010053ca 00                               0x00 
                           .data:010053cb 00                               0x00 
                           .data:010053cc 00                               0x00 
                           .data:010053cd 00                               0x00 
                           .data:010053ce 00                               0x00 
                           .data:010053cf 00                               0x00 
                           .data:010053d0 00                               0x00 
                           .data:010053d1 00                               0x00 
                           .data:010053d2 00                               0x00 
                           .data:010053d3 00                               0x00 
                           .data:010053d4 00                               0x00 
                           .data:010053d5 00                               0x00 
                           .data:010053d6 00                               0x00 
                           .data:010053d7 00                               0x00 
                           .data:010053d8 00                               0x00 
                           .data:010053d9 00                               0x00 
                           .data:010053da 00                               0x00 
                           .data:010053db 00                               0x00 
                           .data:010053dc 00                               0x00 
                           .data:010053dd 00                               0x00 
                           .data:010053de 00                               0x00 
                           .data:010053df 00                               0x00 
                           .data:010053e0 00                               0x00 
                           .data:010053e1 00                               0x00 
                           .data:010053e2 00                               0x00 
                           .data:010053e3 00                               0x00 
                           .data:010053e4 00                               0x00 
                           .data:010053e5 00                               0x00 
                           .data:010053e6 00                               0x00 
                           .data:010053e7 00                               0x00 
                           .data:010053e8 00                               0x00 
                           .data:010053e9 00                               0x00 
                           .data:010053ea 00                               0x00 
                           .data:010053eb 00                               0x00 
                           .data:010053ec 00                               0x00 
                           .data:010053ed 00                               0x00 
                           .data:010053ee 00                               0x00 
                           .data:010053ef 00                               0x00 
                           .data:010053f0 00                               0x00 
                           .data:010053f1 00                               0x00 
                           .data:010053f2 00                               0x00 
                           .data:010053f3 00                               0x00 
                           .data:010053f4 00                               0x00 
                           .data:010053f5 00                               0x00 
                           .data:010053f6 00                               0x00 
                           .data:010053f7 00                               0x00 
                           .data:010053f8 00                               0x00 
                           .data:010053f9 00                               0x00 
                           .data:010053fa 00                               0x00 
                           .data:010053fb 00                               0x00 
                           .data:010053fc 00                               0x00 
                           .data:010053fd 00                               0x00 
                           .data:010053fe 00                               0x00 
                           .data:010053ff 00                               0x00 
                           .data:01005400 00                               0x00 
                           .data:01005401 00                               0x00 
                           .data:01005402 00                               0x00 
                           .data:01005403 00                               0x00 
                           .data:01005404 00                               0x00 
                           .data:01005405 00                               0x00 
                           .data:01005406 00                               0x00 
                           .data:01005407 00                               0x00 
                           .data:01005408 00                               0x00 
                           .data:01005409 00                               0x00 
                           .data:0100540a 00                               0x00 
                           .data:0100540b 00                               0x00 
                           .data:0100540c 00                               0x00 
                           .data:0100540d 00                               0x00 
                           .data:0100540e 00                               0x00 
                           .data:0100540f 00                               0x00 
                           .data:01005410 00                               0x00 
                           .data:01005411 00                               0x00 
                           .data:01005412 00                               0x00 
                           .data:01005413 00                               0x00 
                           .data:01005414 00                               0x00 
                           .data:01005415 00                               0x00 
                           .data:01005416 00                               0x00 
                           .data:01005417 00                               0x00 
                           .data:01005418 00                               0x00 
                           .data:01005419 00                               0x00 
                           .data:0100541a 00                               0x00 
                           .data:0100541b 00                               0x00 
                           .data:0100541c 00                               0x00 
                           .data:0100541d 00                               0x00 
                           .data:0100541e 00                               0x00 
                           .data:0100541f 00                               0x00 
                           .data:01005420 00                               0x00 
                           .data:01005421 00                               0x00 
                           .data:01005422 00                               0x00 
                           .data:01005423 00                               0x00 
                           .data:01005424 00                               0x00 
                           .data:01005425 00                               0x00 
                           .data:01005426 00                               0x00 
                           .data:01005427 00                               0x00 
                           .data:01005428 00                               0x00 
                           .data:01005429 00                               0x00 
                           .data:0100542a 00                               0x00 
                           .data:0100542b 00                               0x00 
                           .data:0100542c 00                               0x00 
                           .data:0100542d 00                               0x00 
                           .data:0100542e 00                               0x00 
                           .data:0100542f 00                               0x00 
                           .data:01005430 00                               0x00 
                           .data:01005431 00                               0x00 
                           .data:01005432 00                               0x00 
                           .data:01005433 00                               0x00 
                           .data:01005434 00                               0x00 
                           .data:01005435 00                               0x00 
                           .data:01005436 00                               0x00 
                           .data:01005437 00                               0x00 
                           .data:01005438 00                               0x00 
                           .data:01005439 00                               0x00 
                           .data:0100543a 00                               0x00 
                           .data:0100543b 00                               0x00 
                           .data:0100543c 00                               0x00 
                           .data:0100543d 00                               0x00 
                           .data:0100543e 00                               0x00 
                           .data:0100543f 00                               0x00 
                           .data:01005440 00                               0x00 
                           .data:01005441 00                               0x00 
                           .data:01005442 00                               0x00 
                           .data:01005443 00                               0x00 
                           .data:01005444 09                               0x09 '	'
                           .data:01005445 00                               0x00 
                           .data:01005446 00                               0x00 
                           .data:01005447 00                               0x00 
                           .data:01005448 02                               0x02 
                           .data:01005449 00                               0x00 
                           .data:0100544a 00                               0x00 
                           .data:0100544b 00                               0x00 
                           .data:0100544c 00                               0x00 
                           .data:0100544d 00                               0x00 
                           .data:0100544e 00                               0x00 
                           .data:0100544f 00                               0x00 
                           .data:01005450 04                               0x04 
                           .data:01005451 00                               0x00 
                           .data:01005452 00                               0x00 
                           .data:01005453 00                               0x00 
                           .data:01005454 04                               0x04 
                           .data:01005455 00                               0x00 
                           .data:01005456 00                               0x00 
                           .data:01005457 00                               0x00 
                           .data:01005458 16                               0x16 
                           .data:01005459 00                               0x00 
                           .data:0100545a 00                               0x00 
                           .data:0100545b 00                               0x00 
                           .data:0100545c 01                               0x01 
                           .data:0100545d 00                               0x00 
                           .data:0100545e 00                               0x00 
                           .data:0100545f 00                               0x00 
                           .data:01005460 01                               0x01 
                           .data:01005461 00                               0x00 
                           .data:01005462 00                               0x00 
                           .data:01005463 00                               0x00 
                           .data:01005464 00                               0x00 
                           .data:01005465 00                               0x00 
                           .data:01005466 00                               0x00 
                           .data:01005467 00                               0x00 
                           .data:01005468 00                               0x00 
                           .data:01005469 00                               0x00 
                           .data:0100546a 00                               0x00 
                           .data:0100546b 00                               0x00 
                           .data:0100546c 00                               0x00 
                           .data:0100546d 00                               0x00 
                           .data:0100546e 00                               0x00 
                           .data:0100546f 00                               0x00 
                           .data:01005470 00                               0x00 
                           .data:01005471 00                               0x00 
                           .data:01005472 00                               0x00 
                           .data:01005473 00                               0x00 
                           .data:01005474 00                               0x00 
                           .data:01005475 00                               0x00 
                           .data:01005476 00                               0x00 
                           .data:01005477 00                               0x00 
                           .data:01005478 00                               0x00 
                           .data:01005479 00                               0x00 
                           .data:0100547a 00                               0x00 
                           .data:0100547b 00                               0x00 
                           .data:0100547c 00                               0x00 
                           .data:0100547d 00                               0x00 
                           .data:0100547e 00                               0x00 
                           .data:0100547f 00                               0x00 
                           .data:01005480 00                               0x00 
                           .data:01005481 00                               0x00 
                           .data:01005482 00                               0x00 
                           .data:01005483 00                               0x00 
                           .data:01005484 00                               0x00 
                           .data:01005485 00                               0x00 
                           .data:01005486 00                               0x00 
                           .data:01005487 00                               0x00 
                           .data:01005488 00                               0x00 
                           .data:01005489 00                               0x00 
                           .data:0100548a 00                               0x00 
                           .data:0100548b 00                               0x00 
                           .data:0100548c 00                               0x00 
                           .data:0100548d 00                               0x00 
                           .data:0100548e 00                               0x00 
                           .data:0100548f 00                               0x00 
                           .data:01005490 00                               0x00 
                           .data:01005491 00                               0x00 
                           .data:01005492 00                               0x00 
                           .data:01005493 00                               0x00 
                           .data:01005494 00                               0x00 
                           .data:01005495 00                               0x00 
                           .data:01005496 00                               0x00 
                           .data:01005497 00                               0x00 
                           .data:01005498 00                               0x00 
                           .data:01005499 00                               0x00 
                           .data:0100549a 00                               0x00 
                           .data:0100549b 00                               0x00 
                           .data:0100549c 00                               0x00 
                           .data:0100549d 00                               0x00 
                           .data:0100549e 00                               0x00 
                           .data:0100549f 00                               0x00 
                           .data:010054a0 00                               0x00 
                           .data:010054a1 00                               0x00 
                           .data:010054a2 00                               0x00 
                           .data:010054a3 00                               0x00 
                           .data:010054a4 00                               0x00 
                           .data:010054a5 00                               0x00 
                           .data:010054a6 00                               0x00 
                           .data:010054a7 00                               0x00 
                           .data:010054a8 00                               0x00 
                           .data:010054a9 00                               0x00 
                           .data:010054aa 00                               0x00 
                           .data:010054ab 00                               0x00 
                           .data:010054ac 00                               0x00 
                           .data:010054ad 00                               0x00 
                           .data:010054ae 00                               0x00 
                           .data:010054af 00                               0x00 
                           .data:010054b0 00                               0x00 
                           .data:010054b1 00                               0x00 
                           .data:010054b2 00                               0x00 
                           .data:010054b3 00                               0x00 
                           .data:010054b4 00                               0x00 
                           .data:010054b5 00                               0x00 
                           .data:010054b6 00                               0x00 
                           .data:010054b7 00                               0x00 
                           .data:010054b8 00                               0x00 
                           .data:010054b9 00                               0x00 
                           .data:010054ba 00                               0x00 
                           .data:010054bb 00                               0x00 
                           .data:010054bc 00                               0x00 
                           .data:010054bd 00                               0x00 
                           .data:010054be 00                               0x00 
                           .data:010054bf 00                               0x00 
                           .data:010054c0 00                               0x00 
                           .data:010054c1 00                               0x00 
                           .data:010054c2 00                               0x00 
                           .data:010054c3 00                               0x00 
                           .data:010054c4 00                               0x00 
                           .data:010054c5 00                               0x00 
                           .data:010054c6 00                               0x00 
                           .data:010054c7 00                               0x00 
                           .data:010054c8 00                               0x00 
                           .data:010054c9 00                               0x00 
                           .data:010054ca 00                               0x00 
                           .data:010054cb 00                               0x00 
                           .data:010054cc 00                               0x00 
                           .data:010054cd 00                               0x00 
                           .data:010054ce 00                               0x00 
                           .data:010054cf 00                               0x00 
                           .data:010054d0 00                               0x00 
                           .data:010054d1 00                               0x00 
                           .data:010054d2 00                               0x00 
                           .data:010054d3 00                               0x00 
                           .data:010054d4 00                               0x00 
                           .data:010054d5 00                               0x00 
                           .data:010054d6 00                               0x00 
                           .data:010054d7 00                               0x00 
                           .data:010054d8 00                               0x00 
                           .data:010054d9 00                               0x00 
                           .data:010054da 00                               0x00 
                           .data:010054db 00                               0x00 
                           .data:010054dc 00                               0x00 
                           .data:010054dd 00                               0x00 
                           .data:010054de 00                               0x00 
                           .data:010054df 00                               0x00 
                           .data:010054e0 00                               0x00 
                           .data:010054e1 00                               0x00 
                           .data:010054e2 00                               0x00 
                           .data:010054e3 00                               0x00 
                           .data:010054e4 00                               0x00 
                           .data:010054e5 00                               0x00 
                           .data:010054e6 00                               0x00 
                           .data:010054e7 00                               0x00 
                           .data:010054e8 00                               0x00 
                           .data:010054e9 00                               0x00 
                           .data:010054ea 00                               0x00 
                           .data:010054eb 00                               0x00 
                           .data:010054ec 00                               0x00 
                           .data:010054ed 00                               0x00 
                           .data:010054ee 00                               0x00 
                           .data:010054ef 00                               0x00 
                           .data:010054f0 00                               0x00 
                           .data:010054f1 00                               0x00 
                           .data:010054f2 00                               0x00 
                           .data:010054f3 00                               0x00 
                           .data:010054f4 00                               0x00 
                           .data:010054f5 00                               0x00 
                           .data:010054f6 00                               0x00 
                           .data:010054f7 00                               0x00 
                           .data:010054f8 00                               0x00 
                           .data:010054f9 00                               0x00 
                           .data:010054fa 00                               0x00 
                           .data:010054fb 00                               0x00 
                           .data:010054fc 00                               0x00 
                           .data:010054fd 00                               0x00 
                           .data:010054fe 00                               0x00 
                           .data:010054ff 00                               0x00 
                           .data:01005500 00                               0x00 
                           .data:01005501 00                               0x00 
                           .data:01005502 00                               0x00 
                           .data:01005503 00                               0x00 
                           .data:01005504 00                               0x00 
                           .data:01005505 00                               0x00 
                           .data:01005506 00                               0x00 
                           .data:01005507 00                               0x00 
                           .data:01005508 00                               0x00 
                           .data:01005509 00                               0x00 
                           .data:0100550a 00                               0x00 
                           .data:0100550b 00                               0x00 
                           .data:0100550c 00                               0x00 
                           .data:0100550d 00                               0x00 
                           .data:0100550e 00                               0x00 
                           .data:0100550f 00                               0x00 
                           .data:01005510 00                               0x00 
                           .data:01005511 00                               0x00 
                           .data:01005512 00                               0x00 
                           .data:01005513 00                               0x00 
                           .data:01005514 00                               0x00 
                           .data:01005515 00                               0x00 
                           .data:01005516 00                               0x00 
                           .data:01005517 00                               0x00 
                           .data:01005518 00                               0x00 
                           .data:01005519 00                               0x00 
                           .data:0100551a 00                               0x00 
                           .data:0100551b 00                               0x00 
                           .data:0100551c 09                               0x09 '	'
                           .data:0100551d 00                               0x00 
                           .data:0100551e 00                               0x00 
                           .data:0100551f 00                               0x00 
                           .data:01005520 02                               0x02 
                           .data:01005521 00                               0x00 
                           .data:01005522 00                               0x00 
                           .data:01005523 00                               0x00 
                           .data:01005524 00                               0x00 
                           .data:01005525 00                               0x00 
                           .data:01005526 00                               0x00 
                           .data:01005527 00                               0x00 
                           .data:01005528 02                               0x02 
                           .data:01005529 00                               0x00 
                           .data:0100552a 00                               0x00 
                           .data:0100552b 00                               0x00 
                           .data:0100552c 05                               0x05 
                           .data:0100552d 00                               0x00 
                           .data:0100552e 00                               0x00 
                           .data:0100552f 00                               0x00 
                           .data:01005530 01                               0x01 
                           .data:01005531 00                               0x00 
                           .data:01005532 00                               0x00 
                           .data:01005533 00                               0x00 
                           .data:01005534 00                               0x00 
                           .data:01005535 00                               0x00 
                           .data:01005536 00                               0x00 
                           .data:01005537 00                               0x00 
                           .data:01005538 00                               0x00 
                           .data:01005539 00                               0x00 
                           .data:0100553a 00                               0x00 
                           .data:0100553b 00                               0x00 
                           .data:0100553c 00                               0x00 
                           .data:0100553d 00                               0x00 
                           .data:0100553e 00                               0x00 
                           .data:0100553f 00                               0x00 
                           .data:01005540 00                               0x00 
                           .data:01005541 00                               0x00 
                           .data:01005542 00                               0x00 
                           .data:01005543 00                               0x00 
                           .data:01005544 00                               0x00 
                           .data:01005545 00                               0x00 
                           .data:01005546 00                               0x00 
                           .data:01005547 00                               0x00 
                           .data:01005548 00                               0x00 
                           .data:01005549 00                               0x00 
                           .data:0100554a 00                               0x00 
                           .data:0100554b 00                               0x00 
                           .data:0100554c 00                               0x00 
                           .data:0100554d 00                               0x00 
                           .data:0100554e 00                               0x00 
                           .data:0100554f 00                               0x00 
                           .data:01005550 00                               0x00 
                           .data:01005551 00                               0x00 
                           .data:01005552 00                               0x00 
                           .data:01005553 00                               0x00 
                           .data:01005554 00                               0x00 
                           .data:01005555 00                               0x00 
                           .data:01005556 00                               0x00 
                           .data:01005557 00                               0x00 
                           .data:01005558 00                               0x00 
                           .data:01005559 00                               0x00 
                           .data:0100555a 00                               0x00 
                           .data:0100555b 00                               0x00 
                           .data:0100555c 00                               0x00 
                           .data:0100555d 00                               0x00 
                           .data:0100555e 00                               0x00 
                           .data:0100555f 00                               0x00 
                           .data:01005560 00                               0x00 
                           .data:01005561 00                               0x00 
                           .data:01005562 00                               0x00 
                           .data:01005563 00                               0x00 
                           .data:01005564 00                               0x00 
                           .data:01005565 00                               0x00 
                           .data:01005566 00                               0x00 
                           .data:01005567 00                               0x00 
                           .data:01005568 00                               0x00 
                           .data:01005569 00                               0x00 
                           .data:0100556a 00                               0x00 
                           .data:0100556b 00                               0x00 
                           .data:0100556c 00                               0x00 
                           .data:0100556d 00                               0x00 
                           .data:0100556e 00                               0x00 
                           .data:0100556f 00                               0x00 
                           .data:01005570 00                               0x00 
                           .data:01005571 00                               0x00 
                           .data:01005572 00                               0x00 
                           .data:01005573 00                               0x00 
                           .data:01005574 00                               0x00 
                           .data:01005575 00                               0x00 
                           .data:01005576 00                               0x00 
                           .data:01005577 00                               0x00 
                           .data:01005578 00                               0x00 
                           .data:01005579 00                               0x00 
                           .data:0100557a 00                               0x00 
                           .data:0100557b 00                               0x00 
                           .data:0100557c 00                               0x00 
                           .data:0100557d 00                               0x00 
                           .data:0100557e 00                               0x00 
                           .data:0100557f 00                               0x00 
                           .data:01005580 00                               0x00 
                           .data:01005581 00                               0x00 
                           .data:01005582 00                               0x00 
                           .data:01005583 00                               0x00 
                           .data:01005584 00                               0x00 
                           .data:01005585 00                               0x00 
                           .data:01005586 00                               0x00 
                           .data:01005587 00                               0x00 
                           .data:01005588 00                               0x00 
                           .data:01005589 00                               0x00 
                           .data:0100558a 00                               0x00 
                           .data:0100558b 00                               0x00 
                           .data:0100558c 00                               0x00 
                           .data:0100558d 00                               0x00 
                           .data:0100558e 00                               0x00 
                           .data:0100558f 00                               0x00 
                           .data:01005590 00                               0x00 
                           .data:01005591 00                               0x00 
                           .data:01005592 00                               0x00 
                           .data:01005593 00                               0x00 
                           .data:01005594 00                               0x00 
                           .data:01005595 00                               0x00 
                           .data:01005596 00                               0x00 
                           .data:01005597 00                               0x00 
                           .data:01005598 00                               0x00 
                           .data:01005599 00                               0x00 
                           .data:0100559a 00                               0x00 
                           .data:0100559b 00                               0x00 
                           .data:0100559c 00                               0x00 
                           .data:0100559d 00                               0x00 
                           .data:0100559e 00                               0x00 
                           .data:0100559f 00                               0x00 
                           .data:010055a0 00                               0x00 
                           .data:010055a1 00                               0x00 
                           .data:010055a2 00                               0x00 
                           .data:010055a3 00                               0x00 
                           .data:010055a4 00                               0x00 
                           .data:010055a5 00                               0x00 
                           .data:010055a6 00                               0x00 
                           .data:010055a7 00                               0x00 
                           .data:010055a8 00                               0x00 
                           .data:010055a9 00                               0x00 
                           .data:010055aa 00                               0x00 
                           .data:010055ab 00                               0x00 
                           .data:010055ac 00                               0x00 
                           .data:010055ad 00                               0x00 
                           .data:010055ae 00                               0x00 
                           .data:010055af 00                               0x00 
                           .data:010055b0 00                               0x00 
                           .data:010055b1 00                               0x00 
                           .data:010055b2 00                               0x00 
                           .data:010055b3 00                               0x00 
                           .data:010055b4 00                               0x00 
                           .data:010055b5 00                               0x00 
                           .data:010055b6 00                               0x00 
                           .data:010055b7 00                               0x00 
                           .data:010055b8 00                               0x00 
                           .data:010055b9 00                               0x00 
                           .data:010055ba 00                               0x00 
                           .data:010055bb 00                               0x00 
                           .data:010055bc 00                               0x00 
                           .data:010055bd 00                               0x00 
                           .data:010055be 00                               0x00 
                           .data:010055bf 00                               0x00 
                           .data:010055c0 00                               0x00 
                           .data:010055c1 00                               0x00 
                           .data:010055c2 00                               0x00 
                           .data:010055c3 00                               0x00 
                           .data:010055c4 00                               0x00 
                           .data:010055c5 00                               0x00 
                           .data:010055c6 00                               0x00 
                           .data:010055c7 00                               0x00 
                           .data:010055c8 00                               0x00 
                           .data:010055c9 00                               0x00 
                           .data:010055ca 00                               0x00 
                           .data:010055cb 00                               0x00 
                           .data:010055cc 00                               0x00 
                           .data:010055cd 00                               0x00 
                           .data:010055ce 00                               0x00 
                           .data:010055cf 00                               0x00 
                           .data:010055d0 00                               0x00 
                           .data:010055d1 00                               0x00 
                           .data:010055d2 00                               0x00 
                           .data:010055d3 00                               0x00 
                           .data:010055d4 00                               0x00 
                           .data:010055d5 00                               0x00 
                           .data:010055d6 00                               0x00 
                           .data:010055d7 00                               0x00 
                           .data:010055d8 00                               0x00 
                           .data:010055d9 00                               0x00 
                           .data:010055da 00                               0x00 
                           .data:010055db 00                               0x00 
                           .data:010055dc 00                               0x00 
                           .data:010055dd 00                               0x00 
                           .data:010055de 00                               0x00 
                           .data:010055df 00                               0x00 
                           .data:010055e0 00                               0x00 
                           .data:010055e1 00                               0x00 
                           .data:010055e2 00                               0x00 
                           .data:010055e3 00                               0x00 
                           .data:010055e4 00                               0x00 
                           .data:010055e5 00                               0x00 
                           .data:010055e6 00                               0x00 
                           .data:010055e7 00                               0x00 
                           .data:010055e8 00                               0x00 
                           .data:010055e9 00                               0x00 
                           .data:010055ea 00                               0x00 
                           .data:010055eb 00                               0x00 
                           .data:010055ec 00                               0x00 
                           .data:010055ed 00                               0x00 
                           .data:010055ee 00                               0x00 
                           .data:010055ef 00                               0x00 
                           .data:010055f0 00                               0x00 
                           .data:010055f1 00                               0x00 
                           .data:010055f2 00                               0x00 
                           .data:010055f3 00                               0x00 
                           .data:010055f4 07                               0x07 
                           .data:010055f5 00                               0x00 
                           .data:010055f6 00                               0x00 
                           .data:010055f7 00                               0x00 
                           .data:010055f8 01                               0x01 
                           .data:010055f9 00                               0x00 
                           .data:010055fa 00                               0x00 
                           .data:010055fb 00                               0x00 
                           .data:010055fc 00                               0x00 
                           .data:010055fd 00                               0x00 
                           .data:010055fe 00                               0x00 
                           .data:010055ff 00                               0x00 
                           .data:01005600 04                               0x04 
                           .data:01005601 00                               0x00 
                           .data:01005602 00                               0x00 
                           .data:01005603 00                               0x00 
                           .data:01005604 06                               0x06 
                           .data:01005605 00                               0x00 
                           .data:01005606 00                               0x00 
                           .data:01005607 00                               0x00 
                           .data:01005608 0d                               0x0d ''
                           .data:01005609 00                               0x00 
                           .data:0100560a 00                               0x00 
                           .data:0100560b 00                               0x00 
                           .data:0100560c 01                               0x01 
                           .data:0100560d 00                               0x00 
                           .data:0100560e 00                               0x00 
                           .data:0100560f 00                               0x00 
                           .data:01005610 01                               0x01 
                           .data:01005611 00                               0x00 
                           .data:01005612 00                               0x00 
                           .data:01005613 00                               0x00 
                           .data:01005614 00                               0x00 
                           .data:01005615 00                               0x00 
                           .data:01005616 00                               0x00 
                           .data:01005617 00                               0x00 
                           .data:01005618 00                               0x00 
                           .data:01005619 00                               0x00 
                           .data:0100561a 00                               0x00 
                           .data:0100561b 00                               0x00 
                           .data:0100561c 00                               0x00 
                           .data:0100561d 00                               0x00 
                           .data:0100561e 00                               0x00 
                           .data:0100561f 00                               0x00 
                           .data:01005620 00                               0x00 
                           .data:01005621 00                               0x00 
                           .data:01005622 00                               0x00 
                           .data:01005623 00                               0x00 
                           .data:01005624 00                               0x00 
                           .data:01005625 00                               0x00 
                           .data:01005626 00                               0x00 
                           .data:01005627 00                               0x00 
                           .data:01005628 00                               0x00 
                           .data:01005629 00                               0x00 
                           .data:0100562a 00                               0x00 
                           .data:0100562b 00                               0x00 
                           .data:0100562c 00                               0x00 
                           .data:0100562d 00                               0x00 
                           .data:0100562e 00                               0x00 
                           .data:0100562f 00                               0x00 
                           .data:01005630 00                               0x00 
                           .data:01005631 00                               0x00 
                           .data:01005632 00                               0x00 
                           .data:01005633 00                               0x00 
                           .data:01005634 00                               0x00 
                           .data:01005635 00                               0x00 
                           .data:01005636 00                               0x00 
                           .data:01005637 00                               0x00 
                           .data:01005638 00                               0x00 
                           .data:01005639 00                               0x00 
                           .data:0100563a 00                               0x00 
                           .data:0100563b 00                               0x00 
                           .data:0100563c 00                               0x00 
                           .data:0100563d 00                               0x00 
                           .data:0100563e 00                               0x00 
                           .data:0100563f 00                               0x00 
                           .data:01005640 00                               0x00 
                           .data:01005641 00                               0x00 
                           .data:01005642 00                               0x00 
                           .data:01005643 00                               0x00 
                           .data:01005644 00                               0x00 
                           .data:01005645 00                               0x00 
                           .data:01005646 00                               0x00 
                           .data:01005647 00                               0x00 
                           .data:01005648 00                               0x00 
                           .data:01005649 00                               0x00 
                           .data:0100564a 00                               0x00 
                           .data:0100564b 00                               0x00 
                           .data:0100564c 00                               0x00 
                           .data:0100564d 00                               0x00 
                           .data:0100564e 00                               0x00 
                           .data:0100564f 00                               0x00 
                           .data:01005650 00                               0x00 
                           .data:01005651 00                               0x00 
                           .data:01005652 00                               0x00 
                           .data:01005653 00                               0x00 
                           .data:01005654 00                               0x00 
                           .data:01005655 00                               0x00 
                           .data:01005656 00                               0x00 
                           .data:01005657 00                               0x00 
                           .data:01005658 00                               0x00 
                           .data:01005659 00                               0x00 
                           .data:0100565a 00                               0x00 
                           .data:0100565b 00                               0x00 
                           .data:0100565c 00                               0x00 
                           .data:0100565d 00                               0x00 
                           .data:0100565e 00                               0x00 
                           .data:0100565f 00                               0x00 
                           .data:01005660 00                               0x00 
                           .data:01005661 00                               0x00 
                           .data:01005662 00                               0x00 
                           .data:01005663 00                               0x00 
                           .data:01005664 00                               0x00 
                           .data:01005665 00                               0x00 
                           .data:01005666 00                               0x00 
                           .data:01005667 00                               0x00 
                           .data:01005668 00                               0x00 
                           .data:01005669 00                               0x00 
                           .data:0100566a 00                               0x00 
                           .data:0100566b 00                               0x00 
                           .data:0100566c 00                               0x00 
                           .data:0100566d 00                               0x00 
                           .data:0100566e 00                               0x00 
                           .data:0100566f 00                               0x00 
                           .data:01005670 00                               0x00 
                           .data:01005671 00                               0x00 
                           .data:01005672 00                               0x00 
                           .data:01005673 00                               0x00 
                           .data:01005674 00                               0x00 
                           .data:01005675 00                               0x00 
                           .data:01005676 00                               0x00 
                           .data:01005677 00                               0x00 
                           .data:01005678 00                               0x00 
                           .data:01005679 00                               0x00 
                           .data:0100567a 00                               0x00 
                           .data:0100567b 00                               0x00 
                           .data:0100567c 00                               0x00 
                           .data:0100567d 00                               0x00 
                           .data:0100567e 00                               0x00 
                           .data:0100567f 00                               0x00 
                           .data:01005680 00                               0x00 
                           .data:01005681 00                               0x00 
                           .data:01005682 00                               0x00 
                           .data:01005683 00                               0x00 
                           .data:01005684 00                               0x00 
                           .data:01005685 00                               0x00 
                           .data:01005686 00                               0x00 
                           .data:01005687 00                               0x00 
                           .data:01005688 00                               0x00 
                           .data:01005689 00                               0x00 
                           .data:0100568a 00                               0x00 
                           .data:0100568b 00                               0x00 
                           .data:0100568c 00                               0x00 
                           .data:0100568d 00                               0x00 
                           .data:0100568e 00                               0x00 
                           .data:0100568f 00                               0x00 
                           .data:01005690 00                               0x00 
                           .data:01005691 00                               0x00 
                           .data:01005692 00                               0x00 
                           .data:01005693 00                               0x00 
                           .data:01005694 00                               0x00 
                           .data:01005695 00                               0x00 
                           .data:01005696 00                               0x00 
                           .data:01005697 00                               0x00 
                           .data:01005698 00                               0x00 
                           .data:01005699 00                               0x00 
                           .data:0100569a 00                               0x00 
                           .data:0100569b 00                               0x00 
                           .data:0100569c 00                               0x00 
                           .data:0100569d 00                               0x00 
                           .data:0100569e 00                               0x00 
                           .data:0100569f 00                               0x00 
                           .data:010056a0 00                               0x00 
                           .data:010056a1 00                               0x00 
                           .data:010056a2 00                               0x00 
                           .data:010056a3 00                               0x00 
                           .data:010056a4 00                               0x00 
                           .data:010056a5 00                               0x00 
                           .data:010056a6 00                               0x00 
                           .data:010056a7 00                               0x00 
                           .data:010056a8 00                               0x00 
                           .data:010056a9 00                               0x00 
                           .data:010056aa 00                               0x00 
                           .data:010056ab 00                               0x00 
                           .data:010056ac 00                               0x00 
                           .data:010056ad 00                               0x00 
                           .data:010056ae 00                               0x00 
                           .data:010056af 00                               0x00 
                           .data:010056b0 00                               0x00 
                           .data:010056b1 00                               0x00 
                           .data:010056b2 00                               0x00 
                           .data:010056b3 00                               0x00 
                           .data:010056b4 00                               0x00 
                           .data:010056b5 00                               0x00 
                           .data:010056b6 00                               0x00 
                           .data:010056b7 00                               0x00 
                           .data:010056b8 00                               0x00 
                           .data:010056b9 00                               0x00 
                           .data:010056ba 00                               0x00 
                           .data:010056bb 00                               0x00 
                           .data:010056bc 00                               0x00 
                           .data:010056bd 00                               0x00 
                           .data:010056be 00                               0x00 
                           .data:010056bf 00                               0x00 
                           .data:010056c0 00                               0x00 
                           .data:010056c1 00                               0x00 
                           .data:010056c2 00                               0x00 
                           .data:010056c3 00                               0x00 
                           .data:010056c4 00                               0x00 
                           .data:010056c5 00                               0x00 
                           .data:010056c6 00                               0x00 
                           .data:010056c7 00                               0x00 
                           .data:010056c8 00                               0x00 
                           .data:010056c9 00                               0x00 
                           .data:010056ca 00                               0x00 
                           .data:010056cb 00                               0x00 
                           .data:010056cc 09                               0x09 '	'
                           .data:010056cd 00                               0x00 
                           .data:010056ce 00                               0x00 
                           .data:010056cf 00                               0x00 
                           .data:010056d0 02                               0x02 
                           .data:010056d1 00                               0x00 
                           .data:010056d2 00                               0x00 
                           .data:010056d3 00                               0x00 
                           .data:010056d4 00                               0x00 
                           .data:010056d5 00                               0x00 
                           .data:010056d6 00                               0x00 
                           .data:010056d7 00                               0x00 
                           .data:010056d8 04                               0x04 
                           .data:010056d9 00                               0x00 
                           .data:010056da 00                               0x00 
                           .data:010056db 00                               0x00 
                           .data:010056dc 07                               0x07 
                           .data:010056dd 00                               0x00 
                           .data:010056de 00                               0x00 
                           .data:010056df 00                               0x00 
                           .data:010056e0 05                               0x05 
                           .data:010056e1 00                               0x00 
                           .data:010056e2 00                               0x00 
                           .data:010056e3 00                               0x00 
                           .data:010056e4 01                               0x01 
                           .data:010056e5 00                               0x00 
                           .data:010056e6 00                               0x00 
                           .data:010056e7 00                               0x00 
                           .data:010056e8 01                               0x01 
                           .data:010056e9 00                               0x00 
                           .data:010056ea 00                               0x00 
                           .data:010056eb 00                               0x00 
                           .data:010056ec 00                               0x00 
                           .data:010056ed 00                               0x00 
                           .data:010056ee 00                               0x00 
                           .data:010056ef 00                               0x00 
                           .data:010056f0 00                               0x00 
                           .data:010056f1 00                               0x00 
                           .data:010056f2 00                               0x00 
                           .data:010056f3 00                               0x00 
                           .data:010056f4 00                               0x00 
                           .data:010056f5 00                               0x00 
                           .data:010056f6 00                               0x00 
                           .data:010056f7 00                               0x00 
                           .data:010056f8 00                               0x00 
                           .data:010056f9 00                               0x00 
                           .data:010056fa 00                               0x00 
                           .data:010056fb 00                               0x00 
                           .data:010056fc 00                               0x00 
                           .data:010056fd 00                               0x00 
                           .data:010056fe 00                               0x00 
                           .data:010056ff 00                               0x00 
                           .data:01005700 00                               0x00 
                           .data:01005701 00                               0x00 
                           .data:01005702 00                               0x00 
                           .data:01005703 00                               0x00 
                           .data:01005704 00                               0x00 
                           .data:01005705 00                               0x00 
                           .data:01005706 00                               0x00 
                           .data:01005707 00                               0x00 
                           .data:01005708 00                               0x00 
                           .data:01005709 00                               0x00 
                           .data:0100570a 00                               0x00 
                           .data:0100570b 00                               0x00 
                           .data:0100570c 00                               0x00 
                           .data:0100570d 00                               0x00 
                           .data:0100570e 00                               0x00 
                           .data:0100570f 00                               0x00 
                           .data:01005710 00                               0x00 
                           .data:01005711 00                               0x00 
                           .data:01005712 00                               0x00 
                           .data:01005713 00                               0x00 
                           .data:01005714 00                               0x00 
                           .data:01005715 00                               0x00 
                           .data:01005716 00                               0x00 
                           .data:01005717 00                               0x00 
                           .data:01005718 00                               0x00 
                           .data:01005719 00                               0x00 
                           .data:0100571a 00                               0x00 
                           .data:0100571b 00                               0x00 
                           .data:0100571c 00                               0x00 
                           .data:0100571d 00                               0x00 
                           .data:0100571e 00                               0x00 
                           .data:0100571f 00                               0x00 
                           .data:01005720 00                               0x00 
                           .data:01005721 00                               0x00 
                           .data:01005722 00                               0x00 
                           .data:01005723 00                               0x00 
                           .data:01005724 00                               0x00 
                           .data:01005725 00                               0x00 
                           .data:01005726 00                               0x00 
                           .data:01005727 00                               0x00 
                           .data:01005728 00                               0x00 
                           .data:01005729 00                               0x00 
                           .data:0100572a 00                               0x00 
                           .data:0100572b 00                               0x00 
                           .data:0100572c 00                               0x00 
                           .data:0100572d 00                               0x00 
                           .data:0100572e 00                               0x00 
                           .data:0100572f 00                               0x00 
                           .data:01005730 00                               0x00 
                           .data:01005731 00                               0x00 
                           .data:01005732 00                               0x00 
                           .data:01005733 00                               0x00 
                           .data:01005734 00                               0x00 
                           .data:01005735 00                               0x00 
                           .data:01005736 00                               0x00 
                           .data:01005737 00                               0x00 
                           .data:01005738 00                               0x00 
                           .data:01005739 00                               0x00 
                           .data:0100573a 00                               0x00 
                           .data:0100573b 00                               0x00 
                           .data:0100573c 00                               0x00 
                           .data:0100573d 00                               0x00 
                           .data:0100573e 00                               0x00 
                           .data:0100573f 00                               0x00 
                           .data:01005740 00                               0x00 
                           .data:01005741 00                               0x00 
                           .data:01005742 00                               0x00 
                           .data:01005743 00                               0x00 
                           .data:01005744 00                               0x00 
                           .data:01005745 00                               0x00 
                           .data:01005746 00                               0x00 
                           .data:01005747 00                               0x00 
                           .data:01005748 00                               0x00 
                           .data:01005749 00                               0x00 
                           .data:0100574a 00                               0x00 
                           .data:0100574b 00                               0x00 
                           .data:0100574c 00                               0x00 
                           .data:0100574d 00                               0x00 
                           .data:0100574e 00                               0x00 
                           .data:0100574f 00                               0x00 
                           .data:01005750 00                               0x00 
                           .data:01005751 00                               0x00 
                           .data:01005752 00                               0x00 
                           .data:01005753 00                               0x00 
                           .data:01005754 00                               0x00 
                           .data:01005755 00                               0x00 
                           .data:01005756 00                               0x00 
                           .data:01005757 00                               0x00 
                           .data:01005758 00                               0x00 
                           .data:01005759 00                               0x00 
                           .data:0100575a 00                               0x00 
                           .data:0100575b 00                               0x00 
                           .data:0100575c 00                               0x00 
                           .data:0100575d 00                               0x00 
                           .data:0100575e 00                               0x00 
                           .data:0100575f 00                               0x00 
                           .data:01005760 00                               0x00 
                           .data:01005761 00                               0x00 
                           .data:01005762 00                               0x00 
                           .data:01005763 00                               0x00 
                           .data:01005764 00                               0x00 
                           .data:01005765 00                               0x00 
                           .data:01005766 00                               0x00 
                           .data:01005767 00                               0x00 
                           .data:01005768 00                               0x00 
                           .data:01005769 00                               0x00 
                           .data:0100576a 00                               0x00 
                           .data:0100576b 00                               0x00 
                           .data:0100576c 00                               0x00 
                           .data:0100576d 00                               0x00 
                           .data:0100576e 00                               0x00 
                           .data:0100576f 00                               0x00 
                           .data:01005770 00                               0x00 
                           .data:01005771 00                               0x00 
                           .data:01005772 00                               0x00 
                           .data:01005773 00                               0x00 
                           .data:01005774 00                               0x00 
                           .data:01005775 00                               0x00 
                           .data:01005776 00                               0x00 
                           .data:01005777 00                               0x00 
                           .data:01005778 00                               0x00 
                           .data:01005779 00                               0x00 
                           .data:0100577a 00                               0x00 
                           .data:0100577b 00                               0x00 
                           .data:0100577c 00                               0x00 
                           .data:0100577d 00                               0x00 
                           .data:0100577e 00                               0x00 
                           .data:0100577f 00                               0x00 
                           .data:01005780 00                               0x00 
                           .data:01005781 00                               0x00 
                           .data:01005782 00                               0x00 
                           .data:01005783 00                               0x00 
                           .data:01005784 00                               0x00 
                           .data:01005785 00                               0x00 
                           .data:01005786 00                               0x00 
                           .data:01005787 00                               0x00 
                           .data:01005788 00                               0x00 
                           .data:01005789 00                               0x00 
                           .data:0100578a 00                               0x00 
                           .data:0100578b 00                               0x00 
                           .data:0100578c 00                               0x00 
                           .data:0100578d 00                               0x00 
                           .data:0100578e 00                               0x00 
                           .data:0100578f 00                               0x00 
                           .data:01005790 00                               0x00 
                           .data:01005791 00                               0x00 
                           .data:01005792 00                               0x00 
                           .data:01005793 00                               0x00 
                           .data:01005794 00                               0x00 
                           .data:01005795 00                               0x00 
                           .data:01005796 00                               0x00 
                           .data:01005797 00                               0x00 
                           .data:01005798 00                               0x00 
                           .data:01005799 00                               0x00 
                           .data:0100579a 00                               0x00 
                           .data:0100579b 00                               0x00 
                           .data:0100579c 00                               0x00 
                           .data:0100579d 00                               0x00 
                           .data:0100579e 00                               0x00 
                           .data:0100579f 00                               0x00 
                           .data:010057a0 00                               0x00 
                           .data:010057a1 00                               0x00 
                           .data:010057a2 00                               0x00 
                           .data:010057a3 00                               0x00 
                           .data:010057a4 09                               0x09 '	'
                           .data:010057a5 00                               0x00 
                           .data:010057a6 00                               0x00 
                           .data:010057a7 00                               0x00 
                           .data:010057a8 02                               0x02 
                           .data:010057a9 00                               0x00 
                           .data:010057aa 00                               0x00 
                           .data:010057ab 00                               0x00 
                           .data:010057ac 00                               0x00 
                           .data:010057ad 00                               0x00 
                           .data:010057ae 00                               0x00 
                           .data:010057af 00                               0x00 
                           .data:010057b0 04                               0x04 
                           .data:010057b1 00                               0x00 
                           .data:010057b2 00                               0x00 
                           .data:010057b3 00                               0x00 
                           .data:010057b4 06                               0x06 
                           .data:010057b5 00                               0x00 
                           .data:010057b6 00                               0x00 
                           .data:010057b7 00                               0x00 
                           .data:010057b8 13                               0x13 
                           .data:010057b9 00                               0x00 
                           .data:010057ba 00                               0x00 
                           .data:010057bb 00                               0x00 
                           .data:010057bc 01                               0x01 
                           .data:010057bd 00                               0x00 
                           .data:010057be 00                               0x00 
                           .data:010057bf 00                               0x00 
                           .data:010057c0 01                               0x01 
                           .data:010057c1 00                               0x00 
                           .data:010057c2 00                               0x00 
                           .data:010057c3 00                               0x00 
                           .data:010057c4 00                               0x00 
                           .data:010057c5 00                               0x00 
                           .data:010057c6 00                               0x00 
                           .data:010057c7 00                               0x00 
                           .data:010057c8 00                               0x00 
                           .data:010057c9 00                               0x00 
                           .data:010057ca 00                               0x00 
                           .data:010057cb 00                               0x00 
                           .data:010057cc 00                               0x00 
                           .data:010057cd 00                               0x00 
                           .data:010057ce 00                               0x00 
                           .data:010057cf 00                               0x00 
                           .data:010057d0 00                               0x00 
                           .data:010057d1 00                               0x00 
                           .data:010057d2 00                               0x00 
                           .data:010057d3 00                               0x00 
                           .data:010057d4 00                               0x00 
                           .data:010057d5 00                               0x00 
                           .data:010057d6 00                               0x00 
                           .data:010057d7 00                               0x00 
                           .data:010057d8 00                               0x00 
                           .data:010057d9 00                               0x00 
                           .data:010057da 00                               0x00 
                           .data:010057db 00                               0x00 
                           .data:010057dc 00                               0x00 
                           .data:010057dd 00                               0x00 
                           .data:010057de 00                               0x00 
                           .data:010057df 00                               0x00 
                           .data:010057e0 00                               0x00 
                           .data:010057e1 00                               0x00 
                           .data:010057e2 00                               0x00 
                           .data:010057e3 00                               0x00 
                           .data:010057e4 00                               0x00 
                           .data:010057e5 00                               0x00 
                           .data:010057e6 00                               0x00 
                           .data:010057e7 00                               0x00 
                           .data:010057e8 00                               0x00 
                           .data:010057e9 00                               0x00 
                           .data:010057ea 00                               0x00 
                           .data:010057eb 00                               0x00 
                           .data:010057ec 00                               0x00 
                           .data:010057ed 00                               0x00 
                           .data:010057ee 00                               0x00 
                           .data:010057ef 00                               0x00 
                           .data:010057f0 00                               0x00 
                           .data:010057f1 00                               0x00 
                           .data:010057f2 00                               0x00 
                           .data:010057f3 00                               0x00 
                           .data:010057f4 00                               0x00 
                           .data:010057f5 00                               0x00 
                           .data:010057f6 00                               0x00 
                           .data:010057f7 00                               0x00 
                           .data:010057f8 00                               0x00 
                           .data:010057f9 00                               0x00 
                           .data:010057fa 00                               0x00 
                           .data:010057fb 00                               0x00 
                           .data:010057fc 00                               0x00 
                           .data:010057fd 00                               0x00 
                           .data:010057fe 00                               0x00 
                           .data:010057ff 00                               0x00 
                           .data:01005800 00                               0x00 
                           .data:01005801 00                               0x00 
                           .data:01005802 00                               0x00 
                           .data:01005803 00                               0x00 
                           .data:01005804 00                               0x00 
                           .data:01005805 00                               0x00 
                           .data:01005806 00                               0x00 
                           .data:01005807 00                               0x00 
                           .data:01005808 00                               0x00 
                           .data:01005809 00                               0x00 
                           .data:0100580a 00                               0x00 
                           .data:0100580b 00                               0x00 
                           .data:0100580c 00                               0x00 
                           .data:0100580d 00                               0x00 
                           .data:0100580e 00                               0x00 
                           .data:0100580f 00                               0x00 
                           .data:01005810 00                               0x00 
                           .data:01005811 00                               0x00 
                           .data:01005812 00                               0x00 
                           .data:01005813 00                               0x00 
                           .data:01005814 00                               0x00 
                           .data:01005815 00                               0x00 
                           .data:01005816 00                               0x00 
                           .data:01005817 00                               0x00 
                           .data:01005818 00                               0x00 
                           .data:01005819 00                               0x00 
                           .data:0100581a 00                               0x00 
                           .data:0100581b 00                               0x00 
                           .data:0100581c 00                               0x00 
                           .data:0100581d 00                               0x00 
                           .data:0100581e 00                               0x00 
                           .data:0100581f 00                               0x00 
                           .data:01005820 00                               0x00 
                           .data:01005821 00                               0x00 
                           .data:01005822 00                               0x00 
                           .data:01005823 00                               0x00 
                           .data:01005824 00                               0x00 
                           .data:01005825 00                               0x00 
                           .data:01005826 00                               0x00 
                           .data:01005827 00                               0x00 
                           .data:01005828 00                               0x00 
                           .data:01005829 00                               0x00 
                           .data:0100582a 00                               0x00 
                           .data:0100582b 00                               0x00 
                           .data:0100582c 00                               0x00 
                           .data:0100582d 00                               0x00 
                           .data:0100582e 00                               0x00 
                           .data:0100582f 00                               0x00 
                           .data:01005830 00                               0x00 
                           .data:01005831 00                               0x00 
                           .data:01005832 00                               0x00 
                           .data:01005833 00                               0x00 
                           .data:01005834 00                               0x00 
                           .data:01005835 00                               0x00 
                           .data:01005836 00                               0x00 
                           .data:01005837 00                               0x00 
                           .data:01005838 00                               0x00 
                           .data:01005839 00                               0x00 
                           .data:0100583a 00                               0x00 
                           .data:0100583b 00                               0x00 
                           .data:0100583c 00                               0x00 
                           .data:0100583d 00                               0x00 
                           .data:0100583e 00                               0x00 
                           .data:0100583f 00                               0x00 
                           .data:01005840 00                               0x00 
                           .data:01005841 00                               0x00 
                           .data:01005842 00                               0x00 
                           .data:01005843 00                               0x00 
                           .data:01005844 00                               0x00 
                           .data:01005845 00                               0x00 
                           .data:01005846 00                               0x00 
                           .data:01005847 00                               0x00 
                           .data:01005848 00                               0x00 
                           .data:01005849 00                               0x00 
                           .data:0100584a 00                               0x00 
                           .data:0100584b 00                               0x00 
                           .data:0100584c 00                               0x00 
                           .data:0100584d 00                               0x00 
                           .data:0100584e 00                               0x00 
                           .data:0100584f 00                               0x00 
                           .data:01005850 00                               0x00 
                           .data:01005851 00                               0x00 
                           .data:01005852 00                               0x00 
                           .data:01005853 00                               0x00 
                           .data:01005854 00                               0x00 
                           .data:01005855 00                               0x00 
                           .data:01005856 00                               0x00 
                           .data:01005857 00                               0x00 
                           .data:01005858 00                               0x00 
                           .data:01005859 00                               0x00 
                           .data:0100585a 00                               0x00 
                           .data:0100585b 00                               0x00 
                           .data:0100585c 00                               0x00 
                           .data:0100585d 00                               0x00 
                           .data:0100585e 00                               0x00 
                           .data:0100585f 00                               0x00 
                           .data:01005860 00                               0x00 
                           .data:01005861 00                               0x00 
                           .data:01005862 00                               0x00 
                           .data:01005863 00                               0x00 
                           .data:01005864 00                               0x00 
                           .data:01005865 00                               0x00 
                           .data:01005866 00                               0x00 
                           .data:01005867 00                               0x00 
                           .data:01005868 00                               0x00 
                           .data:01005869 00                               0x00 
                           .data:0100586a 00                               0x00 
                           .data:0100586b 00                               0x00 
                           .data:0100586c 00                               0x00 
                           .data:0100586d 00                               0x00 
                           .data:0100586e 00                               0x00 
                           .data:0100586f 00                               0x00 
                           .data:01005870 00                               0x00 
                           .data:01005871 00                               0x00 
                           .data:01005872 00                               0x00 
                           .data:01005873 00                               0x00 
                           .data:01005874 00                               0x00 
                           .data:01005875 00                               0x00 
                           .data:01005876 00                               0x00 
                           .data:01005877 00                               0x00 
                           .data:01005878 00                               0x00 
                           .data:01005879 00                               0x00 
                           .data:0100587a 00                               0x00 
                           .data:0100587b 00                               0x00 
                           .data:0100587c 09                               0x09 '	'
                           .data:0100587d 00                               0x00 
                           .data:0100587e 00                               0x00 
                           .data:0100587f 00                               0x00 
                           .data:01005880 02                               0x02 
                           .data:01005881 00                               0x00 
                           .data:01005882 00                               0x00 
                           .data:01005883 00                               0x00 
                           .data:01005884 00                               0x00 
                           .data:01005885 00                               0x00 
                           .data:01005886 00                               0x00 
                           .data:01005887 00                               0x00 
                           .data:01005888 04                               0x04 
                           .data:01005889 00                               0x00 
                           .data:0100588a 00                               0x00 
                           .data:0100588b 00                               0x00 
                           .data:0100588c 07                               0x07 
                           .data:0100588d 00                               0x00 
                           .data:0100588e 00                               0x00 
                           .data:0100588f 00                               0x00 
                           .data:01005890 07                               0x07 
                           .data:01005891 00                               0x00 
                           .data:01005892 00                               0x00 
                           .data:01005893 00                               0x00 
                           .data:01005894 01                               0x01 
                           .data:01005895 00                               0x00 
                           .data:01005896 00                               0x00 
                           .data:01005897 00                               0x00 
                           .data:01005898 01                               0x01 
                           .data:01005899 00                               0x00 
                           .data:0100589a 00                               0x00 
                           .data:0100589b 00                               0x00 
                           .data:0100589c 00                               0x00 
                           .data:0100589d 00                               0x00 
                           .data:0100589e 00                               0x00 
                           .data:0100589f 00                               0x00 
                           .data:010058a0 00                               0x00 
                           .data:010058a1 00                               0x00 
                           .data:010058a2 00                               0x00 
                           .data:010058a3 00                               0x00 
                           .data:010058a4 00                               0x00 
                           .data:010058a5 00                               0x00 
                           .data:010058a6 00                               0x00 
                           .data:010058a7 00                               0x00 
                           .data:010058a8 00                               0x00 
                           .data:010058a9 00                               0x00 
                           .data:010058aa 00                               0x00 
                           .data:010058ab 00                               0x00 
                           .data:010058ac 00                               0x00 
                           .data:010058ad 00                               0x00 
                           .data:010058ae 00                               0x00 
                           .data:010058af 00                               0x00 
                           .data:010058b0 00                               0x00 
                           .data:010058b1 00                               0x00 
                           .data:010058b2 00                               0x00 
                           .data:010058b3 00                               0x00 
                           .data:010058b4 00                               0x00 
                           .data:010058b5 00                               0x00 
                           .data:010058b6 00                               0x00 
                           .data:010058b7 00                               0x00 
                           .data:010058b8 00                               0x00 
                           .data:010058b9 00                               0x00 
                           .data:010058ba 00                               0x00 
                           .data:010058bb 00                               0x00 
                           .data:010058bc 00                               0x00 
                           .data:010058bd 00                               0x00 
                           .data:010058be 00                               0x00 
                           .data:010058bf 00                               0x00 
                           .data:010058c0 00                               0x00 
                           .data:010058c1 00                               0x00 
                           .data:010058c2 00                               0x00 
                           .data:010058c3 00                               0x00 
                           .data:010058c4 00                               0x00 
                           .data:010058c5 00                               0x00 
                           .data:010058c6 00                               0x00 
                           .data:010058c7 00                               0x00 
                           .data:010058c8 00                               0x00 
                           .data:010058c9 00                               0x00 
                           .data:010058ca 00                               0x00 
                           .data:010058cb 00                               0x00 
                           .data:010058cc 00                               0x00 
                           .data:010058cd 00                               0x00 
                           .data:010058ce 00                               0x00 
                           .data:010058cf 00                               0x00 
                           .data:010058d0 00                               0x00 
                           .data:010058d1 00                               0x00 
                           .data:010058d2 00                               0x00 
                           .data:010058d3 00                               0x00 
                           .data:010058d4 00                               0x00 
                           .data:010058d5 00                               0x00 
                           .data:010058d6 00                               0x00 
                           .data:010058d7 00                               0x00 
                           .data:010058d8 00                               0x00 
                           .data:010058d9 00                               0x00 
                           .data:010058da 00                               0x00 
                           .data:010058db 00                               0x00 
                           .data:010058dc 00                               0x00 
                           .data:010058dd 00                               0x00 
                           .data:010058de 00                               0x00 
                           .data:010058df 00                               0x00 
                           .data:010058e0 00                               0x00 
                           .data:010058e1 00                               0x00 
                           .data:010058e2 00                               0x00 
                           .data:010058e3 00                               0x00 
                           .data:010058e4 00                               0x00 
                           .data:010058e5 00                               0x00 
                           .data:010058e6 00                               0x00 
                           .data:010058e7 00                               0x00 
                           .data:010058e8 00                               0x00 
                           .data:010058e9 00                               0x00 
                           .data:010058ea 00                               0x00 
                           .data:010058eb 00                               0x00 
                           .data:010058ec 00                               0x00 
                           .data:010058ed 00                               0x00 
                           .data:010058ee 00                               0x00 
                           .data:010058ef 00                               0x00 
                           .data:010058f0 00                               0x00 
                           .data:010058f1 00                               0x00 
                           .data:010058f2 00                               0x00 
                           .data:010058f3 00                               0x00 
                           .data:010058f4 00                               0x00 
                           .data:010058f5 00                               0x00 
                           .data:010058f6 00                               0x00 
                           .data:010058f7 00                               0x00 
                           .data:010058f8 00                               0x00 
                           .data:010058f9 00                               0x00 
                           .data:010058fa 00                               0x00 
                           .data:010058fb 00                               0x00 
                           .data:010058fc 00                               0x00 
                           .data:010058fd 00                               0x00 
                           .data:010058fe 00                               0x00 
                           .data:010058ff 00                               0x00 
                           .data:01005900 00                               0x00 
                           .data:01005901 00                               0x00 
                           .data:01005902 00                               0x00 
                           .data:01005903 00                               0x00 
                           .data:01005904 00                               0x00 
                           .data:01005905 00                               0x00 
                           .data:01005906 00                               0x00 
                           .data:01005907 00                               0x00 
                           .data:01005908 00                               0x00 
                           .data:01005909 00                               0x00 
                           .data:0100590a 00                               0x00 
                           .data:0100590b 00                               0x00 
                           .data:0100590c 00                               0x00 
                           .data:0100590d 00                               0x00 
                           .data:0100590e 00                               0x00 
                           .data:0100590f 00                               0x00 
                           .data:01005910 00                               0x00 
                           .data:01005911 00                               0x00 
                           .data:01005912 00                               0x00 
                           .data:01005913 00                               0x00 
                           .data:01005914 00                               0x00 
                           .data:01005915 00                               0x00 
                           .data:01005916 00                               0x00 
                           .data:01005917 00                               0x00 
                           .data:01005918 00                               0x00 
                           .data:01005919 00                               0x00 
                           .data:0100591a 00                               0x00 
                           .data:0100591b 00                               0x00 
                           .data:0100591c 00                               0x00 
                           .data:0100591d 00                               0x00 
                           .data:0100591e 00                               0x00 
                           .data:0100591f 00                               0x00 
                           .data:01005920 00                               0x00 
                           .data:01005921 00                               0x00 
                           .data:01005922 00                               0x00 
                           .data:01005923 00                               0x00 
                           .data:01005924 00                               0x00 
                           .data:01005925 00                               0x00 
                           .data:01005926 00                               0x00 
                           .data:01005927 00                               0x00 
                           .data:01005928 00                               0x00 
                           .data:01005929 00                               0x00 
                           .data:0100592a 00                               0x00 
                           .data:0100592b 00                               0x00 
                           .data:0100592c 00                               0x00 
                           .data:0100592d 00                               0x00 
                           .data:0100592e 00                               0x00 
                           .data:0100592f 00                               0x00 
                           .data:01005930 00                               0x00 
                           .data:01005931 00                               0x00 
                           .data:01005932 00                               0x00 
                           .data:01005933 00                               0x00 
                           .data:01005934 00                               0x00 
                           .data:01005935 00                               0x00 
                           .data:01005936 00                               0x00 
                           .data:01005937 00                               0x00 
                           .data:01005938 00                               0x00 
                           .data:01005939 00                               0x00 
                           .data:0100593a 00                               0x00 
                           .data:0100593b 00                               0x00 
                           .data:0100593c 00                               0x00 
                           .data:0100593d 00                               0x00 
                           .data:0100593e 00                               0x00 
                           .data:0100593f 00                               0x00 
                           .data:01005940 00                               0x00 
                           .data:01005941 00                               0x00 
                           .data:01005942 00                               0x00 
                           .data:01005943 00                               0x00 
                           .data:01005944 00                               0x00 
                           .data:01005945 00                               0x00 
                           .data:01005946 00                               0x00 
                           .data:01005947 00                               0x00 
                           .data:01005948 00                               0x00 
                           .data:01005949 00                               0x00 
                           .data:0100594a 00                               0x00 
                           .data:0100594b 00                               0x00 
                           .data:0100594c 00                               0x00 
                           .data:0100594d 00                               0x00 
                           .data:0100594e 00                               0x00 
                           .data:0100594f 00                               0x00 
                           .data:01005950 00                               0x00 
                           .data:01005951 00                               0x00 
                           .data:01005952 00                               0x00 
                           .data:01005953 00                               0x00 
                           .data:01005954 09                               0x09 '	'
                           .data:01005955 00                               0x00 
                           .data:01005956 00                               0x00 
                           .data:01005957 00                               0x00 
                           .data:01005958 02                               0x02 
                           .data:01005959 00                               0x00 
                           .data:0100595a 00                               0x00 
                           .data:0100595b 00                               0x00 
                           .data:0100595c 00                               0x00 
                           .data:0100595d 00                               0x00 
                           .data:0100595e 00                               0x00 
                           .data:0100595f 00                               0x00 
                           .data:01005960 00                               0x00 
                           .data:01005961 00                               0x00 
                           .data:01005962 00                               0x00 
                           .data:01005963 00                               0x00 
                           .data:01005964 00                               0x00 
                           .data:01005965 00                               0x00 
                           .data:01005966 00                               0x00 
                           .data:01005967 00                               0x00 
                           .data:01005968 00                               0x00 
                           .data:01005969 00                               0x00 
                           .data:0100596a 00                               0x00 
                           .data:0100596b 00                               0x00 
                           .data:0100596c 00                               0x00 
                           .data:0100596d 00                               0x00 
                           .data:0100596e 00                               0x00 
                           .data:0100596f 00                               0x00 
                           .data:01005970 00                               0x00 
                           .data:01005971 00                               0x00 
                           .data:01005972 00                               0x00 
                           .data:01005973 00                               0x00 
                           .data:01005974 00                               0x00 
                           .data:01005975 00                               0x00 
                           .data:01005976 00                               0x00 
                           .data:01005977 00                               0x00 
                           .data:01005978 00                               0x00 
                           .data:01005979 00                               0x00 
                           .data:0100597a 00                               0x00 
                           .data:0100597b 00                               0x00 
                           .data:0100597c 00                               0x00 
                           .data:0100597d 00                               0x00 
                           .data:0100597e 00                               0x00 
                           .data:0100597f 00                               0x00 
                           .data:01005980 00                               0x00 
                           .data:01005981 00                               0x00 
                           .data:01005982 00                               0x00 
                           .data:01005983 00                               0x00 
                           .data:01005984 00                               0x00 
                           .data:01005985 00                               0x00 
                           .data:01005986 00                               0x00 
                           .data:01005987 00                               0x00 
                           .data:01005988 00                               0x00 
                           .data:01005989 00                               0x00 
                           .data:0100598a 00                               0x00 
                           .data:0100598b 00                               0x00 
                           .data:0100598c 00                               0x00 
                           .data:0100598d 00                               0x00 
                           .data:0100598e 00                               0x00 
                           .data:0100598f 00                               0x00 
                           .data:01005990 00                               0x00 
                           .data:01005991 00                               0x00 
                           .data:01005992 00                               0x00 
                           .data:01005993 00                               0x00 
                           .data:01005994 00                               0x00 
                           .data:01005995 00                               0x00 
                           .data:01005996 00                               0x00 
                           .data:01005997 00                               0x00 
                           .data:01005998 00                               0x00 
                           .data:01005999 00                               0x00 
                           .data:0100599a 00                               0x00 
                           .data:0100599b 00                               0x00 
                           .data:0100599c 00                               0x00 
                           .data:0100599d 00                               0x00 
                           .data:0100599e 00                               0x00 
                           .data:0100599f 00                               0x00 
                           .data:010059a0 00                               0x00 
                           .data:010059a1 00                               0x00 
                           .data:010059a2 00                               0x00 
                           .data:010059a3 00                               0x00 
                           .data:010059a4 00                               0x00 
                           .data:010059a5 00                               0x00 
                           .data:010059a6 00                               0x00 
                           .data:010059a7 00                               0x00 
                           .data:010059a8 00                               0x00 
                           .data:010059a9 00                               0x00 
                           .data:010059aa 00                               0x00 
                           .data:010059ab 00                               0x00 
                           .data:010059ac 00                               0x00 
                           .data:010059ad 00                               0x00 
                           .data:010059ae 00                               0x00 
                           .data:010059af 00                               0x00 
                           .data:010059b0 00                               0x00 
                           .data:010059b1 00                               0x00 
                           .data:010059b2 00                               0x00 
                           .data:010059b3 00                               0x00 
                           .data:010059b4 00                               0x00 
                           .data:010059b5 00                               0x00 
                           .data:010059b6 00                               0x00 
                           .data:010059b7 00                               0x00 
                           .data:010059b8 00                               0x00 
                           .data:010059b9 00                               0x00 
                           .data:010059ba 00                               0x00 
                           .data:010059bb 00                               0x00 
                           .data:010059bc 00                               0x00 
                           .data:010059bd 00                               0x00 
                           .data:010059be 00                               0x00 
                           .data:010059bf 00                               0x00 
                           .data:010059c0 00                               0x00 
                           .data:010059c1 00                               0x00 
                           .data:010059c2 00                               0x00 
                           .data:010059c3 00                               0x00 
                           .data:010059c4 00                               0x00 
                           .data:010059c5 00                               0x00 
                           .data:010059c6 00                               0x00 
                           .data:010059c7 00                               0x00 
                           .data:010059c8 00                               0x00 
                           .data:010059c9 00                               0x00 
                           .data:010059ca 00                               0x00 
                           .data:010059cb 00                               0x00 
                           .data:010059cc 00                               0x00 
                           .data:010059cd 00                               0x00 
                           .data:010059ce 00                               0x00 
                           .data:010059cf 00                               0x00 
                           .data:010059d0 00                               0x00 
                           .data:010059d1 00                               0x00 
                           .data:010059d2 00                               0x00 
                           .data:010059d3 00                               0x00 
                           .data:010059d4 00                               0x00 
                           .data:010059d5 00                               0x00 
                           .data:010059d6 00                               0x00 
                           .data:010059d7 00                               0x00 
                           .data:010059d8 00                               0x00 
                           .data:010059d9 00                               0x00 
                           .data:010059da 00                               0x00 
                           .data:010059db 00                               0x00 
                           .data:010059dc 00                               0x00 
                           .data:010059dd 00                               0x00 
                           .data:010059de 00                               0x00 
                           .data:010059df 00                               0x00 
                           .data:010059e0 00                               0x00 
                           .data:010059e1 00                               0x00 
                           .data:010059e2 00                               0x00 
                           .data:010059e3 00                               0x00 
                           .data:010059e4 00                               0x00 
                           .data:010059e5 00                               0x00 
                           .data:010059e6 00                               0x00 
                           .data:010059e7 00                               0x00 
                           .data:010059e8 00                               0x00 
                           .data:010059e9 00                               0x00 
                           .data:010059ea 00                               0x00 
                           .data:010059eb 00                               0x00 
                           .data:010059ec 00                               0x00 
                           .data:010059ed 00                               0x00 
                           .data:010059ee 00                               0x00 
                           .data:010059ef 00                               0x00 
                           .data:010059f0 00                               0x00 
                           .data:010059f1 00                               0x00 
                           .data:010059f2 00                               0x00 
                           .data:010059f3 00                               0x00 
                           .data:010059f4 00                               0x00 
                           .data:010059f5 00                               0x00 
                           .data:010059f6 00                               0x00 
                           .data:010059f7 00                               0x00 
                           .data:010059f8 00                               0x00 
                           .data:010059f9 00                               0x00 
                           .data:010059fa 00                               0x00 
                           .data:010059fb 00                               0x00 
                           .data:010059fc 00                               0x00 
                           .data:010059fd 00                               0x00 
                           .data:010059fe 00                               0x00 
                           .data:010059ff 00                               0x00 
                           .rsrc:01006000 00                               0x00 
                           .rsrc:01006001 00                               0x00 
                           .rsrc:01006002 00                               0x00 
                           .rsrc:01006003 00                               0x00 
                           .rsrc:01006004 00                               0x00 
                           .rsrc:01006005 00                               0x00 
                           .rsrc:01006006 00                               0x00 
                           .rsrc:01006007 00                               0x00 
                           .rsrc:01006008 00                               0x00 
                           .rsrc:01006009 00                               0x00 
                           .rsrc:0100600a 00                               0x00 
                           .rsrc:0100600b 00                               0x00 
                           .rsrc:0100600c 01                               0x01 
                           .rsrc:0100600d 00                               0x00 
                           .rsrc:0100600e 02                               0x02 
                           .rsrc:0100600f 00                               0x00 
                           .rsrc:01006010 e8                               0xe8 
                           .rsrc:01006011 00                               0x00 
                           .rsrc:01006012 00                               0x00 
                           .rsrc:01006013 80                               0x80 
                           .rsrc:01006014 28                               0x28 '('
                           .rsrc:01006015 00                               0x00 
                           .rsrc:01006016 00                               0x00 
                           .rsrc:01006017 80                               0x80 
                           .rsrc:01006018 10                               0x10 
                           .rsrc:01006019 00                               0x00 
                           .rsrc:0100601a 00                               0x00 
                           .rsrc:0100601b 00                               0x00 
                           .rsrc:0100601c 40                               0x40 '@'
                           .rsrc:0100601d 00                               0x00 
                           .rsrc:0100601e 00                               0x00 
                           .rsrc:0100601f 80                               0x80 
                           .rsrc:01006020 18                               0x18 
                           .rsrc:01006021 00                               0x00 
                           .rsrc:01006022 00                               0x00 
                           .rsrc:01006023 00                               0x00 
                           .rsrc:01006024 58                               0x58 'X'
                           .rsrc:01006025 00                               0x00 
                           .rsrc:01006026 00                               0x00 
                           .rsrc:01006027 80                               0x80 
                           .rsrc:01006028 00                               0x00 
                           .rsrc:01006029 00                               0x00 
                           .rsrc:0100602a 00                               0x00 
                           .rsrc:0100602b 00                               0x00 
                           .rsrc:0100602c 00                               0x00 
                           .rsrc:0100602d 00                               0x00 
                           .rsrc:0100602e 00                               0x00 
                           .rsrc:0100602f 00                               0x00 
                           .rsrc:01006030 00                               0x00 
                           .rsrc:01006031 00                               0x00 
                           .rsrc:01006032 00                               0x00 
                           .rsrc:01006033 00                               0x00 
                           .rsrc:01006034 00                               0x00 
                           .rsrc:01006035 00                               0x00 
                           .rsrc:01006036 01                               0x01 
                           .rsrc:01006037 00                               0x00 
                           .rsrc:01006038 01                               0x01 
                           .rsrc:01006039 00                               0x00 
                           .rsrc:0100603a 00                               0x00 
                           .rsrc:0100603b 00                               0x00 
                           .rsrc:0100603c 70                               0x70 'p'
                           .rsrc:0100603d 00                               0x00 
                           .rsrc:0100603e 00                               0x00 
                           .rsrc:0100603f 80                               0x80 
                           .rsrc:01006040 00                               0x00 
                           .rsrc:01006041 00                               0x00 
                           .rsrc:01006042 00                               0x00 
                           .rsrc:01006043 00                               0x00 
                           .rsrc:01006044 00                               0x00 
                           .rsrc:01006045 00                               0x00 
                           .rsrc:01006046 00                               0x00 
                           .rsrc:01006047 00                               0x00 
                           .rsrc:01006048 00                               0x00 
                           .rsrc:01006049 00                               0x00 
                           .rsrc:0100604a 00                               0x00 
                           .rsrc:0100604b 00                               0x00 
                           .rsrc:0100604c 00                               0x00 
                           .rsrc:0100604d 00                               0x00 
                           .rsrc:0100604e 01                               0x01 
                           .rsrc:0100604f 00                               0x00 
                           .rsrc:01006050 01                               0x01 
                           .rsrc:01006051 00                               0x00 
                           .rsrc:01006052 00                               0x00 
                           .rsrc:01006053 00                               0x00 
                           .rsrc:01006054 88                               0x88 
                           .rsrc:01006055 00                               0x00 
                           .rsrc:01006056 00                               0x00 
                           .rsrc:01006057 80                               0x80 
                           .rsrc:01006058 00                               0x00 
                           .rsrc:01006059 00                               0x00 
                           .rsrc:0100605a 00                               0x00 
                           .rsrc:0100605b 00                               0x00 
                           .rsrc:0100605c 00                               0x00 
                           .rsrc:0100605d 00                               0x00 
                           .rsrc:0100605e 00                               0x00 
                           .rsrc:0100605f 00                               0x00 
                           .rsrc:01006060 00                               0x00 
                           .rsrc:01006061 00                               0x00 
                           .rsrc:01006062 00                               0x00 
                           .rsrc:01006063 00                               0x00 
                           .rsrc:01006064 00                               0x00 
                           .rsrc:01006065 00                               0x00 
                           .rsrc:01006066 01                               0x01 
                           .rsrc:01006067 00                               0x00 
                           .rsrc:01006068 01                               0x01 
                           .rsrc:01006069 00                               0x00 
                           .rsrc:0100606a 00                               0x00 
                           .rsrc:0100606b 00                               0x00 
                           .rsrc:0100606c a0                               0xa0 
                           .rsrc:0100606d 00                               0x00 
                           .rsrc:0100606e 00                               0x00 
                           .rsrc:0100606f 80                               0x80 
                           .rsrc:01006070 00                               0x00 
                           .rsrc:01006071 00                               0x00 
                           .rsrc:01006072 00                               0x00 
                           .rsrc:01006073 00                               0x00 
                           .rsrc:01006074 00                               0x00 
                           .rsrc:01006075 00                               0x00 
                           .rsrc:01006076 00                               0x00 
                           .rsrc:01006077 00                               0x00 
                           .rsrc:01006078 00                               0x00 
                           .rsrc:01006079 00                               0x00 
                           .rsrc:0100607a 00                               0x00 
                           .rsrc:0100607b 00                               0x00 
                           .rsrc:0100607c 00                               0x00 
                           .rsrc:0100607d 00                               0x00 
                           .rsrc:0100607e 01                               0x01 
                           .rsrc:0100607f 00                               0x00 
                           .rsrc:01006080 09                               0x09 '	'
                           .rsrc:01006081 04                               0x04 
                           .rsrc:01006082 00                               0x00 
                           .rsrc:01006083 00                               0x00 
                           .rsrc:01006084 b8                               0xb8 
                           .rsrc:01006085 00                               0x00 
                           .rsrc:01006086 00                               0x00 
                           .rsrc:01006087 00                               0x00 
                           .rsrc:01006088 00                               0x00 
                           .rsrc:01006089 00                               0x00 
                           .rsrc:0100608a 00                               0x00 
                           .rsrc:0100608b 00                               0x00 
                           .rsrc:0100608c 00                               0x00 
                           .rsrc:0100608d 00                               0x00 
                           .rsrc:0100608e 00                               0x00 
                           .rsrc:0100608f 00                               0x00 
                           .rsrc:01006090 00                               0x00 
                           .rsrc:01006091 00                               0x00 
                           .rsrc:01006092 00                               0x00 
                           .rsrc:01006093 00                               0x00 
                           .rsrc:01006094 00                               0x00 
                           .rsrc:01006095 00                               0x00 
                           .rsrc:01006096 01                               0x01 
                           .rsrc:01006097 00                               0x00 
                           .rsrc:01006098 09                               0x09 '	'
                           .rsrc:01006099 04                               0x04 
                           .rsrc:0100609a 00                               0x00 
                           .rsrc:0100609b 00                               0x00 
                           .rsrc:0100609c c8                               0xc8 
                           .rsrc:0100609d 00                               0x00 
                           .rsrc:0100609e 00                               0x00 
                           .rsrc:0100609f 00                               0x00 
                           .rsrc:010060a0 00                               0x00 
                           .rsrc:010060a1 00                               0x00 
                           .rsrc:010060a2 00                               0x00 
                           .rsrc:010060a3 00                               0x00 
                           .rsrc:010060a4 00                               0x00 
                           .rsrc:010060a5 00                               0x00 
                           .rsrc:010060a6 00                               0x00 
                           .rsrc:010060a7 00                               0x00 
                           .rsrc:010060a8 00                               0x00 
                           .rsrc:010060a9 00                               0x00 
                           .rsrc:010060aa 00                               0x00 
                           .rsrc:010060ab 00                               0x00 
                           .rsrc:010060ac 00                               0x00 
                           .rsrc:010060ad 00                               0x00 
                           .rsrc:010060ae 01                               0x01 
                           .rsrc:010060af 00                               0x00 
                           .rsrc:010060b0 09                               0x09 '	'
                           .rsrc:010060b1 04                               0x04 
                           .rsrc:010060b2 00                               0x00 
                           .rsrc:010060b3 00                               0x00 
                           .rsrc:010060b4 d8                               0xd8 
                           .rsrc:010060b5 00                               0x00 
                           .rsrc:010060b6 00                               0x00 
                           .rsrc:010060b7 00                               0x00 
                           .rsrc:010060b8 58                               0x58 'X'
                           .rsrc:010060b9 67                               0x67 'g'
                           .rsrc:010060ba 00                               0x00 
                           .rsrc:010060bb 00                               0x00 
                           .rsrc:010060bc c8                               0xc8 
                           .rsrc:010060bd 00                               0x00 
                           .rsrc:010060be 00                               0x00 
                           .rsrc:010060bf 00                               0x00 
                           .rsrc:010060c0 00                               0x00 
                           .rsrc:010060c1 00                               0x00 
                           .rsrc:010060c2 00                               0x00 
                           .rsrc:010060c3 00                               0x00 
                           .rsrc:010060c4 00                               0x00 
                           .rsrc:010060c5 00                               0x00 
                           .rsrc:010060c6 00                               0x00 
                           .rsrc:010060c7 00                               0x00 
                           .rsrc:010060c8 d8                               0xd8 
                           .rsrc:010060c9 63                               0x63 'c'
                           .rsrc:010060ca 00                               0x00 
                           .rsrc:010060cb 00                               0x00 
                           .rsrc:010060cc 7c                               0x7c '|'
                           .rsrc:010060cd 03                               0x03 
                           .rsrc:010060ce 00                               0x00 
                           .rsrc:010060cf 00                               0x00 
                           .rsrc:010060d0 00                               0x00 
                           .rsrc:010060d1 00                               0x00 
                           .rsrc:010060d2 00                               0x00 
                           .rsrc:010060d3 00                               0x00 
                           .rsrc:010060d4 00                               0x00 
                           .rsrc:010060d5 00                               0x00 
                           .rsrc:010060d6 00                               0x00 
                           .rsrc:010060d7 00                               0x00 
                           .rsrc:010060d8 f0                               0xf0 
                           .rsrc:010060d9 60                               0x60 '`'
                           .rsrc:010060da 00                               0x00 
                           .rsrc:010060db 00                               0x00 
                           .rsrc:010060dc e3                               0xe3 
                           .rsrc:010060dd 02                               0x02 
                           .rsrc:010060de 00                               0x00 
                           .rsrc:010060df 00                               0x00 
                           .rsrc:010060e0 00                               0x00 
                           .rsrc:010060e1 00                               0x00 
                           .rsrc:010060e2 00                               0x00 
                           .rsrc:010060e3 00                               0x00 
                           .rsrc:010060e4 00                               0x00 
                           .rsrc:010060e5 00                               0x00 
                           .rsrc:010060e6 00                               0x00 
                           .rsrc:010060e7 00                               0x00 
                           .rsrc:010060e8 03                               0x03 
                           .rsrc:010060e9 00                               0x00 
                           .rsrc:010060ea 4d                               0x4d 'M'
                           .rsrc:010060eb 00                               0x00 
                           .rsrc:010060ec 55                               0x55 'U'
                           .rsrc:010060ed 00                               0x00 
                           .rsrc:010060ee 49                               0x49 'I'
                           .rsrc:010060ef 00                               0x00 
                           .rsrc:010060f0 3c                               0x3c '<'
                           .rsrc:010060f1 3f                               0x3f '?'
                           .rsrc:010060f2 78                               0x78 'x'
                           .rsrc:010060f3 6d                               0x6d 'm'
                           .rsrc:010060f4 6c                               0x6c 'l'
                           .rsrc:010060f5 20                               0x20 ' '
                           .rsrc:010060f6 76                               0x76 'v'
                           .rsrc:010060f7 65                               0x65 'e'
                           .rsrc:010060f8 72                               0x72 'r'
                           .rsrc:010060f9 73                               0x73 's'
                           .rsrc:010060fa 69                               0x69 'i'
                           .rsrc:010060fb 6f                               0x6f 'o'
                           .rsrc:010060fc 6e                               0x6e 'n'
                           .rsrc:010060fd 3d                               0x3d '='
                           .rsrc:010060fe 22                               0x22 '"'
                           .rsrc:010060ff 31                               0x31 '1'
                           .rsrc:01006100 2e                               0x2e '.'
                           .rsrc:01006101 30                               0x30 '0'
                           .rsrc:01006102 22                               0x22 '"'
                           .rsrc:01006103 20                               0x20 ' '
                           .rsrc:01006104 65                               0x65 'e'
                           .rsrc:01006105 6e                               0x6e 'n'
                           .rsrc:01006106 63                               0x63 'c'
                           .rsrc:01006107 6f                               0x6f 'o'
                           .rsrc:01006108 64                               0x64 'd'
                           .rsrc:01006109 69                               0x69 'i'
                           .rsrc:0100610a 6e                               0x6e 'n'
                           .rsrc:0100610b 67                               0x67 'g'
                           .rsrc:0100610c 3d                               0x3d '='
                           .rsrc:0100610d 22                               0x22 '"'
                           .rsrc:0100610e 55                               0x55 'U'
                           .rsrc:0100610f 54                               0x54 'T'
                           .rsrc:01006110 46                               0x46 'F'
                           .rsrc:01006111 2d                               0x2d '-'
                           .rsrc:01006112 38                               0x38 '8'
                           .rsrc:01006113 22                               0x22 '"'
                           .rsrc:01006114 20                               0x20 ' '
                           .rsrc:01006115 73                               0x73 's'
                           .rsrc:01006116 74                               0x74 't'
                           .rsrc:01006117 61                               0x61 'a'
                           .rsrc:01006118 6e                               0x6e 'n'
                           .rsrc:01006119 64                               0x64 'd'
                           .rsrc:0100611a 61                               0x61 'a'
                           .rsrc:0100611b 6c                               0x6c 'l'
                           .rsrc:0100611c 6f                               0x6f 'o'
                           .rsrc:0100611d 6e                               0x6e 'n'
                           .rsrc:0100611e 65                               0x65 'e'
                           .rsrc:0100611f 3d                               0x3d '='
                           .rsrc:01006120 22                               0x22 '"'
                           .rsrc:01006121 79                               0x79 'y'
                           .rsrc:01006122 65                               0x65 'e'
                           .rsrc:01006123 73                               0x73 's'
                           .rsrc:01006124 22                               0x22 '"'
                           .rsrc:01006125 3f                               0x3f '?'
                           .rsrc:01006126 3e                               0x3e '>'
                           .rsrc:01006127 0d                               0x0d ''
                           .rsrc:01006128 0a                               0x0a '
'
                           .rsrc:01006129 3c                               0x3c '<'
                           .rsrc:0100612a 21                               0x21 '!'
                           .rsrc:0100612b 2d                               0x2d '-'
                           .rsrc:0100612c 2d                               0x2d '-'
                           .rsrc:0100612d 20                               0x20 ' '
                           .rsrc:0100612e 43                               0x43 'C'
                           .rsrc:0100612f 6f                               0x6f 'o'
                           .rsrc:01006130 70                               0x70 'p'
                           .rsrc:01006131 79                               0x79 'y'
                           .rsrc:01006132 72                               0x72 'r'
                           .rsrc:01006133 69                               0x69 'i'
                           .rsrc:01006134 67                               0x67 'g'
                           .rsrc:01006135 68                               0x68 'h'
                           .rsrc:01006136 74                               0x74 't'
                           .rsrc:01006137 20                               0x20 ' '
                           .rsrc:01006138 28                               0x28 '('
                           .rsrc:01006139 63                               0x63 'c'
                           .rsrc:0100613a 29                               0x29 ')'
                           .rsrc:0100613b 20                               0x20 ' '
                           .rsrc:0100613c 4d                               0x4d 'M'
                           .rsrc:0100613d 69                               0x69 'i'
                           .rsrc:0100613e 63                               0x63 'c'
                           .rsrc:0100613f 72                               0x72 'r'
                           .rsrc:01006140 6f                               0x6f 'o'
                           .rsrc:01006141 73                               0x73 's'
                           .rsrc:01006142 6f                               0x6f 'o'
                           .rsrc:01006143 66                               0x66 'f'
                           .rsrc:01006144 74                               0x74 't'
                           .rsrc:01006145 20                               0x20 ' '
                           .rsrc:01006146 43                               0x43 'C'
                           .rsrc:01006147 6f                               0x6f 'o'
                           .rsrc:01006148 72                               0x72 'r'
                           .rsrc:01006149 70                               0x70 'p'
                           .rsrc:0100614a 6f                               0x6f 'o'
                           .rsrc:0100614b 72                               0x72 'r'
                           .rsrc:0100614c 61                               0x61 'a'
                           .rsrc:0100614d 74                               0x74 't'
                           .rsrc:0100614e 69                               0x69 'i'
                           .rsrc:0100614f 6f                               0x6f 'o'
                           .rsrc:01006150 6e                               0x6e 'n'
                           .rsrc:01006151 20                               0x20 ' '
                           .rsrc:01006152 2d                               0x2d '-'
                           .rsrc:01006153 2d                               0x2d '-'
                           .rsrc:01006154 3e                               0x3e '>'
                           .rsrc:01006155 0d                               0x0d ''
                           .rsrc:01006156 0a                               0x0a '
'
                           .rsrc:01006157 3c                               0x3c '<'
                           .rsrc:01006158 61                               0x61 'a'
                           .rsrc:01006159 73                               0x73 's'
                           .rsrc:0100615a 73                               0x73 's'
                           .rsrc:0100615b 65                               0x65 'e'
                           .rsrc:0100615c 6d                               0x6d 'm'
                           .rsrc:0100615d 62                               0x62 'b'
                           .rsrc:0100615e 6c                               0x6c 'l'
                           .rsrc:0100615f 79                               0x79 'y'
                           .rsrc:01006160 20                               0x20 ' '
                           .rsrc:01006161 78                               0x78 'x'
                           .rsrc:01006162 6d                               0x6d 'm'
                           .rsrc:01006163 6c                               0x6c 'l'
                           .rsrc:01006164 6e                               0x6e 'n'
                           .rsrc:01006165 73                               0x73 's'
                           .rsrc:01006166 3d                               0x3d '='
                           .rsrc:01006167 22                               0x22 '"'
                           .rsrc:01006168 75                               0x75 'u'
                           .rsrc:01006169 72                               0x72 'r'
                           .rsrc:0100616a 6e                               0x6e 'n'
                           .rsrc:0100616b 3a                               0x3a ':'
                           .rsrc:0100616c 73                               0x73 's'
                           .rsrc:0100616d 63                               0x63 'c'
                           .rsrc:0100616e 68                               0x68 'h'
                           .rsrc:0100616f 65                               0x65 'e'
                           .rsrc:01006170 6d                               0x6d 'm'
                           .rsrc:01006171 61                               0x61 'a'
                           .rsrc:01006172 73                               0x73 's'
                           .rsrc:01006173 2d                               0x2d '-'
                           .rsrc:01006174 6d                               0x6d 'm'
                           .rsrc:01006175 69                               0x69 'i'
                           .rsrc:01006176 63                               0x63 'c'
                           .rsrc:01006177 72                               0x72 'r'
                           .rsrc:01006178 6f                               0x6f 'o'
                           .rsrc:01006179 73                               0x73 's'
                           .rsrc:0100617a 6f                               0x6f 'o'
                           .rsrc:0100617b 66                               0x66 'f'
                           .rsrc:0100617c 74                               0x74 't'
                           .rsrc:0100617d 2d                               0x2d '-'
                           .rsrc:0100617e 63                               0x63 'c'
                           .rsrc:0100617f 6f                               0x6f 'o'
                           .rsrc:01006180 6d                               0x6d 'm'
                           .rsrc:01006181 3a                               0x3a ':'
                           .rsrc:01006182 61                               0x61 'a'
                           .rsrc:01006183 73                               0x73 's'
                           .rsrc:01006184 6d                               0x6d 'm'
                           .rsrc:01006185 2e                               0x2e '.'
                           .rsrc:01006186 76                               0x76 'v'
                           .rsrc:01006187 31                               0x31 '1'
                           .rsrc:01006188 22                               0x22 '"'
                           .rsrc:01006189 0d                               0x0d ''
                           .rsrc:0100618a 0a                               0x0a '
'
                           .rsrc:0100618b 20                               0x20 ' '
                           .rsrc:0100618c 6d                               0x6d 'm'
                           .rsrc:0100618d 61                               0x61 'a'
                           .rsrc:0100618e 6e                               0x6e 'n'
                           .rsrc:0100618f 69                               0x69 'i'
                           .rsrc:01006190 66                               0x66 'f'
                           .rsrc:01006191 65                               0x65 'e'
                           .rsrc:01006192 73                               0x73 's'
                           .rsrc:01006193 74                               0x74 't'
                           .rsrc:01006194 56                               0x56 'V'
                           .rsrc:01006195 65                               0x65 'e'
                           .rsrc:01006196 72                               0x72 'r'
                           .rsrc:01006197 73                               0x73 's'
                           .rsrc:01006198 69                               0x69 'i'
                           .rsrc:01006199 6f                               0x6f 'o'
                           .rsrc:0100619a 6e                               0x6e 'n'
                           .rsrc:0100619b 3d                               0x3d '='
                           .rsrc:0100619c 22                               0x22 '"'
                           .rsrc:0100619d 31                               0x31 '1'
                           .rsrc:0100619e 2e                               0x2e '.'
                           .rsrc:0100619f 30                               0x30 '0'
                           .rsrc:010061a0 22                               0x22 '"'
                           .rsrc:010061a1 3e                               0x3e '>'
                           .rsrc:010061a2 20                               0x20 ' '
                           .rsrc:010061a3 0d                               0x0d ''
                           .rsrc:010061a4 0a                               0x0a '
'
                           .rsrc:010061a5 0d                               0x0d ''
                           .rsrc:010061a6 0a                               0x0a '
'
                           .rsrc:010061a7 20                               0x20 ' '
                           .rsrc:010061a8 20                               0x20 ' '
                           .rsrc:010061a9 3c                               0x3c '<'
                           .rsrc:010061aa 61                               0x61 'a'
                           .rsrc:010061ab 73                               0x73 's'
                           .rsrc:010061ac 73                               0x73 's'
                           .rsrc:010061ad 65                               0x65 'e'
                           .rsrc:010061ae 6d                               0x6d 'm'
                           .rsrc:010061af 62                               0x62 'b'
                           .rsrc:010061b0 6c                               0x6c 'l'
                           .rsrc:010061b1 79                               0x79 'y'
                           .rsrc:010061b2 49                               0x49 'I'
                           .rsrc:010061b3 64                               0x64 'd'
                           .rsrc:010061b4 65                               0x65 'e'
                           .rsrc:010061b5 6e                               0x6e 'n'
                           .rsrc:010061b6 74                               0x74 't'
                           .rsrc:010061b7 69                               0x69 'i'
                           .rsrc:010061b8 74                               0x74 't'
                           .rsrc:010061b9 79                               0x79 'y'
                           .rsrc:010061ba 20                               0x20 ' '
                           .rsrc:010061bb 76                               0x76 'v'
                           .rsrc:010061bc 65                               0x65 'e'
                           .rsrc:010061bd 72                               0x72 'r'
                           .rsrc:010061be 73                               0x73 's'
                           .rsrc:010061bf 69                               0x69 'i'
                           .rsrc:010061c0 6f                               0x6f 'o'
                           .rsrc:010061c1 6e                               0x6e 'n'
                           .rsrc:010061c2 3d                               0x3d '='
                           .rsrc:010061c3 22                               0x22 '"'
                           .rsrc:010061c4 35                               0x35 '5'
                           .rsrc:010061c5 2e                               0x2e '.'
                           .rsrc:010061c6 31                               0x31 '1'
                           .rsrc:010061c7 2e                               0x2e '.'
                           .rsrc:010061c8 30                               0x30 '0'
                           .rsrc:010061c9 2e                               0x2e '.'
                           .rsrc:010061ca 30                               0x30 '0'
                           .rsrc:010061cb 22                               0x22 '"'
                           .rsrc:010061cc 0d                               0x0d ''
                           .rsrc:010061cd 0a                               0x0a '
'
                           .rsrc:010061ce 20                               0x20 ' '
                           .rsrc:010061cf 20                               0x20 ' '
                           .rsrc:010061d0 20                               0x20 ' '
                           .rsrc:010061d1 20                               0x20 ' '
                           .rsrc:010061d2 20                               0x20 ' '
                           .rsrc:010061d3 70                               0x70 'p'
                           .rsrc:010061d4 72                               0x72 'r'
                           .rsrc:010061d5 6f                               0x6f 'o'
                           .rsrc:010061d6 63                               0x63 'c'
                           .rsrc:010061d7 65                               0x65 'e'
                           .rsrc:010061d8 73                               0x73 's'
                           .rsrc:010061d9 73                               0x73 's'
                           .rsrc:010061da 6f                               0x6f 'o'
                           .rsrc:010061db 72                               0x72 'r'
                           .rsrc:010061dc 41                               0x41 'A'
                           .rsrc:010061dd 72                               0x72 'r'
                           .rsrc:010061de 63                               0x63 'c'
                           .rsrc:010061df 68                               0x68 'h'
                           .rsrc:010061e0 69                               0x69 'i'
                           .rsrc:010061e1 74                               0x74 't'
                           .rsrc:010061e2 65                               0x65 'e'
                           .rsrc:010061e3 63                               0x63 'c'
                           .rsrc:010061e4 74                               0x74 't'
                           .rsrc:010061e5 75                               0x75 'u'
                           .rsrc:010061e6 72                               0x72 'r'
                           .rsrc:010061e7 65                               0x65 'e'
                           .rsrc:010061e8 3d                               0x3d '='
                           .rsrc:010061e9 22                               0x22 '"'
                           .rsrc:010061ea 78                               0x78 'x'
                           .rsrc:010061eb 38                               0x38 '8'
                           .rsrc:010061ec 36                               0x36 '6'
                           .rsrc:010061ed 22                               0x22 '"'
                           .rsrc:010061ee 0d                               0x0d ''
                           .rsrc:010061ef 0a                               0x0a '
'
                           .rsrc:010061f0 20                               0x20 ' '
                           .rsrc:010061f1 20                               0x20 ' '
                           .rsrc:010061f2 20                               0x20 ' '
                           .rsrc:010061f3 20                               0x20 ' '
                           .rsrc:010061f4 20                               0x20 ' '
                           .rsrc:010061f5 6e                               0x6e 'n'
                           .rsrc:010061f6 61                               0x61 'a'
                           .rsrc:010061f7 6d                               0x6d 'm'
                           .rsrc:010061f8 65                               0x65 'e'
                           .rsrc:010061f9 3d                               0x3d '='
                           .rsrc:010061fa 22                               0x22 '"'
                           .rsrc:010061fb 4d                               0x4d 'M'
                           .rsrc:010061fc 69                               0x69 'i'
                           .rsrc:010061fd 63                               0x63 'c'
                           .rsrc:010061fe 72                               0x72 'r'
                           .rsrc:010061ff 6f                               0x6f 'o'
                           .rsrc:01006200 73                               0x73 's'
                           .rsrc:01006201 6f                               0x6f 'o'
                           .rsrc:01006202 66                               0x66 'f'
                           .rsrc:01006203 74                               0x74 't'
                           .rsrc:01006204 2e                               0x2e '.'
                           .rsrc:01006205 57                               0x57 'W'
                           .rsrc:01006206 69                               0x69 'i'
                           .rsrc:01006207 6e                               0x6e 'n'
                           .rsrc:01006208 64                               0x64 'd'
                           .rsrc:01006209 6f                               0x6f 'o'
                           .rsrc:0100620a 77                               0x77 'w'
                           .rsrc:0100620b 73                               0x73 's'
                           .rsrc:0100620c 2e                               0x2e '.'
                           .rsrc:0100620d 4e                               0x4e 'N'
                           .rsrc:0100620e 65                               0x65 'e'
                           .rsrc:0100620f 74                               0x74 't'
                           .rsrc:01006210 2e                               0x2e '.'
                           .rsrc:01006211 61                               0x61 'a'
                           .rsrc:01006212 72                               0x72 'r'
                           .rsrc:01006213 70                               0x70 'p'
                           .rsrc:01006214 22                               0x22 '"'
                           .rsrc:01006215 0d                               0x0d ''
                           .rsrc:01006216 0a                               0x0a '
'
                           .rsrc:01006217 20                               0x20 ' '
                           .rsrc:01006218 20                               0x20 ' '
                           .rsrc:01006219 20                               0x20 ' '
                           .rsrc:0100621a 20                               0x20 ' '
                           .rsrc:0100621b 20                               0x20 ' '
                           .rsrc:0100621c 74                               0x74 't'
                           .rsrc:0100621d 79                               0x79 'y'
                           .rsrc:0100621e 70                               0x70 'p'
                           .rsrc:0100621f 65                               0x65 'e'
                           .rsrc:01006220 3d                               0x3d '='
                           .rsrc:01006221 22                               0x22 '"'
                           .rsrc:01006222 77                               0x77 'w'
                           .rsrc:01006223 69                               0x69 'i'
                           .rsrc:01006224 6e                               0x6e 'n'
                           .rsrc:01006225 33                               0x33 '3'
                           .rsrc:01006226 32                               0x32 '2'
                           .rsrc:01006227 22                               0x22 '"'
                           .rsrc:01006228 2f                               0x2f '/'
                           .rsrc:01006229 3e                               0x3e '>'
                           .rsrc:0100622a 20                               0x20 ' '
                           .rsrc:0100622b 0d                               0x0d ''
                           .rsrc:0100622c 0a                               0x0a '
'
                           .rsrc:0100622d 0d                               0x0d ''
                           .rsrc:0100622e 0a                               0x0a '
'
                           .rsrc:0100622f 20                               0x20 ' '
                           .rsrc:01006230 20                               0x20 ' '
                           .rsrc:01006231 3c                               0x3c '<'
                           .rsrc:01006232 64                               0x64 'd'
                           .rsrc:01006233 65                               0x65 'e'
                           .rsrc:01006234 73                               0x73 's'
                           .rsrc:01006235 63                               0x63 'c'
                           .rsrc:01006236 72                               0x72 'r'
                           .rsrc:01006237 69                               0x69 'i'
                           .rsrc:01006238 70                               0x70 'p'
                           .rsrc:01006239 74                               0x74 't'
                           .rsrc:0100623a 69                               0x69 'i'
                           .rsrc:0100623b 6f                               0x6f 'o'
                           .rsrc:0100623c 6e                               0x6e 'n'
                           .rsrc:0100623d 3e                               0x3e '>'
                           .rsrc:0100623e 61                               0x61 'a'
                           .rsrc:0100623f 72                               0x72 'r'
                           .rsrc:01006240 70                               0x70 'p'
                           .rsrc:01006241 20                               0x20 ' '
                           .rsrc:01006242 2d                               0x2d '-'
                           .rsrc:01006243 20                               0x20 ' '
                           .rsrc:01006244 61                               0x61 'a'
                           .rsrc:01006245 64                               0x64 'd'
                           .rsrc:01006246 64                               0x64 'd'
                           .rsrc:01006247 72                               0x72 'r'
                           .rsrc:01006248 65                               0x65 'e'
                           .rsrc:01006249 73                               0x73 's'
                           .rsrc:0100624a 73                               0x73 's'
                           .rsrc:0100624b 20                               0x20 ' '
                           .rsrc:0100624c 72                               0x72 'r'
                           .rsrc:0100624d 65                               0x65 'e'
                           .rsrc:0100624e 73                               0x73 's'
                           .rsrc:0100624f 6f                               0x6f 'o'
                           .rsrc:01006250 6c                               0x6c 'l'
                           .rsrc:01006251 76                               0x76 'v'
                           .rsrc:01006252 65                               0x65 'e'
                           .rsrc:01006253 20                               0x20 ' '
                           .rsrc:01006254 70                               0x70 'p'
                           .rsrc:01006255 72                               0x72 'r'
                           .rsrc:01006256 6f                               0x6f 'o'
                           .rsrc:01006257 74                               0x74 't'
                           .rsrc:01006258 6f                               0x6f 'o'
                           .rsrc:01006259 63                               0x63 'c'
                           .rsrc:0100625a 6f                               0x6f 'o'
                           .rsrc:0100625b 6c                               0x6c 'l'
                           .rsrc:0100625c 20                               0x20 ' '
                           .rsrc:0100625d 63                               0x63 'c'
                           .rsrc:0100625e 6f                               0x6f 'o'
                           .rsrc:0100625f 6d                               0x6d 'm'
                           .rsrc:01006260 6d                               0x6d 'm'
                           .rsrc:01006261 61                               0x61 'a'
                           .rsrc:01006262 6e                               0x6e 'n'
                           .rsrc:01006263 64                               0x64 'd'
                           .rsrc:01006264 20                               0x20 ' '
                           .rsrc:01006265 6c                               0x6c 'l'
                           .rsrc:01006266 69                               0x69 'i'
                           .rsrc:01006267 6e                               0x6e 'n'
                           .rsrc:01006268 65                               0x65 'e'
                           .rsrc:01006269 20                               0x20 ' '
                           .rsrc:0100626a 74                               0x74 't'
                           .rsrc:0100626b 6f                               0x6f 'o'
                           .rsrc:0100626c 6f                               0x6f 'o'
                           .rsrc:0100626d 6c                               0x6c 'l'
                           .rsrc:0100626e 2e                               0x2e '.'
                           .rsrc:0100626f 3c                               0x3c '<'
                           .rsrc:01006270 2f                               0x2f '/'
                           .rsrc:01006271 64                               0x64 'd'
                           .rsrc:01006272 65                               0x65 'e'
                           .rsrc:01006273 73                               0x73 's'
                           .rsrc:01006274 63                               0x63 'c'
                           .rsrc:01006275 72                               0x72 'r'
                           .rsrc:01006276 69                               0x69 'i'
                           .rsrc:01006277 70                               0x70 'p'
                           .rsrc:01006278 74                               0x74 't'
                           .rsrc:01006279 69                               0x69 'i'
                           .rsrc:0100627a 6f                               0x6f 'o'
                           .rsrc:0100627b 6e                               0x6e 'n'
                           .rsrc:0100627c 3e                               0x3e '>'
                           .rsrc:0100627d 20                               0x20 ' '
                           .rsrc:0100627e 0d                               0x0d ''
                           .rsrc:0100627f 0a                               0x0a '
'
                           .rsrc:01006280 0d                               0x0d ''
                           .rsrc:01006281 0a                               0x0a '
'
                           .rsrc:01006282 20                               0x20 ' '
                           .rsrc:01006283 20                               0x20 ' '
                           .rsrc:01006284 3c                               0x3c '<'
                           .rsrc:01006285 21                               0x21 '!'
                           .rsrc:01006286 2d                               0x2d '-'
                           .rsrc:01006287 2d                               0x2d '-'
                           .rsrc:01006288 20                               0x20 ' '
                           .rsrc:01006289 49                               0x49 'I'
                           .rsrc:0100628a 64                               0x64 'd'
                           .rsrc:0100628b 65                               0x65 'e'
                           .rsrc:0100628c 6e                               0x6e 'n'
                           .rsrc:0100628d 74                               0x74 't'
                           .rsrc:0100628e 69                               0x69 'i'
                           .rsrc:0100628f 66                               0x66 'f'
                           .rsrc:01006290 79                               0x79 'y'
                           .rsrc:01006291 20                               0x20 ' '
                           .rsrc:01006292 74                               0x74 't'
                           .rsrc:01006293 68                               0x68 'h'
                           .rsrc:01006294 65                               0x65 'e'
                           .rsrc:01006295 20                               0x20 ' '
                           .rsrc:01006296 61                               0x61 'a'
                           .rsrc:01006297 70                               0x70 'p'
                           .rsrc:01006298 70                               0x70 'p'
                           .rsrc:01006299 6c                               0x6c 'l'
                           .rsrc:0100629a 69                               0x69 'i'
                           .rsrc:0100629b 63                               0x63 'c'
                           .rsrc:0100629c 61                               0x61 'a'
                           .rsrc:0100629d 74                               0x74 't'
                           .rsrc:0100629e 69                               0x69 'i'
                           .rsrc:0100629f 6f                               0x6f 'o'
                           .rsrc:010062a0 6e                               0x6e 'n'
                           .rsrc:010062a1 20                               0x20 ' '
                           .rsrc:010062a2 73                               0x73 's'
                           .rsrc:010062a3 65                               0x65 'e'
                           .rsrc:010062a4 63                               0x63 'c'
                           .rsrc:010062a5 75                               0x75 'u'
                           .rsrc:010062a6 72                               0x72 'r'
                           .rsrc:010062a7 69                               0x69 'i'
                           .rsrc:010062a8 74                               0x74 't'
                           .rsrc:010062a9 79                               0x79 'y'
                           .rsrc:010062aa 20                               0x20 ' '
                           .rsrc:010062ab 72                               0x72 'r'
                           .rsrc:010062ac 65                               0x65 'e'
                           .rsrc:010062ad 71                               0x71 'q'
                           .rsrc:010062ae 75                               0x75 'u'
                           .rsrc:010062af 69                               0x69 'i'
                           .rsrc:010062b0 72                               0x72 'r'
                           .rsrc:010062b1 65                               0x65 'e'
                           .rsrc:010062b2 6d                               0x6d 'm'
                           .rsrc:010062b3 65                               0x65 'e'
                           .rsrc:010062b4 6e                               0x6e 'n'
                           .rsrc:010062b5 74                               0x74 't'
                           .rsrc:010062b6 73                               0x73 's'
                           .rsrc:010062b7 2e                               0x2e '.'
                           .rsrc:010062b8 20                               0x20 ' '
                           .rsrc:010062b9 2d                               0x2d '-'
                           .rsrc:010062ba 2d                               0x2d '-'
                           .rsrc:010062bb 3e                               0x3e '>'
                           .rsrc:010062bc 0d                               0x0d ''
                           .rsrc:010062bd 0a                               0x0a '
'
                           .rsrc:010062be 0d                               0x0d ''
                           .rsrc:010062bf 0a                               0x0a '
'
                           .rsrc:010062c0 20                               0x20 ' '
                           .rsrc:010062c1 20                               0x20 ' '
                           .rsrc:010062c2 3c                               0x3c '<'
                           .rsrc:010062c3 74                               0x74 't'
                           .rsrc:010062c4 72                               0x72 'r'
                           .rsrc:010062c5 75                               0x75 'u'
                           .rsrc:010062c6 73                               0x73 's'
                           .rsrc:010062c7 74                               0x74 't'
                           .rsrc:010062c8 49                               0x49 'I'
                           .rsrc:010062c9 6e                               0x6e 'n'
                           .rsrc:010062ca 66                               0x66 'f'
                           .rsrc:010062cb 6f                               0x6f 'o'
                           .rsrc:010062cc 20                               0x20 ' '
                           .rsrc:010062cd 78                               0x78 'x'
                           .rsrc:010062ce 6d                               0x6d 'm'
                           .rsrc:010062cf 6c                               0x6c 'l'
                           .rsrc:010062d0 6e                               0x6e 'n'
                           .rsrc:010062d1 73                               0x73 's'
                           .rsrc:010062d2 3d                               0x3d '='
                           .rsrc:010062d3 22                               0x22 '"'
                           .rsrc:010062d4 75                               0x75 'u'
                           .rsrc:010062d5 72                               0x72 'r'
                           .rsrc:010062d6 6e                               0x6e 'n'
                           .rsrc:010062d7 3a                               0x3a ':'
                           .rsrc:010062d8 73                               0x73 's'
                           .rsrc:010062d9 63                               0x63 'c'
                           .rsrc:010062da 68                               0x68 'h'
                           .rsrc:010062db 65                               0x65 'e'
                           .rsrc:010062dc 6d                               0x6d 'm'
                           .rsrc:010062dd 61                               0x61 'a'
                           .rsrc:010062de 73                               0x73 's'
                           .rsrc:010062df 2d                               0x2d '-'
                           .rsrc:010062e0 6d                               0x6d 'm'
                           .rsrc:010062e1 69                               0x69 'i'
                           .rsrc:010062e2 63                               0x63 'c'
                           .rsrc:010062e3 72                               0x72 'r'
                           .rsrc:010062e4 6f                               0x6f 'o'
                           .rsrc:010062e5 73                               0x73 's'
                           .rsrc:010062e6 6f                               0x6f 'o'
                           .rsrc:010062e7 66                               0x66 'f'
                           .rsrc:010062e8 74                               0x74 't'
                           .rsrc:010062e9 2d                               0x2d '-'
                           .rsrc:010062ea 63                               0x63 'c'
                           .rsrc:010062eb 6f                               0x6f 'o'
                           .rsrc:010062ec 6d                               0x6d 'm'
                           .rsrc:010062ed 3a                               0x3a ':'
                           .rsrc:010062ee 61                               0x61 'a'
                           .rsrc:010062ef 73                               0x73 's'
                           .rsrc:010062f0 6d                               0x6d 'm'
                           .rsrc:010062f1 2e                               0x2e '.'
                           .rsrc:010062f2 76                               0x76 'v'
                           .rsrc:010062f3 33                               0x33 '3'
                           .rsrc:010062f4 22                               0x22 '"'
                           .rsrc:010062f5 3e                               0x3e '>'
                           .rsrc:010062f6 0d                               0x0d ''
                           .rsrc:010062f7 0a                               0x0a '
'
                           .rsrc:010062f8 20                               0x20 ' '
                           .rsrc:010062f9 20                               0x20 ' '
                           .rsrc:010062fa 20                               0x20 ' '
                           .rsrc:010062fb 20                               0x20 ' '
                           .rsrc:010062fc 3c                               0x3c '<'
                           .rsrc:010062fd 73                               0x73 's'
                           .rsrc:010062fe 65                               0x65 'e'
                           .rsrc:010062ff 63                               0x63 'c'
                           .rsrc:01006300 75                               0x75 'u'
                           .rsrc:01006301 72                               0x72 'r'
                           .rsrc:01006302 69                               0x69 'i'
                           .rsrc:01006303 74                               0x74 't'
                           .rsrc:01006304 79                               0x79 'y'
                           .rsrc:01006305 3e                               0x3e '>'
                           .rsrc:01006306 0d                               0x0d ''
                           .rsrc:01006307 0a                               0x0a '
'
                           .rsrc:01006308 20                               0x20 ' '
                           .rsrc:01006309 20                               0x20 ' '
                           .rsrc:0100630a 20                               0x20 ' '
                           .rsrc:0100630b 20                               0x20 ' '
                           .rsrc:0100630c 20                               0x20 ' '
                           .rsrc:0100630d 20                               0x20 ' '
                           .rsrc:0100630e 3c                               0x3c '<'
                           .rsrc:0100630f 72                               0x72 'r'
                           .rsrc:01006310 65                               0x65 'e'
                           .rsrc:01006311 71                               0x71 'q'
                           .rsrc:01006312 75                               0x75 'u'
                           .rsrc:01006313 65                               0x65 'e'
                           .rsrc:01006314 73                               0x73 's'
                           .rsrc:01006315 74                               0x74 't'
                           .rsrc:01006316 65                               0x65 'e'
                           .rsrc:01006317 64                               0x64 'd'
                           .rsrc:01006318 50                               0x50 'P'
                           .rsrc:01006319 72                               0x72 'r'
                           .rsrc:0100631a 69                               0x69 'i'
                           .rsrc:0100631b 76                               0x76 'v'
                           .rsrc:0100631c 69                               0x69 'i'
                           .rsrc:0100631d 6c                               0x6c 'l'
                           .rsrc:0100631e 65                               0x65 'e'
                           .rsrc:0100631f 67                               0x67 'g'
                           .rsrc:01006320 65                               0x65 'e'
                           .rsrc:01006321 73                               0x73 's'
                           .rsrc:01006322 3e                               0x3e '>'
                           .rsrc:01006323 0d                               0x0d ''
                           .rsrc:01006324 0a                               0x0a '
'
                           .rsrc:01006325 20                               0x20 ' '
                           .rsrc:01006326 20                               0x20 ' '
                           .rsrc:01006327 20                               0x20 ' '
                           .rsrc:01006328 20                               0x20 ' '
                           .rsrc:01006329 20                               0x20 ' '
                           .rsrc:0100632a 20                               0x20 ' '
                           .rsrc:0100632b 20                               0x20 ' '
                           .rsrc:0100632c 20                               0x20 ' '
                           .rsrc:0100632d 3c                               0x3c '<'
                           .rsrc:0100632e 72                               0x72 'r'
                           .rsrc:0100632f 65                               0x65 'e'
                           .rsrc:01006330 71                               0x71 'q'
                           .rsrc:01006331 75                               0x75 'u'
                           .rsrc:01006332 65                               0x65 'e'
                           .rsrc:01006333 73                               0x73 's'
                           .rsrc:01006334 74                               0x74 't'
                           .rsrc:01006335 65                               0x65 'e'
                           .rsrc:01006336 64                               0x64 'd'
                           .rsrc:01006337 45                               0x45 'E'
                           .rsrc:01006338 78                               0x78 'x'
                           .rsrc:01006339 65                               0x65 'e'
                           .rsrc:0100633a 63                               0x63 'c'
                           .rsrc:0100633b 75                               0x75 'u'
                           .rsrc:0100633c 74                               0x74 't'
                           .rsrc:0100633d 69                               0x69 'i'
                           .rsrc:0100633e 6f                               0x6f 'o'
                           .rsrc:0100633f 6e                               0x6e 'n'
                           .rsrc:01006340 4c                               0x4c 'L'
                           .rsrc:01006341 65                               0x65 'e'
                           .rsrc:01006342 76                               0x76 'v'
                           .rsrc:01006343 65                               0x65 'e'
                           .rsrc:01006344 6c                               0x6c 'l'
                           .rsrc:01006345 0d                               0x0d ''
                           .rsrc:01006346 0a                               0x0a '
'
                           .rsrc:01006347 20                               0x20 ' '
                           .rsrc:01006348 20                               0x20 ' '
                           .rsrc:01006349 20                               0x20 ' '
                           .rsrc:0100634a 20                               0x20 ' '
                           .rsrc:0100634b 20                               0x20 ' '
                           .rsrc:0100634c 20                               0x20 ' '
                           .rsrc:0100634d 20                               0x20 ' '
                           .rsrc:0100634e 20                               0x20 ' '
                           .rsrc:0100634f 20                               0x20 ' '
                           .rsrc:01006350 20                               0x20 ' '
                           .rsrc:01006351 6c                               0x6c 'l'
                           .rsrc:01006352 65                               0x65 'e'
                           .rsrc:01006353 76                               0x76 'v'
                           .rsrc:01006354 65                               0x65 'e'
                           .rsrc:01006355 6c                               0x6c 'l'
                           .rsrc:01006356 3d                               0x3d '='
                           .rsrc:01006357 22                               0x22 '"'
                           .rsrc:01006358 61                               0x61 'a'
                           .rsrc:01006359 73                               0x73 's'
                           .rsrc:0100635a 49                               0x49 'I'
                           .rsrc:0100635b 6e                               0x6e 'n'
                           .rsrc:0100635c 76                               0x76 'v'
                           .rsrc:0100635d 6f                               0x6f 'o'
                           .rsrc:0100635e 6b                               0x6b 'k'
                           .rsrc:0100635f 65                               0x65 'e'
                           .rsrc:01006360 72                               0x72 'r'
                           .rsrc:01006361 22                               0x22 '"'
                           .rsrc:01006362 0d                               0x0d ''
                           .rsrc:01006363 0a                               0x0a '
'
                           .rsrc:01006364 20                               0x20 ' '
                           .rsrc:01006365 20                               0x20 ' '
                           .rsrc:01006366 20                               0x20 ' '
                           .rsrc:01006367 20                               0x20 ' '
                           .rsrc:01006368 20                               0x20 ' '
                           .rsrc:01006369 20                               0x20 ' '
                           .rsrc:0100636a 20                               0x20 ' '
                           .rsrc:0100636b 20                               0x20 ' '
                           .rsrc:0100636c 20                               0x20 ' '
                           .rsrc:0100636d 20                               0x20 ' '
                           .rsrc:0100636e 75                               0x75 'u'
                           .rsrc:0100636f 69                               0x69 'i'
                           .rsrc:01006370 41                               0x41 'A'
                           .rsrc:01006371 63                               0x63 'c'
                           .rsrc:01006372 63                               0x63 'c'
                           .rsrc:01006373 65                               0x65 'e'
                           .rsrc:01006374 73                               0x73 's'
                           .rsrc:01006375 73                               0x73 's'
                           .rsrc:01006376 3d                               0x3d '='
                           .rsrc:01006377 22                               0x22 '"'
                           .rsrc:01006378 66                               0x66 'f'
                           .rsrc:01006379 61                               0x61 'a'
                           .rsrc:0100637a 6c                               0x6c 'l'
                           .rsrc:0100637b 73                               0x73 's'
                           .rsrc:0100637c 65                               0x65 'e'
                           .rsrc:0100637d 22                               0x22 '"'
                           .rsrc:0100637e 2f                               0x2f '/'
                           .rsrc:0100637f 3e                               0x3e '>'
                           .rsrc:01006380 0d                               0x0d ''
                           .rsrc:01006381 0a                               0x0a '
'
                           .rsrc:01006382 20                               0x20 ' '
                           .rsrc:01006383 20                               0x20 ' '
                           .rsrc:01006384 20                               0x20 ' '
                           .rsrc:01006385 20                               0x20 ' '
                           .rsrc:01006386 20                               0x20 ' '
                           .rsrc:01006387 20                               0x20 ' '
                           .rsrc:01006388 20                               0x20 ' '
                           .rsrc:01006389 20                               0x20 ' '
                           .rsrc:0100638a 3c                               0x3c '<'
                           .rsrc:0100638b 2f                               0x2f '/'
                           .rsrc:0100638c 72                               0x72 'r'
                           .rsrc:0100638d 65                               0x65 'e'
                           .rsrc:0100638e 71                               0x71 'q'
                           .rsrc:0100638f 75                               0x75 'u'
                           .rsrc:01006390 65                               0x65 'e'
                           .rsrc:01006391 73                               0x73 's'
                           .rsrc:01006392 74                               0x74 't'
                           .rsrc:01006393 65                               0x65 'e'
                           .rsrc:01006394 64                               0x64 'd'
                           .rsrc:01006395 50                               0x50 'P'
                           .rsrc:01006396 72                               0x72 'r'
                           .rsrc:01006397 69                               0x69 'i'
                           .rsrc:01006398 76                               0x76 'v'
                           .rsrc:01006399 69                               0x69 'i'
                           .rsrc:0100639a 6c                               0x6c 'l'
                           .rsrc:0100639b 65                               0x65 'e'
                           .rsrc:0100639c 67                               0x67 'g'
                           .rsrc:0100639d 65                               0x65 'e'
                           .rsrc:0100639e 73                               0x73 's'
                           .rsrc:0100639f 3e                               0x3e '>'
                           .rsrc:010063a0 0d                               0x0d ''
                           .rsrc:010063a1 0a                               0x0a '
'
                           .rsrc:010063a2 20                               0x20 ' '
                           .rsrc:010063a3 20                               0x20 ' '
                           .rsrc:010063a4 20                               0x20 ' '
                           .rsrc:010063a5 20                               0x20 ' '
                           .rsrc:010063a6 20                               0x20 ' '
                           .rsrc:010063a7 20                               0x20 ' '
                           .rsrc:010063a8 20                               0x20 ' '
                           .rsrc:010063a9 3c                               0x3c '<'
                           .rsrc:010063aa 2f                               0x2f '/'
                           .rsrc:010063ab 73                               0x73 's'
                           .rsrc:010063ac 65                               0x65 'e'
                           .rsrc:010063ad 63                               0x63 'c'
                           .rsrc:010063ae 75                               0x75 'u'
                           .rsrc:010063af 72                               0x72 'r'
                           .rsrc:010063b0 69                               0x69 'i'
                           .rsrc:010063b1 74                               0x74 't'
                           .rsrc:010063b2 79                               0x79 'y'
                           .rsrc:010063b3 3e                               0x3e '>'
                           .rsrc:010063b4 0d                               0x0d ''
                           .rsrc:010063b5 0a                               0x0a '
'
                           .rsrc:010063b6 20                               0x20 ' '
                           .rsrc:010063b7 20                               0x20 ' '
                           .rsrc:010063b8 3c                               0x3c '<'
                           .rsrc:010063b9 2f                               0x2f '/'
                           .rsrc:010063ba 74                               0x74 't'
                           .rsrc:010063bb 72                               0x72 'r'
                           .rsrc:010063bc 75                               0x75 'u'
                           .rsrc:010063bd 73                               0x73 's'
                           .rsrc:010063be 74                               0x74 't'
                           .rsrc:010063bf 49                               0x49 'I'
                           .rsrc:010063c0 6e                               0x6e 'n'
                           .rsrc:010063c1 66                               0x66 'f'
                           .rsrc:010063c2 6f                               0x6f 'o'
                           .rsrc:010063c3 3e                               0x3e '>'
                           .rsrc:010063c4 0d                               0x0d ''
                           .rsrc:010063c5 0a                               0x0a '
'
                           .rsrc:010063c6 0d                               0x0d ''
                           .rsrc:010063c7 0a                               0x0a '
'
                           .rsrc:010063c8 3c                               0x3c '<'
                           .rsrc:010063c9 2f                               0x2f '/'
                           .rsrc:010063ca 61                               0x61 'a'
                           .rsrc:010063cb 73                               0x73 's'
                           .rsrc:010063cc 73                               0x73 's'
                           .rsrc:010063cd 65                               0x65 'e'
                           .rsrc:010063ce 6d                               0x6d 'm'
                           .rsrc:010063cf 62                               0x62 'b'
                           .rsrc:010063d0 6c                               0x6c 'l'
                           .rsrc:010063d1 79                               0x79 'y'
                           .rsrc:010063d2 3e                               0x3e '>'
                           .rsrc:010063d3 00                               0x00 
                           .rsrc:010063d4 00                               0x00 
                           .rsrc:010063d5 00                               0x00 
                           .rsrc:010063d6 00                               0x00 
                           .rsrc:010063d7 00                               0x00 
                           .rsrc:010063d8 7c                               0x7c '|'
                           .rsrc:010063d9 03                               0x03 
                           .rsrc:010063da 34                               0x34 '4'
                           .rsrc:010063db 00                               0x00 
                           .rsrc:010063dc 00                               0x00 
                           .rsrc:010063dd 00                               0x00 
                           .rsrc:010063de 56                               0x56 'V'
                           .rsrc:010063df 00                               0x00 
                           .rsrc:010063e0 53                               0x53 'S'
                           .rsrc:010063e1 00                               0x00 
                           .rsrc:010063e2 5f                               0x5f '_'
                           .rsrc:010063e3 00                               0x00 
                           .rsrc:010063e4 56                               0x56 'V'
                           .rsrc:010063e5 00                               0x00 
                           .rsrc:010063e6 45                               0x45 'E'
                           .rsrc:010063e7 00                               0x00 
                           .rsrc:010063e8 52                               0x52 'R'
                           .rsrc:010063e9 00                               0x00 
                           .rsrc:010063ea 53                               0x53 'S'
                           .rsrc:010063eb 00                               0x00 
                           .rsrc:010063ec 49                               0x49 'I'
                           .rsrc:010063ed 00                               0x00 
                           .rsrc:010063ee 4f                               0x4f 'O'
                           .rsrc:010063ef 00                               0x00 
                           .rsrc:010063f0 4e                               0x4e 'N'
                           .rsrc:010063f1 00                               0x00 
                           .rsrc:010063f2 5f                               0x5f '_'
                           .rsrc:010063f3 00                               0x00 
                           .rsrc:010063f4 49                               0x49 'I'
                           .rsrc:010063f5 00                               0x00 
                           .rsrc:010063f6 4e                               0x4e 'N'
                           .rsrc:010063f7 00                               0x00 
                           .rsrc:010063f8 46                               0x46 'F'
                           .rsrc:010063f9 00                               0x00 
                           .rsrc:010063fa 4f                               0x4f 'O'
                           .rsrc:010063fb 00                               0x00 
                           .rsrc:010063fc 00                               0x00 
                           .rsrc:010063fd 00                               0x00 
                           .rsrc:010063fe 00                               0x00 
                           .rsrc:010063ff 00                               0x00 
                           .rsrc:01006400 bd                               0xbd 
                           .rsrc:01006401 04                               0x04 
                           .rsrc:01006402 ef                               0xef 
                           .rsrc:01006403 fe                               0xfe 
                           .rsrc:01006404 00                               0x00 
                           .rsrc:01006405 00                               0x00 
                           .rsrc:01006406 01                               0x01 
                           .rsrc:01006407 00                               0x00 
                           .rsrc:01006408 01                               0x01 
                           .rsrc:01006409 00                               0x00 
                           .rsrc:0100640a 06                               0x06 
                           .rsrc:0100640b 00                               0x00 
                           .rsrc:0100640c 01                               0x01 
                           .rsrc:0100640d 40                               0x40 '@'
                           .rsrc:0100640e b0                               0xb0 
                           .rsrc:0100640f 1d                               0x1d 
                           .rsrc:01006410 01                               0x01 
                           .rsrc:01006411 00                               0x00 
                           .rsrc:01006412 06                               0x06 
                           .rsrc:01006413 00                               0x00 
                           .rsrc:01006414 01                               0x01 
                           .rsrc:01006415 40                               0x40 '@'
                           .rsrc:01006416 b0                               0xb0 
                           .rsrc:01006417 1d                               0x1d 
                           .rsrc:01006418 3f                               0x3f '?'
                           .rsrc:01006419 00                               0x00 
                           .rsrc:0100641a 00                               0x00 
                           .rsrc:0100641b 00                               0x00 
                           .rsrc:0100641c 00                               0x00 
                           .rsrc:0100641d 00                               0x00 
                           .rsrc:0100641e 00                               0x00 
                           .rsrc:0100641f 00                               0x00 
                           .rsrc:01006420 04                               0x04 
                           .rsrc:01006421 00                               0x00 
                           .rsrc:01006422 04                               0x04 
                           .rsrc:01006423 00                               0x00 
                           .rsrc:01006424 01                               0x01 
                           .rsrc:01006425 00                               0x00 
                           .rsrc:01006426 00                               0x00 
                           .rsrc:01006427 00                               0x00 
                           .rsrc:01006428 00                               0x00 
                           .rsrc:01006429 00                               0x00 
                           .rsrc:0100642a 00                               0x00 
                           .rsrc:0100642b 00                               0x00 
                           .rsrc:0100642c 00                               0x00 
                           .rsrc:0100642d 00                               0x00 
                           .rsrc:0100642e 00                               0x00 
                           .rsrc:0100642f 00                               0x00 
                           .rsrc:01006430 00                               0x00 
                           .rsrc:01006431 00                               0x00 
                           .rsrc:01006432 00                               0x00 
                           .rsrc:01006433 00                               0x00 
                           .rsrc:01006434 da                               0xda 
                           .rsrc:01006435 02                               0x02 
                           .rsrc:01006436 00                               0x00 
                           .rsrc:01006437 00                               0x00 
                           .rsrc:01006438 01                               0x01 
                           .rsrc:01006439 00                               0x00 
                           .rsrc:0100643a 53                               0x53 'S'
                           .rsrc:0100643b 00                               0x00 
                           .rsrc:0100643c 74                               0x74 't'
                           .rsrc:0100643d 00                               0x00 
                           .rsrc:0100643e 72                               0x72 'r'
                           .rsrc:0100643f 00                               0x00 
                           .rsrc:01006440 69                               0x69 'i'
                           .rsrc:01006441 00                               0x00 
                           .rsrc:01006442 6e                               0x6e 'n'
                           .rsrc:01006443 00                               0x00 
                           .rsrc:01006444 67                               0x67 'g'
                           .rsrc:01006445 00                               0x00 
                           .rsrc:01006446 46                               0x46 'F'
                           .rsrc:01006447 00                               0x00 
                           .rsrc:01006448 69                               0x69 'i'
                           .rsrc:01006449 00                               0x00 
                           .rsrc:0100644a 6c                               0x6c 'l'
                           .rsrc:0100644b 00                               0x00 
                           .rsrc:0100644c 65                               0x65 'e'
                           .rsrc:0100644d 00                               0x00 
                           .rsrc:0100644e 49                               0x49 'I'
                           .rsrc:0100644f 00                               0x00 
                           .rsrc:01006450 6e                               0x6e 'n'
                           .rsrc:01006451 00                               0x00 
                           .rsrc:01006452 66                               0x66 'f'
                           .rsrc:01006453 00                               0x00 
                           .rsrc:01006454 6f                               0x6f 'o'
                           .rsrc:01006455 00                               0x00 
                           .rsrc:01006456 00                               0x00 
                           .rsrc:01006457 00                               0x00 
                           .rsrc:01006458 b6                               0xb6 
                           .rsrc:01006459 02                               0x02 
                           .rsrc:0100645a 00                               0x00 
                           .rsrc:0100645b 00                               0x00 
                           .rsrc:0100645c 01                               0x01 
                           .rsrc:0100645d 00                               0x00 
                           .rsrc:0100645e 30                               0x30 '0'
                           .rsrc:0100645f 00                               0x00 
                           .rsrc:01006460 34                               0x34 '4'
                           .rsrc:01006461 00                               0x00 
                           .rsrc:01006462 30                               0x30 '0'
                           .rsrc:01006463 00                               0x00 
                           .rsrc:01006464 39                               0x39 '9'
                           .rsrc:01006465 00                               0x00 
                           .rsrc:01006466 30                               0x30 '0'
                           .rsrc:01006467 00                               0x00 
                           .rsrc:01006468 34                               0x34 '4'
                           .rsrc:01006469 00                               0x00 
                           .rsrc:0100646a 42                               0x42 'B'
                           .rsrc:0100646b 00                               0x00 
                           .rsrc:0100646c 30                               0x30 '0'
                           .rsrc:0100646d 00                               0x00 
                           .rsrc:0100646e 00                               0x00 
                           .rsrc:0100646f 00                               0x00 
                           .rsrc:01006470 4c                               0x4c 'L'
                           .rsrc:01006471 00                               0x00 
                           .rsrc:01006472 16                               0x16 
                           .rsrc:01006473 00                               0x00 
                           .rsrc:01006474 01                               0x01 
                           .rsrc:01006475 00                               0x00 
                           .rsrc:01006476 43                               0x43 'C'
                           .rsrc:01006477 00                               0x00 
                           .rsrc:01006478 6f                               0x6f 'o'
                           .rsrc:01006479 00                               0x00 
                           .rsrc:0100647a 6d                               0x6d 'm'
                           .rsrc:0100647b 00                               0x00 
                           .rsrc:0100647c 70                               0x70 'p'
                           .rsrc:0100647d 00                               0x00 
                           .rsrc:0100647e 61                               0x61 'a'
                           .rsrc:0100647f 00                               0x00 
                           .rsrc:01006480 6e                               0x6e 'n'
                           .rsrc:01006481 00                               0x00 
                           .rsrc:01006482 79                               0x79 'y'
                           .rsrc:01006483 00                               0x00 
                           .rsrc:01006484 4e                               0x4e 'N'
                           .rsrc:01006485 00                               0x00 
                           .rsrc:01006486 61                               0x61 'a'
                           .rsrc:01006487 00                               0x00 
                           .rsrc:01006488 6d                               0x6d 'm'
                           .rsrc:01006489 00                               0x00 
                           .rsrc:0100648a 65                               0x65 'e'
                           .rsrc:0100648b 00                               0x00 
                           .rsrc:0100648c 00                               0x00 
                           .rsrc:0100648d 00                               0x00 
                           .rsrc:0100648e 00                               0x00 
                           .rsrc:0100648f 00                               0x00 
                           .rsrc:01006490 4d                               0x4d 'M'
                           .rsrc:01006491 00                               0x00 
                           .rsrc:01006492 69                               0x69 'i'
                           .rsrc:01006493 00                               0x00 
                           .rsrc:01006494 63                               0x63 'c'
                           .rsrc:01006495 00                               0x00 
                           .rsrc:01006496 72                               0x72 'r'
                           .rsrc:01006497 00                               0x00 
                           .rsrc:01006498 6f                               0x6f 'o'
                           .rsrc:01006499 00                               0x00 
                           .rsrc:0100649a 73                               0x73 's'
                           .rsrc:0100649b 00                               0x00 
                           .rsrc:0100649c 6f                               0x6f 'o'
                           .rsrc:0100649d 00                               0x00 
                           .rsrc:0100649e 66                               0x66 'f'
                           .rsrc:0100649f 00                               0x00 
                           .rsrc:010064a0 74                               0x74 't'
                           .rsrc:010064a1 00                               0x00 
                           .rsrc:010064a2 20                               0x20 ' '
                           .rsrc:010064a3 00                               0x00 
                           .rsrc:010064a4 43                               0x43 'C'
                           .rsrc:010064a5 00                               0x00 
                           .rsrc:010064a6 6f                               0x6f 'o'
                           .rsrc:010064a7 00                               0x00 
                           .rsrc:010064a8 72                               0x72 'r'
                           .rsrc:010064a9 00                               0x00 
                           .rsrc:010064aa 70                               0x70 'p'
                           .rsrc:010064ab 00                               0x00 
                           .rsrc:010064ac 6f                               0x6f 'o'
                           .rsrc:010064ad 00                               0x00 
                           .rsrc:010064ae 72                               0x72 'r'
                           .rsrc:010064af 00                               0x00 
                           .rsrc:010064b0 61                               0x61 'a'
                           .rsrc:010064b1 00                               0x00 
                           .rsrc:010064b2 74                               0x74 't'
                           .rsrc:010064b3 00                               0x00 
                           .rsrc:010064b4 69                               0x69 'i'
                           .rsrc:010064b5 00                               0x00 
                           .rsrc:010064b6 6f                               0x6f 'o'
                           .rsrc:010064b7 00                               0x00 
                           .rsrc:010064b8 6e                               0x6e 'n'
                           .rsrc:010064b9 00                               0x00 
                           .rsrc:010064ba 00                               0x00 
                           .rsrc:010064bb 00                               0x00 
                           .rsrc:010064bc 4e                               0x4e 'N'
                           .rsrc:010064bd 00                               0x00 
                           .rsrc:010064be 13                               0x13 
                           .rsrc:010064bf 00                               0x00 
                           .rsrc:010064c0 01                               0x01 
                           .rsrc:010064c1 00                               0x00 
                           .rsrc:010064c2 46                               0x46 'F'
                           .rsrc:010064c3 00                               0x00 
                           .rsrc:010064c4 69                               0x69 'i'
                           .rsrc:010064c5 00                               0x00 
                           .rsrc:010064c6 6c                               0x6c 'l'
                           .rsrc:010064c7 00                               0x00 
                           .rsrc:010064c8 65                               0x65 'e'
                           .rsrc:010064c9 00                               0x00 
                           .rsrc:010064ca 44                               0x44 'D'
                           .rsrc:010064cb 00                               0x00 
                           .rsrc:010064cc 65                               0x65 'e'
                           .rsrc:010064cd 00                               0x00 
                           .rsrc:010064ce 73                               0x73 's'
                           .rsrc:010064cf 00                               0x00 
                           .rsrc:010064d0 63                               0x63 'c'
                           .rsrc:010064d1 00                               0x00 
                           .rsrc:010064d2 72                               0x72 'r'
                           .rsrc:010064d3 00                               0x00 
                           .rsrc:010064d4 69                               0x69 'i'
                           .rsrc:010064d5 00                               0x00 
                           .rsrc:010064d6 70                               0x70 'p'
                           .rsrc:010064d7 00                               0x00 
                           .rsrc:010064d8 74                               0x74 't'
                           .rsrc:010064d9 00                               0x00 
                           .rsrc:010064da 69                               0x69 'i'
                           .rsrc:010064db 00                               0x00 
                           .rsrc:010064dc 6f                               0x6f 'o'
                           .rsrc:010064dd 00                               0x00 
                           .rsrc:010064de 6e                               0x6e 'n'
                           .rsrc:010064df 00                               0x00 
                           .rsrc:010064e0 00                               0x00 
                           .rsrc:010064e1 00                               0x00 
                           .rsrc:010064e2 00                               0x00 
                           .rsrc:010064e3 00                               0x00 
                           .rsrc:010064e4 54                               0x54 'T'
                           .rsrc:010064e5 00                               0x00 
                           .rsrc:010064e6 43                               0x43 'C'
                           .rsrc:010064e7 00                               0x00 
                           .rsrc:010064e8 50                               0x50 'P'
                           .rsrc:010064e9 00                               0x00 
                           .rsrc:010064ea 2f                               0x2f '/'
                           .rsrc:010064eb 00                               0x00 
                           .rsrc:010064ec 49                               0x49 'I'
                           .rsrc:010064ed 00                               0x00 
                           .rsrc:010064ee 50                               0x50 'P'
                           .rsrc:010064ef 00                               0x00 
                           .rsrc:010064f0 20                               0x20 ' '
                           .rsrc:010064f1 00                               0x00 
                           .rsrc:010064f2 41                               0x41 'A'
                           .rsrc:010064f3 00                               0x00 
                           .rsrc:010064f4 72                               0x72 'r'
                           .rsrc:010064f5 00                               0x00 
                           .rsrc:010064f6 70                               0x70 'p'
                           .rsrc:010064f7 00                               0x00 
                           .rsrc:010064f8 20                               0x20 ' '
                           .rsrc:010064f9 00                               0x00 
                           .rsrc:010064fa 43                               0x43 'C'
                           .rsrc:010064fb 00                               0x00 
                           .rsrc:010064fc 6f                               0x6f 'o'
                           .rsrc:010064fd 00                               0x00 
                           .rsrc:010064fe 6d                               0x6d 'm'
                           .rsrc:010064ff 00                               0x00 
                           .rsrc:01006500 6d                               0x6d 'm'
                           .rsrc:01006501 00                               0x00 
                           .rsrc:01006502 61                               0x61 'a'
                           .rsrc:01006503 00                               0x00 
                           .rsrc:01006504 6e                               0x6e 'n'
                           .rsrc:01006505 00                               0x00 
                           .rsrc:01006506 64                               0x64 'd'
                           .rsrc:01006507 00                               0x00 
                           .rsrc:01006508 00                               0x00 
                           .rsrc:01006509 00                               0x00 
                           .rsrc:0100650a 00                               0x00 
                           .rsrc:0100650b 00                               0x00 
                           .rsrc:0100650c 6c                               0x6c 'l'
                           .rsrc:0100650d 00                               0x00 
                           .rsrc:0100650e 26                               0x26 '&'
                           .rsrc:0100650f 00                               0x00 
                           .rsrc:01006510 01                               0x01 
                           .rsrc:01006511 00                               0x00 
                           .rsrc:01006512 46                               0x46 'F'
                           .rsrc:01006513 00                               0x00 
                           .rsrc:01006514 69                               0x69 'i'
                           .rsrc:01006515 00                               0x00 
                           .rsrc:01006516 6c                               0x6c 'l'
                           .rsrc:01006517 00                               0x00 
                           .rsrc:01006518 65                               0x65 'e'
                           .rsrc:01006519 00                               0x00 
                           .rsrc:0100651a 56                               0x56 'V'
                           .rsrc:0100651b 00                               0x00 
                           .rsrc:0100651c 65                               0x65 'e'
                           .rsrc:0100651d 00                               0x00 
                           .rsrc:0100651e 72                               0x72 'r'
                           .rsrc:0100651f 00                               0x00 
                           .rsrc:01006520 73                               0x73 's'
                           .rsrc:01006521 00                               0x00 
                           .rsrc:01006522 69                               0x69 'i'
                           .rsrc:01006523 00                               0x00 
                           .rsrc:01006524 6f                               0x6f 'o'
                           .rsrc:01006525 00                               0x00 
                           .rsrc:01006526 6e                               0x6e 'n'
                           .rsrc:01006527 00                               0x00 
                           .rsrc:01006528 00                               0x00 
                           .rsrc:01006529 00                               0x00 
                           .rsrc:0100652a 00                               0x00 
                           .rsrc:0100652b 00                               0x00 
                           .rsrc:0100652c 36                               0x36 '6'
                           .rsrc:0100652d 00                               0x00 
                           .rsrc:0100652e 2e                               0x2e '.'
                           .rsrc:0100652f 00                               0x00 
                           .rsrc:01006530 31                               0x31 '1'
                           .rsrc:01006531 00                               0x00 
                           .rsrc:01006532 2e                               0x2e '.'
                           .rsrc:01006533 00                               0x00 
                           .rsrc:01006534 37                               0x37 '7'
                           .rsrc:01006535 00                               0x00 
                           .rsrc:01006536 36                               0x36 '6'
                           .rsrc:01006537 00                               0x00 
                           .rsrc:01006538 30                               0x30 '0'
                           .rsrc:01006539 00                               0x00 
                           .rsrc:0100653a 30                               0x30 '0'
                           .rsrc:0100653b 00                               0x00 
                           .rsrc:0100653c 2e                               0x2e '.'
                           .rsrc:0100653d 00                               0x00 
                           .rsrc:0100653e 31                               0x31 '1'
                           .rsrc:0100653f 00                               0x00 
                           .rsrc:01006540 36                               0x36 '6'
                           .rsrc:01006541 00                               0x00 
                           .rsrc:01006542 33                               0x33 '3'
                           .rsrc:01006543 00                               0x00 
                           .rsrc:01006544 38                               0x38 '8'
                           .rsrc:01006545 00                               0x00 
                           .rsrc:01006546 35                               0x35 '5'
                           .rsrc:01006547 00                               0x00 
                           .rsrc:01006548 20                               0x20 ' '
                           .rsrc:01006549 00                               0x00 
                           .rsrc:0100654a 28                               0x28 '('
                           .rsrc:0100654b 00                               0x00 
                           .rsrc:0100654c 77                               0x77 'w'
                           .rsrc:0100654d 00                               0x00 
                           .rsrc:0100654e 69                               0x69 'i'
                           .rsrc:0100654f 00                               0x00 
                           .rsrc:01006550 6e                               0x6e 'n'
                           .rsrc:01006551 00                               0x00 
                           .rsrc:01006552 37                               0x37 '7'
                           .rsrc:01006553 00                               0x00 
                           .rsrc:01006554 5f                               0x5f '_'
                           .rsrc:01006555 00                               0x00 
                           .rsrc:01006556 72                               0x72 'r'
                           .rsrc:01006557 00                               0x00 
                           .rsrc:01006558 74                               0x74 't'
                           .rsrc:01006559 00                               0x00 
                           .rsrc:0100655a 6d                               0x6d 'm'
                           .rsrc:0100655b 00                               0x00 
                           .rsrc:0100655c 2e                               0x2e '.'
                           .rsrc:0100655d 00                               0x00 
                           .rsrc:0100655e 30                               0x30 '0'
                           .rsrc:0100655f 00                               0x00 
                           .rsrc:01006560 39                               0x39 '9'
                           .rsrc:01006561 00                               0x00 
                           .rsrc:01006562 30                               0x30 '0'
                           .rsrc:01006563 00                               0x00 
                           .rsrc:01006564 37                               0x37 '7'
                           .rsrc:01006565 00                               0x00 
                           .rsrc:01006566 31                               0x31 '1'
                           .rsrc:01006567 00                               0x00 
                           .rsrc:01006568 33                               0x33 '3'
                           .rsrc:01006569 00                               0x00 
                           .rsrc:0100656a 2d                               0x2d '-'
                           .rsrc:0100656b 00                               0x00 
                           .rsrc:0100656c 31                               0x31 '1'
                           .rsrc:0100656d 00                               0x00 
                           .rsrc:0100656e 32                               0x32 '2'
                           .rsrc:0100656f 00                               0x00 
                           .rsrc:01006570 35                               0x35 '5'
                           .rsrc:01006571 00                               0x00 
                           .rsrc:01006572 35                               0x35 '5'
                           .rsrc:01006573 00                               0x00 
                           .rsrc:01006574 29                               0x29 ')'
                           .rsrc:01006575 00                               0x00 
                           .rsrc:01006576 00                               0x00 
                           .rsrc:01006577 00                               0x00 
                           .rsrc:01006578 30                               0x30 '0'
                           .rsrc:01006579 00                               0x00 
                           .rsrc:0100657a 08                               0x08 
                           .rsrc:0100657b 00                               0x00 
                           .rsrc:0100657c 01                               0x01 
                           .rsrc:0100657d 00                               0x00 
                           .rsrc:0100657e 49                               0x49 'I'
                           .rsrc:0100657f 00                               0x00 
                           .rsrc:01006580 6e                               0x6e 'n'
                           .rsrc:01006581 00                               0x00 
                           .rsrc:01006582 74                               0x74 't'
                           .rsrc:01006583 00                               0x00 
                           .rsrc:01006584 65                               0x65 'e'
                           .rsrc:01006585 00                               0x00 
                           .rsrc:01006586 72                               0x72 'r'
                           .rsrc:01006587 00                               0x00 
                           .rsrc:01006588 6e                               0x6e 'n'
                           .rsrc:01006589 00                               0x00 
                           .rsrc:0100658a 61                               0x61 'a'
                           .rsrc:0100658b 00                               0x00 
                           .rsrc:0100658c 6c                               0x6c 'l'
                           .rsrc:0100658d 00                               0x00 
                           .rsrc:0100658e 4e                               0x4e 'N'
                           .rsrc:0100658f 00                               0x00 
                           .rsrc:01006590 61                               0x61 'a'
                           .rsrc:01006591 00                               0x00 
                           .rsrc:01006592 6d                               0x6d 'm'
                           .rsrc:01006593 00                               0x00 
                           .rsrc:01006594 65                               0x65 'e'
                           .rsrc:01006595 00                               0x00 
                           .rsrc:01006596 00                               0x00 
                           .rsrc:01006597 00                               0x00 
                           .rsrc:01006598 61                               0x61 'a'
                           .rsrc:01006599 00                               0x00 
                           .rsrc:0100659a 72                               0x72 'r'
                           .rsrc:0100659b 00                               0x00 
                           .rsrc:0100659c 70                               0x70 'p'
                           .rsrc:0100659d 00                               0x00 
                           .rsrc:0100659e 2e                               0x2e '.'
                           .rsrc:0100659f 00                               0x00 
                           .rsrc:010065a0 65                               0x65 'e'
                           .rsrc:010065a1 00                               0x00 
                           .rsrc:010065a2 78                               0x78 'x'
                           .rsrc:010065a3 00                               0x00 
                           .rsrc:010065a4 65                               0x65 'e'
                           .rsrc:010065a5 00                               0x00 
                           .rsrc:010065a6 00                               0x00 
                           .rsrc:010065a7 00                               0x00 
                           .rsrc:010065a8 80                               0x80 
                           .rsrc:010065a9 00                               0x00 
                           .rsrc:010065aa 2e                               0x2e '.'
                           .rsrc:010065ab 00                               0x00 
                           .rsrc:010065ac 01                               0x01 
                           .rsrc:010065ad 00                               0x00 
                           .rsrc:010065ae 4c                               0x4c 'L'
                           .rsrc:010065af 00                               0x00 
                           .rsrc:010065b0 65                               0x65 'e'
                           .rsrc:010065b1 00                               0x00 
                           .rsrc:010065b2 67                               0x67 'g'
                           .rsrc:010065b3 00                               0x00 
                           .rsrc:010065b4 61                               0x61 'a'
                           .rsrc:010065b5 00                               0x00 
                           .rsrc:010065b6 6c                               0x6c 'l'
                           .rsrc:010065b7 00                               0x00 
                           .rsrc:010065b8 43                               0x43 'C'
                           .rsrc:010065b9 00                               0x00 
                           .rsrc:010065ba 6f                               0x6f 'o'
                           .rsrc:010065bb 00                               0x00 
                           .rsrc:010065bc 70                               0x70 'p'
                           .rsrc:010065bd 00                               0x00 
                           .rsrc:010065be 79                               0x79 'y'
                           .rsrc:010065bf 00                               0x00 
                           .rsrc:010065c0 72                               0x72 'r'
                           .rsrc:010065c1 00                               0x00 
                           .rsrc:010065c2 69                               0x69 'i'
                           .rsrc:010065c3 00                               0x00 
                           .rsrc:010065c4 67                               0x67 'g'
                           .rsrc:010065c5 00                               0x00 
                           .rsrc:010065c6 68                               0x68 'h'
                           .rsrc:010065c7 00                               0x00 
                           .rsrc:010065c8 74                               0x74 't'
                           .rsrc:010065c9 00                               0x00 
                           .rsrc:010065ca 00                               0x00 
                           .rsrc:010065cb 00                               0x00 
                           .rsrc:010065cc a9                               0xa9 
                           .rsrc:010065cd 00                               0x00 
                           .rsrc:010065ce 20                               0x20 ' '
                           .rsrc:010065cf 00                               0x00 
                           .rsrc:010065d0 4d                               0x4d 'M'
                           .rsrc:010065d1 00                               0x00 
                           .rsrc:010065d2 69                               0x69 'i'
                           .rsrc:010065d3 00                               0x00 
                           .rsrc:010065d4 63                               0x63 'c'
                           .rsrc:010065d5 00                               0x00 
                           .rsrc:010065d6 72                               0x72 'r'
                           .rsrc:010065d7 00                               0x00 
                           .rsrc:010065d8 6f                               0x6f 'o'
                           .rsrc:010065d9 00                               0x00 
                           .rsrc:010065da 73                               0x73 's'
                           .rsrc:010065db 00                               0x00 
                           .rsrc:010065dc 6f                               0x6f 'o'
                           .rsrc:010065dd 00                               0x00 
                           .rsrc:010065de 66                               0x66 'f'
                           .rsrc:010065df 00                               0x00 
                           .rsrc:010065e0 74                               0x74 't'
                           .rsrc:010065e1 00                               0x00 
                           .rsrc:010065e2 20                               0x20 ' '
                           .rsrc:010065e3 00                               0x00 
                           .rsrc:010065e4 43                               0x43 'C'
                           .rsrc:010065e5 00                               0x00 
                           .rsrc:010065e6 6f                               0x6f 'o'
                           .rsrc:010065e7 00                               0x00 
                           .rsrc:010065e8 72                               0x72 'r'
                           .rsrc:010065e9 00                               0x00 
                           .rsrc:010065ea 70                               0x70 'p'
                           .rsrc:010065eb 00                               0x00 
                           .rsrc:010065ec 6f                               0x6f 'o'
                           .rsrc:010065ed 00                               0x00 
                           .rsrc:010065ee 72                               0x72 'r'
                           .rsrc:010065ef 00                               0x00 
                           .rsrc:010065f0 61                               0x61 'a'
                           .rsrc:010065f1 00                               0x00 
                           .rsrc:010065f2 74                               0x74 't'
                           .rsrc:010065f3 00                               0x00 
                           .rsrc:010065f4 69                               0x69 'i'
                           .rsrc:010065f5 00                               0x00 
                           .rsrc:010065f6 6f                               0x6f 'o'
                           .rsrc:010065f7 00                               0x00 
                           .rsrc:010065f8 6e                               0x6e 'n'
                           .rsrc:010065f9 00                               0x00 
                           .rsrc:010065fa 2e                               0x2e '.'
                           .rsrc:010065fb 00                               0x00 
                           .rsrc:010065fc 20                               0x20 ' '
                           .rsrc:010065fd 00                               0x00 
                           .rsrc:010065fe 41                               0x41 'A'
                           .rsrc:010065ff 00                               0x00 
                           .rsrc:01006600 6c                               0x6c 'l'
                           .rsrc:01006601 00                               0x00 
                           .rsrc:01006602 6c                               0x6c 'l'
                           .rsrc:01006603 00                               0x00 
                           .rsrc:01006604 20                               0x20 ' '
                           .rsrc:01006605 00                               0x00 
                           .rsrc:01006606 72                               0x72 'r'
                           .rsrc:01006607 00                               0x00 
                           .rsrc:01006608 69                               0x69 'i'
                           .rsrc:01006609 00                               0x00 
                           .rsrc:0100660a 67                               0x67 'g'
                           .rsrc:0100660b 00                               0x00 
                           .rsrc:0100660c 68                               0x68 'h'
                           .rsrc:0100660d 00                               0x00 
                           .rsrc:0100660e 74                               0x74 't'
                           .rsrc:0100660f 00                               0x00 
                           .rsrc:01006610 73                               0x73 's'
                           .rsrc:01006611 00                               0x00 
                           .rsrc:01006612 20                               0x20 ' '
                           .rsrc:01006613 00                               0x00 
                           .rsrc:01006614 72                               0x72 'r'
                           .rsrc:01006615 00                               0x00 
                           .rsrc:01006616 65                               0x65 'e'
                           .rsrc:01006617 00                               0x00 
                           .rsrc:01006618 73                               0x73 's'
                           .rsrc:01006619 00                               0x00 
                           .rsrc:0100661a 65                               0x65 'e'
                           .rsrc:0100661b 00                               0x00 
                           .rsrc:0100661c 72                               0x72 'r'
                           .rsrc:0100661d 00                               0x00 
                           .rsrc:0100661e 76                               0x76 'v'
                           .rsrc:0100661f 00                               0x00 
                           .rsrc:01006620 65                               0x65 'e'
                           .rsrc:01006621 00                               0x00 
                           .rsrc:01006622 64                               0x64 'd'
                           .rsrc:01006623 00                               0x00 
                           .rsrc:01006624 2e                               0x2e '.'
                           .rsrc:01006625 00                               0x00 
                           .rsrc:01006626 00                               0x00 
                           .rsrc:01006627 00                               0x00 
                           .rsrc:01006628 38                               0x38 '8'
                           .rsrc:01006629 00                               0x00 
                           .rsrc:0100662a 08                               0x08 
                           .rsrc:0100662b 00                               0x00 
                           .rsrc:0100662c 01                               0x01 
                           .rsrc:0100662d 00                               0x00 
                           .rsrc:0100662e 4f                               0x4f 'O'
                           .rsrc:0100662f 00                               0x00 
                           .rsrc:01006630 72                               0x72 'r'
                           .rsrc:01006631 00                               0x00 
                           .rsrc:01006632 69                               0x69 'i'
                           .rsrc:01006633 00                               0x00 
                           .rsrc:01006634 67                               0x67 'g'
                           .rsrc:01006635 00                               0x00 
                           .rsrc:01006636 69                               0x69 'i'
                           .rsrc:01006637 00                               0x00 
                           .rsrc:01006638 6e                               0x6e 'n'
                           .rsrc:01006639 00                               0x00 
                           .rsrc:0100663a 61                               0x61 'a'
                           .rsrc:0100663b 00                               0x00 
                           .rsrc:0100663c 6c                               0x6c 'l'
                           .rsrc:0100663d 00                               0x00 
                           .rsrc:0100663e 46                               0x46 'F'
                           .rsrc:0100663f 00                               0x00 
                           .rsrc:01006640 69                               0x69 'i'
                           .rsrc:01006641 00                               0x00 
                           .rsrc:01006642 6c                               0x6c 'l'
                           .rsrc:01006643 00                               0x00 
                           .rsrc:01006644 65                               0x65 'e'
                           .rsrc:01006645 00                               0x00 
                           .rsrc:01006646 6e                               0x6e 'n'
                           .rsrc:01006647 00                               0x00 
                           .rsrc:01006648 61                               0x61 'a'
                           .rsrc:01006649 00                               0x00 
                           .rsrc:0100664a 6d                               0x6d 'm'
                           .rsrc:0100664b 00                               0x00 
                           .rsrc:0100664c 65                               0x65 'e'
                           .rsrc:0100664d 00                               0x00 
                           .rsrc:0100664e 00                               0x00 
                           .rsrc:0100664f 00                               0x00 
                           .rsrc:01006650 61                               0x61 'a'
                           .rsrc:01006651 00                               0x00 
                           .rsrc:01006652 72                               0x72 'r'
                           .rsrc:01006653 00                               0x00 
                           .rsrc:01006654 70                               0x70 'p'
                           .rsrc:01006655 00                               0x00 
                           .rsrc:01006656 2e                               0x2e '.'
                           .rsrc:01006657 00                               0x00 
                           .rsrc:01006658 65                               0x65 'e'
                           .rsrc:01006659 00                               0x00 
                           .rsrc:0100665a 78                               0x78 'x'
                           .rsrc:0100665b 00                               0x00 
                           .rsrc:0100665c 65                               0x65 'e'
                           .rsrc:0100665d 00                               0x00 
                           .rsrc:0100665e 00                               0x00 
                           .rsrc:0100665f 00                               0x00 
                           .rsrc:01006660 6a                               0x6a 'j'
                           .rsrc:01006661 00                               0x00 
                           .rsrc:01006662 25                               0x25 '%'
                           .rsrc:01006663 00                               0x00 
                           .rsrc:01006664 01                               0x01 
                           .rsrc:01006665 00                               0x00 
                           .rsrc:01006666 50                               0x50 'P'
                           .rsrc:01006667 00                               0x00 
                           .rsrc:01006668 72                               0x72 'r'
                           .rsrc:01006669 00                               0x00 
                           .rsrc:0100666a 6f                               0x6f 'o'
                           .rsrc:0100666b 00                               0x00 
                           .rsrc:0100666c 64                               0x64 'd'
                           .rsrc:0100666d 00                               0x00 
                           .rsrc:0100666e 75                               0x75 'u'
                           .rsrc:0100666f 00                               0x00 
                           .rsrc:01006670 63                               0x63 'c'
                           .rsrc:01006671 00                               0x00 
                           .rsrc:01006672 74                               0x74 't'
                           .rsrc:01006673 00                               0x00 
                           .rsrc:01006674 4e                               0x4e 'N'
                           .rsrc:01006675 00                               0x00 
                           .rsrc:01006676 61                               0x61 'a'
                           .rsrc:01006677 00                               0x00 
                           .rsrc:01006678 6d                               0x6d 'm'
                           .rsrc:01006679 00                               0x00 
                           .rsrc:0100667a 65                               0x65 'e'
                           .rsrc:0100667b 00                               0x00 
                           .rsrc:0100667c 00                               0x00 
                           .rsrc:0100667d 00                               0x00 
                           .rsrc:0100667e 00                               0x00 
                           .rsrc:0100667f 00                               0x00 
                           .rsrc:01006680 4d                               0x4d 'M'
                           .rsrc:01006681 00                               0x00 
                           .rsrc:01006682 69                               0x69 'i'
                           .rsrc:01006683 00                               0x00 
                           .rsrc:01006684 63                               0x63 'c'
                           .rsrc:01006685 00                               0x00 
                           .rsrc:01006686 72                               0x72 'r'
                           .rsrc:01006687 00                               0x00 
                           .rsrc:01006688 6f                               0x6f 'o'
                           .rsrc:01006689 00                               0x00 
                           .rsrc:0100668a 73                               0x73 's'
                           .rsrc:0100668b 00                               0x00 
                           .rsrc:0100668c 6f                               0x6f 'o'
                           .rsrc:0100668d 00                               0x00 
                           .rsrc:0100668e 66                               0x66 'f'
                           .rsrc:0100668f 00                               0x00 
                           .rsrc:01006690 74                               0x74 't'
                           .rsrc:01006691 00                               0x00 
                           .rsrc:01006692 ae                               0xae 
                           .rsrc:01006693 00                               0x00 
                           .rsrc:01006694 20                               0x20 ' '
                           .rsrc:01006695 00                               0x00 
                           .rsrc:01006696 57                               0x57 'W'
                           .rsrc:01006697 00                               0x00 
                           .rsrc:01006698 69                               0x69 'i'
                           .rsrc:01006699 00                               0x00 
                           .rsrc:0100669a 6e                               0x6e 'n'
                           .rsrc:0100669b 00                               0x00 
                           .rsrc:0100669c 64                               0x64 'd'
                           .rsrc:0100669d 00                               0x00 
                           .rsrc:0100669e 6f                               0x6f 'o'
                           .rsrc:0100669f 00                               0x00 
                           .rsrc:010066a0 77                               0x77 'w'
                           .rsrc:010066a1 00                               0x00 
                           .rsrc:010066a2 73                               0x73 's'
                           .rsrc:010066a3 00                               0x00 
                           .rsrc:010066a4 ae                               0xae 
                           .rsrc:010066a5 00                               0x00 
                           .rsrc:010066a6 20                               0x20 ' '
                           .rsrc:010066a7 00                               0x00 
                           .rsrc:010066a8 4f                               0x4f 'O'
                           .rsrc:010066a9 00                               0x00 
                           .rsrc:010066aa 70                               0x70 'p'
                           .rsrc:010066ab 00                               0x00 
                           .rsrc:010066ac 65                               0x65 'e'
                           .rsrc:010066ad 00                               0x00 
                           .rsrc:010066ae 72                               0x72 'r'
                           .rsrc:010066af 00                               0x00 
                           .rsrc:010066b0 61                               0x61 'a'
                           .rsrc:010066b1 00                               0x00 
                           .rsrc:010066b2 74                               0x74 't'
                           .rsrc:010066b3 00                               0x00 
                           .rsrc:010066b4 69                               0x69 'i'
                           .rsrc:010066b5 00                               0x00 
                           .rsrc:010066b6 6e                               0x6e 'n'
                           .rsrc:010066b7 00                               0x00 
                           .rsrc:010066b8 67                               0x67 'g'
                           .rsrc:010066b9 00                               0x00 
                           .rsrc:010066ba 20                               0x20 ' '
                           .rsrc:010066bb 00                               0x00 
                           .rsrc:010066bc 53                               0x53 'S'
                           .rsrc:010066bd 00                               0x00 
                           .rsrc:010066be 79                               0x79 'y'
                           .rsrc:010066bf 00                               0x00 
                           .rsrc:010066c0 73                               0x73 's'
                           .rsrc:010066c1 00                               0x00 
                           .rsrc:010066c2 74                               0x74 't'
                           .rsrc:010066c3 00                               0x00 
                           .rsrc:010066c4 65                               0x65 'e'
                           .rsrc:010066c5 00                               0x00 
                           .rsrc:010066c6 6d                               0x6d 'm'
                           .rsrc:010066c7 00                               0x00 
                           .rsrc:010066c8 00                               0x00 
                           .rsrc:010066c9 00                               0x00 
                           .rsrc:010066ca 00                               0x00 
                           .rsrc:010066cb 00                               0x00 
                           .rsrc:010066cc 42                               0x42 'B'
                           .rsrc:010066cd 00                               0x00 
                           .rsrc:010066ce 0f                               0x0f 
                           .rsrc:010066cf 00                               0x00 
                           .rsrc:010066d0 01                               0x01 
                           .rsrc:010066d1 00                               0x00 
                           .rsrc:010066d2 50                               0x50 'P'
                           .rsrc:010066d3 00                               0x00 
                           .rsrc:010066d4 72                               0x72 'r'
                           .rsrc:010066d5 00                               0x00 
                           .rsrc:010066d6 6f                               0x6f 'o'
                           .rsrc:010066d7 00                               0x00 
                           .rsrc:010066d8 64                               0x64 'd'
                           .rsrc:010066d9 00                               0x00 
                           .rsrc:010066da 75                               0x75 'u'
                           .rsrc:010066db 00                               0x00 
                           .rsrc:010066dc 63                               0x63 'c'
                           .rsrc:010066dd 00                               0x00 
                           .rsrc:010066de 74                               0x74 't'
                           .rsrc:010066df 00                               0x00 
                           .rsrc:010066e0 56                               0x56 'V'
                           .rsrc:010066e1 00                               0x00 
                           .rsrc:010066e2 65                               0x65 'e'
                           .rsrc:010066e3 00                               0x00 
                           .rsrc:010066e4 72                               0x72 'r'
                           .rsrc:010066e5 00                               0x00 
                           .rsrc:010066e6 73                               0x73 's'
                           .rsrc:010066e7 00                               0x00 
                           .rsrc:010066e8 69                               0x69 'i'
                           .rsrc:010066e9 00                               0x00 
                           .rsrc:010066ea 6f                               0x6f 'o'
                           .rsrc:010066eb 00                               0x00 
                           .rsrc:010066ec 6e                               0x6e 'n'
                           .rsrc:010066ed 00                               0x00 
                           .rsrc:010066ee 00                               0x00 
                           .rsrc:010066ef 00                               0x00 
                           .rsrc:010066f0 36                               0x36 '6'
                           .rsrc:010066f1 00                               0x00 
                           .rsrc:010066f2 2e                               0x2e '.'
                           .rsrc:010066f3 00                               0x00 
                           .rsrc:010066f4 31                               0x31 '1'
                           .rsrc:010066f5 00                               0x00 
                           .rsrc:010066f6 2e                               0x2e '.'
                           .rsrc:010066f7 00                               0x00 
                           .rsrc:010066f8 37                               0x37 '7'
                           .rsrc:010066f9 00                               0x00 
                           .rsrc:010066fa 36                               0x36 '6'
                           .rsrc:010066fb 00                               0x00 
                           .rsrc:010066fc 30                               0x30 '0'
                           .rsrc:010066fd 00                               0x00 
                           .rsrc:010066fe 30                               0x30 '0'
                           .rsrc:010066ff 00                               0x00 
                           .rsrc:01006700 2e                               0x2e '.'
                           .rsrc:01006701 00                               0x00 
                           .rsrc:01006702 31                               0x31 '1'
                           .rsrc:01006703 00                               0x00 
                           .rsrc:01006704 36                               0x36 '6'
                           .rsrc:01006705 00                               0x00 
                           .rsrc:01006706 33                               0x33 '3'
                           .rsrc:01006707 00                               0x00 
                           .rsrc:01006708 38                               0x38 '8'
                           .rsrc:01006709 00                               0x00 
                           .rsrc:0100670a 35                               0x35 '5'
                           .rsrc:0100670b 00                               0x00 
                           .rsrc:0100670c 00                               0x00 
                           .rsrc:0100670d 00                               0x00 
                           .rsrc:0100670e 00                               0x00 
                           .rsrc:0100670f 00                               0x00 
                           .rsrc:01006710 44                               0x44 'D'
                           .rsrc:01006711 00                               0x00 
                           .rsrc:01006712 00                               0x00 
                           .rsrc:01006713 00                               0x00 
                           .rsrc:01006714 01                               0x01 
                           .rsrc:01006715 00                               0x00 
                           .rsrc:01006716 56                               0x56 'V'
                           .rsrc:01006717 00                               0x00 
                           .rsrc:01006718 61                               0x61 'a'
                           .rsrc:01006719 00                               0x00 
                           .rsrc:0100671a 72                               0x72 'r'
                           .rsrc:0100671b 00                               0x00 
                           .rsrc:0100671c 46                               0x46 'F'
                           .rsrc:0100671d 00                               0x00 
                           .rsrc:0100671e 69                               0x69 'i'
                           .rsrc:0100671f 00                               0x00 
                           .rsrc:01006720 6c                               0x6c 'l'
                           .rsrc:01006721 00                               0x00 
                           .rsrc:01006722 65                               0x65 'e'
                           .rsrc:01006723 00                               0x00 
                           .rsrc:01006724 49                               0x49 'I'
                           .rsrc:01006725 00                               0x00 
                           .rsrc:01006726 6e                               0x6e 'n'
                           .rsrc:01006727 00                               0x00 
                           .rsrc:01006728 66                               0x66 'f'
                           .rsrc:01006729 00                               0x00 
                           .rsrc:0100672a 6f                               0x6f 'o'
                           .rsrc:0100672b 00                               0x00 
                           .rsrc:0100672c 00                               0x00 
                           .rsrc:0100672d 00                               0x00 
                           .rsrc:0100672e 00                               0x00 
                           .rsrc:0100672f 00                               0x00 
                           .rsrc:01006730 24                               0x24 '$'
                           .rsrc:01006731 00                               0x00 
                           .rsrc:01006732 04                               0x04 
                           .rsrc:01006733 00                               0x00 
                           .rsrc:01006734 00                               0x00 
                           .rsrc:01006735 00                               0x00 
                           .rsrc:01006736 54                               0x54 'T'
                           .rsrc:01006737 00                               0x00 
                           .rsrc:01006738 72                               0x72 'r'
                           .rsrc:01006739 00                               0x00 
                           .rsrc:0100673a 61                               0x61 'a'
                           .rsrc:0100673b 00                               0x00 
                           .rsrc:0100673c 6e                               0x6e 'n'
                           .rsrc:0100673d 00                               0x00 
                           .rsrc:0100673e 73                               0x73 's'
                           .rsrc:0100673f 00                               0x00 
                           .rsrc:01006740 6c                               0x6c 'l'
                           .rsrc:01006741 00                               0x00 
                           .rsrc:01006742 61                               0x61 'a'
                           .rsrc:01006743 00                               0x00 
                           .rsrc:01006744 74                               0x74 't'
                           .rsrc:01006745 00                               0x00 
                           .rsrc:01006746 69                               0x69 'i'
                           .rsrc:01006747 00                               0x00 
                           .rsrc:01006748 6f                               0x6f 'o'
                           .rsrc:01006749 00                               0x00 
                           .rsrc:0100674a 6e                               0x6e 'n'
                           .rsrc:0100674b 00                               0x00 
                           .rsrc:0100674c 00                               0x00 
                           .rsrc:0100674d 00                               0x00 
                           .rsrc:0100674e 00                               0x00 
                           .rsrc:0100674f 00                               0x00 
                           .rsrc:01006750 09                               0x09 '	'
                           .rsrc:01006751 04                               0x04 
                           .rsrc:01006752 b0                               0xb0 
                           .rsrc:01006753 04                               0x04 
                           .rsrc:01006754 00                               0x00 
                           .rsrc:01006755 00                               0x00 
                           .rsrc:01006756 00                               0x00 
                           .rsrc:01006757 00                               0x00 
                           .rsrc:01006758 cd                               0xcd 
                           .rsrc:01006759 fe                               0xfe 
                           .rsrc:0100675a cd                               0xcd 
                           .rsrc:0100675b fe                               0xfe 
                           .rsrc:0100675c c8                               0xc8 
                           .rsrc:0100675d 00                               0x00 
                           .rsrc:0100675e 00                               0x00 
                           .rsrc:0100675f 00                               0x00 
                           .rsrc:01006760 00                               0x00 
                           .rsrc:01006761 00                               0x00 
                           .rsrc:01006762 01                               0x01 
                           .rsrc:01006763 00                               0x00 
                           .rsrc:01006764 00                               0x00 
                           .rsrc:01006765 00                               0x00 
                           .rsrc:01006766 00                               0x00 
                           .rsrc:01006767 00                               0x00 
                           .rsrc:01006768 11                               0x11 
                           .rsrc:01006769 00                               0x00 
                           .rsrc:0100676a 00                               0x00 
                           .rsrc:0100676b 00                               0x00 
                           .rsrc:0100676c 00                               0x00 
                           .rsrc:0100676d 00                               0x00 
                           .rsrc:0100676e 00                               0x00 
                           .rsrc:0100676f 00                               0x00 
                           .rsrc:01006770 02                               0x02 
                           .rsrc:01006771 00                               0x00 
                           .rsrc:01006772 00                               0x00 
                           .rsrc:01006773 00                               0x00 
                           .rsrc:01006774 81                               0x81 
                           .rsrc:01006775 07                               0x07 
                           .rsrc:01006776 87                               0x87 
                           .rsrc:01006777 64                               0x64 'd'
                           .rsrc:01006778 8a                               0x8a 
                           .rsrc:01006779 73                               0x73 's'
                           .rsrc:0100677a 1d                               0x1d 
                           .rsrc:0100677b 46                               0x46 'F'
                           .rsrc:0100677c e6                               0xe6 
                           .rsrc:0100677d d3                               0xd3 
                           .rsrc:0100677e c6                               0xc6 
                           .rsrc:0100677f 51                               0x51 'Q'
                           .rsrc:01006780 ad                               0xad 
                           .rsrc:01006781 37                               0x37 '7'
                           .rsrc:01006782 4b                               0x4b 'K'
                           .rsrc:01006783 35                               0x35 '5'
                           .rsrc:01006784 dd                               0xdd 
                           .rsrc:01006785 0e                               0x0e 
                           .rsrc:01006786 46                               0x46 'F'
                           .rsrc:01006787 21                               0x21 '!'
                           .rsrc:01006788 3d                               0x3d '='
                           .rsrc:01006789 a1                               0xa1 
                           .rsrc:0100678a 5e                               0x5e '^'
                           .rsrc:0100678b f8                               0xf8 
                           .rsrc:0100678c 56                               0x56 'V'
                           .rsrc:0100678d 6d                               0x6d 'm'
                           .rsrc:0100678e b7                               0xb7 
                           .rsrc:0100678f 80                               0x80 
                           .rsrc:01006790 c7                               0xc7 
                           .rsrc:01006791 14                               0x14 
                           .rsrc:01006792 d9                               0xd9 
                           .rsrc:01006793 b1                               0xb1 
                           .rsrc:01006794 00                               0x00 
                           .rsrc:01006795 00                               0x00 
                           .rsrc:01006796 00                               0x00 
                           .rsrc:01006797 00                               0x00 
                           .rsrc:01006798 00                               0x00 
                           .rsrc:01006799 00                               0x00 
                           .rsrc:0100679a 00                               0x00 
                           .rsrc:0100679b 00                               0x00 
                           .rsrc:0100679c 00                               0x00 
                           .rsrc:0100679d 00                               0x00 
                           .rsrc:0100679e 00                               0x00 
                           .rsrc:0100679f 00                               0x00 
                           .rsrc:010067a0 00                               0x00 
                           .rsrc:010067a1 00                               0x00 
                           .rsrc:010067a2 00                               0x00 
                           .rsrc:010067a3 00                               0x00 
                           .rsrc:010067a4 00                               0x00 
                           .rsrc:010067a5 00                               0x00 
                           .rsrc:010067a6 00                               0x00 
                           .rsrc:010067a7 00                               0x00 
                           .rsrc:010067a8 00                               0x00 
                           .rsrc:010067a9 00                               0x00 
                           .rsrc:010067aa 00                               0x00 
                           .rsrc:010067ab 00                               0x00 
                           .rsrc:010067ac 88                               0x88 
                           .rsrc:010067ad 00                               0x00 
                           .rsrc:010067ae 00                               0x00 
                           .rsrc:010067af 00                               0x00 
                           .rsrc:010067b0 0e                               0x0e 
                           .rsrc:010067b1 00                               0x00 
                           .rsrc:010067b2 00                               0x00 
                           .rsrc:010067b3 00                               0x00 
                           .rsrc:010067b4 98                               0x98 
                           .rsrc:010067b5 00                               0x00 
                           .rsrc:010067b6 00                               0x00 
                           .rsrc:010067b7 00                               0x00 
                           .rsrc:010067b8 08                               0x08 
                           .rsrc:010067b9 00                               0x00 
                           .rsrc:010067ba 00                               0x00 
                           .rsrc:010067bb 00                               0x00 
                           .rsrc:010067bc a0                               0xa0 
                           .rsrc:010067bd 00                               0x00 
                           .rsrc:010067be 00                               0x00 
                           .rsrc:010067bf 00                               0x00 
                           .rsrc:010067c0 0e                               0x0e 
                           .rsrc:010067c1 00                               0x00 
                           .rsrc:010067c2 00                               0x00 
                           .rsrc:010067c3 00                               0x00 
                           .rsrc:010067c4 b0                               0xb0 
                           .rsrc:010067c5 00                               0x00 
                           .rsrc:010067c6 00                               0x00 
                           .rsrc:010067c7 00                               0x00 
                           .rsrc:010067c8 08                               0x08 
                           .rsrc:010067c9 00                               0x00 
                           .rsrc:010067ca 00                               0x00 
                           .rsrc:010067cb 00                               0x00 
                           .rsrc:010067cc 00                               0x00 
                           .rsrc:010067cd 00                               0x00 
                           .rsrc:010067ce 00                               0x00 
                           .rsrc:010067cf 00                               0x00 
                           .rsrc:010067d0 00                               0x00 
                           .rsrc:010067d1 00                               0x00 
                           .rsrc:010067d2 00                               0x00 
                           .rsrc:010067d3 00                               0x00 
                           .rsrc:010067d4 b8                               0xb8 
                           .rsrc:010067d5 00                               0x00 
                           .rsrc:010067d6 00                               0x00 
                           .rsrc:010067d7 00                               0x00 
                           .rsrc:010067d8 0c                               0x0c ''
                           .rsrc:010067d9 00                               0x00 
                           .rsrc:010067da 00                               0x00 
                           .rsrc:010067db 00                               0x00 
                           .rsrc:010067dc 00                               0x00 
                           .rsrc:010067dd 00                               0x00 
                           .rsrc:010067de 00                               0x00 
                           .rsrc:010067df 00                               0x00 
                           .rsrc:010067e0 4d                               0x4d 'M'
                           .rsrc:010067e1 00                               0x00 
                           .rsrc:010067e2 55                               0x55 'U'
                           .rsrc:010067e3 00                               0x00 
                           .rsrc:010067e4 49                               0x49 'I'
                           .rsrc:010067e5 00                               0x00 
                           .rsrc:010067e6 00                               0x00 
                           .rsrc:010067e7 00                               0x00 
                           .rsrc:010067e8 00                               0x00 
                           .rsrc:010067e9 00                               0x00 
                           .rsrc:010067ea 00                               0x00 
                           .rsrc:010067eb 00                               0x00 
                           .rsrc:010067ec 00                               0x00 
                           .rsrc:010067ed 00                               0x00 
                           .rsrc:010067ee 00                               0x00 
                           .rsrc:010067ef 00                               0x00 
                           .rsrc:010067f0 10                               0x10 
                           .rsrc:010067f1 00                               0x00 
                           .rsrc:010067f2 00                               0x00 
                           .rsrc:010067f3 00                               0x00 
                           .rsrc:010067f4 18                               0x18 
                           .rsrc:010067f5 00                               0x00 
                           .rsrc:010067f6 00                               0x00 
                           .rsrc:010067f7 00                               0x00 
                           .rsrc:010067f8 4d                               0x4d 'M'
                           .rsrc:010067f9 00                               0x00 
                           .rsrc:010067fa 55                               0x55 'U'
                           .rsrc:010067fb 00                               0x00 
                           .rsrc:010067fc 49                               0x49 'I'
                           .rsrc:010067fd 00                               0x00 
                           .rsrc:010067fe 00                               0x00 
                           .rsrc:010067ff 00                               0x00 
                           .rsrc:01006800 00                               0x00 
                           .rsrc:01006801 00                               0x00 
                           .rsrc:01006802 00                               0x00 
                           .rsrc:01006803 00                               0x00 
                           .rsrc:01006804 00                               0x00 
                           .rsrc:01006805 00                               0x00 
                           .rsrc:01006806 00                               0x00 
                           .rsrc:01006807 00                               0x00 
                           .rsrc:01006808 0b                               0x0b ''
                           .rsrc:01006809 00                               0x00 
                           .rsrc:0100680a 00                               0x00 
                           .rsrc:0100680b 00                               0x00 
                           .rsrc:0100680c 10                               0x10 
                           .rsrc:0100680d 00                               0x00 
                           .rsrc:0100680e 00                               0x00 
                           .rsrc:0100680f 00                               0x00 
                           .rsrc:01006810 65                               0x65 'e'
                           .rsrc:01006811 00                               0x00 
                           .rsrc:01006812 6e                               0x6e 'n'
                           .rsrc:01006813 00                               0x00 
                           .rsrc:01006814 2d                               0x2d '-'
                           .rsrc:01006815 00                               0x00 
                           .rsrc:01006816 55                               0x55 'U'
                           .rsrc:01006817 00                               0x00 
                           .rsrc:01006818 53                               0x53 'S'
                           .rsrc:01006819 00                               0x00 
                           .rsrc:0100681a 00                               0x00 
                           .rsrc:0100681b 00                               0x00 
                           .rsrc:0100681c 00                               0x00 
                           .rsrc:0100681d 00                               0x00 
                           .rsrc:0100681e 00                               0x00 
                           .rsrc:0100681f 00                               0x00 
                          .reloc:01007000 00                               0x00 
                          .reloc:01007001 10                               0x10 
                          .reloc:01007002 00                               0x00 
                          .reloc:01007003 00                               0x00 
                          .reloc:01007004 60                               0x60 '`'
                          .reloc:01007005 00                               0x00 
                          .reloc:01007006 00                               0x00 
                          .reloc:01007007 00                               0x00 
                          .reloc:01007008 34                               0x34 '4'
                          .reloc:01007009 31                               0x31 '1'
                          .reloc:0100700a 40                               0x40 '@'
                          .reloc:0100700b 31                               0x31 '1'
                          .reloc:0100700c 44                               0x44 'D'
                          .reloc:0100700d 31                               0x31 '1'
                          .reloc:0100700e b8                               0xb8 
                          .reloc:0100700f 31                               0x31 '1'
                          .reloc:01007010 bc                               0xbc 
                          .reloc:01007011 31                               0x31 '1'
                          .reloc:01007012 c4                               0xc4 
                          .reloc:01007013 32                               0x32 '2'
                          .reloc:01007014 c8                               0xc8 
                          .reloc:01007015 32                               0x32 '2'
                          .reloc:01007016 44                               0x44 'D'
                          .reloc:01007017 34                               0x34 '4'
                          .reloc:01007018 63                               0x63 'c'
                          .reloc:01007019 34                               0x34 '4'
                          .reloc:0100701a 6f                               0x6f 'o'
                          .reloc:0100701b 34                               0x34 '4'
                          .reloc:0100701c c8                               0xc8 
                          .reloc:0100701d 34                               0x34 '4'
                          .reloc:0100701e bc                               0xbc 
                          .reloc:0100701f 35                               0x35 '5'
                          .reloc:01007020 d3                               0xd3 
                          .reloc:01007021 35                               0x35 '5'
                          .reloc:01007022 fe                               0xfe 
                          .reloc:01007023 35                               0x35 '5'
                          .reloc:01007024 07                               0x07 
                          .reloc:01007025 36                               0x36 '6'
                          .reloc:01007026 7e                               0x7e '~'
                          .reloc:01007027 36                               0x36 '6'
                          .reloc:01007028 dd                               0xdd 
                          .reloc:01007029 36                               0x36 '6'
                          .reloc:0100702a 3b                               0x3b ';'
                          .reloc:0100702b 37                               0x37 '7'
                          .reloc:0100702c 5e                               0x5e '^'
                          .reloc:0100702d 37                               0x37 '7'
                          .reloc:0100702e 75                               0x75 'u'
                          .reloc:0100702f 37                               0x37 '7'
                          .reloc:01007030 ae                               0xae 
                          .reloc:01007031 37                               0x37 '7'
                          .reloc:01007032 3f                               0x3f '?'
                          .reloc:01007033 38                               0x38 '8'
                          .reloc:01007034 85                               0x85 
                          .reloc:01007035 38                               0x38 '8'
                          .reloc:01007036 b8                               0xb8 
                          .reloc:01007037 38                               0x38 '8'
                          .reloc:01007038 0e                               0x0e 
                          .reloc:01007039 39                               0x39 '9'
                          .reloc:0100703a 25                               0x25 '%'
                          .reloc:0100703b 39                               0x39 '9'
                          .reloc:0100703c 41                               0x41 'A'
                          .reloc:0100703d 39                               0x39 '9'
                          .reloc:0100703e 90                               0x90 
                          .reloc:0100703f 39                               0x39 '9'
                          .reloc:01007040 77                               0x77 'w'
                          .reloc:01007041 3a                               0x3a ':'
                          .reloc:01007042 36                               0x36 '6'
                          .reloc:01007043 3b                               0x3b ';'
                          .reloc:01007044 d8                               0xd8 
                          .reloc:01007045 3b                               0x3b ';'
                          .reloc:01007046 47                               0x47 'G'
                          .reloc:01007047 3c                               0x3c '<'
                          .reloc:01007048 e1                               0xe1 
                          .reloc:01007049 3c                               0x3c '<'
                          .reloc:0100704a fa                               0xfa 
                          .reloc:0100704b 3c                               0x3c '<'
                          .reloc:0100704c 0a                               0x0a '
'
                          .reloc:0100704d 3d                               0x3d '='
                          .reloc:0100704e 39                               0x39 '9'
                          .reloc:0100704f 3d                               0x3d '='
                          .reloc:01007050 b5                               0xb5 
                          .reloc:01007051 3d                               0x3d '='
                          .reloc:01007052 d8                               0xd8 
                          .reloc:01007053 3d                               0x3d '='
                          .reloc:01007054 23                               0x23 '#'
                          .reloc:01007055 3e                               0x3e '>'
                          .reloc:01007056 3a                               0x3a ':'
                          .reloc:01007057 3e                               0x3e '>'
                          .reloc:01007058 2a                               0x2a '*'
                          .reloc:01007059 3f                               0x3f '?'
                          .reloc:0100705a ae                               0xae 
                          .reloc:0100705b 3f                               0x3f '?'
                          .reloc:0100705c f6                               0xf6 
                          .reloc:0100705d 3f                               0x3f '?'
                          .reloc:0100705e 00                               0x00 
                          .reloc:0100705f 00                               0x00 
                          .reloc:01007060 00                               0x00 
                          .reloc:01007061 20                               0x20 ' '
                          .reloc:01007062 00                               0x00 
                          .reloc:01007063 00                               0x00 
                          .reloc:01007064 6c                               0x6c 'l'
                          .reloc:01007065 01                               0x01 
                          .reloc:01007066 00                               0x00 
                          .reloc:01007067 00                               0x00 
                          .reloc:01007068 02                               0x02 
                          .reloc:01007069 30                               0x30 '0'
                          .reloc:0100706a 14                               0x14 
                          .reloc:0100706b 30                               0x30 '0'
                          .reloc:0100706c 1f                               0x1f 
                          .reloc:0100706d 30                               0x30 '0'
                          .reloc:0100706e 35                               0x35 '5'
                          .reloc:0100706f 30                               0x30 '0'
                          .reloc:01007070 a5                               0xa5 
                          .reloc:01007071 30                               0x30 '0'
                          .reloc:01007072 76                               0x76 'v'
                          .reloc:01007073 32                               0x32 '2'
                          .reloc:01007074 7b                               0x7b '{'
                          .reloc:01007075 32                               0x32 '2'
                          .reloc:01007076 81                               0x81 
                          .reloc:01007077 32                               0x32 '2'
                          .reloc:01007078 86                               0x86 
                          .reloc:01007079 32                               0x32 '2'
                          .reloc:0100707a 8b                               0x8b 
                          .reloc:0100707b 32                               0x32 '2'
                          .reloc:0100707c 90                               0x90 
                          .reloc:0100707d 32                               0x32 '2'
                          .reloc:0100707e 95                               0x95 
                          .reloc:0100707f 32                               0x32 '2'
                          .reloc:01007080 9b                               0x9b 
                          .reloc:01007081 32                               0x32 '2'
                          .reloc:01007082 a3                               0xa3 
                          .reloc:01007083 32                               0x32 '2'
                          .reloc:01007084 b0                               0xb0 
                          .reloc:01007085 32                               0x32 '2'
                          .reloc:01007086 cb                               0xcb 
                          .reloc:01007087 32                               0x32 '2'
                          .reloc:01007088 d4                               0xd4 
                          .reloc:01007089 32                               0x32 '2'
                          .reloc:0100708a ef                               0xef 
                          .reloc:0100708b 32                               0x32 '2'
                          .reloc:0100708c f9                               0xf9 
                          .reloc:0100708d 32                               0x32 '2'
                          .reloc:0100708e 0c                               0x0c ''
                          .reloc:0100708f 33                               0x33 '3'
                          .reloc:01007090 16                               0x16 
                          .reloc:01007091 33                               0x33 '3'
                          .reloc:01007092 1b                               0x1b 
                          .reloc:01007093 33                               0x33 '3'
                          .reloc:01007094 20                               0x20 ' '
                          .reloc:01007095 33                               0x33 '3'
                          .reloc:01007096 42                               0x42 'B'
                          .reloc:01007097 33                               0x33 '3'
                          .reloc:01007098 47                               0x47 'G'
                          .reloc:01007099 33                               0x33 '3'
                          .reloc:0100709a 50                               0x50 'P'
                          .reloc:0100709b 33                               0x33 '3'
                          .reloc:0100709c 55                               0x55 'U'
                          .reloc:0100709d 33                               0x33 '3'
                          .reloc:0100709e 62                               0x62 'b'
                          .reloc:0100709f 33                               0x33 '3'
                          .reloc:010070a0 73                               0x73 's'
                          .reloc:010070a1 33                               0x33 '3'
                          .reloc:010070a2 79                               0x79 'y'
                          .reloc:010070a3 33                               0x33 '3'
                          .reloc:010070a4 80                               0x80 
                          .reloc:010070a5 33                               0x33 '3'
                          .reloc:010070a6 94                               0x94 
                          .reloc:010070a7 33                               0x33 '3'
                          .reloc:010070a8 9a                               0x9a 
                          .reloc:010070a9 33                               0x33 '3'
                          .reloc:010070aa a0                               0xa0 
                          .reloc:010070ab 33                               0x33 '3'
                          .reloc:010070ac a6                               0xa6 
                          .reloc:010070ad 33                               0x33 '3'
                          .reloc:010070ae b3                               0xb3 
                          .reloc:010070af 33                               0x33 '3'
                          .reloc:010070b0 b9                               0xb9 
                          .reloc:010070b1 33                               0x33 '3'
                          .reloc:010070b2 c2                               0xc2 
                          .reloc:010070b3 33                               0x33 '3'
                          .reloc:010070b4 e1                               0xe1 
                          .reloc:010070b5 33                               0x33 '3'
                          .reloc:010070b6 e9                               0xe9 
                          .reloc:010070b7 33                               0x33 '3'
                          .reloc:010070b8 f2                               0xf2 
                          .reloc:010070b9 33                               0x33 '3'
                          .reloc:010070ba f8                               0xf8 
                          .reloc:010070bb 33                               0x33 '3'
                          .reloc:010070bc 00                               0x00 
                          .reloc:010070bd 34                               0x34 '4'
                          .reloc:010070be 0c                               0x0c ''
                          .reloc:010070bf 34                               0x34 '4'
                          .reloc:010070c0 23                               0x23 '#'
                          .reloc:010070c1 34                               0x34 '4'
                          .reloc:010070c2 2e                               0x2e '.'
                          .reloc:010070c3 34                               0x34 '4'
                          .reloc:010070c4 34                               0x34 '4'
                          .reloc:010070c5 34                               0x34 '4'
                          .reloc:010070c6 7d                               0x7d '}'
                          .reloc:010070c7 34                               0x34 '4'
                          .reloc:010070c8 89                               0x89 
                          .reloc:010070c9 34                               0x34 '4'
                          .reloc:010070ca 8f                               0x8f 
                          .reloc:010070cb 34                               0x34 '4'
                          .reloc:010070cc 96                               0x96 
                          .reloc:010070cd 34                               0x34 '4'
                          .reloc:010070ce 9f                               0x9f 
                          .reloc:010070cf 34                               0x34 '4'
                          .reloc:010070d0 a5                               0xa5 
                          .reloc:010070d1 34                               0x34 '4'
                          .reloc:010070d2 ad                               0xad 
                          .reloc:010070d3 34                               0x34 '4'
                          .reloc:010070d4 b3                               0xb3 
                          .reloc:010070d5 34                               0x34 '4'
                          .reloc:010070d6 c0                               0xc0 
                          .reloc:010070d7 34                               0x34 '4'
                          .reloc:010070d8 c8                               0xc8 
                          .reloc:010070d9 34                               0x34 '4'
                          .reloc:010070da ce                               0xce 
                          .reloc:010070db 34                               0x34 '4'
                          .reloc:010070dc f1                               0xf1 
                          .reloc:010070dd 34                               0x34 '4'
                          .reloc:010070de 3d                               0x3d '='
                          .reloc:010070df 35                               0x35 '5'
                          .reloc:010070e0 4d                               0x4d 'M'
                          .reloc:010070e1 35                               0x35 '5'
                          .reloc:010070e2 53                               0x53 'S'
                          .reloc:010070e3 35                               0x35 '5'
                          .reloc:010070e4 62                               0x62 'b'
                          .reloc:010070e5 35                               0x35 '5'
                          .reloc:010070e6 fc                               0xfc 
                          .reloc:010070e7 35                               0x35 '5'
                          .reloc:010070e8 0a                               0x0a '
'
                          .reloc:010070e9 36                               0x36 '6'
                          .reloc:010070ea 6c                               0x6c 'l'
                          .reloc:010070eb 36                               0x36 '6'
                          .reloc:010070ec 78                               0x78 'x'
                          .reloc:010070ed 36                               0x36 '6'
                          .reloc:010070ee 85                               0x85 
                          .reloc:010070ef 36                               0x36 '6'
                          .reloc:010070f0 a2                               0xa2 
                          .reloc:010070f1 36                               0x36 '6'
                          .reloc:010070f2 f4                               0xf4 
                          .reloc:010070f3 36                               0x36 '6'
                          .reloc:010070f4 f9                               0xf9 
                          .reloc:010070f5 36                               0x36 '6'
                          .reloc:010070f6 18                               0x18 
                          .reloc:010070f7 37                               0x37 '7'
                          .reloc:010070f8 2f                               0x2f '/'
                          .reloc:010070f9 37                               0x37 '7'
                          .reloc:010070fa 9b                               0x9b 
                          .reloc:010070fb 37                               0x37 '7'
                          .reloc:010070fc da                               0xda 
                          .reloc:010070fd 37                               0x37 '7'
                          .reloc:010070fe fd                               0xfd 
                          .reloc:010070ff 37                               0x37 '7'
                          .reloc:01007100 0a                               0x0a '
'
                          .reloc:01007101 38                               0x38 '8'
                          .reloc:01007102 16                               0x16 
                          .reloc:01007103 38                               0x38 '8'
                          .reloc:01007104 1e                               0x1e 
                          .reloc:01007105 38                               0x38 '8'
                          .reloc:01007106 26                               0x26 '&'
                          .reloc:01007107 38                               0x38 '8'
                          .reloc:01007108 32                               0x32 '2'
                          .reloc:01007109 38                               0x38 '8'
                          .reloc:0100710a 44                               0x44 'D'
                          .reloc:0100710b 38                               0x38 '8'
                          .reloc:0100710c 51                               0x51 'Q'
                          .reloc:0100710d 38                               0x38 '8'
                          .reloc:0100710e 59                               0x59 'Y'
                          .reloc:0100710f 38                               0x38 '8'
                          .reloc:01007110 73                               0x73 's'
                          .reloc:01007111 38                               0x38 '8'
                          .reloc:01007112 79                               0x79 'y'
                          .reloc:01007113 38                               0x38 '8'
                          .reloc:01007114 7f                               0x7f 
                          .reloc:01007115 38                               0x38 '8'
                          .reloc:01007116 85                               0x85 
                          .reloc:01007117 38                               0x38 '8'
                          .reloc:01007118 8b                               0x8b 
                          .reloc:01007119 38                               0x38 '8'
                          .reloc:0100711a 91                               0x91 
                          .reloc:0100711b 38                               0x38 '8'
                          .reloc:0100711c 98                               0x98 
                          .reloc:0100711d 38                               0x38 '8'
                          .reloc:0100711e 9f                               0x9f 
                          .reloc:0100711f 38                               0x38 '8'
                          .reloc:01007120 a6                               0xa6 
                          .reloc:01007121 38                               0x38 '8'
                          .reloc:01007122 ad                               0xad 
                          .reloc:01007123 38                               0x38 '8'
                          .reloc:01007124 b4                               0xb4 
                          .reloc:01007125 38                               0x38 '8'
                          .reloc:01007126 bb                               0xbb 
                          .reloc:01007127 38                               0x38 '8'
                          .reloc:01007128 c2                               0xc2 
                          .reloc:01007129 38                               0x38 '8'
                          .reloc:0100712a ca                               0xca 
                          .reloc:0100712b 38                               0x38 '8'
                          .reloc:0100712c d2                               0xd2 
                          .reloc:0100712d 38                               0x38 '8'
                          .reloc:0100712e da                               0xda 
                          .reloc:0100712f 38                               0x38 '8'
                          .reloc:01007130 e6                               0xe6 
                          .reloc:01007131 38                               0x38 '8'
                          .reloc:01007132 ef                               0xef 
                          .reloc:01007133 38                               0x38 '8'
                          .reloc:01007134 f4                               0xf4 
                          .reloc:01007135 38                               0x38 '8'
                          .reloc:01007136 fa                               0xfa 
                          .reloc:01007137 38                               0x38 '8'
                          .reloc:01007138 04                               0x04 
                          .reloc:01007139 39                               0x39 '9'
                          .reloc:0100713a 0d                               0x0d ''
                          .reloc:0100713b 39                               0x39 '9'
                          .reloc:0100713c 18                               0x18 
                          .reloc:0100713d 39                               0x39 '9'
                          .reloc:0100713e 26                               0x26 '&'
                          .reloc:0100713f 39                               0x39 '9'
                          .reloc:01007140 2b                               0x2b '+'
                          .reloc:01007141 39                               0x39 '9'
                          .reloc:01007142 31                               0x31 '1'
                          .reloc:01007143 39                               0x39 '9'
                          .reloc:01007144 3c                               0x3c '<'
                          .reloc:01007145 39                               0x39 '9'
                          .reloc:01007146 43                               0x43 'C'
                          .reloc:01007147 39                               0x39 '9'
                          .reloc:01007148 50                               0x50 'P'
                          .reloc:01007149 39                               0x39 '9'
                          .reloc:0100714a 5c                               0x5c '\'
                          .reloc:0100714b 39                               0x39 '9'
                          .reloc:0100714c 68                               0x68 'h'
                          .reloc:0100714d 39                               0x39 '9'
                          .reloc:0100714e 7b                               0x7b '{'
                          .reloc:0100714f 39                               0x39 '9'
                          .reloc:01007150 89                               0x89 
                          .reloc:01007151 39                               0x39 '9'
                          .reloc:01007152 af                               0xaf 
                          .reloc:01007153 39                               0x39 '9'
                          .reloc:01007154 e5                               0xe5 
                          .reloc:01007155 39                               0x39 '9'
                          .reloc:01007156 fa                               0xfa 
                          .reloc:01007157 39                               0x39 '9'
                          .reloc:01007158 0a                               0x0a '
'
                          .reloc:01007159 3a                               0x3a ':'
                          .reloc:0100715a b7                               0xb7 
                          .reloc:0100715b 3a                               0x3a ':'
                          .reloc:0100715c cd                               0xcd 
                          .reloc:0100715d 3a                               0x3a ':'
                          .reloc:0100715e e3                               0xe3 
                          .reloc:0100715f 3a                               0x3a ':'
                          .reloc:01007160 eb                               0xeb 
                          .reloc:01007161 3a                               0x3a ':'
                          .reloc:01007162 0e                               0x0e 
                          .reloc:01007163 3b                               0x3b ';'
                          .reloc:01007164 16                               0x16 
                          .reloc:01007165 3b                               0x3b ';'
                          .reloc:01007166 1d                               0x1d 
                          .reloc:01007167 3b                               0x3b ';'
                          .reloc:01007168 2f                               0x2f '/'
                          .reloc:01007169 3b                               0x3b ';'
                          .reloc:0100716a 65                               0x65 'e'
                          .reloc:0100716b 3b                               0x3b ';'
                          .reloc:0100716c a5                               0xa5 
                          .reloc:0100716d 3b                               0x3b ';'
                          .reloc:0100716e b0                               0xb0 
                          .reloc:0100716f 3b                               0x3b ';'
                          .reloc:01007170 b6                               0xb6 
                          .reloc:01007171 3b                               0x3b ';'
                          .reloc:01007172 d4                               0xd4 
                          .reloc:01007173 3b                               0x3b ';'
                          .reloc:01007174 e5                               0xe5 
                          .reloc:01007175 3b                               0x3b ';'
                          .reloc:01007176 1f                               0x1f 
                          .reloc:01007177 3c                               0x3c '<'
                          .reloc:01007178 ad                               0xad 
                          .reloc:01007179 3c                               0x3c '<'
                          .reloc:0100717a ec                               0xec 
                          .reloc:0100717b 3d                               0x3d '='
                          .reloc:0100717c f0                               0xf0 
                          .reloc:0100717d 3d                               0x3d '='
                          .reloc:0100717e f4                               0xf4 
                          .reloc:0100717f 3d                               0x3d '='
                          .reloc:01007180 f8                               0xf8 
                          .reloc:01007181 3d                               0x3d '='
                          .reloc:01007182 fc                               0xfc 
                          .reloc:01007183 3d                               0x3d '='
                          .reloc:01007184 00                               0x00 
                          .reloc:01007185 3e                               0x3e '>'
                          .reloc:01007186 04                               0x04 
                          .reloc:01007187 3e                               0x3e '>'
                          .reloc:01007188 08                               0x08 
                          .reloc:01007189 3e                               0x3e '>'
                          .reloc:0100718a 0c                               0x0c ''
                          .reloc:0100718b 3e                               0x3e '>'
                          .reloc:0100718c 10                               0x10 
                          .reloc:0100718d 3e                               0x3e '>'
                          .reloc:0100718e 14                               0x14 
                          .reloc:0100718f 3e                               0x3e '>'
                          .reloc:01007190 18                               0x18 
                          .reloc:01007191 3e                               0x3e '>'
                          .reloc:01007192 1c                               0x1c 
                          .reloc:01007193 3e                               0x3e '>'
                          .reloc:01007194 20                               0x20 ' '
                          .reloc:01007195 3e                               0x3e '>'
                          .reloc:01007196 24                               0x24 '$'
                          .reloc:01007197 3e                               0x3e '>'
                          .reloc:01007198 28                               0x28 '('
                          .reloc:01007199 3e                               0x3e '>'
                          .reloc:0100719a 2c                               0x2c ','
                          .reloc:0100719b 3e                               0x3e '>'
                          .reloc:0100719c 30                               0x30 '0'
                          .reloc:0100719d 3e                               0x3e '>'
                          .reloc:0100719e 34                               0x34 '4'
                          .reloc:0100719f 3e                               0x3e '>'
                          .reloc:010071a0 38                               0x38 '8'
                          .reloc:010071a1 3e                               0x3e '>'
                          .reloc:010071a2 3c                               0x3c '<'
                          .reloc:010071a3 3e                               0x3e '>'
                          .reloc:010071a4 66                               0x66 'f'
                          .reloc:010071a5 3e                               0x3e '>'
                          .reloc:010071a6 55                               0x55 'U'
                          .reloc:010071a7 3f                               0x3f '?'
                          .reloc:010071a8 59                               0x59 'Y'
                          .reloc:010071a9 3f                               0x3f '?'
                          .reloc:010071aa 5d                               0x5d ']'
                          .reloc:010071ab 3f                               0x3f '?'
                          .reloc:010071ac 61                               0x61 'a'
                          .reloc:010071ad 3f                               0x3f '?'
                          .reloc:010071ae 65                               0x65 'e'
                          .reloc:010071af 3f                               0x3f '?'
                          .reloc:010071b0 69                               0x69 'i'
                          .reloc:010071b1 3f                               0x3f '?'
                          .reloc:010071b2 6d                               0x6d 'm'
                          .reloc:010071b3 3f                               0x3f '?'
                          .reloc:010071b4 71                               0x71 'q'
                          .reloc:010071b5 3f                               0x3f '?'
                          .reloc:010071b6 75                               0x75 'u'
                          .reloc:010071b7 3f                               0x3f '?'
                          .reloc:010071b8 79                               0x79 'y'
                          .reloc:010071b9 3f                               0x3f '?'
                          .reloc:010071ba 7d                               0x7d '}'
                          .reloc:010071bb 3f                               0x3f '?'
                          .reloc:010071bc 81                               0x81 
                          .reloc:010071bd 3f                               0x3f '?'
                          .reloc:010071be 85                               0x85 
                          .reloc:010071bf 3f                               0x3f '?'
                          .reloc:010071c0 89                               0x89 
                          .reloc:010071c1 3f                               0x3f '?'
                          .reloc:010071c2 8d                               0x8d 
                          .reloc:010071c3 3f                               0x3f '?'
                          .reloc:010071c4 91                               0x91 
                          .reloc:010071c5 3f                               0x3f '?'
                          .reloc:010071c6 95                               0x95 
                          .reloc:010071c7 3f                               0x3f '?'
                          .reloc:010071c8 99                               0x99 
                          .reloc:010071c9 3f                               0x3f '?'
                          .reloc:010071ca 9d                               0x9d 
                          .reloc:010071cb 3f                               0x3f '?'
                          .reloc:010071cc 00                               0x00 
                          .reloc:010071cd 30                               0x30 '0'
                          .reloc:010071ce 00                               0x00 
                          .reloc:010071cf 00                               0x00 
                          .reloc:010071d0 10                               0x10 
                          .reloc:010071d1 01                               0x01 
                          .reloc:010071d2 00                               0x00 
                          .reloc:010071d3 00                               0x00 
                          .reloc:010071d4 50                               0x50 'P'
                          .reloc:010071d5 30                               0x30 '0'
                          .reloc:010071d6 1f                               0x1f 
                          .reloc:010071d7 31                               0x31 '1'
                          .reloc:010071d8 23                               0x23 '#'
                          .reloc:010071d9 31                               0x31 '1'
                          .reloc:010071da 27                               0x27 '''
                          .reloc:010071db 31                               0x31 '1'
                          .reloc:010071dc 2b                               0x2b '+'
                          .reloc:010071dd 31                               0x31 '1'
                          .reloc:010071de 2f                               0x2f '/'
                          .reloc:010071df 31                               0x31 '1'
                          .reloc:010071e0 33                               0x33 '3'
                          .reloc:010071e1 31                               0x31 '1'
                          .reloc:010071e2 37                               0x37 '7'
                          .reloc:010071e3 31                               0x31 '1'
                          .reloc:010071e4 3b                               0x3b ';'
                          .reloc:010071e5 31                               0x31 '1'
                          .reloc:010071e6 3f                               0x3f '?'
                          .reloc:010071e7 31                               0x31 '1'
                          .reloc:010071e8 43                               0x43 'C'
                          .reloc:010071e9 31                               0x31 '1'
                          .reloc:010071ea 47                               0x47 'G'
                          .reloc:010071eb 31                               0x31 '1'
                          .reloc:010071ec 4b                               0x4b 'K'
                          .reloc:010071ed 31                               0x31 '1'
                          .reloc:010071ee f2                               0xf2 
                          .reloc:010071ef 31                               0x31 '1'
                          .reloc:010071f0 99                               0x99 
                          .reloc:010071f1 32                               0x32 '2'
                          .reloc:010071f2 9d                               0x9d 
                          .reloc:010071f3 32                               0x32 '2'
                          .reloc:010071f4 a1                               0xa1 
                          .reloc:010071f5 32                               0x32 '2'
                          .reloc:010071f6 a5                               0xa5 
                          .reloc:010071f7 32                               0x32 '2'
                          .reloc:010071f8 a9                               0xa9 
                          .reloc:010071f9 32                               0x32 '2'
                          .reloc:010071fa ad                               0xad 
                          .reloc:010071fb 32                               0x32 '2'
                          .reloc:010071fc b1                               0xb1 
                          .reloc:010071fd 32                               0x32 '2'
                          .reloc:010071fe b5                               0xb5 
                          .reloc:010071ff 32                               0x32 '2'
                          .reloc:01007200 b9                               0xb9 
                          .reloc:01007201 32                               0x32 '2'
                          .reloc:01007202 bd                               0xbd 
                          .reloc:01007203 32                               0x32 '2'
                          .reloc:01007204 c1                               0xc1 
                          .reloc:01007205 32                               0x32 '2'
                          .reloc:01007206 c5                               0xc5 
                          .reloc:01007207 32                               0x32 '2'
                          .reloc:01007208 c9                               0xc9 
                          .reloc:01007209 32                               0x32 '2'
                          .reloc:0100720a cd                               0xcd 
                          .reloc:0100720b 32                               0x32 '2'
                          .reloc:0100720c d1                               0xd1 
                          .reloc:0100720d 32                               0x32 '2'
                          .reloc:0100720e b4                               0xb4 
                          .reloc:0100720f 33                               0x33 '3'
                          .reloc:01007210 f5                               0xf5 
                          .reloc:01007211 33                               0x33 '3'
                          .reloc:01007212 05                               0x05 
                          .reloc:01007213 35                               0x35 '5'
                          .reloc:01007214 92                               0x92 
                          .reloc:01007215 35                               0x35 '5'
                          .reloc:01007216 9f                               0x9f 
                          .reloc:01007217 35                               0x35 '5'
                          .reloc:01007218 b9                               0xb9 
                          .reloc:01007219 35                               0x35 '5'
                          .reloc:0100721a c3                               0xc3 
                          .reloc:0100721b 35                               0x35 '5'
                          .reloc:0100721c df                               0xdf 
                          .reloc:0100721d 35                               0x35 '5'
                          .reloc:0100721e e6                               0xe6 
                          .reloc:0100721f 35                               0x35 '5'
                          .reloc:01007220 ee                               0xee 
                          .reloc:01007221 35                               0x35 '5'
                          .reloc:01007222 fe                               0xfe 
                          .reloc:01007223 35                               0x35 '5'
                          .reloc:01007224 20                               0x20 ' '
                          .reloc:01007225 36                               0x36 '6'
                          .reloc:01007226 28                               0x28 '('
                          .reloc:01007227 36                               0x36 '6'
                          .reloc:01007228 2d                               0x2d '-'
                          .reloc:01007229 36                               0x36 '6'
                          .reloc:0100722a 55                               0x55 'U'
                          .reloc:0100722b 36                               0x36 '6'
                          .reloc:0100722c 5d                               0x5d ']'
                          .reloc:0100722d 36                               0x36 '6'
                          .reloc:0100722e 66                               0x66 'f'
                          .reloc:0100722f 36                               0x36 '6'
                          .reloc:01007230 6e                               0x6e 'n'
                          .reloc:01007231 36                               0x36 '6'
                          .reloc:01007232 91                               0x91 
                          .reloc:01007233 36                               0x36 '6'
                          .reloc:01007234 c0                               0xc0 
                          .reloc:01007235 36                               0x36 '6'
                          .reloc:01007236 d9                               0xd9 
                          .reloc:01007237 36                               0x36 '6'
                          .reloc:01007238 e0                               0xe0 
                          .reloc:01007239 36                               0x36 '6'
                          .reloc:0100723a e9                               0xe9 
                          .reloc:0100723b 36                               0x36 '6'
                          .reloc:0100723c 7b                               0x7b '{'
                          .reloc:0100723d 37                               0x37 '7'
                          .reloc:0100723e 84                               0x84 
                          .reloc:0100723f 37                               0x37 '7'
                          .reloc:01007240 90                               0x90 
                          .reloc:01007241 37                               0x37 '7'
                          .reloc:01007242 ad                               0xad 
                          .reloc:01007243 37                               0x37 '7'
                          .reloc:01007244 b4                               0xb4 
                          .reloc:01007245 37                               0x37 '7'
                          .reloc:01007246 bb                               0xbb 
                          .reloc:01007247 37                               0x37 '7'
                          .reloc:01007248 c2                               0xc2 
                          .reloc:01007249 37                               0x37 '7'
                          .reloc:0100724a c9                               0xc9 
                          .reloc:0100724b 37                               0x37 '7'
                          .reloc:0100724c e4                               0xe4 
                          .reloc:0100724d 37                               0x37 '7'
                          .reloc:0100724e eb                               0xeb 
                          .reloc:0100724f 37                               0x37 '7'
                          .reloc:01007250 f2                               0xf2 
                          .reloc:01007251 37                               0x37 '7'
                          .reloc:01007252 f9                               0xf9 
                          .reloc:01007253 37                               0x37 '7'
                          .reloc:01007254 1e                               0x1e 
                          .reloc:01007255 38                               0x38 '8'
                          .reloc:01007256 33                               0x33 '3'
                          .reloc:01007257 38                               0x38 '8'
                          .reloc:01007258 4a                               0x4a 'J'
                          .reloc:01007259 38                               0x38 '8'
                          .reloc:0100725a 52                               0x52 'R'
                          .reloc:0100725b 38                               0x38 '8'
                          .reloc:0100725c 60                               0x60 '`'
                          .reloc:0100725d 38                               0x38 '8'
                          .reloc:0100725e 68                               0x68 'h'
                          .reloc:0100725f 38                               0x38 '8'
                          .reloc:01007260 70                               0x70 'p'
                          .reloc:01007261 38                               0x38 '8'
                          .reloc:01007262 90                               0x90 
                          .reloc:01007263 38                               0x38 '8'
                          .reloc:01007264 98                               0x98 
                          .reloc:01007265 38                               0x38 '8'
                          .reloc:01007266 ac                               0xac 
                          .reloc:01007267 38                               0x38 '8'
                          .reloc:01007268 b4                               0xb4 
                          .reloc:01007269 38                               0x38 '8'
                          .reloc:0100726a ce                               0xce 
                          .reloc:0100726b 38                               0x38 '8'
                          .reloc:0100726c da                               0xda 
                          .reloc:0100726d 38                               0x38 '8'
                          .reloc:0100726e e1                               0xe1 
                          .reloc:0100726f 38                               0x38 '8'
                          .reloc:01007270 e6                               0xe6 
                          .reloc:01007271 38                               0x38 '8'
                          .reloc:01007272 fa                               0xfa 
                          .reloc:01007273 38                               0x38 '8'
                          .reloc:01007274 02                               0x02 
                          .reloc:01007275 39                               0x39 '9'
                          .reloc:01007276 18                               0x18 
                          .reloc:01007277 39                               0x39 '9'
                          .reloc:01007278 28                               0x28 '('
                          .reloc:01007279 3a                               0x3a ':'
                          .reloc:0100727a c3                               0xc3 
                          .reloc:0100727b 3b                               0x3b ';'
                          .reloc:0100727c c7                               0xc7 
                          .reloc:0100727d 3b                               0x3b ';'
                          .reloc:0100727e cb                               0xcb 
                          .reloc:0100727f 3b                               0x3b ';'
                          .reloc:01007280 cf                               0xcf 
                          .reloc:01007281 3b                               0x3b ';'
                          .reloc:01007282 d3                               0xd3 
                          .reloc:01007283 3b                               0x3b ';'
                          .reloc:01007284 d7                               0xd7 
                          .reloc:01007285 3b                               0x3b ';'
                          .reloc:01007286 db                               0xdb 
                          .reloc:01007287 3b                               0x3b ';'
                          .reloc:01007288 df                               0xdf 
                          .reloc:01007289 3b                               0x3b ';'
                          .reloc:0100728a e3                               0xe3 
                          .reloc:0100728b 3b                               0x3b ';'
                          .reloc:0100728c e7                               0xe7 
                          .reloc:0100728d 3b                               0x3b ';'
                          .reloc:0100728e eb                               0xeb 
                          .reloc:0100728f 3b                               0x3b ';'
                          .reloc:01007290 ef                               0xef 
                          .reloc:01007291 3b                               0x3b ';'
                          .reloc:01007292 f3                               0xf3 
                          .reloc:01007293 3b                               0x3b ';'
                          .reloc:01007294 f7                               0xf7 
                          .reloc:01007295 3b                               0x3b ';'
                          .reloc:01007296 fb                               0xfb 
                          .reloc:01007297 3b                               0x3b ';'
                          .reloc:01007298 0b                               0x0b ''
                          .reloc:01007299 3c                               0x3c '<'
                          .reloc:0100729a 17                               0x17 
                          .reloc:0100729b 3c                               0x3c '<'
                          .reloc:0100729c 20                               0x20 ' '
                          .reloc:0100729d 3c                               0x3c '<'
                          .reloc:0100729e 27                               0x27 '''
                          .reloc:0100729f 3c                               0x3c '<'
                          .reloc:010072a0 44                               0x44 'D'
                          .reloc:010072a1 3c                               0x3c '<'
                          .reloc:010072a2 c0                               0xc0 
                          .reloc:010072a3 3c                               0x3c '<'
                          .reloc:010072a4 c4                               0xc4 
                          .reloc:010072a5 3c                               0x3c '<'
                          .reloc:010072a6 c8                               0xc8 
                          .reloc:010072a7 3c                               0x3c '<'
                          .reloc:010072a8 cc                               0xcc 
                          .reloc:010072a9 3c                               0x3c '<'
                          .reloc:010072aa d0                               0xd0 
                          .reloc:010072ab 3c                               0x3c '<'
                          .reloc:010072ac d4                               0xd4 
                          .reloc:010072ad 3c                               0x3c '<'
                          .reloc:010072ae d8                               0xd8 
                          .reloc:010072af 3c                               0x3c '<'
                          .reloc:010072b0 dc                               0xdc 
                          .reloc:010072b1 3c                               0x3c '<'
                          .reloc:010072b2 e0                               0xe0 
                          .reloc:010072b3 3c                               0x3c '<'
                          .reloc:010072b4 e4                               0xe4 
                          .reloc:010072b5 3c                               0x3c '<'
                          .reloc:010072b6 e8                               0xe8 
                          .reloc:010072b7 3c                               0x3c '<'
                          .reloc:010072b8 ec                               0xec 
                          .reloc:010072b9 3c                               0x3c '<'
                          .reloc:010072ba f0                               0xf0 
                          .reloc:010072bb 3c                               0x3c '<'
                          .reloc:010072bc f4                               0xf4 
                          .reloc:010072bd 3c                               0x3c '<'
                          .reloc:010072be f8                               0xf8 
                          .reloc:010072bf 3c                               0x3c '<'
                          .reloc:010072c0 fc                               0xfc 
                          .reloc:010072c1 3c                               0x3c '<'
                          .reloc:010072c2 10                               0x10 
                          .reloc:010072c3 3d                               0x3d '='
                          .reloc:010072c4 1c                               0x1c 
                          .reloc:010072c5 3d                               0x3d '='
                          .reloc:010072c6 28                               0x28 '('
                          .reloc:010072c7 3d                               0x3d '='
                          .reloc:010072c8 34                               0x34 '4'
                          .reloc:010072c9 3d                               0x3d '='
                          .reloc:010072ca 40                               0x40 '@'
                          .reloc:010072cb 3d                               0x3d '='
                          .reloc:010072cc 4c                               0x4c 'L'
                          .reloc:010072cd 3d                               0x3d '='
                          .reloc:010072ce 58                               0x58 'X'
                          .reloc:010072cf 3d                               0x3d '='
                          .reloc:010072d0 74                               0x74 't'
                          .reloc:010072d1 3d                               0x3d '='
                          .reloc:010072d2 78                               0x78 'x'
                          .reloc:010072d3 3d                               0x3d '='
                          .reloc:010072d4 94                               0x94 
                          .reloc:010072d5 3d                               0x3d '='
                          .reloc:010072d6 98                               0x98 
                          .reloc:010072d7 3d                               0x3d '='
                          .reloc:010072d8 b4                               0xb4 
                          .reloc:010072d9 3d                               0x3d '='
                          .reloc:010072da b8                               0xb8 
                          .reloc:010072db 3d                               0x3d '='
                          .reloc:010072dc 00                               0x00 
                          .reloc:010072dd 00                               0x00 
                          .reloc:010072de 00                               0x00 
                          .reloc:010072df 00                               0x00 
                          .reloc:010072e0 00                               0x00 
                          .reloc:010072e1 00                               0x00 
                          .reloc:010072e2 00                               0x00 
                          .reloc:010072e3 00                               0x00 
                          .reloc:010072e4 00                               0x00 
                          .reloc:010072e5 00                               0x00 
                          .reloc:010072e6 00                               0x00 
                          .reloc:010072e7 00                               0x00 
                          .reloc:010072e8 00                               0x00 
                          .reloc:010072e9 00                               0x00 
                          .reloc:010072ea 00                               0x00 
                          .reloc:010072eb 00                               0x00 
                          .reloc:010072ec 00                               0x00 
                          .reloc:010072ed 00                               0x00 
                          .reloc:010072ee 00                               0x00 
                          .reloc:010072ef 00                               0x00 
                          .reloc:010072f0 00                               0x00 
                          .reloc:010072f1 00                               0x00 
                          .reloc:010072f2 00                               0x00 
                          .reloc:010072f3 00                               0x00 
                          .reloc:010072f4 00                               0x00 
                          .reloc:010072f5 00                               0x00 
                          .reloc:010072f6 00                               0x00 
                          .reloc:010072f7 00                               0x00 
                          .reloc:010072f8 00                               0x00 
                          .reloc:010072f9 00                               0x00 
                          .reloc:010072fa 00                               0x00 
                          .reloc:010072fb 00                               0x00 
                          .reloc:010072fc 00                               0x00 
                          .reloc:010072fd 00                               0x00 
                          .reloc:010072fe 00                               0x00 
                          .reloc:010072ff 00                               0x00 
                          .reloc:01007300 00                               0x00 
                          .reloc:01007301 00                               0x00 
                          .reloc:01007302 00                               0x00 
                          .reloc:01007303 00                               0x00 
                          .reloc:01007304 00                               0x00 
                          .reloc:01007305 00                               0x00 
                          .reloc:01007306 00                               0x00 
                          .reloc:01007307 00                               0x00 
                          .reloc:01007308 00                               0x00 
                          .reloc:01007309 00                               0x00 
                          .reloc:0100730a 00                               0x00 
                          .reloc:0100730b 00                               0x00 
                          .reloc:0100730c 00                               0x00 
                          .reloc:0100730d 00                               0x00 
                          .reloc:0100730e 00                               0x00 
                          .reloc:0100730f 00                               0x00 
                          .reloc:01007310 00                               0x00 
                          .reloc:01007311 00                               0x00 
                          .reloc:01007312 00                               0x00 
                          .reloc:01007313 00                               0x00 
                          .reloc:01007314 00                               0x00 
                          .reloc:01007315 00                               0x00 
                          .reloc:01007316 00                               0x00 
                          .reloc:01007317 00                               0x00 
                          .reloc:01007318 00                               0x00 
                          .reloc:01007319 00                               0x00 
                          .reloc:0100731a 00                               0x00 
                          .reloc:0100731b 00                               0x00 
                          .reloc:0100731c 00                               0x00 
                          .reloc:0100731d 00                               0x00 
                          .reloc:0100731e 00                               0x00 
                          .reloc:0100731f 00                               0x00 
                          .reloc:01007320 00                               0x00 
                          .reloc:01007321 00                               0x00 
                          .reloc:01007322 00                               0x00 
                          .reloc:01007323 00                               0x00 
                          .reloc:01007324 00                               0x00 
                          .reloc:01007325 00                               0x00 
                          .reloc:01007326 00                               0x00 
                          .reloc:01007327 00                               0x00 
                          .reloc:01007328 00                               0x00 
                          .reloc:01007329 00                               0x00 
                          .reloc:0100732a 00                               0x00 
                          .reloc:0100732b 00                               0x00 
                          .reloc:0100732c 00                               0x00 
                          .reloc:0100732d 00                               0x00 
                          .reloc:0100732e 00                               0x00 
                          .reloc:0100732f 00                               0x00 
                          .reloc:01007330 00                               0x00 
                          .reloc:01007331 00                               0x00 
                          .reloc:01007332 00                               0x00 
                          .reloc:01007333 00                               0x00 
                          .reloc:01007334 00                               0x00 
                          .reloc:01007335 00                               0x00 
                          .reloc:01007336 00                               0x00 
                          .reloc:01007337 00                               0x00 
                          .reloc:01007338 00                               0x00 
                          .reloc:01007339 00                               0x00 
                          .reloc:0100733a 00                               0x00 
                          .reloc:0100733b 00                               0x00 
                          .reloc:0100733c 00                               0x00 
                          .reloc:0100733d 00                               0x00 
                          .reloc:0100733e 00                               0x00 
                          .reloc:0100733f 00                               0x00 
                          .reloc:01007340 00                               0x00 
                          .reloc:01007341 00                               0x00 
                          .reloc:01007342 00                               0x00 
                          .reloc:01007343 00                               0x00 
                          .reloc:01007344 00                               0x00 
                          .reloc:01007345 00                               0x00 
                          .reloc:01007346 00                               0x00 
                          .reloc:01007347 00                               0x00 
                          .reloc:01007348 00                               0x00 
                          .reloc:01007349 00                               0x00 
                          .reloc:0100734a 00                               0x00 
                          .reloc:0100734b 00                               0x00 
                          .reloc:0100734c 00                               0x00 
                          .reloc:0100734d 00                               0x00 
                          .reloc:0100734e 00                               0x00 
                          .reloc:0100734f 00                               0x00 
                          .reloc:01007350 00                               0x00 
                          .reloc:01007351 00                               0x00 
                          .reloc:01007352 00                               0x00 
                          .reloc:01007353 00                               0x00 
                          .reloc:01007354 00                               0x00 
                          .reloc:01007355 00                               0x00 
                          .reloc:01007356 00                               0x00 
                          .reloc:01007357 00                               0x00 
                          .reloc:01007358 00                               0x00 
                          .reloc:01007359 00                               0x00 
                          .reloc:0100735a 00                               0x00 
                          .reloc:0100735b 00                               0x00 
                          .reloc:0100735c 00                               0x00 
                          .reloc:0100735d 00                               0x00 
                          .reloc:0100735e 00                               0x00 
                          .reloc:0100735f 00                               0x00 
                          .reloc:01007360 00                               0x00 
                          .reloc:01007361 00                               0x00 
                          .reloc:01007362 00                               0x00 
                          .reloc:01007363 00                               0x00 
                          .reloc:01007364 00                               0x00 
                          .reloc:01007365 00                               0x00 
                          .reloc:01007366 00                               0x00 
                          .reloc:01007367 00                               0x00 
                          .reloc:01007368 00                               0x00 
                          .reloc:01007369 00                               0x00 
                          .reloc:0100736a 00                               0x00 
                          .reloc:0100736b 00                               0x00 
                          .reloc:0100736c 00                               0x00 
                          .reloc:0100736d 00                               0x00 
                          .reloc:0100736e 00                               0x00 
                          .reloc:0100736f 00                               0x00 
                          .reloc:01007370 00                               0x00 
                          .reloc:01007371 00                               0x00 
                          .reloc:01007372 00                               0x00 
                          .reloc:01007373 00                               0x00 
                          .reloc:01007374 00                               0x00 
                          .reloc:01007375 00                               0x00 
                          .reloc:01007376 00                               0x00 
                          .reloc:01007377 00                               0x00 
                          .reloc:01007378 00                               0x00 
                          .reloc:01007379 00                               0x00 
                          .reloc:0100737a 00                               0x00 
                          .reloc:0100737b 00                               0x00 
                          .reloc:0100737c 00                               0x00 
                          .reloc:0100737d 00                               0x00 
                          .reloc:0100737e 00                               0x00 
                          .reloc:0100737f 00                               0x00 
                          .reloc:01007380 00                               0x00 
                          .reloc:01007381 00                               0x00 
                          .reloc:01007382 00                               0x00 
                          .reloc:01007383 00                               0x00 
                          .reloc:01007384 00                               0x00 
                          .reloc:01007385 00                               0x00 
                          .reloc:01007386 00                               0x00 
                          .reloc:01007387 00                               0x00 
                          .reloc:01007388 00                               0x00 
                          .reloc:01007389 00                               0x00 
                          .reloc:0100738a 00                               0x00 
                          .reloc:0100738b 00                               0x00 
                          .reloc:0100738c 00                               0x00 
                          .reloc:0100738d 00                               0x00 
                          .reloc:0100738e 00                               0x00 
                          .reloc:0100738f 00                               0x00 
                          .reloc:01007390 00                               0x00 
                          .reloc:01007391 00                               0x00 
                          .reloc:01007392 00                               0x00 
                          .reloc:01007393 00                               0x00 
                          .reloc:01007394 00                               0x00 
                          .reloc:01007395 00                               0x00 
                          .reloc:01007396 00                               0x00 
                          .reloc:01007397 00                               0x00 
                          .reloc:01007398 00                               0x00 
                          .reloc:01007399 00                               0x00 
                          .reloc:0100739a 00                               0x00 
                          .reloc:0100739b 00                               0x00 
                          .reloc:0100739c 00                               0x00 
                          .reloc:0100739d 00                               0x00 
                          .reloc:0100739e 00                               0x00 
                          .reloc:0100739f 00                               0x00 
                          .reloc:010073a0 00                               0x00 
                          .reloc:010073a1 00                               0x00 
                          .reloc:010073a2 00                               0x00 
                          .reloc:010073a3 00                               0x00 
                          .reloc:010073a4 00                               0x00 
                          .reloc:010073a5 00                               0x00 
                          .reloc:010073a6 00                               0x00 
                          .reloc:010073a7 00                               0x00 
                          .reloc:010073a8 00                               0x00 
                          .reloc:010073a9 00                               0x00 
                          .reloc:010073aa 00                               0x00 
                          .reloc:010073ab 00                               0x00 
                          .reloc:010073ac 00                               0x00 
                          .reloc:010073ad 00                               0x00 
                          .reloc:010073ae 00                               0x00 
                          .reloc:010073af 00                               0x00 
                          .reloc:010073b0 00                               0x00 
                          .reloc:010073b1 00                               0x00 
                          .reloc:010073b2 00                               0x00 
                          .reloc:010073b3 00                               0x00 
                          .reloc:010073b4 00                               0x00 
                          .reloc:010073b5 00                               0x00 
