                           .text:01001000 d5 bc                            aad    $0xbc
                           .text:01001002 c7                               (bad)  
                           .text:01001003 77 72                            ja     0x01001077
                           .text:01001005 bb c7 77 c4 be                   mov    $0xbec477c7,%ebx
                           .text:0100100a c7                               (bad)  
                           .text:0100100b 77 46                            ja     0x01001053
                           .text:0100100d b9 c7 77 d4 be                   mov    $0xbed477c7,%ecx
                           .text:01001012 c7                               (bad)  
                           .text:01001013 77 00                            ja     0x01001015
                           .text:01001015 00 00                            add    %al,(%eax)
                           .text:01001017 00 ae 41 c3 75 dd                add    %ch,-0x228a3cbf(%esi)
                           .text:0100101d 66 c3                            retw   
                           .text:0100101f 75 f2                            jne    0x01001013
                           .text:01001021 64 c3                            fs ret 
                           .text:01001023 75 19                            jne    0x0100103e
                           .text:01001025 46                               inc    %esi
                           .text:01001026 c2 75 00                         ret    $0x75
                           .text:01001029 00 00                            add    %al,(%eax)
                           .text:0100102b 00 ab 35 84 41 00                add    %ch,0x418435(%ebx)
                           .text:01001031 00 00                            add    %al,(%eax)
                           .text:01001033 00 14 18                         add    %dl,(%eax,%ebx,1)
                           .text:01001036 e3 77                            jecxz  0x010010af
                           .text:01001038 75 d2                            jne    0x0100100c
                           .text:0100103a e2 77                            loop   0x010010b3
                           .text:0100103c 5c                               pop    %esp
                           .text:0100103d d3 e2                            shl    %cl,%edx
                           .text:0100103f 77 44                            ja     0x01001085
                           .text:01001041 0e                               push   %cs
                           .text:01001042 e3 77                            jecxz  0x010010bb
                           .text:01001044 68 92 e2 77 06                   push   $0x677e292
                           .text:01001049 b6 e2                            mov    $0xe2,%dh
                           .text:0100104b 77 1a                            ja     0x01001067
                           .text:0100104d c4 e3 77 97                      (bad)  
                           .text:01001051 12 e3                            adc    %bl,%ah
                           .text:01001053 77 ab                            ja     0x01001000
                           .text:01001055 ec                               in     (%dx),%al
                           .text:01001056 e3 77                            jecxz  0x010010cf
                           .text:01001058 9f                               lahf   
                           .text:01001059 8b e1                            mov    %ecx,%esp
                           .text:0100105b 77 0c                            ja     0x01001069
                           .text:0100105d 06                               push   %es
                           .text:0100105e e3 77                            jecxz  0x010010d7
                           .text:01001060 9b                               fwait
                           .text:01001061 50                               push   %eax
                           .text:01001062 e2 77                            loop   0x010010db
                           .text:01001064 44                               inc    %esp
                           .text:01001065 fe                               (bad)  
                           .text:01001066 e2 77                            loop   0x010010df
                           .text:01001068 23 0d e3 77 12 f2                and    0xf21277e3,%ecx
                           .text:0100106e e2 77                            loop   0x010010e7
                           .text:01001070 76 ef                            jbe    0x01001061
                           .text:01001072 e2 77                            loop   0x010010eb
                           .text:01001074 a7                               cmpsl  %es:(%edi),%ds:(%esi)
                           .text:01001075 f2 e2 77                         repnz loop 0x010010ef
                           .text:01001078 d7                               xlat   %ds:(%ebx)
                           .text:01001079 28 e3                            sub    %ah,%bl
                           .text:0100107b 77 42                            ja     0x010010bf
                           .text:0100107d 31 e3                            xor    %esp,%ebx
                           .text:0100107f 77 f0                            ja     0x01001071
                           .text:01001081 1d de 77 3c f2                   sbb    $0xf23c77de,%eax
                           .text:01001086 e2 77                            loop   0x010010ff
                           .text:01001088 66 ef                            out    %ax,(%dx)
                           .text:0100108a e2 77                            loop   0x01001103
                           .text:0100108c 5e                               pop    %esi
                           .text:0100108d f2 e2 77                         repnz loop 0x01001107
                           .text:01001090 37                               aaa    
                           .text:01001091 fe                               (bad)  
                           .text:01001092 e2 77                            loop   0x0100110b
                           .text:01001094 bd d1 e2 77 74                   mov    $0x7477e2d1,%ebp
                           .text:01001099 d3 e2                            shl    %cl,%edx
                           .text:0100109b 77 75                            ja     0x01001112
                           .text:0100109d db e2                            fnclex 
                           .text:0100109f 77 94                            ja     0x01001035
                           .text:010010a1 05 e3 77 7c 05                   add    $0x57c77e3,%eax
                           .text:010010a6 e3 77                            jecxz  0x0100111f
                           .text:010010a8 52                               push   %edx
                           .text:010010a9 64 e2 77                         fs loop 0x01001123
                           .text:010010ac 35 2b e4 77 00                   xor    $0x77e42b,%eax
                           .text:010010b1 00 00                            add    %al,(%eax)
                           .text:010010b3 00 6f 64                         add    %ch,0x64(%edi)
                           .text:010010b6 85 73 bf                         test   %esi,-0x41(%ebx)
                           .text:010010b9 c9                               leave  
                           .text:010010ba 87 73 6c                         xchg   %esi,0x6c(%ebx)
                           .text:010010bd 94                               xchg   %eax,%esp
                           .text:010010be 90                               nop
                           .text:010010bf 73 f0                            jae    0x010010b1
                           .text:010010c1 a1 81 73 13 6a                   mov    0x6a137381,%eax
                           .text:010010c6 a2 73 5e 42 a3                   mov    %al,0xa3425e73
                           .text:010010cb 73 03                            jae    0x010010d0
                           .text:010010cd 69 81 73 ea 1f 91 73 ff 54 91    imul   $0x9154ff73,-0x6ee0158d(%ecx),%eax
                           .text:010010d7 73 91                            jae    0x0100106a
                           .text:010010d9 dc 80 73 00 00 00                faddl  0x73(%eax)
                           .text:010010df 00 65 89                         add    %ah,-0x77(%ebp)
                           .text:010010e2 e3 6d                            jecxz  0x01001151
                           .text:010010e4 01 52 e3                         add    %edx,-0x1d(%edx)
                           .text:010010e7 6d                               insl   (%dx),%es:(%edi)
                           .text:010010e8 63 88 e3 6d ad e9                arpl   %cx,-0x1652921d(%eax)
                           .text:010010ee e2 6d                            loop   0x0100115d
                           .text:010010f0 bb 48 e3 6d a0                   mov    $0xa06de348,%ebx
                           .text:010010f5 8a e3                            mov    %bl,%ah
                           .text:010010f7 6d                               insl   (%dx),%es:(%edi)
                           .text:010010f8 76 a7                            jbe    0x010010a1
                           .text:010010fa e3 6d                            jecxz  0x01001169
                           .text:010010fc f1                               icebp  
                           .text:010010fd e9 e3 6d 58 e7                   jmp    0xe8587ee5
                           .text:01001102 e3 6d                            jecxz  0x01001171
                           .text:01001104 24 4b                            and    $0x4b,%al
                           .text:01001106 e3 6d                            jecxz  0x01001175
                           .text:01001108 e8 e7 e3 6d 00                   call   0x016df4f4
                           .text:0100110d 00 00                            add    %al,(%eax)
                           .text:0100110f 00 ea                            add    %ch,%dl
                           .text:01001111 52                               push   %edx
                           .text:01001112 d2                               (bad)  
                           .text:01001113 77 ca                            ja     0x010010df
                           .text:01001115 f9                               stc    
                           .text:01001116 d1                               (bad)  
                           .text:01001117 77 33                            ja     0x0100114c
                           .text:01001119 55                               push   %ebp
                           .text:0100111a d2                               (bad)  
                           .text:0100111b 77 83                            ja     0x010010a0
                           .text:0100111d f2 d1                            repnz (bad) 
                           .text:0100111f 77 00                            ja     0x01001121
                           .text:01001121 00 00                            add    %al,(%eax)
                           .text:01001123 00 51 c1                         add    %dl,-0x3f(%ecx)
                           .text:01001126 f5                               cmc    
                           .text:01001127 6f                               outsl  %ds:(%esi),(%dx)
                           .text:01001128 cf                               iret   
                           .text:01001129 61                               popa   
                           .text:0100112a fa                               cli    
                           .text:0100112b 6f                               outsl  %ds:(%esi),(%dx)
                           .text:0100112c ef                               out    %eax,(%dx)
                           .text:0100112d b2 fb                            mov    $0xfb,%dl
                           .text:0100112f 6f                               outsl  %ds:(%esi),(%dx)
                           .text:01001130 ad                               lods   %ds:(%esi),%eax
                           .text:01001131 77 fe                            ja     0x01001131
                           .text:01001133 6f                               outsl  %ds:(%esi),(%dx)
                           .text:01001134 c3                               ret    
                           .text:01001135 27                               daa    
                           .text:01001136 f6 6f ce                         imulb  -0x32(%edi)
                           .text:01001139 27                               daa    
                           .text:0100113a f6 6f 27                         imulb  0x27(%edi)
                           .text:0100113d 3e f7 6f 04                      imull  %ds:0x4(%edi)
                           .text:01001141 28 f6                            sub    %dh,%dh
                           .text:01001143 6f                               outsl  %ds:(%esi),(%dx)
                           .text:01001144 d8 04 ff                         fadds  (%edi,%edi,8)
                           .text:01001147 6f                               outsl  %ds:(%esi),(%dx)
                           .text:01001148 aa                               stos   %al,%es:(%edi)
                           .text:01001149 36 f6 6f 07                      imulb  %ss:0x7(%edi)
                           .text:0100114d f6 f5                            div    %ch
                           .text:0100114f 6f                               outsl  %ds:(%esi),(%dx)
                           .text:01001150 75 dc                            jne    0x0100112e
                           .text:01001152 f7 6f c0                         imull  -0x40(%edi)
                           .text:01001155 b2 fb                            mov    $0xfb,%dl
                           .text:01001157 6f                               outsl  %ds:(%esi),(%dx)
                           .text:01001158 d4 37                            aam    $0x37
                           .text:0100115a f6 6f c0                         imulb  -0x40(%edi)
                           .text:0100115d 2b f6                            sub    %esi,%esi
                           .text:0100115f 6f                               outsl  %ds:(%esi),(%dx)
                           .text:01001160 5a                               pop    %edx
                           .text:01001161 9e                               sahf   
                           .text:01001162 f5                               cmc    
                           .text:01001163 6f                               outsl  %ds:(%esi),(%dx)
                           .text:01001164 e1 e1                            loope  0x01001147
                           .text:01001166 f5                               cmc    
                           .text:01001167 6f                               outsl  %ds:(%esi),(%dx)
                           .text:01001168 00 00                            add    %al,(%eax)
                           .text:0100116a 00 00                            add    %al,(%eax)
                           .text:0100116c 04 08                            add    $0x8,%al
                           .text:0100116e 58                               pop    %eax
                           .text:0100116f 72 fc                            jb     0x0100116d
                           .text:01001171 57                               push   %edi
                           .text:01001172 59                               pop    %ecx
                           .text:01001173 72 c7                            jb     0x0100113c
                           .text:01001175 70 58                            jo     0x010011cf
                           .text:01001177 72 00                            jb     0x01001179
                           .text:01001179 00 00                            add    %al,(%eax)
                           .text:0100117b 00 00                            add    %al,(%eax)
                           .text:0100117d 00 00                            add    %al,(%eax)
                           .text:0100117f 00 13                            add    %dl,(%ebx)
                           .text:01001181 24 00                            and    $0x0,%al
                           .text:01001183 01 00                            add    %eax,(%eax)
                           .text:01001185 00 00                            add    %al,(%eax)
                           .text:01001187 00 00                            add    %al,(%eax)
                           .text:01001189 00 00                            add    %al,(%eax)
                           .text:0100118b 00 2f                            add    %ch,(%edi)
                           .text:0100118d 26 00 01                         add    %al,%es:(%ecx)
                           .text:01001190 98                               cwtl   
                           .text:01001191 27                               daa    
                           .text:01001192 00 01                            add    %al,(%ecx)
                           .text:01001194 00 00                            add    %al,(%eax)
                           .text:01001196 00 00                            add    %al,(%eax)
                           .text:01001198 00 00                            add    %al,(%eax)
                           .text:0100119a 00 00                            add    %al,(%eax)
                           .text:0100119c 00 00                            add    %al,(%eax)
                           .text:0100119e 00 00                            add    %al,(%eax)
                           .text:010011a0 00 00                            add    %al,(%eax)
                           .text:010011a2 00 00                            add    %al,(%eax)
                           .text:010011a4 e1 c5                            loope  0x0100116b
                           .text:010011a6 5b                               pop    %ebx
                           .text:010011a7 4a                               dec    %edx
                           .text:010011a8 00 00                            add    %al,(%eax)
                           .text:010011aa 00 00                            add    %al,(%eax)
                           .text:010011ac 02 00                            add    (%eax),%al
                           .text:010011ae 00 00                            add    %al,(%eax)
                           .text:010011b0 24 00                            and    $0x0,%al
                           .text:010011b2 00 00                            add    %al,(%eax)
                           .text:010011b4 90                               nop
                           .text:010011b5 14 00                            adc    $0x0,%al
                           .text:010011b7 00 90 08 00 00 00                add    %dl,0x8(%eax)
                           .text:010011bd 00 00                            add    %al,(%eax)
                           .text:010011bf 00 53 00                         add    %dl,0x0(%ebx)
                           .text:010011c2 6f                               outsl  %ds:(%esi),(%dx)
                           .text:010011c3 00 66 00                         add    %ah,0x0(%esi)
                           .text:010011c6 74 00                            je     0x010011c8
                           .text:010011c8 77 00                            ja     0x010011ca
                           .text:010011ca 61                               popa   
                           .text:010011cb 00 72 00                         add    %dh,0x0(%edx)
                           .text:010011ce 65 00 5c 00 4d                   add    %bl,%gs:0x4d(%eax,%eax,1)
                           .text:010011d3 00 69 00                         add    %ch,0x0(%ecx)
                           .text:010011d6 63 00                            arpl   %ax,(%eax)
                           .text:010011d8 72 00                            jb     0x010011da
                           .text:010011da 6f                               outsl  %ds:(%esi),(%dx)
                           .text:010011db 00 73 00                         add    %dh,0x0(%ebx)
                           .text:010011de 6f                               outsl  %ds:(%esi),(%dx)
                           .text:010011df 00 66 00                         add    %ah,0x0(%esi)
                           .text:010011e2 74 00                            je     0x010011e4
                           .text:010011e4 5c                               pop    %esp
                           .text:010011e5 00 57 00                         add    %dl,0x0(%edi)
                           .text:010011e8 69 00 6e 00 64 00                imul   $0x64006e,(%eax),%eax
                           .text:010011ee 6f                               outsl  %ds:(%esi),(%dx)
                           .text:010011ef 00 77 00                         add    %dh,0x0(%edi)
                           .text:010011f2 73 00                            jae    0x010011f4
                           .text:010011f4 5c                               pop    %esp
                           .text:010011f5 00 43 00                         add    %al,0x0(%ebx)
                           .text:010011f8 75 00                            jne    0x010011fa
                           .text:010011fa 72 00                            jb     0x010011fc
                           .text:010011fc 72 00                            jb     0x010011fe
                           .text:010011fe 65 00 6e 00                      add    %ch,%gs:0x0(%esi)
                           .text:01001202 74 00                            je     0x01001204
                           .text:01001204 56                               push   %esi
                           .text:01001205 00 65 00                         add    %ah,0x0(%ebp)
                           .text:01001208 72 00                            jb     0x0100120a
                           .text:0100120a 73 00                            jae    0x0100120c
                           .text:0100120c 69 00 6f 00 6e 00                imul   $0x6e006f,(%eax),%eax
                           .text:01001212 5c                               pop    %esp
                           .text:01001213 00 45 00                         add    %al,0x0(%ebp)
                           .text:01001216 78 00                            js     0x01001218
                           .text:01001218 70 00                            jo     0x0100121a
                           .text:0100121a 6c                               insb   (%dx),%es:(%edi)
                           .text:0100121b 00 6f 00                         add    %ch,0x0(%edi)
                           .text:0100121e 72 00                            jb     0x01001220
                           .text:01001220 65 00 72 00                      add    %dh,%gs:0x0(%edx)
                           .text:01001224 5c                               pop    %esp
                           .text:01001225 00 53 00                         add    %dl,0x0(%ebx)
                           .text:01001228 68 00 65 00 6c                   push   $0x6c006500
                           .text:0100122d 00 6c 00 20                      add    %ch,0x20(%eax,%eax,1)
                           .text:01001231 00 46 00                         add    %al,0x0(%esi)
                           .text:01001234 6f                               outsl  %ds:(%esi),(%dx)
                           .text:01001235 00 6c 00 64                      add    %ch,0x64(%eax,%eax,1)
                           .text:01001239 00 65 00                         add    %ah,0x0(%ebp)
                           .text:0100123c 72 00                            jb     0x0100123e
                           .text:0100123e 73 00                            jae    0x01001240
                           .text:01001240 00 00                            add    %al,(%eax)
                           .text:01001242 00 00                            add    %al,(%eax)
                           .text:01001244 2e 00 70 00                      add    %dh,%cs:0x0(%eax)
                           .text:01001248 69 00 66 00 00 00                imul   $0x66,(%eax),%eax
                           .text:0100124e 00 00                            add    %al,(%eax)
                           .text:01001250 25 00 48 00 4f                   and    $0x4f004800,%eax
                           .text:01001255 00 4d 00                         add    %cl,0x0(%ebp)
                           .text:01001258 45                               inc    %ebp
                           .text:01001259 00 44 00 52                      add    %al,0x52(%eax,%eax,1)
                           .text:0100125d 00 49 00                         add    %cl,0x0(%ecx)
                           .text:01001260 56                               push   %esi
                           .text:01001261 00 45 00                         add    %al,0x0(%ebp)
                           .text:01001264 25 00 25 00 48                   and    $0x48002500,%eax
                           .text:01001269 00 4f 00                         add    %cl,0x0(%edi)
                           .text:0100126c 4d                               dec    %ebp
                           .text:0100126d 00 45 00                         add    %al,0x0(%ebp)
                           .text:01001270 50                               push   %eax
                           .text:01001271 00 41 00                         add    %al,0x0(%ecx)
                           .text:01001274 54                               push   %esp
                           .text:01001275 00 48 00                         add    %cl,0x0(%eax)
                           .text:01001278 25 00 00 00 2e                   and    $0x2e000000,%eax
                           .text:0100127d 00 6c 00 6e                      add    %ch,0x6e(%eax,%eax,1)
                           .text:01001281 00 6b 00                         add    %ch,0x0(%ebx)
                           .text:01001284 00 00                            add    %al,(%eax)
                           .text:01001286 00 00                            add    %al,(%eax)
                           .text:01001288 22 00                            and    (%eax),%al
                           .text:0100128a 00 00                            add    %al,(%eax)
                           .text:0100128c 73 00                            jae    0x0100128e
                           .text:0100128e 65 00 74 00 75                   add    %dh,%gs:0x75(%eax,%eax,1)
                           .text:01001293 00 70 00                         add    %dh,0x0(%eax)
                           .text:01001296 2e 00 69 00                      add    %ch,%cs:0x0(%ecx)
                           .text:0100129a 6e                               outsb  %ds:(%esi),(%dx)
                           .text:0100129b 00 69 00                         add    %ch,0x0(%ecx)
                           .text:0100129e 00 00                            add    %al,(%eax)
                           .text:010012a0 25 00 55 00 53                   and    $0x53005500,%eax
                           .text:010012a5 00 45 00                         add    %al,0x0(%ebp)
                           .text:010012a8 52                               push   %edx
                           .text:010012a9 00 50 00                         add    %dl,0x0(%eax)
                           .text:010012ac 52                               push   %edx
                           .text:010012ad 00 4f 00                         add    %cl,0x0(%edi)
                           .text:010012b0 46                               inc    %esi
                           .text:010012b1 00 49 00                         add    %cl,0x0(%ecx)
                           .text:010012b4 4c                               dec    %esp
                           .text:010012b5 00 45 00                         add    %al,0x0(%ebp)
                           .text:010012b8 25 00 00 00 72                   and    $0x72000000,%eax
                           .text:010012bd 00 65 00                         add    %ah,0x0(%ebp)
                           .text:010012c0 63 00                            arpl   %ax,(%eax)
                           .text:010012c2 65 00 6e 00                      add    %ch,%gs:0x0(%esi)
                           .text:010012c6 74 00                            je     0x010012c8
                           .text:010012c8 64 00 6f 00                      add    %ch,%fs:0x0(%edi)
                           .text:010012cc 63 00                            arpl   %ax,(%eax)
                           .text:010012ce 73 00                            jae    0x010012d0
                           .text:010012d0 2e 00 67 00                      add    %ah,%cs:0x0(%edi)
                           .text:010012d4 72 00                            jb     0x010012d6
                           .text:010012d6 6f                               outsl  %ds:(%esi),(%dx)
                           .text:010012d7 00 75 00                         add    %dh,0x0(%ebp)
                           .text:010012da 70 00                            jo     0x010012dc
                           .text:010012dc 73 00                            jae    0x010012de
                           .text:010012de 00 00                            add    %al,(%eax)
                           .text:010012e0 73 00                            jae    0x010012e2
                           .text:010012e2 65 00 6e 00                      add    %ch,%gs:0x0(%esi)
                           .text:010012e6 64 00 74 00 6f                   add    %dh,%fs:0x6f(%eax,%eax,1)
                           .text:010012eb 00 2e                            add    %ch,(%esi)
                           .text:010012ed 00 67 00                         add    %ah,0x0(%edi)
                           .text:010012f0 72 00                            jb     0x010012f2
                           .text:010012f2 6f                               outsl  %ds:(%esi),(%dx)
                           .text:010012f3 00 75 00                         add    %dh,0x0(%ebp)
                           .text:010012f6 70 00                            jo     0x010012f8
                           .text:010012f8 73 00                            jae    0x010012fa
                           .text:010012fa 00 00                            add    %al,(%eax)
                           .text:010012fc 73 00                            jae    0x010012fe
                           .text:010012fe 74 00                            je     0x01001300
                           .text:01001300 61                               popa   
                           .text:01001301 00 72 00                         add    %dh,0x0(%edx)
                           .text:01001304 74 00                            je     0x01001306
                           .text:01001306 75 00                            jne    0x01001308
                           .text:01001308 70 00                            jo     0x0100130a
                           .text:0100130a 2e 00 67 00                      add    %ah,%cs:0x0(%edi)
                           .text:0100130e 72 00                            jb     0x01001310
                           .text:01001310 6f                               outsl  %ds:(%esi),(%dx)
                           .text:01001311 00 75 00                         add    %dh,0x0(%ebp)
                           .text:01001314 70 00                            jo     0x01001316
                           .text:01001316 73 00                            jae    0x01001318
                           .text:01001318 00 00                            add    %al,(%eax)
                           .text:0100131a 00 00                            add    %al,(%eax)
                           .text:0100131c 64 00 65 00                      add    %ah,%fs:0x0(%ebp)
                           .text:01001320 73 00                            jae    0x01001322
                           .text:01001322 6b 00 74                         imul   $0x74,(%eax),%eax
                           .text:01001325 00 6f 00                         add    %ch,0x0(%edi)
                           .text:01001328 70 00                            jo     0x0100132a
                           .text:0100132a 2e 00 67 00                      add    %ah,%cs:0x0(%edi)
                           .text:0100132e 72 00                            jb     0x01001330
                           .text:01001330 6f                               outsl  %ds:(%esi),(%dx)
                           .text:01001331 00 75 00                         add    %dh,0x0(%ebp)
                           .text:01001334 70 00                            jo     0x01001336
                           .text:01001336 73 00                            jae    0x01001338
                           .text:01001338 00 00                            add    %al,(%eax)
                           .text:0100133a 00 00                            add    %al,(%eax)
                           .text:0100133c 70 00                            jo     0x0100133e
                           .text:0100133e 72 00                            jb     0x01001340
                           .text:01001340 6f                               outsl  %ds:(%esi),(%dx)
                           .text:01001341 00 67 00                         add    %ah,0x0(%edi)
                           .text:01001344 6d                               insl   (%dx),%es:(%edi)
                           .text:01001345 00 61 00                         add    %ah,0x0(%ecx)
                           .text:01001348 6e                               outsb  %ds:(%esi),(%dx)
                           .text:01001349 00 2e                            add    %ch,(%esi)
                           .text:0100134b 00 6f 00                         add    %ch,0x0(%edi)
                           .text:0100134e 6e                               outsb  %ds:(%esi),(%dx)
                           .text:0100134f 00 6c 00 79                      add    %ch,0x79(%eax,%eax,1)
                           .text:01001353 00 00                            add    %al,(%eax)
                           .text:01001355 00 00                            add    %al,(%eax)
                           .text:01001357 00 70 00                         add    %dh,0x0(%eax)
                           .text:0100135a 72 00                            jb     0x0100135c
                           .text:0100135c 6f                               outsl  %ds:(%esi),(%dx)
                           .text:0100135d 00 67 00                         add    %ah,0x0(%edi)
                           .text:01001360 6d                               insl   (%dx),%es:(%edi)
                           .text:01001361 00 61 00                         add    %ah,0x0(%ecx)
                           .text:01001364 6e                               outsb  %ds:(%esi),(%dx)
                           .text:01001365 00 2e                            add    %ch,(%esi)
                           .text:01001367 00 67 00                         add    %ah,0x0(%edi)
                           .text:0100136a 72 00                            jb     0x0100136c
                           .text:0100136c 6f                               outsl  %ds:(%esi),(%dx)
                           .text:0100136d 00 75 00                         add    %dh,0x0(%ebp)
                           .text:01001370 70 00                            jo     0x01001372
                           .text:01001372 73 00                            jae    0x01001374
                           .text:01001374 00 00                            add    %al,(%eax)
                           .text:01001376 00 00                            add    %al,(%eax)
                           .text:01001378 53                               push   %ebx
                           .text:01001379 00 6f 00                         add    %ch,0x0(%edi)
                           .text:0100137c 66 00 74 00 77                   data16 add %dh,0x77(%eax,%eax,1)
                           .text:01001381 00 61 00                         add    %ah,0x0(%ecx)
                           .text:01001384 72 00                            jb     0x01001386
                           .text:01001386 65 00 5c 00 4d                   add    %bl,%gs:0x4d(%eax,%eax,1)
                           .text:0100138b 00 69 00                         add    %ch,0x0(%ecx)
                           .text:0100138e 63 00                            arpl   %ax,(%eax)
                           .text:01001390 72 00                            jb     0x01001392
                           .text:01001392 6f                               outsl  %ds:(%esi),(%dx)
                           .text:01001393 00 73 00                         add    %dh,0x0(%ebx)
                           .text:01001396 6f                               outsl  %ds:(%esi),(%dx)
                           .text:01001397 00 66 00                         add    %ah,0x0(%esi)
                           .text:0100139a 74 00                            je     0x0100139c
                           .text:0100139c 5c                               pop    %esp
                           .text:0100139d 00 57 00                         add    %dl,0x0(%edi)
                           .text:010013a0 69 00 6e 00 64 00                imul   $0x64006e,(%eax),%eax
                           .text:010013a6 6f                               outsl  %ds:(%esi),(%dx)
                           .text:010013a7 00 77 00                         add    %dh,0x0(%edi)
                           .text:010013aa 73 00                            jae    0x010013ac
                           .text:010013ac 5c                               pop    %esp
                           .text:010013ad 00 43 00                         add    %al,0x0(%ebx)
                           .text:010013b0 75 00                            jne    0x010013b2
                           .text:010013b2 72 00                            jb     0x010013b4
                           .text:010013b4 72 00                            jb     0x010013b6
                           .text:010013b6 65 00 6e 00                      add    %ch,%gs:0x0(%esi)
                           .text:010013ba 74 00                            je     0x010013bc
                           .text:010013bc 56                               push   %esi
                           .text:010013bd 00 65 00                         add    %ah,0x0(%ebp)
                           .text:010013c0 72 00                            jb     0x010013c2
                           .text:010013c2 73 00                            jae    0x010013c4
                           .text:010013c4 69 00 6f 00 6e 00                imul   $0x6e006f,(%eax),%eax
                           .text:010013ca 5c                               pop    %esp
                           .text:010013cb 00 47 00                         add    %al,0x0(%edi)
                           .text:010013ce 72 00                            jb     0x010013d0
                           .text:010013d0 70 00                            jo     0x010013d2
                           .text:010013d2 43                               inc    %ebx
                           .text:010013d3 00 6f 00                         add    %ch,0x0(%edi)
                           .text:010013d6 6e                               outsb  %ds:(%esi),(%dx)
                           .text:010013d7 00 76 00                         add    %dh,0x0(%esi)
                           .text:010013da 00 00                            add    %al,(%eax)
                           .text:010013dc 2d 00 6f 00 00                   sub    $0x6f00,%eax
                           .text:010013e1 00 00                            add    %al,(%eax)
                           .text:010013e3 00 2f                            add    %ch,(%edi)
                           .text:010013e5 00 6f 00                         add    %ch,0x0(%edi)
                           .text:010013e8 00 00                            add    %al,(%eax)
                           .text:010013ea 00 00                            add    %al,(%eax)
                           .text:010013ec 60                               pusha  
                           .text:010013ed 40                               inc    %eax
                           .text:010013ee 00 01                            add    %al,(%ecx)
                           .text:010013f0 b0 40                            mov    $0x40,%al
                           .text:010013f2 00 01                            add    %al,(%ecx)
                           .text:010013f4 f9                               stc    
                           .text:010013f5 14 02                            adc    $0x2,%al
                           .text:010013f7 00 00                            add    %al,(%eax)
                           .text:010013f9 00 00                            add    %al,(%eax)
                           .text:010013fb 00 c0                            add    %al,%al
                           .text:010013fd 00 00                            add    %al,(%eax)
                           .text:010013ff 00 00                            add    %al,(%eax)
                           .text:01001401 00 00                            add    %al,(%eax)
                           .text:01001403 46                               inc    %esi
                           .text:01001404 bb 20 7d b9 6a                   mov    $0x6ab97d20,%ebx
                           .text:01001409 f4                               hlt    
                           .text:0100140a 97                               xchg   %eax,%edi
                           .text:0100140b 4c                               dec    %esp
                           .text:0100140c ba 10 5e 36 08                   mov    $0x8365e10,%edx
                           .text:01001411 43                               inc    %ebx
                           .text:01001412 08 54 77 5d                      or     %dl,0x5d(%edi,%esi,2)
                           .text:01001416 7f a7                            jg     0x010013bf
                           .text:01001418 2b 2e                            sub    (%esi),%ebp
                           .text:0100141a c3                               ret    
                           .text:0100141b 44                               inc    %esp
                           .text:0100141c a6                               cmpsb  %es:(%edi),%ds:(%esi)
                           .text:0100141d a2 ab a6 01 05                   mov    %al,0x501a6ab
                           .text:01001422 4a                               dec    %edx
                           .text:01001423 51                               push   %ecx
                           .text:01001424 0b 01                            or     (%ecx),%eax
                           .text:01001426 00 00                            add    %al,(%eax)
                           .text:01001428 00 00                            add    %al,(%eax)
                           .text:0100142a 00 00                            add    %al,(%eax)
                           .text:0100142c c0 00 00                         rolb   $0x0,(%eax)
                           .text:0100142f 00 00                            add    %al,(%eax)
                           .text:01001431 00 00                            add    %al,(%eax)
                           .text:01001433 46                               inc    %esi
                           .text:01001434 01 14 02                         add    %edx,(%edx,%eax,1)
                           .text:01001437 00 00                            add    %al,(%eax)
                           .text:01001439 00 00                            add    %al,(%eax)
                           .text:0100143b 00 c0                            add    %al,%al
                           .text:0100143d 00 00                            add    %al,(%eax)
                           .text:0100143f 00 00                            add    %al,(%eax)
                           .text:01001441 00 00                            add    %al,(%eax)
                           .text:01001443 46                               inc    %esi
                           .text:01001444 00 00                            add    %al,(%eax)
                           .text:01001446 00 00                            add    %al,(%eax)
                           .text:01001448 48                               dec    %eax
                           .text:01001449 00 00                            add    %al,(%eax)
                           .text:0100144b 00 00                            add    %al,(%eax)
                           .text:0100144d 00 00                            add    %al,(%eax)
                           .text:0100144f 00 00                            add    %al,(%eax)
                           .text:01001451 00 00                            add    %al,(%eax)
                           .text:01001453 00 00                            add    %al,(%eax)
                           .text:01001455 00 00                            add    %al,(%eax)
                           .text:01001457 00 00                            add    %al,(%eax)
                           .text:01001459 00 00                            add    %al,(%eax)
                           .text:0100145b 00 00                            add    %al,(%eax)
                           .text:0100145d 00 00                            add    %al,(%eax)
                           .text:0100145f 00 00                            add    %al,(%eax)
                           .text:01001461 00 00                            add    %al,(%eax)
                           .text:01001463 00 00                            add    %al,(%eax)
                           .text:01001465 00 00                            add    %al,(%eax)
                           .text:01001467 00 00                            add    %al,(%eax)
                           .text:01001469 00 00                            add    %al,(%eax)
                           .text:0100146b 00 00                            add    %al,(%eax)
                           .text:0100146d 00 00                            add    %al,(%eax)
                           .text:0100146f 00 00                            add    %al,(%eax)
                           .text:01001471 00 00                            add    %al,(%eax)
                           .text:01001473 00 00                            add    %al,(%eax)
                           .text:01001475 00 00                            add    %al,(%eax)
                           .text:01001477 00 00                            add    %al,(%eax)
                           .text:01001479 00 00                            add    %al,(%eax)
                           .text:0100147b 00 00                            add    %al,(%eax)
                           .text:0100147d 00 00                            add    %al,(%eax)
                           .text:0100147f 00 00                            add    %al,(%eax)
                           .text:01001481 00 00                            add    %al,(%eax)
                           .text:01001483 00 00                            add    %al,(%eax)
                           .text:01001485 40                               inc    %eax
                           .text:01001486 00 01                            add    %al,(%ecx)
                           .text:01001488 c0 14 00 01                      rclb   $0x1,(%eax,%eax,1)
                           .text:0100148c 01 00                            add    %eax,(%eax)
                           .text:0100148e 00 00                            add    %al,(%eax)
                           .text:01001490 52                               push   %edx
                           .text:01001491 53                               push   %ebx
                           .text:01001492 44                               inc    %esp
                           .text:01001493 53                               push   %ebx
                           .text:01001494 54                               push   %esp
                           .text:01001495 25 64 d9 3a 6b                   and    $0x6b3ad964,%eax
                           .text:0100149a 5e                               pop    %esi
                           .text:0100149b 46                               inc    %esi
                           .text:0100149c 91                               xchg   %eax,%ecx
                           .text:0100149d fd                               std    
                           .text:0100149e 30 f6                            xor    %dh,%dh
                           .text:010014a0 2a 5e 5f                         sub    0x5f(%esi),%bl
                           .text:010014a3 27                               daa    
                           .text:010014a4 01 00                            add    %eax,(%eax)
                           .text:010014a6 00 00                            add    %al,(%eax)
                           .text:010014a8 67 72 70                         addr16 jb 0x0100151b
                           .text:010014ab 63 6f 6e                         arpl   %bp,0x6e(%edi)
                           .text:010014ae 76 2e                            jbe    0x010014de
                           .text:010014b0 70 64                            jo     0x01001516
                           .text:010014b2 62 00                            bound  %eax,(%eax)
                           .text:010014b4 00 00                            add    %al,(%eax)
                           .text:010014b6 00 00                            add    %al,(%eax)
                           .text:010014b8 00 00                            add    %al,(%eax)
                           .text:010014ba 00 00                            add    %al,(%eax)
                           .text:010014bc 00 00                            add    %al,(%eax)
                           .text:010014be 00 00                            add    %al,(%eax)
                           .text:010014c0 32 29                            xor    (%ecx),%ch
                           .text:010014c2 00 00                            add    %al,(%eax)
                           .text:010014c4 00 00                            add    %al,(%eax)
                           .text:010014c6 00 00                            add    %al,(%eax)
                           .text:010014c8 00 00                            add    %al,(%eax)
                           .text:010014ca 00 00                            add    %al,(%eax)
                           .text:010014cc 00 00                            add    %al,(%eax)
                           .text:010014ce 00 00                            add    %al,(%eax)
                           .text:010014d0 00 00                            add    %al,(%eax)
                           .text:010014d2 00 00                            add    %al,(%eax)
                           .text:010014d4 00 8b ff 56 8b f0                add    %cl,-0xf74a901(%ebx)
                           .text:010014da 33 c0                            xor    %eax,%eax
                           .text:010014dc 8b ca                            mov    %edx,%ecx
                           .text:010014de 85 d2                            test   %edx,%edx
                           .text:010014e0 74 0e                            je     0x010014f0
                           .text:010014e2 66 39 06                         cmp    %ax,(%esi)
                           .text:010014e5 74 05                            je     0x010014ec
                           .text:010014e7 46                               inc    %esi
                           .text:010014e8 46                               inc    %esi
                           .text:010014e9 4a                               dec    %edx
                           .text:010014ea 75 f6                            jne    0x010014e2
                           .text:010014ec 85 d2                            test   %edx,%edx
                           .text:010014ee 75 05                            jne    0x010014f5
                           .text:010014f0 b8 57 00 07 80                   mov    $0x80070057,%eax
                           .text:010014f5 5e                               pop    %esi
                           .text:010014f6 85 ff                            test   %edi,%edi
                           .text:010014f8 74 0c                            je     0x01001506
                           .text:010014fa 85 c0                            test   %eax,%eax
                           .text:010014fc 7c 05                            jl     0x01001503
                           .text:010014fe 2b ca                            sub    %edx,%ecx
                           .text:01001500 89 0f                            mov    %ecx,(%edi)
                           .text:01001502 c3                               ret    
                           .text:01001503 83 27 00                         andl   $0x0,(%edi)
                           .text:01001506 c3                               ret    
                           .text:01001507 cc                               int3   
                           .text:01001508 cc                               int3   
                           .text:01001509 cc                               int3   
                           .text:0100150a cc                               int3   
                           .text:0100150b cc                               int3   
                           .text:0100150c 8b ff                            mov    %edi,%edi
                           .text:0100150e 55                               push   %ebp
                           .text:0100150f 8b ec                            mov    %esp,%ebp
                           .text:01001511 57                               push   %edi
                           .text:01001512 8b f8                            mov    %eax,%edi
                           .text:01001514 33 c0                            xor    %eax,%eax
                           .text:01001516 85 d2                            test   %edx,%edx
                           .text:01001518 74 05                            je     0x0100151f
                           .text:0100151a 3b 55 0c                         cmp    0xc(%ebp),%edx
                           .text:0100151d 76 05                            jbe    0x01001524
                           .text:0100151f b8 57 00 07 80                   mov    $0x80070057,%eax
                           .text:01001524 85 c0                            test   %eax,%eax
                           .text:01001526 7c 0a                            jl     0x01001532
                           .text:01001528 8b 45 08                         mov    0x8(%ebp),%eax
                           .text:0100152b e8 a5 ff ff ff                   call   0x010014d5
                           .text:01001530 eb 03                            jmp    0x01001535
                           .text:01001532 83 27 00                         andl   $0x0,(%edi)
                           .text:01001535 5f                               pop    %edi
                           .text:01001536 5d                               pop    %ebp
                           .text:01001537 c2 08 00                         ret    $0x8
                           .text:0100153a cc                               int3   
                           .text:0100153b cc                               int3   
                           .text:0100153c cc                               int3   
                           .text:0100153d cc                               int3   
                           .text:0100153e cc                               int3   
                           .text:0100153f 8b ff                            mov    %edi,%edi
                           .text:01001541 55                               push   %ebp
                           .text:01001542 8b ec                            mov    %esp,%ebp
                           .text:01001544 53                               push   %ebx
                           .text:01001545 56                               push   %esi
                           .text:01001546 57                               push   %edi
                           .text:01001547 8b d8                            mov    %eax,%ebx
                           .text:01001549 8b f2                            mov    %edx,%esi
                           .text:0100154b 33 c0                            xor    %eax,%eax
                           .text:0100154d 33 ff                            xor    %edi,%edi
                           .text:0100154f 85 f6                            test   %esi,%esi
                           .text:01001551 74 21                            je     0x01001574
                           .text:01001553 39 45 0c                         cmp    %eax,0xc(%ebp)
                           .text:01001556 74 18                            je     0x01001570
                           .text:01001558 0f b7 13                         movzwl (%ebx),%edx
                           .text:0100155b 66 85 d2                         test   %dx,%dx
                           .text:0100155e 74 10                            je     0x01001570
                           .text:01001560 66 89 11                         mov    %dx,(%ecx)
                           .text:01001563 41                               inc    %ecx
                           .text:01001564 41                               inc    %ecx
                           .text:01001565 43                               inc    %ebx
                           .text:01001566 43                               inc    %ebx
                           .text:01001567 4e                               dec    %esi
                           .text:01001568 ff 4d 0c                         decl   0xc(%ebp)
                           .text:0100156b 47                               inc    %edi
                           .text:0100156c 85 f6                            test   %esi,%esi
                           .text:0100156e 75 e3                            jne    0x01001553
                           .text:01001570 85 f6                            test   %esi,%esi
                           .text:01001572 75 08                            jne    0x0100157c
                           .text:01001574 49                               dec    %ecx
                           .text:01001575 49                               dec    %ecx
                           .text:01001576 4f                               dec    %edi
                           .text:01001577 b8 7a 00 07 80                   mov    $0x8007007a,%eax
                           .text:0100157c 33 d2                            xor    %edx,%edx
                           .text:0100157e 66 89 11                         mov    %dx,(%ecx)
                           .text:01001581 8b 4d 08                         mov    0x8(%ebp),%ecx
                           .text:01001584 85 c9                            test   %ecx,%ecx
                           .text:01001586 74 02                            je     0x0100158a
                           .text:01001588 89 39                            mov    %edi,(%ecx)
                           .text:0100158a 5f                               pop    %edi
                           .text:0100158b 5e                               pop    %esi
                           .text:0100158c 5b                               pop    %ebx
                           .text:0100158d 5d                               pop    %ebp
                           .text:0100158e c2 08 00                         ret    $0x8
                           .text:01001591 cc                               int3   
                           .text:01001592 cc                               int3   
                           .text:01001593 cc                               int3   
                           .text:01001594 cc                               int3   
                           .text:01001595 cc                               int3   
                           .text:01001596 8b ff                            mov    %edi,%edi
                           .text:01001598 55                               push   %ebp
                           .text:01001599 8b ec                            mov    %esp,%ebp
                           .text:0100159b 81 ec 24 02 00 00                sub    $0x224,%esp
                           .text:010015a1 a1 00 40 00 01                   mov    0x1004000,%eax
                           .text:010015a6 33 c5                            xor    %ebp,%eax
                           .text:010015a8 89 45 fc                         mov    %eax,-0x4(%ebp)
                           .text:010015ab 53                               push   %ebx
                           .text:010015ac 33 db                            xor    %ebx,%ebx
                           .text:010015ae 56                               push   %esi
                           .text:010015af 8b 75 08                         mov    0x8(%ebp),%esi
                           .text:010015b2 89 9d ec fd ff ff                mov    %ebx,-0x214(%ebp)
                           .text:010015b8 89 9d f0 fd ff ff                mov    %ebx,-0x210(%ebp)
                           .text:010015be 39 1e                            cmp    %ebx,(%esi)
                           .text:010015c0 0f 85 f5 00 00 00                jne    0x010016bb
                           .text:010015c6 57                               push   %edi
                           .text:010015c7 8d 85 e8 fd ff ff                lea    -0x218(%ebp),%eax
                           .text:010015cd 50                               push   %eax
                           .text:010015ce 33 ff                            xor    %edi,%edi
                           .text:010015d0 47                               inc    %edi
                           .text:010015d1 57                               push   %edi
                           .text:010015d2 53                               push   %ebx
                           .text:010015d3 68 c0 11 00 01                   push   $0x10011c0
                           .text:010015d8 68 01 00 00 80                   push   $0x80000001
                           .text:010015dd ff 15 08 10 00 01                call   *0x1001008
                           .text:010015e3 85 c0                            test   %eax,%eax
                           .text:010015e5 0f 85 cf 00 00 00                jne    0x010016ba
                           .text:010015eb 6a 04                            push   $0x4
                           .text:010015ed ff 15 1c 10 00 01                call   *0x100101c
                           .text:010015f3 89 06                            mov    %eax,(%esi)
                           .text:010015f5 3b c3                            cmp    %ebx,%eax
                           .text:010015f7 0f 84 b1 00 00 00                je     0x010016ae
                           .text:010015fd 89 bd f0 fd ff ff                mov    %edi,-0x210(%ebp)
                           .text:01001603 8d 85 e4 fd ff ff                lea    -0x21c(%ebp),%eax
                           .text:01001609 50                               push   %eax
                           .text:0100160a 53                               push   %ebx
                           .text:0100160b 53                               push   %ebx
                           .text:0100160c 53                               push   %ebx
                           .text:0100160d 8d 85 dc fd ff ff                lea    -0x224(%ebp),%eax
                           .text:01001613 50                               push   %eax
                           .text:01001614 8d 85 f4 fd ff ff                lea    -0x20c(%ebp),%eax
                           .text:0100161a 50                               push   %eax
                           .text:0100161b ff b5 ec fd ff ff                pushl  -0x214(%ebp)
                           .text:01001621 c7 85 dc fd ff ff 04 01 00 00    movl   $0x104,-0x224(%ebp)
                           .text:0100162b ff b5 e8 fd ff ff                pushl  -0x218(%ebp)
                           .text:01001631 ff 15 04 10 00 01                call   *0x1001004
                           .text:01001637 89 85 e0 fd ff ff                mov    %eax,-0x220(%ebp)
                           .text:0100163d 3b c3                            cmp    %ebx,%eax
                           .text:0100163f 75 48                            jne    0x01001689
                           .text:01001641 ff b5 e4 fd ff ff                pushl  -0x21c(%ebp)
                           .text:01001647 6a 40                            push   $0x40
                           .text:01001649 ff 15 a0 10 00 01                call   *0x10010a0
                           .text:0100164f 8b f8                            mov    %eax,%edi
                           .text:01001651 3b fb                            cmp    %ebx,%edi
                           .text:01001653 74 53                            je     0x010016a8
                           .text:01001655 8d 85 e4 fd ff ff                lea    -0x21c(%ebp),%eax
                           .text:0100165b 50                               push   %eax
                           .text:0100165c 57                               push   %edi
                           .text:0100165d 53                               push   %ebx
                           .text:0100165e 53                               push   %ebx
                           .text:0100165f 8d 85 f4 fd ff ff                lea    -0x20c(%ebp),%eax
                           .text:01001665 50                               push   %eax
                           .text:01001666 ff b5 e8 fd ff ff                pushl  -0x218(%ebp)
                           .text:0100166c ff 15 00 10 00 01                call   *0x1001000
                           .text:01001672 85 c0                            test   %eax,%eax
                           .text:01001674 75 2b                            jne    0x010016a1
                           .text:01001676 57                               push   %edi
                           .text:01001677 68 ff ff ff 7f                   push   $0x7fffffff
                           .text:0100167c ff 36                            pushl  (%esi)
                           .text:0100167e ff 15 18 10 00 01                call   *0x1001018
                           .text:01001684 83 f8 ff                         cmp    $0xffffffff,%eax
                           .text:01001687 74 18                            je     0x010016a1
                           .text:01001689 ff 85 ec fd ff ff                incl   -0x214(%ebp)
                           .text:0100168f 81 bd e0 fd ff ff 03 01 00 00    cmpl   $0x103,-0x220(%ebp)
                           .text:01001699 0f 85 64 ff ff ff                jne    0x01001603
                           .text:0100169f eb 0d                            jmp    0x010016ae
                           .text:010016a1 57                               push   %edi
                           .text:010016a2 ff 15 a4 10 00 01                call   *0x10010a4
                           .text:010016a8 89 9d f0 fd ff ff                mov    %ebx,-0x210(%ebp)
                           .text:010016ae ff b5 e8 fd ff ff                pushl  -0x218(%ebp)
                           .text:010016b4 ff 15 10 10 00 01                call   *0x1001010
                           .text:010016ba 5f                               pop    %edi
                           .text:010016bb 8b 4d fc                         mov    -0x4(%ebp),%ecx
                           .text:010016be 8b 85 f0 fd ff ff                mov    -0x210(%ebp),%eax
                           .text:010016c4 5e                               pop    %esi
                           .text:010016c5 33 cd                            xor    %ebp,%ecx
                           .text:010016c7 5b                               pop    %ebx
                           .text:010016c8 e8 36 10 00 00                   call   0x01002703
                           .text:010016cd c9                               leave  
                           .text:010016ce c2 04 00                         ret    $0x4
                           .text:010016d1 cc                               int3   
                           .text:010016d2 cc                               int3   
                           .text:010016d3 cc                               int3   
                           .text:010016d4 cc                               int3   
                           .text:010016d5 cc                               int3   
                           .text:010016d6 8b ff                            mov    %edi,%edi
                           .text:010016d8 55                               push   %ebp
                           .text:010016d9 8b ec                            mov    %esp,%ebp
                           .text:010016db 83 3d 20 40 00 01 00             cmpl   $0x0,0x1004020
                           .text:010016e2 75 0e                            jne    0x010016f2
                           .text:010016e4 68 20 40 00 01                   push   $0x1004020
                           .text:010016e9 e8 a8 fe ff ff                   call   0x01001596
                           .text:010016ee 85 c0                            test   %eax,%eax
                           .text:010016f0 74 40                            je     0x01001732
                           .text:010016f2 a1 20 40 00 01                   mov    0x1004020,%eax
                           .text:010016f7 56                               push   %esi
                           .text:010016f8 8b 30                            mov    (%eax),%esi
                           .text:010016fa 57                               push   %edi
                           .text:010016fb 33 ff                            xor    %edi,%edi
                           .text:010016fd 85 f6                            test   %esi,%esi
                           .text:010016ff 7e 24                            jle    0x01001725
                           .text:01001701 57                               push   %edi
                           .text:01001702 ff 35 20 40 00 01                pushl  0x1004020
                           .text:01001708 ff 15 20 10 00 01                call   *0x1001020
                           .text:0100170e 85 c0                            test   %eax,%eax
                           .text:01001710 74 0e                            je     0x01001720
                           .text:01001712 50                               push   %eax
                           .text:01001713 ff 75 08                         pushl  0x8(%ebp)
                           .text:01001716 ff 15 9c 10 00 01                call   *0x100109c
                           .text:0100171c 85 c0                            test   %eax,%eax
                           .text:0100171e 74 0e                            je     0x0100172e
                           .text:01001720 47                               inc    %edi
                           .text:01001721 3b fe                            cmp    %esi,%edi
                           .text:01001723 7c dc                            jl     0x01001701
                           .text:01001725 5f                               pop    %edi
                           .text:01001726 5e                               pop    %esi
                           .text:01001727 5d                               pop    %ebp
                           .text:01001728 ff 25 d8 10 00 01                jmp    *0x10010d8
                           .text:0100172e 5f                               pop    %edi
                           .text:0100172f 33 c0                            xor    %eax,%eax
                           .text:01001731 5e                               pop    %esi
                           .text:01001732 5d                               pop    %ebp
                           .text:01001733 c2 04 00                         ret    $0x4
                           .text:01001736 cc                               int3   
                           .text:01001737 cc                               int3   
                           .text:01001738 cc                               int3   
                           .text:01001739 cc                               int3   
                           .text:0100173a cc                               int3   
                           .text:0100173b 8b ff                            mov    %edi,%edi
                           .text:0100173d 55                               push   %ebp
                           .text:0100173e 8b ec                            mov    %esp,%ebp
                           .text:01001740 53                               push   %ebx
                           .text:01001741 56                               push   %esi
                           .text:01001742 57                               push   %edi
                           .text:01001743 8b 7d 08                         mov    0x8(%ebp),%edi
                           .text:01001746 0f b7 0f                         movzwl (%edi),%ecx
                           .text:01001749 33 f6                            xor    %esi,%esi
                           .text:0100174b 33 db                            xor    %ebx,%ebx
                           .text:0100174d 8b c7                            mov    %edi,%eax
                           .text:0100174f 66 85 c9                         test   %cx,%cx
                           .text:01001752 74 27                            je     0x0100177b
                           .text:01001754 0f b7 c9                         movzwl %cx,%ecx
                           .text:01001757 66 83 f9 3a                      cmp    $0x3a,%cx
                           .text:0100175b 75 06                            jne    0x01001763
                           .text:0100175d 85 f6                            test   %esi,%esi
                           .text:0100175f 74 23                            je     0x01001784
                           .text:01001761 8b de                            mov    %esi,%ebx
                           .text:01001763 33 f6                            xor    %esi,%esi
                           .text:01001765 50                               push   %eax
                           .text:01001766 ff 15 14 11 00 01                call   *0x1001114
                           .text:0100176c 0f b7 08                         movzwl (%eax),%ecx
                           .text:0100176f 66 85 c9                         test   %cx,%cx
                           .text:01001772 75 e3                            jne    0x01001757
                           .text:01001774 8d 43 04                         lea    0x4(%ebx),%eax
                           .text:01001777 85 db                            test   %ebx,%ebx
                           .text:01001779 75 02                            jne    0x0100177d
                           .text:0100177b 8b c7                            mov    %edi,%eax
                           .text:0100177d 5f                               pop    %edi
                           .text:0100177e 5e                               pop    %esi
                           .text:0100177f 5b                               pop    %ebx
                           .text:01001780 5d                               pop    %ebp
                           .text:01001781 c2 04 00                         ret    $0x4
                           .text:01001784 8b f0                            mov    %eax,%esi
                           .text:01001786 eb dd                            jmp    0x01001765
                           .text:01001788 cc                               int3   
                           .text:01001789 cc                               int3   
                           .text:0100178a cc                               int3   
                           .text:0100178b cc                               int3   
                           .text:0100178c cc                               int3   
                           .text:0100178d 8b ff                            mov    %edi,%edi
                           .text:0100178f 55                               push   %ebp
                           .text:01001790 8b ec                            mov    %esp,%ebp
                           .text:01001792 8b 55 0c                         mov    0xc(%ebp),%edx
                           .text:01001795 33 c0                            xor    %eax,%eax
                           .text:01001797 85 d2                            test   %edx,%edx
                           .text:01001799 74 08                            je     0x010017a3
                           .text:0100179b 81 fa ff ff ff 7f                cmp    $0x7fffffff,%edx
                           .text:010017a1 76 05                            jbe    0x010017a8
                           .text:010017a3 b8 57 00 07 80                   mov    $0x80070057,%eax
                           .text:010017a8 85 c0                            test   %eax,%eax
                           .text:010017aa 7c 12                            jl     0x010017be
                           .text:010017ac 8b 45 10                         mov    0x10(%ebp),%eax
                           .text:010017af 8b 4d 08                         mov    0x8(%ebp),%ecx
                           .text:010017b2 68 fe ff ff 7f                   push   $0x7ffffffe
                           .text:010017b7 6a 00                            push   $0x0
                           .text:010017b9 e8 81 fd ff ff                   call   0x0100153f
                           .text:010017be 5d                               pop    %ebp
                           .text:010017bf c2 0c 00                         ret    $0xc
                           .text:010017c2 cc                               int3   
                           .text:010017c3 cc                               int3   
                           .text:010017c4 cc                               int3   
                           .text:010017c5 cc                               int3   
                           .text:010017c6 cc                               int3   
                           .text:010017c7 8b ff                            mov    %edi,%edi
                           .text:010017c9 55                               push   %ebp
                           .text:010017ca 8b ec                            mov    %esp,%ebp
                           .text:010017cc 8b 55 0c                         mov    0xc(%ebp),%edx
                           .text:010017cf 56                               push   %esi
                           .text:010017d0 57                               push   %edi
                           .text:010017d1 8b 7d 08                         mov    0x8(%ebp),%edi
                           .text:010017d4 be ff ff ff 7f                   mov    $0x7fffffff,%esi
                           .text:010017d9 56                               push   %esi
                           .text:010017da 57                               push   %edi
                           .text:010017db 8d 45 08                         lea    0x8(%ebp),%eax
                           .text:010017de e8 29 fd ff ff                   call   0x0100150c
                           .text:010017e3 85 c0                            test   %eax,%eax
                           .text:010017e5 7c 16                            jl     0x010017fd
                           .text:010017e7 8b 45 08                         mov    0x8(%ebp),%eax
                           .text:010017ea 8b 55 0c                         mov    0xc(%ebp),%edx
                           .text:010017ed 56                               push   %esi
                           .text:010017ee 2b d0                            sub    %eax,%edx
                           .text:010017f0 8d 0c 47                         lea    (%edi,%eax,2),%ecx
                           .text:010017f3 8b 45 10                         mov    0x10(%ebp),%eax
                           .text:010017f6 6a 00                            push   $0x0
                           .text:010017f8 e8 42 fd ff ff                   call   0x0100153f
                           .text:010017fd 5f                               pop    %edi
                           .text:010017fe 5e                               pop    %esi
                           .text:010017ff 5d                               pop    %ebp
                           .text:01001800 c2 0c 00                         ret    $0xc
                           .text:01001803 cc                               int3   
                           .text:01001804 cc                               int3   
                           .text:01001805 cc                               int3   
                           .text:01001806 cc                               int3   
                           .text:01001807 cc                               int3   
                           .text:01001808 8b ff                            mov    %edi,%edi
                           .text:0100180a 55                               push   %ebp
                           .text:0100180b 8b ec                            mov    %esp,%ebp
                           .text:0100180d b8 18 2b 00 00                   mov    $0x2b18,%eax
                           .text:01001812 e8 09 0f 00 00                   call   0x01002720
                           .text:01001817 a1 00 40 00 01                   mov    0x1004000,%eax
                           .text:0100181c 33 c5                            xor    %ebp,%eax
                           .text:0100181e 89 45 fc                         mov    %eax,-0x4(%ebp)
                           .text:01001821 8b 45 08                         mov    0x8(%ebp),%eax
                           .text:01001824 53                               push   %ebx
                           .text:01001825 8b 5d 10                         mov    0x10(%ebp),%ebx
                           .text:01001828 56                               push   %esi
                           .text:01001829 8b 35 18 11 00 01                mov    0x1001118,%esi
                           .text:0100182f 57                               push   %edi
                           .text:01001830 8b 7d 0c                         mov    0xc(%ebp),%edi
                           .text:01001833 6a 20                            push   $0x20
                           .text:01001835 89 85 00 d5 ff ff                mov    %eax,-0x2b00(%ebp)
                           .text:0100183b 8d 45 bc                         lea    -0x44(%ebp),%eax
                           .text:0100183e 50                               push   %eax
                           .text:0100183f 68 c9 00 00 00                   push   $0xc9
                           .text:01001844 ff 35 80 43 00 01                pushl  0x1004380
                           .text:0100184a 89 bd f4 d4 ff ff                mov    %edi,-0x2b0c(%ebp)
                           .text:01001850 89 9d f8 d4 ff ff                mov    %ebx,-0x2b08(%ebp)
                           .text:01001856 ff d6                            call   *%esi
                           .text:01001858 85 c0                            test   %eax,%eax
                           .text:0100185a 74 1c                            je     0x01001878
                           .text:0100185c f7 45 18 00 04 00 00             testl  $0x400,0x18(%ebp)
                           .text:01001863 75 0f                            jne    0x01001874
                           .text:01001865 8d 45 bc                         lea    -0x44(%ebp),%eax
                           .text:01001868 50                               push   %eax
                           .text:01001869 57                               push   %edi
                           .text:0100186a ff 15 9c 10 00 01                call   *0x100109c
                           .text:01001870 85 c0                            test   %eax,%eax
                           .text:01001872 75 04                            jne    0x01001878
                           .text:01001874 83 4d 18 08                      orl    $0x8,0x18(%ebp)
                           .text:01001878 68 00 a0 00 00                   push   $0xa000
                           .text:0100187d 6a 40                            push   $0x40
                           .text:0100187f ff 15 3c 10 00 01                call   *0x100103c
                           .text:01001885 89 85 e8 d4 ff ff                mov    %eax,-0x2b18(%ebp)
                           .text:0100188b 85 c0                            test   %eax,%eax
                           .text:0100188d 0f 84 dd 06 00 00                je     0x01001f70
                           .text:01001893 50                               push   %eax
                           .text:01001894 ff 15 38 10 00 01                call   *0x1001038
                           .text:0100189a 89 85 f0 d4 ff ff                mov    %eax,-0x2b10(%ebp)
                           .text:010018a0 85 c0                            test   %eax,%eax
                           .text:010018a2 0f 84 bc 06 00 00                je     0x01001f64
                           .text:010018a8 33 c0                            xor    %eax,%eax
                           .text:010018aa 6a 20                            push   $0x20
                           .text:010018ac 66 89 85 a4 fd ff ff             mov    %ax,-0x25c(%ebp)
                           .text:010018b3 8d 45 bc                         lea    -0x44(%ebp),%eax
                           .text:010018b6 50                               push   %eax
                           .text:010018b7 68 ca 00 00 00                   push   $0xca
                           .text:010018bc ff 35 80 43 00 01                pushl  0x1004380
                           .text:010018c2 ff d6                            call   *%esi
                           .text:010018c4 85 c0                            test   %eax,%eax
                           .text:010018c6 74 3d                            je     0x01001905
                           .text:010018c8 f7 45 18 00 01 00 00             testl  $0x100,0x18(%ebp)
                           .text:010018cf 75 0f                            jne    0x010018e0
                           .text:010018d1 53                               push   %ebx
                           .text:010018d2 8d 45 bc                         lea    -0x44(%ebp),%eax
                           .text:010018d5 50                               push   %eax
                           .text:010018d6 ff 15 9c 10 00 01                call   *0x100109c
                           .text:010018dc 85 c0                            test   %eax,%eax
                           .text:010018de 75 25                            jne    0x01001905
                           .text:010018e0 bb 04 01 00 00                   mov    $0x104,%ebx
                           .text:010018e5 53                               push   %ebx
                           .text:010018e6 8d 85 a4 fd ff ff                lea    -0x25c(%ebp),%eax
                           .text:010018ec 50                               push   %eax
                           .text:010018ed 6a 00                            push   $0x0
                           .text:010018ef 6a 00                            push   $0x0
                           .text:010018f1 68 04 14 00 01                   push   $0x1001404
                           .text:010018f6 e8 27 13 00 00                   call   0x01002c22
                           .text:010018fb 85 c0                            test   %eax,%eax
                           .text:010018fd 7c 0b                            jl     0x0100190a
                           .text:010018ff 83 65 18 fe                      andl   $0xfffffffe,0x18(%ebp)
                           .text:01001903 eb 05                            jmp    0x0100190a
                           .text:01001905 bb 04 01 00 00                   mov    $0x104,%ebx
                           .text:0100190a 6a 20                            push   $0x20
                           .text:0100190c 8d 45 bc                         lea    -0x44(%ebp),%eax
                           .text:0100190f 50                               push   %eax
                           .text:01001910 68 cb 00 00 00                   push   $0xcb
                           .text:01001915 ff 35 80 43 00 01                pushl  0x1004380
                           .text:0100191b ff d6                            call   *%esi
                           .text:0100191d 8b 3d 34 10 00 01                mov    0x1001034,%edi
                           .text:01001923 85 c0                            test   %eax,%eax
                           .text:01001925 74 24                            je     0x0100194b
                           .text:01001927 f7 45 18 00 02 00 00             testl  $0x200,0x18(%ebp)
                           .text:0100192e 75 17                            jne    0x01001947
                           .text:01001930 ff b5 f8 d4 ff ff                pushl  -0x2b08(%ebp)
                           .text:01001936 ff 15 00 11 00 01                call   *0x1001100
                           .text:0100193c 50                               push   %eax
                           .text:0100193d 8d 45 bc                         lea    -0x44(%ebp),%eax
                           .text:01001940 50                               push   %eax
                           .text:01001941 ff d7                            call   *%edi
                           .text:01001943 85 c0                            test   %eax,%eax
                           .text:01001945 75 04                            jne    0x0100194b
                           .text:01001947 83 65 18 fe                      andl   $0xfffffffe,0x18(%ebp)
                           .text:0100194b 6a 20                            push   $0x20
                           .text:0100194d 8d 45 bc                         lea    -0x44(%ebp),%eax
                           .text:01001950 50                               push   %eax
                           .text:01001951 68 cc 00 00 00                   push   $0xcc
                           .text:01001956 ff 35 80 43 00 01                pushl  0x1004380
                           .text:0100195c ff d6                            call   *%esi
                           .text:0100195e 85 c0                            test   %eax,%eax
                           .text:01001960 74 1c                            je     0x0100197e
                           .text:01001962 ff b5 f8 d4 ff ff                pushl  -0x2b08(%ebp)
                           .text:01001968 8d 45 bc                         lea    -0x44(%ebp),%eax
                           .text:0100196b 50                               push   %eax
                           .text:0100196c ff d7                            call   *%edi
                           .text:0100196e 85 c0                            test   %eax,%eax
                           .text:01001970 75 0c                            jne    0x0100197e
                           .text:01001972 8b 45 18                         mov    0x18(%ebp),%eax
                           .text:01001975 83 e0 fe                         and    $0xfffffffe,%eax
                           .text:01001978 83 c8 20                         or     $0x20,%eax
                           .text:0100197b 89 45 18                         mov    %eax,0x18(%ebp)
                           .text:0100197e 8d 85 fc d4 ff ff                lea    -0x2b04(%ebp),%eax
                           .text:01001984 50                               push   %eax
                           .text:01001985 68 f4 13 00 01                   push   $0x10013f4
                           .text:0100198a 6a 01                            push   $0x1
                           .text:0100198c 33 ff                            xor    %edi,%edi
                           .text:0100198e 57                               push   %edi
                           .text:0100198f 68 34 14 00 01                   push   $0x1001434
                           .text:01001994 ff 15 70 11 00 01                call   *0x1001170
                           .text:0100199a 85 c0                            test   %eax,%eax
                           .text:0100199c 0f 8c b6 05 00 00                jl     0x01001f58
                           .text:010019a2 8b 85 fc d4 ff ff                mov    -0x2b04(%ebp),%eax
                           .text:010019a8 8b 08                            mov    (%eax),%ecx
                           .text:010019aa 8d 95 ec d4 ff ff                lea    -0x2b14(%ebp),%edx
                           .text:010019b0 52                               push   %edx
                           .text:010019b1 68 24 14 00 01                   push   $0x1001424
                           .text:010019b6 50                               push   %eax
                           .text:010019b7 ff 11                            call   *(%ecx)
                           .text:010019b9 85 c0                            test   %eax,%eax
                           .text:010019bb 0f 8c 8b 05 00 00                jl     0x01001f4c
                           .text:010019c1 ff b5 00 d5 ff ff                pushl  -0x2b00(%ebp)
                           .text:010019c7 8b b5 f0 d4 ff ff                mov    -0x2b10(%ebp),%esi
                           .text:010019cd 68 00 50 00 00                   push   $0x5000
                           .text:010019d2 56                               push   %esi
                           .text:010019d3 ff b5 f4 d4 ff ff                pushl  -0x2b0c(%ebp)
                           .text:010019d9 ff 15 58 10 00 01                call   *0x1001058
                           .text:010019df 3d fe 4f 00 00                   cmp    $0x4ffe,%eax
                           .text:010019e4 0f 84 0d 05 00 00                je     0x01001ef7
                           .text:010019ea 89 b5 00 d5 ff ff                mov    %esi,-0x2b00(%ebp)
                           .text:010019f0 66 39 bd a4 fd ff ff             cmp    %di,-0x25c(%ebp)
                           .text:010019f7 0f 85 82 00 00 00                jne    0x01001a7f
                           .text:010019fd ff b5 f8 d4 ff ff                pushl  -0x2b08(%ebp)
                           .text:01001a03 ff 15 fc 10 00 01                call   *0x10010fc
                           .text:01001a09 83 f8 ff                         cmp    $0xffffffff,%eax
                           .text:01001a0c 75 4d                            jne    0x01001a5b
                           .text:01001a0e ff b5 f8 d4 ff ff                pushl  -0x2b08(%ebp)
                           .text:01001a14 ff 15 f8 10 00 01                call   *0x10010f8
                           .text:01001a1a 85 c0                            test   %eax,%eax
                           .text:01001a1c 75 3d                            jne    0x01001a5b
                           .text:01001a1e 53                               push   %ebx
                           .text:01001a1f 8d 85 a4 fd ff ff                lea    -0x25c(%ebp),%eax
                           .text:01001a25 50                               push   %eax
                           .text:01001a26 57                               push   %edi
                           .text:01001a27 57                               push   %edi
                           .text:01001a28 68 14 14 00 01                   push   $0x1001414
                           .text:01001a2d e8 f0 11 00 00                   call   0x01002c22
                           .text:01001a32 8d 85 a4 fd ff ff                lea    -0x25c(%ebp),%eax
                           .text:01001a38 50                               push   %eax
                           .text:01001a39 ff 15 90 10 00 01                call   *0x1001090
                           .text:01001a3f ff b5 f8 d4 ff ff                pushl  -0x2b08(%ebp)
                           .text:01001a45 8d b4 45 a4 fd ff ff             lea    -0x25c(%ebp,%eax,2),%esi
                           .text:01001a4c 8d 85 a4 fd ff ff                lea    -0x25c(%ebp),%eax
                           .text:01001a52 50                               push   %eax
                           .text:01001a53 ff 15 f4 10 00 01                call   *0x10010f4
                           .text:01001a59 eb 19                            jmp    0x01001a74
                           .text:01001a5b ff b5 f8 d4 ff ff                pushl  -0x2b08(%ebp)
                           .text:01001a61 8d 85 a4 fd ff ff                lea    -0x25c(%ebp),%eax
                           .text:01001a67 53                               push   %ebx
                           .text:01001a68 50                               push   %eax
                           .text:01001a69 e8 1f fd ff ff                   call   0x0100178d
                           .text:01001a6e 8d b5 a8 fd ff ff                lea    -0x258(%ebp),%esi
                           .text:01001a74 68 ec 01 00 00                   push   $0x1ec
                           .text:01001a79 56                               push   %esi
                           .text:01001a7a e8 d4 07 00 00                   call   0x01002253
                           .text:01001a7f 39 7d 14                         cmp    %edi,0x14(%ebp)
                           .text:01001a82 74 25                            je     0x01001aa9
                           .text:01001a84 f6 45 18 20                      testb  $0x20,0x18(%ebp)
                           .text:01001a88 75 1f                            jne    0x01001aa9
                           .text:01001a8a 8d 85 a4 fd ff ff                lea    -0x25c(%ebp),%eax
                           .text:01001a90 50                               push   %eax
                           .text:01001a91 ff 15 f0 10 00 01                call   *0x10010f0
                           .text:01001a97 85 c0                            test   %eax,%eax
                           .text:01001a99 75 0e                            jne    0x01001aa9
                           .text:01001a9b 8d 85 a4 fd ff ff                lea    -0x25c(%ebp),%eax
                           .text:01001aa1 50                               push   %eax
                           .text:01001aa2 57                               push   %edi
                           .text:01001aa3 ff 15 bc 10 00 01                call   *0x10010bc
                           .text:01001aa9 8d 85 a4 fd ff ff                lea    -0x25c(%ebp),%eax
                           .text:01001aaf 50                               push   %eax
                           .text:01001ab0 ff 15 c0 10 00 01                call   *0x10010c0
                           .text:01001ab6 85 c0                            test   %eax,%eax
                           .text:01001ab8 74 04                            je     0x01001abe
                           .text:01001aba 83 4d 18 10                      orl    $0x10,0x18(%ebp)
                           .text:01001abe 8b 85 f0 d4 ff ff                mov    -0x2b10(%ebp),%eax
                           .text:01001ac4 66 39 38                         cmp    %di,(%eax)
                           .text:01001ac7 0f 84 2a 04 00 00                je     0x01001ef7
                           .text:01001acd 8b 35 c4 10 00 01                mov    0x10010c4,%esi
                           .text:01001ad3 bf 0c 03 00 00                   mov    $0x30c,%edi
                           .text:01001ad8 eb 05                            jmp    0x01001adf
                           .text:01001ada bb 04 01 00 00                   mov    $0x104,%ebx
                           .text:01001adf 33 c0                            xor    %eax,%eax
                           .text:01001ae1 f6 45 18 10                      testb  $0x10,0x18(%ebp)
                           .text:01001ae5 66 89 85 9c fb ff ff             mov    %ax,-0x464(%ebp)
                           .text:01001aec 75 1c                            jne    0x01001b0a
                           .text:01001aee 53                               push   %ebx
                           .text:01001aef 8d 85 9c fb ff ff                lea    -0x464(%ebp),%eax
                           .text:01001af5 50                               push   %eax
                           .text:01001af6 6a 07                            push   $0x7
                           .text:01001af8 ff b5 00 d5 ff ff                pushl  -0x2b00(%ebp)
                           .text:01001afe ff d6                            call   *%esi
                           .text:01001b00 66 83 bd 9c fb ff ff 00          cmpw   $0x0,-0x464(%ebp)
                           .text:01001b08 75 12                            jne    0x01001b1c
                           .text:01001b0a 53                               push   %ebx
                           .text:01001b0b 8d 85 9c fb ff ff                lea    -0x464(%ebp),%eax
                           .text:01001b11 50                               push   %eax
                           .text:01001b12 6a 01                            push   $0x1
                           .text:01001b14 ff b5 00 d5 ff ff                pushl  -0x2b00(%ebp)
                           .text:01001b1a ff d6                            call   *%esi
                           .text:01001b1c 8d 85 a4 fd ff ff                lea    -0x25c(%ebp),%eax
                           .text:01001b22 50                               push   %eax
                           .text:01001b23 ff 15 90 10 00 01                call   *0x1001090
                           .text:01001b29 8d 9c 45 a4 fd ff ff             lea    -0x25c(%ebp,%eax,2),%ebx
                           .text:01001b30 8d 85 9c fb ff ff                lea    -0x464(%ebp),%eax
                           .text:01001b36 50                               push   %eax
                           .text:01001b37 8d 85 a4 fd ff ff                lea    -0x25c(%ebp),%eax
                           .text:01001b3d 50                               push   %eax
                           .text:01001b3e ff 15 f4 10 00 01                call   *0x10010f4
                           .text:01001b44 68 04 01 00 00                   push   $0x104
                           .text:01001b49 83 c3 02                         add    $0x2,%ebx
                           .text:01001b4c 53                               push   %ebx
                           .text:01001b4d e8 01 07 00 00                   call   0x01002253
                           .text:01001b52 8d 85 a4 fd ff ff                lea    -0x25c(%ebp),%eax
                           .text:01001b58 50                               push   %eax
                           .text:01001b59 ff 15 c8 10 00 01                call   *0x10010c8
                           .text:01001b5f 57                               push   %edi
                           .text:01001b60 8d 85 54 e9 ff ff                lea    -0x16ac(%ebp),%eax
                           .text:01001b66 50                               push   %eax
                           .text:01001b67 6a 02                            push   $0x2
                           .text:01001b69 ff b5 00 d5 ff ff                pushl  -0x2b00(%ebp)
                           .text:01001b6f ff d6                            call   *%esi
                           .text:01001b71 85 c0                            test   %eax,%eax
                           .text:01001b73 0f 84 e8 02 00 00                je     0x01001e61
                           .text:01001b79 66 83 bd 54 e9 ff ff 00          cmpw   $0x0,-0x16ac(%ebp)
                           .text:01001b81 0f 84 da 02 00 00                je     0x01001e61
                           .text:01001b87 8d 85 54 e9 ff ff                lea    -0x16ac(%ebp),%eax
                           .text:01001b8d 50                               push   %eax
                           .text:01001b8e 57                               push   %edi
                           .text:01001b8f 8d 85 6c ef ff ff                lea    -0x1094(%ebp),%eax
                           .text:01001b95 50                               push   %eax
                           .text:01001b96 e8 f2 fb ff ff                   call   0x0100178d
                           .text:01001b9b 8d 85 54 e9 ff ff                lea    -0x16ac(%ebp),%eax
                           .text:01001ba1 50                               push   %eax
                           .text:01001ba2 57                               push   %edi
                           .text:01001ba3 8d 85 84 f5 ff ff                lea    -0xa7c(%ebp),%eax
                           .text:01001ba9 50                               push   %eax
                           .text:01001baa e8 de fb ff ff                   call   0x0100178d
                           .text:01001baf 66 83 bd 84 f5 ff ff 22          cmpw   $0x22,-0xa7c(%ebp)
                           .text:01001bb7 75 7f                            jne    0x01001c38
                           .text:01001bb9 66 83 bd 86 f5 ff ff 3a          cmpw   $0x3a,-0xa7a(%ebp)
                           .text:01001bc1 0f 85 b4 00 00 00                jne    0x01001c7b
                           .text:01001bc7 66 83 bd 88 f5 ff ff 3a          cmpw   $0x3a,-0xa78(%ebp)
                           .text:01001bcf 0f 85 a6 00 00 00                jne    0x01001c7b
                           .text:01001bd5 8d 85 84 f5 ff ff                lea    -0xa7c(%ebp),%eax
                           .text:01001bdb 50                               push   %eax
                           .text:01001bdc ff 15 90 10 00 01                call   *0x1001090
                           .text:01001be2 40                               inc    %eax
                           .text:01001be3 03 c0                            add    %eax,%eax
                           .text:01001be5 50                               push   %eax
                           .text:01001be6 8d 85 86 f5 ff ff                lea    -0xa7a(%ebp),%eax
                           .text:01001bec 50                               push   %eax
                           .text:01001bed 8d 85 84 f5 ff ff                lea    -0xa7c(%ebp),%eax
                           .text:01001bf3 50                               push   %eax
                           .text:01001bf4 ff 15 60 11 00 01                call   *0x1001160
                           .text:01001bfa 83 c4 0c                         add    $0xc,%esp
                           .text:01001bfd 8d 85 84 f5 ff ff                lea    -0xa7c(%ebp),%eax
                           .text:01001c03 50                               push   %eax
                           .text:01001c04 e8 32 fb ff ff                   call   0x0100173b
                           .text:01001c09 8b d8                            mov    %eax,%ebx
                           .text:01001c0b 66 83 3b 00                      cmpw   $0x0,(%ebx)
                           .text:01001c0f 74 5f                            je     0x01001c70
                           .text:01001c11 68 88 12 00 01                   push   $0x1001288
                           .text:01001c16 57                               push   %edi
                           .text:01001c17 8d 85 6c ef ff ff                lea    -0x1094(%ebp),%eax
                           .text:01001c1d 50                               push   %eax
                           .text:01001c1e e8 6a fb ff ff                   call   0x0100178d
                           .text:01001c23 53                               push   %ebx
                           .text:01001c24 57                               push   %edi
                           .text:01001c25 8d 85 6c ef ff ff                lea    -0x1094(%ebp),%eax
                           .text:01001c2b 50                               push   %eax
                           .text:01001c2c e8 96 fb ff ff                   call   0x010017c7
                           .text:01001c31 33 c0                            xor    %eax,%eax
                           .text:01001c33 66 89 03                         mov    %ax,(%ebx)
                           .text:01001c36 eb 4c                            jmp    0x01001c84
                           .text:01001c38 66 83 bd 84 f5 ff ff 3a          cmpw   $0x3a,-0xa7c(%ebp)
                           .text:01001c40 75 39                            jne    0x01001c7b
                           .text:01001c42 66 83 bd 86 f5 ff ff 3a          cmpw   $0x3a,-0xa7a(%ebp)
                           .text:01001c4a 75 2f                            jne    0x01001c7b
                           .text:01001c4c 8d 85 84 f5 ff ff                lea    -0xa7c(%ebp),%eax
                           .text:01001c52 50                               push   %eax
                           .text:01001c53 e8 e3 fa ff ff                   call   0x0100173b
                           .text:01001c58 8b d8                            mov    %eax,%ebx
                           .text:01001c5a 66 83 3b 00                      cmpw   $0x0,(%ebx)
                           .text:01001c5e 74 10                            je     0x01001c70
                           .text:01001c60 53                               push   %ebx
                           .text:01001c61 57                               push   %edi
                           .text:01001c62 8d 85 6c ef ff ff                lea    -0x1094(%ebp),%eax
                           .text:01001c68 50                               push   %eax
                           .text:01001c69 e8 1f fb ff ff                   call   0x0100178d
                           .text:01001c6e eb c1                            jmp    0x01001c31
                           .text:01001c70 33 c0                            xor    %eax,%eax
                           .text:01001c72 66 89 85 6c ef ff ff             mov    %ax,-0x1094(%ebp)
                           .text:01001c79 eb 09                            jmp    0x01001c84
                           .text:01001c7b 33 c0                            xor    %eax,%eax
                           .text:01001c7d 66 89 85 84 f5 ff ff             mov    %ax,-0xa7c(%ebp)
                           .text:01001c84 66 83 bd 6c ef ff ff 00          cmpw   $0x0,-0x1094(%ebp)
                           .text:01001c8c 0f 84 8a 00 00 00                je     0x01001d1c
                           .text:01001c92 33 c0                            xor    %eax,%eax
                           .text:01001c94 66 89 85 2c df ff ff             mov    %ax,-0x20d4(%ebp)
                           .text:01001c9b 8d 85 6c ef ff ff                lea    -0x1094(%ebp),%eax
                           .text:01001ca1 50                               push   %eax
                           .text:01001ca2 ff 15 ec 10 00 01                call   *0x10010ec
                           .text:01001ca8 66 83 38 00                      cmpw   $0x0,(%eax)
                           .text:01001cac bb 08 02 00 00                   mov    $0x208,%ebx
                           .text:01001cb1 74 14                            je     0x01001cc7
                           .text:01001cb3 50                               push   %eax
                           .text:01001cb4 33 c9                            xor    %ecx,%ecx
                           .text:01001cb6 66 89 48 fe                      mov    %cx,-0x2(%eax)
                           .text:01001cba 53                               push   %ebx
                           .text:01001cbb 8d 85 2c df ff ff                lea    -0x20d4(%ebp),%eax
                           .text:01001cc1 50                               push   %eax
                           .text:01001cc2 e8 c6 fa ff ff                   call   0x0100178d
                           .text:01001cc7 8b 85 fc d4 ff ff                mov    -0x2b04(%ebp),%eax
                           .text:01001ccd 8b 08                            mov    (%eax),%ecx
                           .text:01001ccf 8d 95 2c df ff ff                lea    -0x20d4(%ebp),%edx
                           .text:01001cd5 52                               push   %edx
                           .text:01001cd6 50                               push   %eax
                           .text:01001cd7 ff 51 2c                         call   *0x2c(%ecx)
                           .text:01001cda 8d 85 6c ef ff ff                lea    -0x1094(%ebp),%eax
                           .text:01001ce0 50                               push   %eax
                           .text:01001ce1 ff 15 e8 10 00 01                call   *0x10010e8
                           .text:01001ce7 6a 00                            push   $0x0
                           .text:01001ce9 6a 00                            push   $0x0
                           .text:01001ceb 8d 85 6c ef ff ff                lea    -0x1094(%ebp),%eax
                           .text:01001cf1 50                               push   %eax
                           .text:01001cf2 ff 15 cc 10 00 01                call   *0x10010cc
                           .text:01001cf8 66 83 bd 6c ef ff ff 00          cmpw   $0x0,-0x1094(%ebp)
                           .text:01001d00 74 1f                            je     0x01001d21
                           .text:01001d02 f6 45 18 20                      testb  $0x20,0x18(%ebp)
                           .text:01001d06 74 27                            je     0x01001d2f
                           .text:01001d08 8d 85 6c ef ff ff                lea    -0x1094(%ebp),%eax
                           .text:01001d0e 50                               push   %eax
                           .text:01001d0f 6a 03                            push   $0x3
                           .text:01001d11 ff 15 d0 10 00 01                call   *0x10010d0
                           .text:01001d17 e9 b8 01 00 00                   jmp    0x01001ed4
                           .text:01001d1c bb 08 02 00 00                   mov    $0x208,%ebx
                           .text:01001d21 66 83 bd 84 f5 ff ff 00          cmpw   $0x0,-0xa7c(%ebp)
                           .text:01001d29 0f 84 a5 01 00 00                je     0x01001ed4
                           .text:01001d2f 8d 85 84 f5 ff ff                lea    -0xa7c(%ebp),%eax
                           .text:01001d35 50                               push   %eax
                           .text:01001d36 57                               push   %edi
                           .text:01001d37 8d 85 54 e9 ff ff                lea    -0x16ac(%ebp),%eax
                           .text:01001d3d 50                               push   %eax
                           .text:01001d3e e8 4a fa ff ff                   call   0x0100178d
                           .text:01001d43 8d 85 6c ef ff ff                lea    -0x1094(%ebp),%eax
                           .text:01001d49 50                               push   %eax
                           .text:01001d4a 57                               push   %edi
                           .text:01001d4b 8d 85 54 e9 ff ff                lea    -0x16ac(%ebp),%eax
                           .text:01001d51 50                               push   %eax
                           .text:01001d52 e8 70 fa ff ff                   call   0x010017c7
                           .text:01001d57 8b 85 fc d4 ff ff                mov    -0x2b04(%ebp),%eax
                           .text:01001d5d 8b 08                            mov    (%eax),%ecx
                           .text:01001d5f 8d 95 54 e9 ff ff                lea    -0x16ac(%ebp),%edx
                           .text:01001d65 52                               push   %edx
                           .text:01001d66 50                               push   %eax
                           .text:01001d67 ff 51 50                         call   *0x50(%ecx)
                           .text:01001d6a 53                               push   %ebx
                           .text:01001d6b 8d 85 1c db ff ff                lea    -0x24e4(%ebp),%eax
                           .text:01001d71 50                               push   %eax
                           .text:01001d72 6a 03                            push   $0x3
                           .text:01001d74 ff b5 00 d5 ff ff                pushl  -0x2b00(%ebp)
                           .text:01001d7a ff d6                            call   *%esi
                           .text:01001d7c 6a 08                            push   $0x8
                           .text:01001d7e 8d 45 ac                         lea    -0x54(%ebp),%eax
                           .text:01001d81 50                               push   %eax
                           .text:01001d82 6a 04                            push   $0x4
                           .text:01001d84 ff b5 00 d5 ff ff                pushl  -0x2b00(%ebp)
                           .text:01001d8a ff d6                            call   *%esi
                           .text:01001d8c 8d 45 ac                         lea    -0x54(%ebp),%eax
                           .text:01001d8f 50                               push   %eax
                           .text:01001d90 ff 15 e4 10 00 01                call   *0x10010e4
                           .text:01001d96 8b 8d fc d4 ff ff                mov    -0x2b04(%ebp),%ecx
                           .text:01001d9c 8b 11                            mov    (%ecx),%edx
                           .text:01001d9e 50                               push   %eax
                           .text:01001d9f 8d 85 1c db ff ff                lea    -0x24e4(%ebp),%eax
                           .text:01001da5 50                               push   %eax
                           .text:01001da6 51                               push   %ecx
                           .text:01001da7 ff 52 44                         call   *0x44(%edx)
                           .text:01001daa 68 7c 12 00 01                   push   $0x100127c
                           .text:01001daf 68 04 01 00 00                   push   $0x104
                           .text:01001db4 8d 85 a4 fd ff ff                lea    -0x25c(%ebp),%eax
                           .text:01001dba 50                               push   %eax
                           .text:01001dbb e8 07 fa ff ff                   call   0x010017c7
                           .text:01001dc0 85 c0                            test   %eax,%eax
                           .text:01001dc2 0f 8c 0c 01 00 00                jl     0x01001ed4
                           .text:01001dc8 68 50 12 00 01                   push   $0x1001250
                           .text:01001dcd 53                               push   %ebx
                           .text:01001dce 8d 85 3c e3 ff ff                lea    -0x1cc4(%ebp),%eax
                           .text:01001dd4 50                               push   %eax
                           .text:01001dd5 e8 b3 f9 ff ff                   call   0x0100178d
                           .text:01001dda 53                               push   %ebx
                           .text:01001ddb 8d 85 3c e3 ff ff                lea    -0x1cc4(%ebp),%eax
                           .text:01001de1 50                               push   %eax
                           .text:01001de2 6a 06                            push   $0x6
                           .text:01001de4 ff b5 00 d5 ff ff                pushl  -0x2b00(%ebp)
                           .text:01001dea ff d6                            call   *%esi
                           .text:01001dec 8b 85 fc d4 ff ff                mov    -0x2b04(%ebp),%eax
                           .text:01001df2 8b 08                            mov    (%eax),%ecx
                           .text:01001df4 8d 95 3c e3 ff ff                lea    -0x1cc4(%ebp),%edx
                           .text:01001dfa 52                               push   %edx
                           .text:01001dfb 50                               push   %eax
                           .text:01001dfc ff 51 24                         call   *0x24(%ecx)
                           .text:01001dff 57                               push   %edi
                           .text:01001e00 8d 85 04 d5 ff ff                lea    -0x2afc(%ebp),%eax
                           .text:01001e06 50                               push   %eax
                           .text:01001e07 6a 08                            push   $0x8
                           .text:01001e09 ff b5 00 d5 ff ff                pushl  -0x2b00(%ebp)
                           .text:01001e0f ff d6                            call   *%esi
                           .text:01001e11 8b 85 fc d4 ff ff                mov    -0x2b04(%ebp),%eax
                           .text:01001e17 8b 08                            mov    (%eax),%ecx
                           .text:01001e19 8d 95 04 d5 ff ff                lea    -0x2afc(%ebp),%edx
                           .text:01001e1f 52                               push   %edx
                           .text:01001e20 50                               push   %eax
                           .text:01001e21 ff 51 1c                         call   *0x1c(%ecx)
                           .text:01001e24 83 7d 14 00                      cmpl   $0x0,0x14(%ebp)
                           .text:01001e28 74 31                            je     0x01001e5b
                           .text:01001e2a 8d 85 a4 fd ff ff                lea    -0x25c(%ebp),%eax
                           .text:01001e30 50                               push   %eax
                           .text:01001e31 68 04 01 00 00                   push   $0x104
                           .text:01001e36 8d 85 4c e7 ff ff                lea    -0x18b4(%ebp),%eax
                           .text:01001e3c 50                               push   %eax
                           .text:01001e3d e8 4b f9 ff ff                   call   0x0100178d
                           .text:01001e42 85 c0                            test   %eax,%eax
                           .text:01001e44 7c 15                            jl     0x01001e5b
                           .text:01001e46 8b 85 ec d4 ff ff                mov    -0x2b14(%ebp),%eax
                           .text:01001e4c 8b 08                            mov    (%eax),%ecx
                           .text:01001e4e 6a 01                            push   $0x1
                           .text:01001e50 8d 95 4c e7 ff ff                lea    -0x18b4(%ebp),%edx
                           .text:01001e56 52                               push   %edx
                           .text:01001e57 50                               push   %eax
                           .text:01001e58 ff 51 18                         call   *0x18(%ecx)
                           .text:01001e5b 83 65 18 fe                      andl   $0xfffffffe,0x18(%ebp)
                           .text:01001e5f eb 66                            jmp    0x01001ec7
                           .text:01001e61 83 7d 14 00                      cmpl   $0x0,0x14(%ebp)
                           .text:01001e65 74 6d                            je     0x01001ed4
                           .text:01001e67 8d 85 a4 fd ff ff                lea    -0x25c(%ebp),%eax
                           .text:01001e6d 50                               push   %eax
                           .text:01001e6e ff 15 90 10 00 01                call   *0x1001090
                           .text:01001e74 bb 04 01 00 00                   mov    $0x104,%ebx
                           .text:01001e79 68 7c 12 00 01                   push   $0x100127c
                           .text:01001e7e 2b d8                            sub    %eax,%ebx
                           .text:01001e80 8d 8c 45 a4 fd ff ff             lea    -0x25c(%ebp,%eax,2),%ecx
                           .text:01001e87 53                               push   %ebx
                           .text:01001e88 51                               push   %ecx
                           .text:01001e89 89 8d f4 d4 ff ff                mov    %ecx,-0x2b0c(%ebp)
                           .text:01001e8f e8 f9 f8 ff ff                   call   0x0100178d
                           .text:01001e94 85 c0                            test   %eax,%eax
                           .text:01001e96 7c 0d                            jl     0x01001ea5
                           .text:01001e98 8d 85 a4 fd ff ff                lea    -0x25c(%ebp),%eax
                           .text:01001e9e 50                               push   %eax
                           .text:01001e9f ff 15 d4 10 00 01                call   *0x10010d4
                           .text:01001ea5 68 44 12 00 01                   push   $0x1001244
                           .text:01001eaa 53                               push   %ebx
                           .text:01001eab ff b5 f4 d4 ff ff                pushl  -0x2b0c(%ebp)
                           .text:01001eb1 e8 d7 f8 ff ff                   call   0x0100178d
                           .text:01001eb6 85 c0                            test   %eax,%eax
                           .text:01001eb8 7c 0d                            jl     0x01001ec7
                           .text:01001eba 8d 85 a4 fd ff ff                lea    -0x25c(%ebp),%eax
                           .text:01001ec0 50                               push   %eax
                           .text:01001ec1 ff 15 d4 10 00 01                call   *0x10010d4
                           .text:01001ec7 8d 85 a4 fd ff ff                lea    -0x25c(%ebp),%eax
                           .text:01001ecd 50                               push   %eax
                           .text:01001ece ff 15 e0 10 00 01                call   *0x10010e0
                           .text:01001ed4 8b 9d 00 d5 ff ff                mov    -0x2b00(%ebp),%ebx
                           .text:01001eda 53                               push   %ebx
                           .text:01001edb ff 15 90 10 00 01                call   *0x1001090
                           .text:01001ee1 8d 44 43 02                      lea    0x2(%ebx,%eax,2),%eax
                           .text:01001ee5 66 83 38 00                      cmpw   $0x0,(%eax)
                           .text:01001ee9 89 85 00 d5 ff ff                mov    %eax,-0x2b00(%ebp)
                           .text:01001eef 0f 85 e5 fb ff ff                jne    0x01001ada
                           .text:01001ef5 33 ff                            xor    %edi,%edi
                           .text:01001ef7 39 7d 14                         cmp    %edi,0x14(%ebp)
                           .text:01001efa 74 44                            je     0x01001f40
                           .text:01001efc f6 45 18 01                      testb  $0x1,0x18(%ebp)
                           .text:01001f00 74 3e                            je     0x01001f40
                           .text:01001f02 66 39 bd a4 fd ff ff             cmp    %di,-0x25c(%ebp)
                           .text:01001f09 74 35                            je     0x01001f40
                           .text:01001f0b 8d 85 a4 fd ff ff                lea    -0x25c(%ebp),%eax
                           .text:01001f11 50                               push   %eax
                           .text:01001f12 e8 bf f7 ff ff                   call   0x010016d6
                           .text:01001f17 85 c0                            test   %eax,%eax
                           .text:01001f19 74 25                            je     0x01001f40
                           .text:01001f1b 8b 35 e0 10 00 01                mov    0x10010e0,%esi
                           .text:01001f21 eb 10                            jmp    0x01001f33
                           .text:01001f23 8d 85 a4 fd ff ff                lea    -0x25c(%ebp),%eax
                           .text:01001f29 50                               push   %eax
                           .text:01001f2a e8 a7 f7 ff ff                   call   0x010016d6
                           .text:01001f2f 85 c0                            test   %eax,%eax
                           .text:01001f31 74 0d                            je     0x01001f40
                           .text:01001f33 8d 85 a4 fd ff ff                lea    -0x25c(%ebp),%eax
                           .text:01001f39 50                               push   %eax
                           .text:01001f3a ff d6                            call   *%esi
                           .text:01001f3c 85 c0                            test   %eax,%eax
                           .text:01001f3e 75 e3                            jne    0x01001f23
                           .text:01001f40 8b 85 ec d4 ff ff                mov    -0x2b14(%ebp),%eax
                           .text:01001f46 8b 08                            mov    (%eax),%ecx
                           .text:01001f48 50                               push   %eax
                           .text:01001f49 ff 51 08                         call   *0x8(%ecx)
                           .text:01001f4c 8b 85 fc d4 ff ff                mov    -0x2b04(%ebp),%eax
                           .text:01001f52 8b 08                            mov    (%eax),%ecx
                           .text:01001f54 50                               push   %eax
                           .text:01001f55 ff 51 08                         call   *0x8(%ecx)
                           .text:01001f58 ff b5 f0 d4 ff ff                pushl  -0x2b10(%ebp)
                           .text:01001f5e ff 15 94 10 00 01                call   *0x1001094
                           .text:01001f64 ff b5 e8 d4 ff ff                pushl  -0x2b18(%ebp)
                           .text:01001f6a ff 15 98 10 00 01                call   *0x1001098
                           .text:01001f70 8b 4d fc                         mov    -0x4(%ebp),%ecx
                           .text:01001f73 5f                               pop    %edi
                           .text:01001f74 5e                               pop    %esi
                           .text:01001f75 33 cd                            xor    %ebp,%ecx
                           .text:01001f77 5b                               pop    %ebx
                           .text:01001f78 e8 86 07 00 00                   call   0x01002703
                           .text:01001f7d c9                               leave  
                           .text:01001f7e c2 14 00                         ret    $0x14
                           .text:01001f81 cc                               int3   
                           .text:01001f82 cc                               int3   
                           .text:01001f83 cc                               int3   
                           .text:01001f84 cc                               int3   
                           .text:01001f85 cc                               int3   
                           .text:01001f86 8b ff                            mov    %edi,%edi
                           .text:01001f88 55                               push   %ebp
                           .text:01001f89 8b ec                            mov    %esp,%ebp
                           .text:01001f8b 81 ec 58 04 00 00                sub    $0x458,%esp
                           .text:01001f91 a1 00 40 00 01                   mov    0x1004000,%eax
                           .text:01001f96 33 c5                            xor    %ebp,%eax
                           .text:01001f98 89 45 fc                         mov    %eax,-0x4(%ebp)
                           .text:01001f9b 56                               push   %esi
                           .text:01001f9c 8b 75 0c                         mov    0xc(%ebp),%esi
                           .text:01001f9f 57                               push   %edi
                           .text:01001fa0 8b 7d 08                         mov    0x8(%ebp),%edi
                           .text:01001fa3 57                               push   %edi
                           .text:01001fa4 89 bd a8 fb ff ff                mov    %edi,-0x458(%ebp)
                           .text:01001faa ff 15 f0 10 00 01                call   *0x10010f0
                           .text:01001fb0 85 c0                            test   %eax,%eax
                           .text:01001fb2 0f 84 a4 00 00 00                je     0x0100205c
                           .text:01001fb8 53                               push   %ebx
                           .text:01001fb9 68 00 a0 00 00                   push   $0xa000
                           .text:01001fbe 6a 40                            push   $0x40
                           .text:01001fc0 ff 15 3c 10 00 01                call   *0x100103c
                           .text:01001fc6 8b d8                            mov    %eax,%ebx
                           .text:01001fc8 85 db                            test   %ebx,%ebx
                           .text:01001fca 0f 84 8b 00 00 00                je     0x0100205b
                           .text:01001fd0 57                               push   %edi
                           .text:01001fd1 68 00 50 00 00                   push   $0x5000
                           .text:01001fd6 53                               push   %ebx
                           .text:01001fd7 56                               push   %esi
                           .text:01001fd8 ff 15 58 10 00 01                call   *0x1001058
                           .text:01001fde 3d fe 4f 00 00                   cmp    $0x4ffe,%eax
                           .text:01001fe3 74 5f                            je     0x01002044
                           .text:01001fe5 66 83 3b 00                      cmpw   $0x0,(%ebx)
                           .text:01001fe9 8b f3                            mov    %ebx,%esi
                           .text:01001feb 74 57                            je     0x01002044
                           .text:01001fed 8b 3d c4 10 00 01                mov    0x10010c4,%edi
                           .text:01001ff3 6a 20                            push   $0x20
                           .text:01001ff5 8d 45 bc                         lea    -0x44(%ebp),%eax
                           .text:01001ff8 50                               push   %eax
                           .text:01001ff9 6a 00                            push   $0x0
                           .text:01001ffb 56                               push   %esi
                           .text:01001ffc ff d7                            call   *%edi
                           .text:01001ffe 85 c0                            test   %eax,%eax
                           .text:01002000 74 31                            je     0x01002033
                           .text:01002002 68 08 02 00 00                   push   $0x208
                           .text:01002007 8d 85 ac fb ff ff                lea    -0x454(%ebp),%eax
                           .text:0100200d 50                               push   %eax
                           .text:0100200e 6a 01                            push   $0x1
                           .text:01002010 56                               push   %esi
                           .text:01002011 ff d7                            call   *%edi
                           .text:01002013 85 c0                            test   %eax,%eax
                           .text:01002015 74 1c                            je     0x01002033
                           .text:01002017 ff 75 14                         pushl  0x14(%ebp)
                           .text:0100201a 8d 85 ac fb ff ff                lea    -0x454(%ebp),%eax
                           .text:01002020 ff 75 10                         pushl  0x10(%ebp)
                           .text:01002023 50                               push   %eax
                           .text:01002024 8d 45 bc                         lea    -0x44(%ebp),%eax
                           .text:01002027 50                               push   %eax
                           .text:01002028 ff b5 a8 fb ff ff                pushl  -0x458(%ebp)
                           .text:0100202e e8 d5 f7 ff ff                   call   0x01001808
                           .text:01002033 56                               push   %esi
                           .text:01002034 ff 15 90 10 00 01                call   *0x1001090
                           .text:0100203a 8d 74 46 02                      lea    0x2(%esi,%eax,2),%esi
                           .text:0100203e 66 83 3e 00                      cmpw   $0x0,(%esi)
                           .text:01002042 75 af                            jne    0x01001ff3
                           .text:01002044 53                               push   %ebx
                           .text:01002045 ff 15 98 10 00 01                call   *0x1001098
                           .text:0100204b 33 c0                            xor    %eax,%eax
                           .text:0100204d 50                               push   %eax
                           .text:0100204e 50                               push   %eax
                           .text:0100204f 68 00 10 00 00                   push   $0x1000
                           .text:01002054 50                               push   %eax
                           .text:01002055 ff 15 b4 10 00 01                call   *0x10010b4
                           .text:0100205b 5b                               pop    %ebx
                           .text:0100205c 8b 4d fc                         mov    -0x4(%ebp),%ecx
                           .text:0100205f 5f                               pop    %edi
                           .text:01002060 33 cd                            xor    %ebp,%ecx
                           .text:01002062 5e                               pop    %esi
                           .text:01002063 e8 9b 06 00 00                   call   0x01002703
                           .text:01002068 c9                               leave  
                           .text:01002069 c2 10 00                         ret    $0x10
                           .text:0100206c cc                               int3   
                           .text:0100206d cc                               int3   
                           .text:0100206e cc                               int3   
                           .text:0100206f cc                               int3   
                           .text:01002070 cc                               int3   
                           .text:01002071 8b ff                            mov    %edi,%edi
                           .text:01002073 55                               push   %ebp
                           .text:01002074 8b ec                            mov    %esp,%ebp
                           .text:01002076 81 ec 14 02 00 00                sub    $0x214,%esp
                           .text:0100207c a1 00 40 00 01                   mov    0x1004000,%eax
                           .text:01002081 33 c5                            xor    %ebp,%eax
                           .text:01002083 89 45 fc                         mov    %eax,-0x4(%ebp)
                           .text:01002086 8b 45 08                         mov    0x8(%ebp),%eax
                           .text:01002089 53                               push   %ebx
                           .text:0100208a 56                               push   %esi
                           .text:0100208b 57                               push   %edi
                           .text:0100208c 89 85 f0 fd ff ff                mov    %eax,-0x210(%ebp)
                           .text:01002092 be 04 01 00 00                   mov    $0x104,%esi
                           .text:01002097 56                               push   %esi
                           .text:01002098 8d 85 f4 fd ff ff                lea    -0x20c(%ebp),%eax
                           .text:0100209e 50                               push   %eax
                           .text:0100209f 68 a0 12 00 01                   push   $0x10012a0
                           .text:010020a4 c7 85 ec fd ff ff 01 00 00 00    movl   $0x1,-0x214(%ebp)
                           .text:010020ae ff 15 48 10 00 01                call   *0x1001048
                           .text:010020b4 8b 3d f4 10 00 01                mov    0x10010f4,%edi
                           .text:010020ba bb 8c 12 00 01                   mov    $0x100128c,%ebx
                           .text:010020bf 85 c0                            test   %eax,%eax
                           .text:010020c1 74 1f                            je     0x010020e2
                           .text:010020c3 53                               push   %ebx
                           .text:010020c4 8d 85 f4 fd ff ff                lea    -0x20c(%ebp),%eax
                           .text:010020ca 50                               push   %eax
                           .text:010020cb ff d7                            call   *%edi
                           .text:010020cd 85 c0                            test   %eax,%eax
                           .text:010020cf 74 11                            je     0x010020e2
                           .text:010020d1 8d 85 f4 fd ff ff                lea    -0x20c(%ebp),%eax
                           .text:010020d7 50                               push   %eax
                           .text:010020d8 ff 15 f0 10 00 01                call   *0x10010f0
                           .text:010020de 85 c0                            test   %eax,%eax
                           .text:010020e0 75 62                            jne    0x01002144
                           .text:010020e2 56                               push   %esi
                           .text:010020e3 8d 85 f4 fd ff ff                lea    -0x20c(%ebp),%eax
                           .text:010020e9 50                               push   %eax
                           .text:010020ea ff 15 44 10 00 01                call   *0x1001044
                           .text:010020f0 85 c0                            test   %eax,%eax
                           .text:010020f2 74 1f                            je     0x01002113
                           .text:010020f4 53                               push   %ebx
                           .text:010020f5 8d 85 f4 fd ff ff                lea    -0x20c(%ebp),%eax
                           .text:010020fb 50                               push   %eax
                           .text:010020fc ff d7                            call   *%edi
                           .text:010020fe 85 c0                            test   %eax,%eax
                           .text:01002100 74 11                            je     0x01002113
                           .text:01002102 8d 85 f4 fd ff ff                lea    -0x20c(%ebp),%eax
                           .text:01002108 50                               push   %eax
                           .text:01002109 ff 15 f0 10 00 01                call   *0x10010f0
                           .text:0100210f 85 c0                            test   %eax,%eax
                           .text:01002111 75 31                            jne    0x01002144
                           .text:01002113 56                               push   %esi
                           .text:01002114 8d 85 f4 fd ff ff                lea    -0x20c(%ebp),%eax
                           .text:0100211a 50                               push   %eax
                           .text:0100211b ff 15 40 10 00 01                call   *0x1001040
                           .text:01002121 85 c0                            test   %eax,%eax
                           .text:01002123 74 36                            je     0x0100215b
                           .text:01002125 53                               push   %ebx
                           .text:01002126 8d 85 f4 fd ff ff                lea    -0x20c(%ebp),%eax
                           .text:0100212c 50                               push   %eax
                           .text:0100212d ff d7                            call   *%edi
                           .text:0100212f 85 c0                            test   %eax,%eax
                           .text:01002131 74 28                            je     0x0100215b
                           .text:01002133 8d 85 f4 fd ff ff                lea    -0x20c(%ebp),%eax
                           .text:01002139 50                               push   %eax
                           .text:0100213a ff 15 f0 10 00 01                call   *0x10010f0
                           .text:01002140 85 c0                            test   %eax,%eax
                           .text:01002142 74 17                            je     0x0100215b
                           .text:01002144 8d 85 f4 fd ff ff                lea    -0x20c(%ebp),%eax
                           .text:0100214a 50                               push   %eax
                           .text:0100214b ff 75 0c                         pushl  0xc(%ebp)
                           .text:0100214e ff b5 f0 fd ff ff                pushl  -0x210(%ebp)
                           .text:01002154 e8 34 f6 ff ff                   call   0x0100178d
                           .text:01002159 eb 07                            jmp    0x01002162
                           .text:0100215b 83 a5 ec fd ff ff 00             andl   $0x0,-0x214(%ebp)
                           .text:01002162 8b 4d fc                         mov    -0x4(%ebp),%ecx
                           .text:01002165 8b 85 ec fd ff ff                mov    -0x214(%ebp),%eax
                           .text:0100216b 5f                               pop    %edi
                           .text:0100216c 5e                               pop    %esi
                           .text:0100216d 33 cd                            xor    %ebp,%ecx
                           .text:0100216f 5b                               pop    %ebx
                           .text:01002170 e8 8e 05 00 00                   call   0x01002703
                           .text:01002175 c9                               leave  
                           .text:01002176 c2 08 00                         ret    $0x8
                           .text:01002179 cc                               int3   
                           .text:0100217a cc                               int3   
                           .text:0100217b cc                               int3   
                           .text:0100217c cc                               int3   
                           .text:0100217d cc                               int3   
                           .text:0100217e 8b ff                            mov    %edi,%edi
                           .text:01002180 55                               push   %ebp
                           .text:01002181 8b ec                            mov    %esp,%ebp
                           .text:01002183 81 ec 0c 02 00 00                sub    $0x20c,%esp
                           .text:01002189 a1 00 40 00 01                   mov    0x1004000,%eax
                           .text:0100218e 33 c5                            xor    %ebp,%eax
                           .text:01002190 89 45 fc                         mov    %eax,-0x4(%ebp)
                           .text:01002193 68 04 01 00 00                   push   $0x104
                           .text:01002198 8d 85 f4 fd ff ff                lea    -0x20c(%ebp),%eax
                           .text:0100219e 50                               push   %eax
                           .text:0100219f e8 cd fe ff ff                   call   0x01002071
                           .text:010021a4 85 c0                            test   %eax,%eax
                           .text:010021a6 0f 84 96 00 00 00                je     0x01002242
                           .text:010021ac 56                               push   %esi
                           .text:010021ad 6a 01                            push   $0x1
                           .text:010021af 6a 01                            push   $0x1
                           .text:010021b1 68 58 13 00 01                   push   $0x1001358
                           .text:010021b6 8d 85 f4 fd ff ff                lea    -0x20c(%ebp),%eax
                           .text:010021bc 50                               push   %eax
                           .text:010021bd e8 c4 fd ff ff                   call   0x01001f86
                           .text:010021c2 6a 01                            push   $0x1
                           .text:010021c4 33 f6                            xor    %esi,%esi
                           .text:010021c6 56                               push   %esi
                           .text:010021c7 68 3c 13 00 01                   push   $0x100133c
                           .text:010021cc 8d 85 f4 fd ff ff                lea    -0x20c(%ebp),%eax
                           .text:010021d2 50                               push   %eax
                           .text:010021d3 e8 ae fd ff ff                   call   0x01001f86
                           .text:010021d8 68 80 00 00 00                   push   $0x80
                           .text:010021dd 56                               push   %esi
                           .text:010021de 68 1c 13 00 01                   push   $0x100131c
                           .text:010021e3 8d 85 f4 fd ff ff                lea    -0x20c(%ebp),%eax
                           .text:010021e9 50                               push   %eax
                           .text:010021ea e8 97 fd ff ff                   call   0x01001f86
                           .text:010021ef 68 00 01 00 00                   push   $0x100
                           .text:010021f4 56                               push   %esi
                           .text:010021f5 68 fc 12 00 01                   push   $0x10012fc
                           .text:010021fa 8d 85 f4 fd ff ff                lea    -0x20c(%ebp),%eax
                           .text:01002200 50                               push   %eax
                           .text:01002201 e8 80 fd ff ff                   call   0x01001f86
                           .text:01002206 68 00 04 00 00                   push   $0x400
                           .text:0100220b 56                               push   %esi
                           .text:0100220c 68 e0 12 00 01                   push   $0x10012e0
                           .text:01002211 8d 85 f4 fd ff ff                lea    -0x20c(%ebp),%eax
                           .text:01002217 50                               push   %eax
                           .text:01002218 e8 69 fd ff ff                   call   0x01001f86
                           .text:0100221d 68 00 02 00 00                   push   $0x200
                           .text:01002222 56                               push   %esi
                           .text:01002223 68 bc 12 00 01                   push   $0x10012bc
                           .text:01002228 8d 85 f4 fd ff ff                lea    -0x20c(%ebp),%eax
                           .text:0100222e 50                               push   %eax
                           .text:0100222f e8 52 fd ff ff                   call   0x01001f86
                           .text:01002234 8d 85 f4 fd ff ff                lea    -0x20c(%ebp),%eax
                           .text:0100223a 50                               push   %eax
                           .text:0100223b ff 15 d4 10 00 01                call   *0x10010d4
                           .text:01002241 5e                               pop    %esi
                           .text:01002242 8b 4d fc                         mov    -0x4(%ebp),%ecx
                           .text:01002245 33 cd                            xor    %ebp,%ecx
                           .text:01002247 e8 b7 04 00 00                   call   0x01002703
                           .text:0100224c c9                               leave  
                           .text:0100224d c3                               ret    
                           .text:0100224e cc                               int3   
                           .text:0100224f cc                               int3   
                           .text:01002250 cc                               int3   
                           .text:01002251 cc                               int3   
                           .text:01002252 cc                               int3   
                           .text:01002253 8b ff                            mov    %edi,%edi
                           .text:01002255 55                               push   %ebp
                           .text:01002256 8b ec                            mov    %esp,%ebp
                           .text:01002258 56                               push   %esi
                           .text:01002259 8b 75 08                         mov    0x8(%ebp),%esi
                           .text:0100225c 57                               push   %edi
                           .text:0100225d 33 ff                            xor    %edi,%edi
                           .text:0100225f 66 39 3e                         cmp    %di,(%esi)
                           .text:01002262 74 22                            je     0x01002286
                           .text:01002264 0f b7 06                         movzwl (%esi),%eax
                           .text:01002267 ff 75 0c                         pushl  0xc(%ebp)
                           .text:0100226a 50                               push   %eax
                           .text:0100226b ff 15 04 11 00 01                call   *0x1001104
                           .text:01002271 85 c0                            test   %eax,%eax
                           .text:01002273 75 09                            jne    0x0100227e
                           .text:01002275 6a 5f                            push   $0x5f
                           .text:01002277 58                               pop    %eax
                           .text:01002278 33 ff                            xor    %edi,%edi
                           .text:0100227a 66 89 06                         mov    %ax,(%esi)
                           .text:0100227d 47                               inc    %edi
                           .text:0100227e 46                               inc    %esi
                           .text:0100227f 46                               inc    %esi
                           .text:01002280 66 83 3e 00                      cmpw   $0x0,(%esi)
                           .text:01002284 75 de                            jne    0x01002264
                           .text:01002286 8b c7                            mov    %edi,%eax
                           .text:01002288 5f                               pop    %edi
                           .text:01002289 5e                               pop    %esi
                           .text:0100228a 5d                               pop    %ebp
                           .text:0100228b c2 08 00                         ret    $0x8
                           .text:0100228e cc                               int3   
                           .text:0100228f cc                               int3   
                           .text:01002290 cc                               int3   
                           .text:01002291 cc                               int3   
                           .text:01002292 cc                               int3   
                           .text:01002293 8b ff                            mov    %edi,%edi
                           .text:01002295 55                               push   %ebp
                           .text:01002296 8b ec                            mov    %esp,%ebp
                           .text:01002298 8b 4d 08                         mov    0x8(%ebp),%ecx
                           .text:0100229b 56                               push   %esi
                           .text:0100229c 89 0d 80 43 00 01                mov    %ecx,0x1004380
                           .text:010022a2 8d 4d 08                         lea    0x8(%ebp),%ecx
                           .text:010022a5 51                               push   %ecx
                           .text:010022a6 68 28 40 00 01                   push   $0x1004028
                           .text:010022ab 33 c0                            xor    %eax,%eax
                           .text:010022ad 50                               push   %eax
                           .text:010022ae 6a 0f                            push   $0xf
                           .text:010022b0 50                               push   %eax
                           .text:010022b1 50                               push   %eax
                           .text:010022b2 50                               push   %eax
                           .text:010022b3 68 78 13 00 01                   push   $0x1001378
                           .text:010022b8 68 01 00 00 80                   push   $0x80000001
                           .text:010022bd 33 f6                            xor    %esi,%esi
                           .text:010022bf ff 15 0c 10 00 01                call   *0x100100c
                           .text:010022c5 85 c0                            test   %eax,%eax
                           .text:010022c7 75 01                            jne    0x010022ca
                           .text:010022c9 46                               inc    %esi
                           .text:010022ca 8b c6                            mov    %esi,%eax
                           .text:010022cc 5e                               pop    %esi
                           .text:010022cd 5d                               pop    %ebp
                           .text:010022ce c2 04 00                         ret    $0x4
                           .text:010022d1 cc                               int3   
                           .text:010022d2 cc                               int3   
                           .text:010022d3 cc                               int3   
                           .text:010022d4 cc                               int3   
                           .text:010022d5 cc                               int3   
                           .text:010022d6 a1 28 40 00 01                   mov    0x1004028,%eax
                           .text:010022db 85 c0                            test   %eax,%eax
                           .text:010022dd 74 07                            je     0x010022e6
                           .text:010022df 50                               push   %eax
                           .text:010022e0 ff 15 10 10 00 01                call   *0x1001010
                           .text:010022e6 c3                               ret    
                           .text:010022e7 cc                               int3   
                           .text:010022e8 cc                               int3   
                           .text:010022e9 cc                               int3   
                           .text:010022ea cc                               int3   
                           .text:010022eb cc                               int3   
                           .text:010022ec 8b ff                            mov    %edi,%edi
                           .text:010022ee 55                               push   %ebp
                           .text:010022ef 8b ec                            mov    %esp,%ebp
                           .text:010022f1 56                               push   %esi
                           .text:010022f2 57                               push   %edi
                           .text:010022f3 8b 7d 0c                         mov    0xc(%ebp),%edi
                           .text:010022f6 eb 08                            jmp    0x01002300
                           .text:010022f8 66 83 f8 20                      cmp    $0x20,%ax
                           .text:010022fc 75 0a                            jne    0x01002308
                           .text:010022fe 47                               inc    %edi
                           .text:010022ff 47                               inc    %edi
                           .text:01002300 0f b7 07                         movzwl (%edi),%eax
                           .text:01002303 66 85 c0                         test   %ax,%ax
                           .text:01002306 75 f0                            jne    0x010022f8
                           .text:01002308 8b 35 50 10 00 01                mov    0x1001050,%esi
                           .text:0100230e 6a 00                            push   $0x0
                           .text:01002310 ff d6                            call   *%esi
                           .text:01002312 0d 01 80 00 00                   or     $0x8001,%eax
                           .text:01002317 50                               push   %eax
                           .text:01002318 ff d6                            call   *%esi
                           .text:0100231a 8b 35 08 11 00 01                mov    0x1001108,%esi
                           .text:01002320 68 e4 13 00 01                   push   $0x10013e4
                           .text:01002325 57                               push   %edi
                           .text:01002326 ff d6                            call   *%esi
                           .text:01002328 85 c0                            test   %eax,%eax
                           .text:0100232a 74 0c                            je     0x01002338
                           .text:0100232c 68 dc 13 00 01                   push   $0x10013dc
                           .text:01002331 57                               push   %edi
                           .text:01002332 ff d6                            call   *%esi
                           .text:01002334 85 c0                            test   %eax,%eax
                           .text:01002336 75 20                            jne    0x01002358
                           .text:01002338 68 02 7f 00 00                   push   $0x7f02
                           .text:0100233d 6a 00                            push   $0x0
                           .text:0100233f ff 15 1c 11 00 01                call   *0x100111c
                           .text:01002345 8b 35 10 11 00 01                mov    0x1001110,%esi
                           .text:0100234b 50                               push   %eax
                           .text:0100234c ff d6                            call   *%esi
                           .text:0100234e 8b f8                            mov    %eax,%edi
                           .text:01002350 e8 29 fe ff ff                   call   0x0100217e
                           .text:01002355 57                               push   %edi
                           .text:01002356 ff d6                            call   *%esi
                           .text:01002358 5f                               pop    %edi
                           .text:01002359 5e                               pop    %esi
                           .text:0100235a 5d                               pop    %ebp
                           .text:0100235b c2 08 00                         ret    $0x8
                           .text:0100235e cc                               int3   
                           .text:0100235f cc                               int3   
                           .text:01002360 cc                               int3   
                           .text:01002361 cc                               int3   
                           .text:01002362 cc                               int3   
                           .text:01002363 8b ff                            mov    %edi,%edi
                           .text:01002365 55                               push   %ebp
                           .text:01002366 8b ec                            mov    %esp,%ebp
                           .text:01002368 6a 00                            push   $0x0
                           .text:0100236a 6a 00                            push   $0x0
                           .text:0100236c 6a 01                            push   $0x1
                           .text:0100236e 6a 00                            push   $0x0
                           .text:01002370 ff 15 4c 10 00 01                call   *0x100104c
                           .text:01002376 ff 15 a8 10 00 01                call   *0x10010a8
                           .text:0100237c 25 ff 03 00 00                   and    $0x3ff,%eax
                           .text:01002381 66 83 f8 11                      cmp    $0x11,%ax
                           .text:01002385 74 0c                            je     0x01002393
                           .text:01002387 66 83 f8 12                      cmp    $0x12,%ax
                           .text:0100238b 74 06                            je     0x01002393
                           .text:0100238d 66 83 f8 04                      cmp    $0x4,%ax
                           .text:01002391 75 07                            jne    0x0100239a
                           .text:01002393 6a 00                            push   $0x0
                           .text:01002395 e8 7c 08 00 00                   call   0x01002c16
                           .text:0100239a 53                               push   %ebx
                           .text:0100239b e8 09 08 00 00                   call   0x01002ba9
                           .text:010023a0 ff 75 08                         pushl  0x8(%ebp)
                           .text:010023a3 8b d8                            mov    %eax,%ebx
                           .text:010023a5 e8 e9 fe ff ff                   call   0x01002293
                           .text:010023aa 85 c0                            test   %eax,%eax
                           .text:010023ac 74 29                            je     0x010023d7
                           .text:010023ae 56                               push   %esi
                           .text:010023af ff 15 54 10 00 01                call   *0x1001054
                           .text:010023b5 50                               push   %eax
                           .text:010023b6 ff 15 ec 10 00 01                call   *0x10010ec
                           .text:010023bc 8b f0                            mov    %eax,%esi
                           .text:010023be 85 f6                            test   %esi,%esi
                           .text:010023c0 74 14                            je     0x010023d6
                           .text:010023c2 ff 15 24 10 00 01                call   *0x1001024
                           .text:010023c8 56                               push   %esi
                           .text:010023c9 ff 75 08                         pushl  0x8(%ebp)
                           .text:010023cc e8 1b ff ff ff                   call   0x010022ec
                           .text:010023d1 e8 00 ff ff ff                   call   0x010022d6
                           .text:010023d6 5e                               pop    %esi
                           .text:010023d7 53                               push   %ebx
                           .text:010023d8 e8 07 08 00 00                   call   0x01002be4
                           .text:010023dd 33 c0                            xor    %eax,%eax
                           .text:010023df 40                               inc    %eax
                           .text:010023e0 5b                               pop    %ebx
                           .text:010023e1 5d                               pop    %ebp
                           .text:010023e2 c2 10 00                         ret    $0x10
                           .text:010023e5 cc                               int3   
                           .text:010023e6 cc                               int3   
                           .text:010023e7 cc                               int3   
                           .text:010023e8 cc                               int3   
                           .text:010023e9 cc                               int3   
                           .text:010023ea 8b ff                            mov    %edi,%edi
                           .text:010023ec 55                               push   %ebp
                           .text:010023ed 8b ec                            mov    %esp,%ebp
                           .text:010023ef 56                               push   %esi
                           .text:010023f0 8b 75 08                         mov    0x8(%ebp),%esi
                           .text:010023f3 33 c0                            xor    %eax,%eax
                           .text:010023f5 eb 0f                            jmp    0x01002406
                           .text:010023f7 85 c0                            test   %eax,%eax
                           .text:010023f9 75 10                            jne    0x0100240b
                           .text:010023fb 8b 0e                            mov    (%esi),%ecx
                           .text:010023fd 85 c9                            test   %ecx,%ecx
                           .text:010023ff 74 02                            je     0x01002403
                           .text:01002401 ff d1                            call   *%ecx
                           .text:01002403 83 c6 04                         add    $0x4,%esi
                           .text:01002406 3b 75 0c                         cmp    0xc(%ebp),%esi
                           .text:01002409 72 ec                            jb     0x010023f7
                           .text:0100240b 5e                               pop    %esi
                           .text:0100240c 5d                               pop    %ebp
                           .text:0100240d c3                               ret    
                           .text:0100240e cc                               int3   
                           .text:0100240f cc                               int3   
                           .text:01002410 cc                               int3   
                           .text:01002411 cc                               int3   
                           .text:01002412 cc                               int3   
                           .text:01002413 a1 50 40 00 01                   mov    0x1004050,%eax
                           .text:01002418 68 40 40 00 01                   push   $0x1004040
                           .text:0100241d ff 35 4c 40 00 01                pushl  0x100404c
                           .text:01002423 a3 40 40 00 01                   mov    %eax,0x1004040
                           .text:01002428 68 30 40 00 01                   push   $0x1004030
                           .text:0100242d 68 34 40 00 01                   push   $0x1004034
                           .text:01002432 68 2c 40 00 01                   push   $0x100402c
                           .text:01002437 ff 15 5c 11 00 01                call   *0x100115c
                           .text:0100243d 83 c4 14                         add    $0x14,%esp
                           .text:01002440 a3 3c 40 00 01                   mov    %eax,0x100403c
                           .text:01002445 c3                               ret    
                           .text:01002446 cc                               int3   
                           .text:01002447 cc                               int3   
                           .text:01002448 cc                               int3   
                           .text:01002449 cc                               int3   
                           .text:0100244a cc                               int3   
                           .text:0100244b 6a 58                            push   $0x58
                           .text:0100244d 68 28 2c 00 01                   push   $0x1002c28
                           .text:01002452 e8 7d 04 00 00                   call   0x010028d4
                           .text:01002457 33 db                            xor    %ebx,%ebx
                           .text:01002459 89 5d e4                         mov    %ebx,-0x1c(%ebp)
                           .text:0100245c 89 5d fc                         mov    %ebx,-0x4(%ebp)
                           .text:0100245f 8d 45 98                         lea    -0x68(%ebp),%eax
                           .text:01002462 50                               push   %eax
                           .text:01002463 ff 15 80 10 00 01                call   *0x1001080
                           .text:01002469 c7 45 fc fe ff ff ff             movl   $0xfffffffe,-0x4(%ebp)
                           .text:01002470 c7 45 fc 01 00 00 00             movl   $0x1,-0x4(%ebp)
                           .text:01002477 64 a1 18 00 00 00                mov    %fs:0x18,%eax
                           .text:0100247d 8b 70 04                         mov    0x4(%eax),%esi
                           .text:01002480 bf 90 43 00 01                   mov    $0x1004390,%edi
                           .text:01002485 6a 00                            push   $0x0
                           .text:01002487 56                               push   %esi
                           .text:01002488 57                               push   %edi
                           .text:01002489 ff 15 84 10 00 01                call   *0x1001084
                           .text:0100248f 85 c0                            test   %eax,%eax
                           .text:01002491 74 18                            je     0x010024ab
                           .text:01002493 3b c6                            cmp    %esi,%eax
                           .text:01002495 75 07                            jne    0x0100249e
                           .text:01002497 33 f6                            xor    %esi,%esi
                           .text:01002499 46                               inc    %esi
                           .text:0100249a 8b de                            mov    %esi,%ebx
                           .text:0100249c eb 10                            jmp    0x010024ae
                           .text:0100249e 68 e8 03 00 00                   push   $0x3e8
                           .text:010024a3 ff 15 88 10 00 01                call   *0x1001088
                           .text:010024a9 eb da                            jmp    0x01002485
                           .text:010024ab 33 f6                            xor    %esi,%esi
                           .text:010024ad 46                               inc    %esi
                           .text:010024ae a1 8c 43 00 01                   mov    0x100438c,%eax
                           .text:010024b3 3b c6                            cmp    %esi,%eax
                           .text:010024b5 75 0a                            jne    0x010024c1
                           .text:010024b7 6a 1f                            push   $0x1f
                           .text:010024b9 e8 08 04 00 00                   call   0x010028c6
                           .text:010024be 59                               pop    %ecx
                           .text:010024bf eb 2f                            jmp    0x010024f0
                           .text:010024c1 a1 8c 43 00 01                   mov    0x100438c,%eax
                           .text:010024c6 85 c0                            test   %eax,%eax
                           .text:010024c8 75 20                            jne    0x010024ea
                           .text:010024ca 89 35 8c 43 00 01                mov    %esi,0x100438c
                           .text:010024d0 68 94 11 00 01                   push   $0x1001194
                           .text:010024d5 68 88 11 00 01                   push   $0x1001188
                           .text:010024da e8 0b ff ff ff                   call   0x010023ea
                           .text:010024df 59                               pop    %ecx
                           .text:010024e0 59                               pop    %ecx
                           .text:010024e1 85 c0                            test   %eax,%eax
                           .text:010024e3 74 0b                            je     0x010024f0
                           .text:010024e5 e9 2e 01 00 00                   jmp    0x01002618
                           .text:010024ea 89 35 48 40 00 01                mov    %esi,0x1004048
                           .text:010024f0 a1 8c 43 00 01                   mov    0x100438c,%eax
                           .text:010024f5 3b c6                            cmp    %esi,%eax
                           .text:010024f7 75 1b                            jne    0x01002514
                           .text:010024f9 68 84 11 00 01                   push   $0x1001184
                           .text:010024fe 68 7c 11 00 01                   push   $0x100117c
                           .text:01002503 e8 b2 03 00 00                   call   0x010028ba
                           .text:01002508 59                               pop    %ecx
                           .text:01002509 59                               pop    %ecx
                           .text:0100250a c7 05 8c 43 00 01 02 00 00 00    movl   $0x2,0x100438c
                           .text:01002514 85 db                            test   %ebx,%ebx
                           .text:01002516 75 08                            jne    0x01002520
                           .text:01002518 53                               push   %ebx
                           .text:01002519 57                               push   %edi
                           .text:0100251a ff 15 8c 10 00 01                call   *0x100108c
                           .text:01002520 83 3d 94 43 00 01 00             cmpl   $0x0,0x1004394
                           .text:01002527 74 1b                            je     0x01002544
                           .text:01002529 68 94 43 00 01                   push   $0x1004394
                           .text:0100252e e8 16 03 00 00                   call   0x01002849
                           .text:01002533 59                               pop    %ecx
                           .text:01002534 85 c0                            test   %eax,%eax
                           .text:01002536 74 0c                            je     0x01002544
                           .text:01002538 6a 00                            push   $0x0
                           .text:0100253a 6a 02                            push   $0x2
                           .text:0100253c 6a 00                            push   $0x0
                           .text:0100253e ff 15 94 43 00 01                call   *0x1004394
                           .text:01002544 a1 44 11 00 01                   mov    0x1001144,%eax
                           .text:01002549 8b 30                            mov    (%eax),%esi
                           .text:0100254b 89 75 e0                         mov    %esi,-0x20(%ebp)
                           .text:0100254e 8a 06                            mov    (%esi),%al
                           .text:01002550 3c 20                            cmp    $0x20,%al
                           .text:01002552 77 4c                            ja     0x010025a0
                           .text:01002554 84 c0                            test   %al,%al
                           .text:01002556 74 06                            je     0x0100255e
                           .text:01002558 83 7d e4 00                      cmpl   $0x0,-0x1c(%ebp)
                           .text:0100255c 75 42                            jne    0x010025a0
                           .text:0100255e 8a 06                            mov    (%esi),%al
                           .text:01002560 84 c0                            test   %al,%al
                           .text:01002562 74 0a                            je     0x0100256e
                           .text:01002564 3c 20                            cmp    $0x20,%al
                           .text:01002566 77 06                            ja     0x0100256e
                           .text:01002568 46                               inc    %esi
                           .text:01002569 89 75 e0                         mov    %esi,-0x20(%ebp)
                           .text:0100256c eb f0                            jmp    0x0100255e
                           .text:0100256e f6 45 c4 01                      testb  $0x1,-0x3c(%ebp)
                           .text:01002572 74 06                            je     0x0100257a
                           .text:01002574 0f b7 45 c8                      movzwl -0x38(%ebp),%eax
                           .text:01002578 eb 03                            jmp    0x0100257d
                           .text:0100257a 6a 0a                            push   $0xa
                           .text:0100257c 58                               pop    %eax
                           .text:0100257d 50                               push   %eax
                           .text:0100257e 56                               push   %esi
                           .text:0100257f 6a 00                            push   $0x0
                           .text:01002581 68 00 00 00 01                   push   $0x1000000
                           .text:01002586 e8 d8 fd ff ff                   call   0x01002363
                           .text:0100258b a3 44 40 00 01                   mov    %eax,0x1004044
                           .text:01002590 83 3d 38 40 00 01 00             cmpl   $0x0,0x1004038
                           .text:01002597 75 5b                            jne    0x010025f4
                           .text:01002599 50                               push   %eax
                           .text:0100259a ff 15 48 11 00 01                call   *0x1001148
                           .text:010025a0 3c 22                            cmp    $0x22,%al
                           .text:010025a2 75 0b                            jne    0x010025af
                           .text:010025a4 33 c9                            xor    %ecx,%ecx
                           .text:010025a6 39 4d e4                         cmp    %ecx,-0x1c(%ebp)
                           .text:010025a9 0f 94 c1                         sete   %cl
                           .text:010025ac 89 4d e4                         mov    %ecx,-0x1c(%ebp)
                           .text:010025af 0f b6 c0                         movzbl %al,%eax
                           .text:010025b2 50                               push   %eax
                           .text:010025b3 ff 15 4c 11 00 01                call   *0x100114c
                           .text:010025b9 59                               pop    %ecx
                           .text:010025ba 85 c0                            test   %eax,%eax
                           .text:010025bc 74 04                            je     0x010025c2
                           .text:010025be 46                               inc    %esi
                           .text:010025bf 89 75 e0                         mov    %esi,-0x20(%ebp)
                           .text:010025c2 46                               inc    %esi
                           .text:010025c3 eb 86                            jmp    0x0100254b
                           .text:010025c5 8b 45 ec                         mov    -0x14(%ebp),%eax
                           .text:010025c8 8b 08                            mov    (%eax),%ecx
                           .text:010025ca 8b 09                            mov    (%ecx),%ecx
                           .text:010025cc 89 4d dc                         mov    %ecx,-0x24(%ebp)
                           .text:010025cf 50                               push   %eax
                           .text:010025d0 51                               push   %ecx
                           .text:010025d1 e8 d6 01 00 00                   call   0x010027ac
                           .text:010025d6 59                               pop    %ecx
                           .text:010025d7 59                               pop    %ecx
                           .text:010025d8 c3                               ret    
                           .text:010025d9 8b 65 e8                         mov    -0x18(%ebp),%esp
                           .text:010025dc 8b 45 dc                         mov    -0x24(%ebp),%eax
                           .text:010025df a3 44 40 00 01                   mov    %eax,0x1004044
                           .text:010025e4 83 3d 38 40 00 01 00             cmpl   $0x0,0x1004038
                           .text:010025eb 75 07                            jne    0x010025f4
                           .text:010025ed 50                               push   %eax
                           .text:010025ee ff 15 54 11 00 01                call   *0x1001154
                           .text:010025f4 83 3d 48 40 00 01 00             cmpl   $0x0,0x1004048
                           .text:010025fb 75 06                            jne    0x01002603
                           .text:010025fd ff 15 58 11 00 01                call   *0x1001158
                           .text:01002603 c7 45 fc fe ff ff ff             movl   $0xfffffffe,-0x4(%ebp)
                           .text:0100260a a1 44 40 00 01                   mov    0x1004044,%eax
                           .text:0100260f eb 13                            jmp    0x01002624
                           .text:01002611 33 c0                            xor    %eax,%eax
                           .text:01002613 40                               inc    %eax
                           .text:01002614 c3                               ret    
                           .text:01002615 8b 65 e8                         mov    -0x18(%ebp),%esp
                           .text:01002618 c7 45 fc fe ff ff ff             movl   $0xfffffffe,-0x4(%ebp)
                           .text:0100261f b8 ff 00 00 00                   mov    $0xff,%eax
                           .text:01002624 e8 f0 02 00 00                   call   0x01002919
                           .text:01002629 c3                               ret    
                           .text:0100262a cc                               int3   
                           .text:0100262b cc                               int3   
                           .text:0100262c cc                               int3   
                           .text:0100262d cc                               int3   
                           .text:0100262e cc                               int3   
                           .text:0100262f b8 4d 5a 00 00                   mov    $0x5a4d,%eax
                           .text:01002634 66 39 05 00 00 00 01             cmp    %ax,0x1000000
                           .text:0100263b 74 04                            je     0x01002641
                           .text:0100263d 33 c0                            xor    %eax,%eax
                           .text:0100263f eb 4d                            jmp    0x0100268e
                           .text:01002641 a1 3c 00 00 01                   mov    0x100003c,%eax
                           .text:01002646 8d 80 00 00 00 01                lea    0x1000000(%eax),%eax
                           .text:0100264c 81 38 50 45 00 00                cmpl   $0x4550,(%eax)
                           .text:01002652 75 e9                            jne    0x0100263d
                           .text:01002654 0f b7 48 18                      movzwl 0x18(%eax),%ecx
                           .text:01002658 81 f9 0b 01 00 00                cmp    $0x10b,%ecx
                           .text:0100265e 74 1b                            je     0x0100267b
                           .text:01002660 81 f9 0b 02 00 00                cmp    $0x20b,%ecx
                           .text:01002666 75 d5                            jne    0x0100263d
                           .text:01002668 83 b8 84 00 00 00 0e             cmpl   $0xe,0x84(%eax)
                           .text:0100266f 76 cc                            jbe    0x0100263d
                           .text:01002671 33 c9                            xor    %ecx,%ecx
                           .text:01002673 39 88 f8 00 00 00                cmp    %ecx,0xf8(%eax)
                           .text:01002679 eb 0e                            jmp    0x01002689
                           .text:0100267b 83 78 74 0e                      cmpl   $0xe,0x74(%eax)
                           .text:0100267f 76 bc                            jbe    0x0100263d
                           .text:01002681 33 c9                            xor    %ecx,%ecx
                           .text:01002683 39 88 e8 00 00 00                cmp    %ecx,0xe8(%eax)
                           .text:01002689 0f 95 c1                         setne  %cl
                           .text:0100268c 8b c1                            mov    %ecx,%eax
                           .text:0100268e 6a 02                            push   $0x2
                           .text:01002690 a3 38 40 00 01                   mov    %eax,0x1004038
                           .text:01002695 e8 48 03 00 00                   call   0x010029e2
                           .text:0100269a 50                               push   %eax
                           .text:0100269b ff 15 40 11 00 01                call   *0x1001140
                           .text:010026a1 83 0d 84 43 00 01 ff             orl    $0xffffffff,0x1004384
                           .text:010026a8 83 0d 88 43 00 01 ff             orl    $0xffffffff,0x1004388
                           .text:010026af 59                               pop    %ecx
                           .text:010026b0 59                               pop    %ecx
                           .text:010026b1 ff 15 38 11 00 01                call   *0x1001138
                           .text:010026b7 8b 0d 58 40 00 01                mov    0x1004058,%ecx
                           .text:010026bd 89 08                            mov    %ecx,(%eax)
                           .text:010026bf ff 15 34 11 00 01                call   *0x1001134
                           .text:010026c5 8b 0d 54 40 00 01                mov    0x1004054,%ecx
                           .text:010026cb 89 08                            mov    %ecx,(%eax)
                           .text:010026cd e8 a2 02 00 00                   call   0x01002974
                           .text:010026d2 83 3d 18 40 00 01 00             cmpl   $0x0,0x1004018
                           .text:010026d9 75 0c                            jne    0x010026e7
                           .text:010026db 68 74 29 00 01                   push   $0x1002974
                           .text:010026e0 ff 15 30 11 00 01                call   *0x1001130
                           .text:010026e6 59                               pop    %ecx
                           .text:010026e7 e8 70 02 00 00                   call   0x0100295c
                           .text:010026ec 33 c0                            xor    %eax,%eax
                           .text:010026ee c3                               ret    
                           .text:010026ef cc                               int3   
                           .text:010026f0 cc                               int3   
                           .text:010026f1 cc                               int3   
                           .text:010026f2 cc                               int3   
                           .text:010026f3 cc                               int3   
                           .text:010026f4 e8 28 03 00 00                   call   0x01002a21
                           .text:010026f9 e9 4d fd ff ff                   jmp    0x0100244b
                           .text:010026fe cc                               int3   
                           .text:010026ff cc                               int3   
                           .text:01002700 cc                               int3   
                           .text:01002701 cc                               int3   
                           .text:01002702 cc                               int3   
                           .text:01002703 3b 0d 00 40 00 01                cmp    0x1004000,%ecx
                           .text:01002709 75 03                            jne    0x0100270e
                           .text:0100270b c2 00 00                         ret    $0x0
                           .text:0100270e e9 a4 03 00 00                   jmp    0x01002ab7
                           .text:01002713 cc                               int3   
                           .text:01002714 cc                               int3   
                           .text:01002715 cc                               int3   
                           .text:01002716 cc                               int3   
                           .text:01002717 cc                               int3   
                           .text:01002718 cc                               int3   
                           .text:01002719 cc                               int3   
                           .text:0100271a cc                               int3   
                           .text:0100271b cc                               int3   
                           .text:0100271c cc                               int3   
                           .text:0100271d cc                               int3   
                           .text:0100271e cc                               int3   
                           .text:0100271f cc                               int3   
                           .text:01002720 51                               push   %ecx
                           .text:01002721 8d 4c 24 04                      lea    0x4(%esp),%ecx
                           .text:01002725 2b c8                            sub    %eax,%ecx
                           .text:01002727 1b c0                            sbb    %eax,%eax
                           .text:01002729 f7 d0                            not    %eax
                           .text:0100272b 23 c8                            and    %eax,%ecx
                           .text:0100272d 8b c4                            mov    %esp,%eax
                           .text:0100272f 25 00 f0 ff ff                   and    $0xfffff000,%eax
                           .text:01002734 3b c8                            cmp    %eax,%ecx
                           .text:01002736 72 0a                            jb     0x01002742
                           .text:01002738 8b c1                            mov    %ecx,%eax
                           .text:0100273a 59                               pop    %ecx
                           .text:0100273b 94                               xchg   %eax,%esp
                           .text:0100273c 8b 00                            mov    (%eax),%eax
                           .text:0100273e 89 04 24                         mov    %eax,(%esp)
                           .text:01002741 c3                               ret    
                           .text:01002742 2d 00 10 00 00                   sub    $0x1000,%eax
                           .text:01002747 85 00                            test   %eax,(%eax)
                           .text:01002749 eb e9                            jmp    0x01002734
                           .text:0100274b cc                               int3   
                           .text:0100274c cc                               int3   
                           .text:0100274d cc                               int3   
                           .text:0100274e cc                               int3   
                           .text:0100274f cc                               int3   
                           .text:01002750 8b ff                            mov    %edi,%edi
                           .text:01002752 55                               push   %ebp
                           .text:01002753 8b ec                            mov    %esp,%ebp
                           .text:01002755 8b 45 08                         mov    0x8(%ebp),%eax
                           .text:01002758 8b 00                            mov    (%eax),%eax
                           .text:0100275a 81 38 63 73 6d e0                cmpl   $0xe06d7363,(%eax)
                           .text:01002760 75 2b                            jne    0x0100278d
                           .text:01002762 83 78 10 03                      cmpl   $0x3,0x10(%eax)
                           .text:01002766 75 25                            jne    0x0100278d
                           .text:01002768 8b 40 14                         mov    0x14(%eax),%eax
                           .text:0100276b 3d 20 05 93 19                   cmp    $0x19930520,%eax
                           .text:01002770 74 15                            je     0x01002787
                           .text:01002772 3d 21 05 93 19                   cmp    $0x19930521,%eax
                           .text:01002777 74 0e                            je     0x01002787
                           .text:01002779 3d 22 05 93 19                   cmp    $0x19930522,%eax
                           .text:0100277e 74 07                            je     0x01002787
                           .text:01002780 3d 00 40 99 01                   cmp    $0x1994000,%eax
                           .text:01002785 75 06                            jne    0x0100278d
                           .text:01002787 ff 15 28 11 00 01                call   *0x1001128
                           .text:0100278d 33 c0                            xor    %eax,%eax
                           .text:0100278f 5d                               pop    %ebp
                           .text:01002790 c2 04 00                         ret    $0x4
                           .text:01002793 cc                               int3   
                           .text:01002794 cc                               int3   
                           .text:01002795 cc                               int3   
                           .text:01002796 cc                               int3   
                           .text:01002797 cc                               int3   
                           .text:01002798 68 50 27 00 01                   push   $0x1002750
                           .text:0100279d ff 15 7c 10 00 01                call   *0x100107c
                           .text:010027a3 33 c0                            xor    %eax,%eax
                           .text:010027a5 c3                               ret    
                           .text:010027a6 cc                               int3   
                           .text:010027a7 cc                               int3   
                           .text:010027a8 cc                               int3   
                           .text:010027a9 cc                               int3   
                           .text:010027aa cc                               int3   
                           .text:010027ab cc                               int3   
                           .text:010027ac ff 25 50 11 00 01                jmp    *0x1001150
                           .text:010027b2 cc                               int3   
                           .text:010027b3 cc                               int3   
                           .text:010027b4 cc                               int3   
                           .text:010027b5 cc                               int3   
                           .text:010027b6 cc                               int3   
                           .text:010027b7 cc                               int3   
                           .text:010027b8 cc                               int3   
                           .text:010027b9 cc                               int3   
                           .text:010027ba cc                               int3   
                           .text:010027bb cc                               int3   
                           .text:010027bc cc                               int3   
                           .text:010027bd cc                               int3   
                           .text:010027be cc                               int3   
                           .text:010027bf cc                               int3   
                           .text:010027c0 8b ff                            mov    %edi,%edi
                           .text:010027c2 55                               push   %ebp
                           .text:010027c3 8b ec                            mov    %esp,%ebp
                           .text:010027c5 8b 4d 08                         mov    0x8(%ebp),%ecx
                           .text:010027c8 b8 4d 5a 00 00                   mov    $0x5a4d,%eax
                           .text:010027cd 66 39 01                         cmp    %ax,(%ecx)
                           .text:010027d0 74 04                            je     0x010027d6
                           .text:010027d2 33 c0                            xor    %eax,%eax
                           .text:010027d4 5d                               pop    %ebp
                           .text:010027d5 c3                               ret    
                           .text:010027d6 8b 41 3c                         mov    0x3c(%ecx),%eax
                           .text:010027d9 03 c1                            add    %ecx,%eax
                           .text:010027db 81 38 50 45 00 00                cmpl   $0x4550,(%eax)
                           .text:010027e1 75 ef                            jne    0x010027d2
                           .text:010027e3 33 d2                            xor    %edx,%edx
                           .text:010027e5 b9 0b 01 00 00                   mov    $0x10b,%ecx
                           .text:010027ea 66 39 48 18                      cmp    %cx,0x18(%eax)
                           .text:010027ee 0f 94 c2                         sete   %dl
                           .text:010027f1 8b c2                            mov    %edx,%eax
                           .text:010027f3 5d                               pop    %ebp
                           .text:010027f4 c3                               ret    
                           .text:010027f5 cc                               int3   
                           .text:010027f6 cc                               int3   
                           .text:010027f7 cc                               int3   
                           .text:010027f8 cc                               int3   
                           .text:010027f9 cc                               int3   
                           .text:010027fa cc                               int3   
                           .text:010027fb cc                               int3   
                           .text:010027fc cc                               int3   
                           .text:010027fd cc                               int3   
                           .text:010027fe cc                               int3   
                           .text:010027ff cc                               int3   
                           .text:01002800 8b ff                            mov    %edi,%edi
                           .text:01002802 55                               push   %ebp
                           .text:01002803 8b ec                            mov    %esp,%ebp
                           .text:01002805 8b 45 08                         mov    0x8(%ebp),%eax
                           .text:01002808 8b 48 3c                         mov    0x3c(%eax),%ecx
                           .text:0100280b 03 c8                            add    %eax,%ecx
                           .text:0100280d 0f b7 41 14                      movzwl 0x14(%ecx),%eax
                           .text:01002811 53                               push   %ebx
                           .text:01002812 56                               push   %esi
                           .text:01002813 0f b7 71 06                      movzwl 0x6(%ecx),%esi
                           .text:01002817 33 d2                            xor    %edx,%edx
                           .text:01002819 57                               push   %edi
                           .text:0100281a 8d 44 08 18                      lea    0x18(%eax,%ecx,1),%eax
                           .text:0100281e 85 f6                            test   %esi,%esi
                           .text:01002820 76 1b                            jbe    0x0100283d
                           .text:01002822 8b 7d 0c                         mov    0xc(%ebp),%edi
                           .text:01002825 8b 48 0c                         mov    0xc(%eax),%ecx
                           .text:01002828 3b f9                            cmp    %ecx,%edi
                           .text:0100282a 72 09                            jb     0x01002835
                           .text:0100282c 8b 58 08                         mov    0x8(%eax),%ebx
                           .text:0100282f 03 d9                            add    %ecx,%ebx
                           .text:01002831 3b fb                            cmp    %ebx,%edi
                           .text:01002833 72 0a                            jb     0x0100283f
                           .text:01002835 42                               inc    %edx
                           .text:01002836 83 c0 28                         add    $0x28,%eax
                           .text:01002839 3b d6                            cmp    %esi,%edx
                           .text:0100283b 72 e8                            jb     0x01002825
                           .text:0100283d 33 c0                            xor    %eax,%eax
                           .text:0100283f 5f                               pop    %edi
                           .text:01002840 5e                               pop    %esi
                           .text:01002841 5b                               pop    %ebx
                           .text:01002842 5d                               pop    %ebp
                           .text:01002843 c3                               ret    
                           .text:01002844 cc                               int3   
                           .text:01002845 cc                               int3   
                           .text:01002846 cc                               int3   
                           .text:01002847 cc                               int3   
                           .text:01002848 cc                               int3   
                           .text:01002849 6a 08                            push   $0x8
                           .text:0100284b 68 50 2c 00 01                   push   $0x1002c50
                           .text:01002850 e8 7f 00 00 00                   call   0x010028d4
                           .text:01002855 83 65 fc 00                      andl   $0x0,-0x4(%ebp)
                           .text:01002859 be 00 00 00 01                   mov    $0x1000000,%esi
                           .text:0100285e 56                               push   %esi
                           .text:0100285f e8 5c ff ff ff                   call   0x010027c0
                           .text:01002864 59                               pop    %ecx
                           .text:01002865 85 c0                            test   %eax,%eax
                           .text:01002867 74 3d                            je     0x010028a6
                           .text:01002869 8b 45 08                         mov    0x8(%ebp),%eax
                           .text:0100286c 2b c6                            sub    %esi,%eax
                           .text:0100286e 50                               push   %eax
                           .text:0100286f 56                               push   %esi
                           .text:01002870 e8 8b ff ff ff                   call   0x01002800
                           .text:01002875 59                               pop    %ecx
                           .text:01002876 59                               pop    %ecx
                           .text:01002877 85 c0                            test   %eax,%eax
                           .text:01002879 74 2b                            je     0x010028a6
                           .text:0100287b 8b 40 24                         mov    0x24(%eax),%eax
                           .text:0100287e c1 e8 1f                         shr    $0x1f,%eax
                           .text:01002881 f7 d0                            not    %eax
                           .text:01002883 83 e0 01                         and    $0x1,%eax
                           .text:01002886 c7 45 fc fe ff ff ff             movl   $0xfffffffe,-0x4(%ebp)
                           .text:0100288d eb 20                            jmp    0x010028af
                           .text:0100288f 8b 45 ec                         mov    -0x14(%ebp),%eax
                           .text:01002892 8b 00                            mov    (%eax),%eax
                           .text:01002894 8b 00                            mov    (%eax),%eax
                           .text:01002896 33 c9                            xor    %ecx,%ecx
                           .text:01002898 3d 05 00 00 c0                   cmp    $0xc0000005,%eax
                           .text:0100289d 0f 94 c1                         sete   %cl
                           .text:010028a0 8b c1                            mov    %ecx,%eax
                           .text:010028a2 c3                               ret    
                           .text:010028a3 8b 65 e8                         mov    -0x18(%ebp),%esp
                           .text:010028a6 c7 45 fc fe ff ff ff             movl   $0xfffffffe,-0x4(%ebp)
                           .text:010028ad 33 c0                            xor    %eax,%eax
                           .text:010028af e8 65 00 00 00                   call   0x01002919
                           .text:010028b4 c3                               ret    
                           .text:010028b5 cc                               int3   
                           .text:010028b6 cc                               int3   
                           .text:010028b7 cc                               int3   
                           .text:010028b8 cc                               int3   
                           .text:010028b9 cc                               int3   
                           .text:010028ba ff 25 24 11 00 01                jmp    *0x1001124
                           .text:010028c0 cc                               int3   
                           .text:010028c1 cc                               int3   
                           .text:010028c2 cc                               int3   
                           .text:010028c3 cc                               int3   
                           .text:010028c4 cc                               int3   
                           .text:010028c5 cc                               int3   
                           .text:010028c6 ff 25 2c 11 00 01                jmp    *0x100112c
                           .text:010028cc cc                               int3   
                           .text:010028cd cc                               int3   
                           .text:010028ce cc                               int3   
                           .text:010028cf cc                               int3   
                           .text:010028d0 cc                               int3   
                           .text:010028d1 cc                               int3   
                           .text:010028d2 cc                               int3   
                           .text:010028d3 cc                               int3   
                           .text:010028d4 68 32 29 00 01                   push   $0x1002932
                           .text:010028d9 64 ff 35 00 00 00 00             pushl  %fs:0x0
                           .text:010028e0 8b 44 24 10                      mov    0x10(%esp),%eax
                           .text:010028e4 89 6c 24 10                      mov    %ebp,0x10(%esp)
                           .text:010028e8 8d 6c 24 10                      lea    0x10(%esp),%ebp
                           .text:010028ec 2b e0                            sub    %eax,%esp
                           .text:010028ee 53                               push   %ebx
                           .text:010028ef 56                               push   %esi
                           .text:010028f0 57                               push   %edi
                           .text:010028f1 a1 00 40 00 01                   mov    0x1004000,%eax
                           .text:010028f6 31 45 fc                         xor    %eax,-0x4(%ebp)
                           .text:010028f9 33 c5                            xor    %ebp,%eax
                           .text:010028fb 50                               push   %eax
                           .text:010028fc 89 65 e8                         mov    %esp,-0x18(%ebp)
                           .text:010028ff ff 75 f8                         pushl  -0x8(%ebp)
                           .text:01002902 8b 45 fc                         mov    -0x4(%ebp),%eax
                           .text:01002905 c7 45 fc fe ff ff ff             movl   $0xfffffffe,-0x4(%ebp)
                           .text:0100290c 89 45 f8                         mov    %eax,-0x8(%ebp)
                           .text:0100290f 8d 45 f0                         lea    -0x10(%ebp),%eax
                           .text:01002912 64 a3 00 00 00 00                mov    %eax,%fs:0x0
                           .text:01002918 c3                               ret    
                           .text:01002919 8b 4d f0                         mov    -0x10(%ebp),%ecx
                           .text:0100291c 64 89 0d 00 00 00 00             mov    %ecx,%fs:0x0
                           .text:01002923 59                               pop    %ecx
                           .text:01002924 5f                               pop    %edi
                           .text:01002925 5f                               pop    %edi
                           .text:01002926 5e                               pop    %esi
                           .text:01002927 5b                               pop    %ebx
                           .text:01002928 8b e5                            mov    %ebp,%esp
                           .text:0100292a 5d                               pop    %ebp
                           .text:0100292b 51                               push   %ecx
                           .text:0100292c c3                               ret    
                           .text:0100292d cc                               int3   
                           .text:0100292e cc                               int3   
                           .text:0100292f cc                               int3   
                           .text:01002930 cc                               int3   
                           .text:01002931 cc                               int3   
                           .text:01002932 8b ff                            mov    %edi,%edi
                           .text:01002934 55                               push   %ebp
                           .text:01002935 8b ec                            mov    %esp,%ebp
                           .text:01002937 ff 75 14                         pushl  0x14(%ebp)
                           .text:0100293a ff 75 10                         pushl  0x10(%ebp)
                           .text:0100293d ff 75 0c                         pushl  0xc(%ebp)
                           .text:01002940 ff 75 08                         pushl  0x8(%ebp)
                           .text:01002943 68 03 27 00 01                   push   $0x1002703
                           .text:01002948 68 00 40 00 01                   push   $0x1004000
                           .text:0100294d e8 4c 02 00 00                   call   0x01002b9e
                           .text:01002952 83 c4 18                         add    $0x18,%esp
                           .text:01002955 5d                               pop    %ebp
                           .text:01002956 c3                               ret    
                           .text:01002957 cc                               int3   
                           .text:01002958 cc                               int3   
                           .text:01002959 cc                               int3   
                           .text:0100295a cc                               int3   
                           .text:0100295b cc                               int3   
                           .text:0100295c 68 00 00 03 00                   push   $0x30000
                           .text:01002961 68 00 00 01 00                   push   $0x10000
                           .text:01002966 ff 15 64 11 00 01                call   *0x1001164
                           .text:0100296c 59                               pop    %ecx
                           .text:0100296d 59                               pop    %ecx
                           .text:0100296e c3                               ret    
                           .text:0100296f cc                               int3   
                           .text:01002970 cc                               int3   
                           .text:01002971 cc                               int3   
                           .text:01002972 cc                               int3   
                           .text:01002973 cc                               int3   
                           .text:01002974 33 c0                            xor    %eax,%eax
                           .text:01002976 c3                               ret    
                           .text:01002977 cc                               int3   
                           .text:01002978 cc                               int3   
                           .text:01002979 cc                               int3   
                           .text:0100297a cc                               int3   
                           .text:0100297b cc                               int3   
                           .text:0100297c 6a 0c                            push   $0xc
                           .text:0100297e 68 70 2c 00 01                   push   $0x1002c70
                           .text:01002983 e8 4c ff ff ff                   call   0x010028d4
                           .text:01002988 33 c0                            xor    %eax,%eax
                           .text:0100298a 8b 4d 08                         mov    0x8(%ebp),%ecx
                           .text:0100298d 85 c9                            test   %ecx,%ecx
                           .text:0100298f 74 44                            je     0x010029d5
                           .text:01002991 83 f9 ff                         cmp    $0xffffffff,%ecx
                           .text:01002994 74 3f                            je     0x010029d5
                           .text:01002996 21 45 fc                         and    %eax,-0x4(%ebp)
                           .text:01002999 ba 4d 5a 00 00                   mov    $0x5a4d,%edx
                           .text:0100299e 66 39 11                         cmp    %dx,(%ecx)
                           .text:010029a1 75 2b                            jne    0x010029ce
                           .text:010029a3 8b 51 3c                         mov    0x3c(%ecx),%edx
                           .text:010029a6 85 d2                            test   %edx,%edx
                           .text:010029a8 7c 24                            jl     0x010029ce
                           .text:010029aa 81 fa 00 00 00 10                cmp    $0x10000000,%edx
                           .text:010029b0 73 1c                            jae    0x010029ce
                           .text:010029b2 8d 04 0a                         lea    (%edx,%ecx,1),%eax
                           .text:010029b5 89 45 e4                         mov    %eax,-0x1c(%ebp)
                           .text:010029b8 81 38 50 45 00 00                cmpl   $0x4550,(%eax)
                           .text:010029be 74 0e                            je     0x010029ce
                           .text:010029c0 eb 07                            jmp    0x010029c9
                           .text:010029c2 33 c0                            xor    %eax,%eax
                           .text:010029c4 40                               inc    %eax
                           .text:010029c5 c3                               ret    
                           .text:010029c6 8b 65 e8                         mov    -0x18(%ebp),%esp
                           .text:010029c9 33 c0                            xor    %eax,%eax
                           .text:010029cb 89 45 e4                         mov    %eax,-0x1c(%ebp)
                           .text:010029ce c7 45 fc fe ff ff ff             movl   $0xfffffffe,-0x4(%ebp)
                           .text:010029d5 e8 3f ff ff ff                   call   0x01002919
                           .text:010029da c2 04 00                         ret    $0x4
                           .text:010029dd cc                               int3   
                           .text:010029de cc                               int3   
                           .text:010029df cc                               int3   
                           .text:010029e0 cc                               int3   
                           .text:010029e1 cc                               int3   
                           .text:010029e2 8b ff                            mov    %edi,%edi
                           .text:010029e4 55                               push   %ebp
                           .text:010029e5 8b ec                            mov    %esp,%ebp
                           .text:010029e7 6a 00                            push   $0x0
                           .text:010029e9 ff 15 78 10 00 01                call   *0x1001078
                           .text:010029ef 85 c0                            test   %eax,%eax
                           .text:010029f1 74 24                            je     0x01002a17
                           .text:010029f3 50                               push   %eax
                           .text:010029f4 e8 83 ff ff ff                   call   0x0100297c
                           .text:010029f9 85 c0                            test   %eax,%eax
                           .text:010029fb 74 1a                            je     0x01002a17
                           .text:010029fd 0f b7 40 5c                      movzwl 0x5c(%eax),%eax
                           .text:01002a01 66 83 f8 02                      cmp    $0x2,%ax
                           .text:01002a05 75 05                            jne    0x01002a0c
                           .text:01002a07 6a 02                            push   $0x2
                           .text:01002a09 58                               pop    %eax
                           .text:01002a0a 5d                               pop    %ebp
                           .text:01002a0b c3                               ret    
                           .text:01002a0c 66 83 f8 03                      cmp    $0x3,%ax
                           .text:01002a10 75 05                            jne    0x01002a17
                           .text:01002a12 33 c0                            xor    %eax,%eax
                           .text:01002a14 40                               inc    %eax
                           .text:01002a15 5d                               pop    %ebp
                           .text:01002a16 c3                               ret    
                           .text:01002a17 8b 45 08                         mov    0x8(%ebp),%eax
                           .text:01002a1a 5d                               pop    %ebp
                           .text:01002a1b c3                               ret    
                           .text:01002a1c cc                               int3   
                           .text:01002a1d cc                               int3   
                           .text:01002a1e cc                               int3   
                           .text:01002a1f cc                               int3   
                           .text:01002a20 cc                               int3   
                           .text:01002a21 8b ff                            mov    %edi,%edi
                           .text:01002a23 55                               push   %ebp
                           .text:01002a24 8b ec                            mov    %esp,%ebp
                           .text:01002a26 83 ec 10                         sub    $0x10,%esp
                           .text:01002a29 a1 00 40 00 01                   mov    0x1004000,%eax
                           .text:01002a2e 83 65 f8 00                      andl   $0x0,-0x8(%ebp)
                           .text:01002a32 83 65 fc 00                      andl   $0x0,-0x4(%ebp)
                           .text:01002a36 53                               push   %ebx
                           .text:01002a37 57                               push   %edi
                           .text:01002a38 bf 4e e6 40 bb                   mov    $0xbb40e64e,%edi
                           .text:01002a3d bb 00 00 ff ff                   mov    $0xffff0000,%ebx
                           .text:01002a42 3b c7                            cmp    %edi,%eax
                           .text:01002a44 74 0d                            je     0x01002a53
                           .text:01002a46 85 c3                            test   %eax,%ebx
                           .text:01002a48 74 09                            je     0x01002a53
                           .text:01002a4a f7 d0                            not    %eax
                           .text:01002a4c a3 04 40 00 01                   mov    %eax,0x1004004
                           .text:01002a51 eb 5b                            jmp    0x01002aae
                           .text:01002a53 56                               push   %esi
                           .text:01002a54 8d 45 f8                         lea    -0x8(%ebp),%eax
                           .text:01002a57 50                               push   %eax
                           .text:01002a58 ff 15 64 10 00 01                call   *0x1001064
                           .text:01002a5e 8b 75 fc                         mov    -0x4(%ebp),%esi
                           .text:01002a61 33 75 f8                         xor    -0x8(%ebp),%esi
                           .text:01002a64 ff 15 68 10 00 01                call   *0x1001068
                           .text:01002a6a 33 f0                            xor    %eax,%esi
                           .text:01002a6c ff 15 6c 10 00 01                call   *0x100106c
                           .text:01002a72 33 f0                            xor    %eax,%esi
                           .text:01002a74 ff 15 70 10 00 01                call   *0x1001070
                           .text:01002a7a 33 f0                            xor    %eax,%esi
                           .text:01002a7c 8d 45 f0                         lea    -0x10(%ebp),%eax
                           .text:01002a7f 50                               push   %eax
                           .text:01002a80 ff 15 74 10 00 01                call   *0x1001074
                           .text:01002a86 8b 45 f4                         mov    -0xc(%ebp),%eax
                           .text:01002a89 33 45 f0                         xor    -0x10(%ebp),%eax
                           .text:01002a8c 33 f0                            xor    %eax,%esi
                           .text:01002a8e 3b f7                            cmp    %edi,%esi
                           .text:01002a90 74 08                            je     0x01002a9a
                           .text:01002a92 85 1d 00 40 00 01                test   %ebx,0x1004000
                           .text:01002a98 75 05                            jne    0x01002a9f
                           .text:01002a9a be 4f e6 40 bb                   mov    $0xbb40e64f,%esi
                           .text:01002a9f 89 35 00 40 00 01                mov    %esi,0x1004000
                           .text:01002aa5 f7 d6                            not    %esi
                           .text:01002aa7 89 35 04 40 00 01                mov    %esi,0x1004004
                           .text:01002aad 5e                               pop    %esi
                           .text:01002aae 5f                               pop    %edi
                           .text:01002aaf 5b                               pop    %ebx
                           .text:01002ab0 c9                               leave  
                           .text:01002ab1 c3                               ret    
                           .text:01002ab2 cc                               int3   
                           .text:01002ab3 cc                               int3   
                           .text:01002ab4 cc                               int3   
                           .text:01002ab5 cc                               int3   
                           .text:01002ab6 cc                               int3   
                           .text:01002ab7 8b ff                            mov    %edi,%edi
                           .text:01002ab9 55                               push   %ebp
                           .text:01002aba 8b ec                            mov    %esp,%ebp
                           .text:01002abc 81 ec 28 03 00 00                sub    $0x328,%esp
                           .text:01002ac2 a3 60 41 00 01                   mov    %eax,0x1004160
                           .text:01002ac7 89 0d 5c 41 00 01                mov    %ecx,0x100415c
                           .text:01002acd 89 15 58 41 00 01                mov    %edx,0x1004158
                           .text:01002ad3 89 1d 54 41 00 01                mov    %ebx,0x1004154
                           .text:01002ad9 89 35 50 41 00 01                mov    %esi,0x1004150
                           .text:01002adf 89 3d 4c 41 00 01                mov    %edi,0x100414c
                           .text:01002ae5 66 8c 15 78 41 00 01             data16 mov %ss,0x1004178
                           .text:01002aec 66 8c 0d 6c 41 00 01             data16 mov %cs,0x100416c
                           .text:01002af3 66 8c 1d 48 41 00 01             data16 mov %ds,0x1004148
                           .text:01002afa 66 8c 05 44 41 00 01             data16 mov %es,0x1004144
                           .text:01002b01 66 8c 25 40 41 00 01             data16 mov %fs,0x1004140
                           .text:01002b08 66 8c 2d 3c 41 00 01             data16 mov %gs,0x100413c
                           .text:01002b0f 9c                               pushf  
                           .text:01002b10 8f 05 70 41 00 01                popl   0x1004170
                           .text:01002b16 8b 45 00                         mov    0x0(%ebp),%eax
                           .text:01002b19 a3 64 41 00 01                   mov    %eax,0x1004164
                           .text:01002b1e 8b 45 04                         mov    0x4(%ebp),%eax
                           .text:01002b21 a3 68 41 00 01                   mov    %eax,0x1004168
                           .text:01002b26 8d 45 08                         lea    0x8(%ebp),%eax
                           .text:01002b29 a3 74 41 00 01                   mov    %eax,0x1004174
                           .text:01002b2e 8b 85 e0 fc ff ff                mov    -0x320(%ebp),%eax
                           .text:01002b34 c7 05 b0 40 00 01 01 00 01 00    movl   $0x10001,0x10040b0
                           .text:01002b3e a1 68 41 00 01                   mov    0x1004168,%eax
                           .text:01002b43 a3 6c 40 00 01                   mov    %eax,0x100406c
                           .text:01002b48 c7 05 60 40 00 01 09 04 00 c0    movl   $0xc0000409,0x1004060
                           .text:01002b52 c7 05 64 40 00 01 01 00 00 00    movl   $0x1,0x1004064
                           .text:01002b5c a1 00 40 00 01                   mov    0x1004000,%eax
                           .text:01002b61 89 85 d8 fc ff ff                mov    %eax,-0x328(%ebp)
                           .text:01002b67 a1 04 40 00 01                   mov    0x1004004,%eax
                           .text:01002b6c 89 85 dc fc ff ff                mov    %eax,-0x324(%ebp)
                           .text:01002b72 6a 00                            push   $0x0
                           .text:01002b74 ff 15 7c 10 00 01                call   *0x100107c
                           .text:01002b7a 68 ec 13 00 01                   push   $0x10013ec
                           .text:01002b7f ff 15 ac 10 00 01                call   *0x10010ac
                           .text:01002b85 68 09 04 00 c0                   push   $0xc0000409
                           .text:01002b8a ff 15 5c 10 00 01                call   *0x100105c
                           .text:01002b90 50                               push   %eax
                           .text:01002b91 ff 15 60 10 00 01                call   *0x1001060
                           .text:01002b97 c9                               leave  
                           .text:01002b98 c3                               ret    
                           .text:01002b99 cc                               int3   
                           .text:01002b9a cc                               int3   
                           .text:01002b9b cc                               int3   
                           .text:01002b9c cc                               int3   
                           .text:01002b9d cc                               int3   
                           .text:01002b9e ff 25 3c 11 00 01                jmp    *0x100113c
                           .text:01002ba4 cc                               int3   
                           .text:01002ba5 cc                               int3   
                           .text:01002ba6 cc                               int3   
                           .text:01002ba7 cc                               int3   
                           .text:01002ba8 cc                               int3   
                           .text:01002ba9 6a 06                            push   $0x6
                           .text:01002bab 6a 00                            push   $0x0
                           .text:01002bad e8 4c 00 00 00                   call   0x01002bfe
                           .text:01002bb2 83 f8 01                         cmp    $0x1,%eax
                           .text:01002bb5 75 03                            jne    0x01002bba
                           .text:01002bb7 33 c0                            xor    %eax,%eax
                           .text:01002bb9 c3                               ret    
                           .text:01002bba 56                               push   %esi
                           .text:01002bbb be 06 01 01 80                   mov    $0x80010106,%esi
                           .text:01002bc0 3b c6                            cmp    %esi,%eax
                           .text:01002bc2 75 19                            jne    0x01002bdd
                           .text:01002bc4 6a 04                            push   $0x4
                           .text:01002bc6 6a 00                            push   $0x0
                           .text:01002bc8 e8 31 00 00 00                   call   0x01002bfe
                           .text:01002bcd 83 f8 01                         cmp    $0x1,%eax
                           .text:01002bd0 75 04                            jne    0x01002bd6
                           .text:01002bd2 33 c0                            xor    %eax,%eax
                           .text:01002bd4 5e                               pop    %esi
                           .text:01002bd5 c3                               ret    
                           .text:01002bd6 3b c6                            cmp    %esi,%eax
                           .text:01002bd8 75 03                            jne    0x01002bdd
                           .text:01002bda 33 c0                            xor    %eax,%eax
                           .text:01002bdc 40                               inc    %eax
                           .text:01002bdd 5e                               pop    %esi
                           .text:01002bde c3                               ret    
                           .text:01002bdf cc                               int3   
                           .text:01002be0 cc                               int3   
                           .text:01002be1 cc                               int3   
                           .text:01002be2 cc                               int3   
                           .text:01002be3 cc                               int3   
                           .text:01002be4 8b ff                            mov    %edi,%edi
                           .text:01002be6 55                               push   %ebp
                           .text:01002be7 8b ec                            mov    %esp,%ebp
                           .text:01002be9 83 7d 08 00                      cmpl   $0x0,0x8(%ebp)
                           .text:01002bed 75 05                            jne    0x01002bf4
                           .text:01002bef e8 16 00 00 00                   call   0x01002c0a
                           .text:01002bf4 5d                               pop    %ebp
                           .text:01002bf5 c2 04 00                         ret    $0x4
                           .text:01002bf8 cc                               int3   
                           .text:01002bf9 cc                               int3   
                           .text:01002bfa cc                               int3   
                           .text:01002bfb cc                               int3   
                           .text:01002bfc cc                               int3   
                           .text:01002bfd cc                               int3   
                           .text:01002bfe ff 25 6c 11 00 01                jmp    *0x100116c
                           .text:01002c04 cc                               int3   
                           .text:01002c05 cc                               int3   
                           .text:01002c06 cc                               int3   
                           .text:01002c07 cc                               int3   
                           .text:01002c08 cc                               int3   
                           .text:01002c09 cc                               int3   
                           .text:01002c0a ff 25 74 11 00 01                jmp    *0x1001174
                           .text:01002c10 cc                               int3   
                           .text:01002c11 cc                               int3   
                           .text:01002c12 cc                               int3   
                           .text:01002c13 cc                               int3   
                           .text:01002c14 cc                               int3   
                           .text:01002c15 cc                               int3   
                           .text:01002c16 ff 25 2c 10 00 01                jmp    *0x100102c
                           .text:01002c1c cc                               int3   
                           .text:01002c1d cc                               int3   
                           .text:01002c1e cc                               int3   
                           .text:01002c1f cc                               int3   
                           .text:01002c20 cc                               int3   
                           .text:01002c21 cc                               int3   
                           .text:01002c22 ff 25 b8 10 00 01                jmp    *0x10010b8
                           .text:01002c28 fe                               (bad)  
                           .text:01002c29 ff                               (bad)  
                           .text:01002c2a ff                               (bad)  
                           .text:01002c2b ff 00                            incl   (%eax)
                           .text:01002c2d 00 00                            add    %al,(%eax)
                           .text:01002c2f 00 88 ff ff ff 00                add    %cl,0xffffff(%eax)
                           .text:01002c35 00 00                            add    %al,(%eax)
                           .text:01002c37 00 fe                            add    %bh,%dh
                           .text:01002c39 ff                               (bad)  
                           .text:01002c3a ff                               (bad)  
                           .text:01002c3b ff 11                            call   *(%ecx)
                           .text:01002c3d 26 00 01                         add    %al,%es:(%ecx)
                           .text:01002c40 15 26 00 01 fe                   adc    $0xfe010026,%eax
                           .text:01002c45 ff                               (bad)  
                           .text:01002c46 ff                               (bad)  
                           .text:01002c47 ff c5                            inc    %ebp
                           .text:01002c49 25 00 01 d9 25                   and    $0x25d90100,%eax
                           .text:01002c4e 00 01                            add    %al,(%ecx)
                           .text:01002c50 fe                               (bad)  
                           .text:01002c51 ff                               (bad)  
                           .text:01002c52 ff                               (bad)  
                           .text:01002c53 ff 00                            incl   (%eax)
                           .text:01002c55 00 00                            add    %al,(%eax)
                           .text:01002c57 00 d8                            add    %bl,%al
                           .text:01002c59 ff                               (bad)  
                           .text:01002c5a ff                               (bad)  
                           .text:01002c5b ff 00                            incl   (%eax)
                           .text:01002c5d 00 00                            add    %al,(%eax)
                           .text:01002c5f 00 fe                            add    %bh,%dh
                           .text:01002c61 ff                               (bad)  
                           .text:01002c62 ff                               (bad)  
                           .text:01002c63 ff 8f 28 00 01 a3                decl   -0x5cfeffd8(%edi)
                           .text:01002c69 28 00                            sub    %al,(%eax)
                           .text:01002c6b 01 00                            add    %eax,(%eax)
                           .text:01002c6d 00 00                            add    %al,(%eax)
                           .text:01002c6f 00 fe                            add    %bh,%dh
                           .text:01002c71 ff                               (bad)  
                           .text:01002c72 ff                               (bad)  
                           .text:01002c73 ff 00                            incl   (%eax)
                           .text:01002c75 00 00                            add    %al,(%eax)
                           .text:01002c77 00 d4                            add    %dl,%ah
                           .text:01002c79 ff                               (bad)  
                           .text:01002c7a ff                               (bad)  
                           .text:01002c7b ff 00                            incl   (%eax)
                           .text:01002c7d 00 00                            add    %al,(%eax)
                           .text:01002c7f 00 fe                            add    %bh,%dh
                           .text:01002c81 ff                               (bad)  
                           .text:01002c82 ff                               (bad)  
                           .text:01002c83 ff c2                            inc    %edx
                           .text:01002c85 29 00                            sub    %eax,(%eax)
                           .text:01002c87 01 c6                            add    %eax,%esi
                           .text:01002c89 29 00                            sub    %eax,(%eax)
                           .text:01002c8b 01 54 2d 00                      add    %edx,0x0(%ebp,%ebp,1)
                           .text:01002c8f 00 ff                            add    %bh,%bh
                           .text:01002c91 ff                               (bad)  
                           .text:01002c92 ff                               (bad)  
                           .text:01002c93 ff                               (bad)  
                           .text:01002c94 ff                               (bad)  
                           .text:01002c95 ff                               (bad)  
                           .text:01002c96 ff                               (bad)  
                           .text:01002c97 ff 24 2f                         jmp    *(%edi,%ebp,1)
                           .text:01002c9a 00 00                            add    %al,(%eax)
                           .text:01002c9c 00 10                            add    %dl,(%eax)
                           .text:01002c9e 00 00                            add    %al,(%eax)
                           .text:01002ca0 88 2d 00 00 ff ff                mov    %ch,0xffff0000
                           .text:01002ca6 ff                               (bad)  
                           .text:01002ca7 ff                               (bad)  
                           .text:01002ca8 ff                               (bad)  
                           .text:01002ca9 ff                               (bad)  
                           .text:01002caa ff                               (bad)  
                           .text:01002cab ff 62 30                         jmp    *0x30(%edx)
                           .text:01002cae 00 00                            add    %al,(%eax)
                           .text:01002cb0 34 10                            xor    $0x10,%al
                           .text:01002cb2 00 00                            add    %al,(%eax)
                           .text:01002cb4 64 2e 00 00                      fs add %al,%cs:(%eax)
                           .text:01002cb8 ff                               (bad)  
                           .text:01002cb9 ff                               (bad)  
                           .text:01002cba ff                               (bad)  
                           .text:01002cbb ff                               (bad)  
                           .text:01002cbc ff                               (bad)  
                           .text:01002cbd ff                               (bad)  
                           .text:01002cbe ff                               (bad)  
                           .text:01002cbf ff a4 30 00 00 10 11             jmp    *0x11100000(%eax,%esi,1)
                           .text:01002cc6 00 00                            add    %al,(%eax)
                           .text:01002cc8 78 2e                            js     0x01002cf8
                           .text:01002cca 00 00                            add    %al,(%eax)
                           .text:01002ccc ff                               (bad)  
                           .text:01002ccd ff                               (bad)  
                           .text:01002cce ff                               (bad)  
                           .text:01002ccf ff                               (bad)  
                           .text:01002cd0 ff                               (bad)  
                           .text:01002cd1 ff                               (bad)  
                           .text:01002cd2 ff                               (bad)  
                           .text:01002cd3 ff 68 31                         ljmp   *0x31(%eax)
                           .text:01002cd6 00 00                            add    %al,(%eax)
                           .text:01002cd8 24 11                            and    $0x11,%al
                           .text:01002cda 00 00                            add    %al,(%eax)
                           .text:01002cdc c0 2e 00                         shrb   $0x0,(%esi)
                           .text:01002cdf 00 ff                            add    %bh,%bh
                           .text:01002ce1 ff                               (bad)  
                           .text:01002ce2 ff                               (bad)  
                           .text:01002ce3 ff                               (bad)  
                           .text:01002ce4 ff                               (bad)  
                           .text:01002ce5 ff                               (bad)  
                           .text:01002ce6 ff                               (bad)  
                           .text:01002ce7 ff                               (bad)  
                           .text:01002ce8 e8 31 00 00 6c                   call   0x6d002d1e
                           .text:01002ced 11 00                            adc    %eax,(%eax)
                           .text:01002cef 00 80 2d 00 00 ff                add    %al,-0xffffd3(%eax)
                           .text:01002cf5 ff                               (bad)  
                           .text:01002cf6 ff                               (bad)  
                           .text:01002cf7 ff                               (bad)  
                           .text:01002cf8 ff                               (bad)  
                           .text:01002cf9 ff                               (bad)  
                           .text:01002cfa ff                               (bad)  
                           .text:01002cfb ff 02                            incl   (%edx)
                           .text:01002cfd 32 00                            xor    (%eax),%al
                           .text:01002cff 00 2c 10                         add    %ch,(%eax,%edx,1)
                           .text:01002d02 00 00                            add    %al,(%eax)
                           .text:01002d04 34 2e                            xor    $0x2e,%al
                           .text:01002d06 00 00                            add    %al,(%eax)
                           .text:01002d08 ff                               (bad)  
                           .text:01002d09 ff                               (bad)  
                           .text:01002d0a ff                               (bad)  
                           .text:01002d0b ff                               (bad)  
                           .text:01002d0c ff                               (bad)  
                           .text:01002d0d ff                               (bad)  
                           .text:01002d0e ff                               (bad)  
                           .text:01002d0f ff ac 32 00 00 e0 10             ljmp   *0x10e00000(%edx,%esi,1)
                           .text:01002d16 00 00                            add    %al,(%eax)
                           .text:01002d18 6c                               insb   (%dx),%es:(%edi)
                           .text:01002d19 2d 00 00 ff ff                   sub    $0xffff0000,%eax
                           .text:01002d1e ff                               (bad)  
                           .text:01002d1f ff                               (bad)  
                           .text:01002d20 ff                               (bad)  
                           .text:01002d21 ff                               (bad)  
                           .text:01002d22 ff                               (bad)  
                           .text:01002d23 ff                               (bad)  
                           .text:01002d24 b8 32 00 00 18                   mov    $0x18000032,%eax
                           .text:01002d29 10 00                            adc    %al,(%eax)
                           .text:01002d2b 00 08                            add    %cl,(%eax)
                           .text:01002d2d 2e 00 00                         add    %al,%cs:(%eax)
                           .text:01002d30 ff                               (bad)  
                           .text:01002d31 ff                               (bad)  
                           .text:01002d32 ff                               (bad)  
                           .text:01002d33 ff                               (bad)  
                           .text:01002d34 ff                               (bad)  
                           .text:01002d35 ff                               (bad)  
                           .text:01002d36 ff                               (bad)  
                           .text:01002d37 ff 00                            incl   (%eax)
                           .text:01002d39 33 00                            xor    (%eax),%eax
                           .text:01002d3b 00 b4 10 00 00 00 00             add    %dh,0x0(%eax,%edx,1)
                           .text:01002d42 00 00                            add    %al,(%eax)
                           .text:01002d44 00 00                            add    %al,(%eax)
                           .text:01002d46 00 00                            add    %al,(%eax)
                           .text:01002d48 00 00                            add    %al,(%eax)
                           .text:01002d4a 00 00                            add    %al,(%eax)
                           .text:01002d4c 00 00                            add    %al,(%eax)
                           .text:01002d4e 00 00                            add    %al,(%eax)
                           .text:01002d50 00 00                            add    %al,(%eax)
                           .text:01002d52 00 00                            add    %al,(%eax)
                           .text:01002d54 de 2e                            fisubr (%esi)
                           .text:01002d56 00 00                            add    %al,(%eax)
                           .text:01002d58 f2 2e 00 00                      repnz add %al,%cs:(%eax)
                           .text:01002d5c 02 2f                            add    (%edi),%ch
                           .text:01002d5e 00 00                            add    %al,(%eax)
                           .text:01002d60 12 2f                            adc    (%edi),%ch
                           .text:01002d62 00 00                            add    %al,(%eax)
                           .text:01002d64 d0 2e                            shrb   (%esi)
                           .text:01002d66 00 00                            add    %al,(%eax)
                           .text:01002d68 00 00                            add    %al,(%eax)
                           .text:01002d6a 00 00                            add    %al,(%eax)
                           .text:01002d6c 4e                               dec    %esi
                           .text:01002d6d 01 00                            add    %eax,(%eax)
                           .text:01002d6f 80 48 01 00                      orb    $0x0,0x1(%eax)
                           .text:01002d73 80 4c 01 00 80                   orb    $0x80,0x0(%ecx,%eax,1)
                           .text:01002d78 11 00                            adc    %eax,(%eax)
                           .text:01002d7a 00 80 00 00 00 00                add    %al,0x0(%eax)
                           .text:01002d80 f2 31 00                         repnz xor %eax,(%eax)
                           .text:01002d83 00 00                            add    %al,(%eax)
                           .text:01002d85 00 00                            add    %al,(%eax)
                           .text:01002d87 00 9e 2f 00 00 aa                add    %bl,-0x55ffffd1(%esi)
                           .text:01002d8d 2f                               das    
                           .text:01002d8e 00 00                            add    %al,(%eax)
                           .text:01002d90 b8 2f 00 00 c6                   mov    $0xc600002f,%eax
                           .text:01002d95 2f                               das    
                           .text:01002d96 00 00                            add    %al,(%eax)
                           .text:01002d98 e4 2f                            in     $0x2f,%al
                           .text:01002d9a 00 00                            add    %al,(%eax)
                           .text:01002d9c fc                               cld    
                           .text:01002d9d 2f                               das    
                           .text:01002d9e 00 00                            add    %al,(%eax)
                           .text:01002da0 18 30                            sbb    %dh,(%eax)
                           .text:01002da2 00 00                            add    %al,(%eax)
                           .text:01002da4 2e 30 00                         xor    %al,%cs:(%eax)
                           .text:01002da7 00 3e                            add    %bh,(%esi)
                           .text:01002da9 30 00                            xor    %al,(%eax)
                           .text:01002dab 00 82 2f 00 00 10                add    %al,0x1000002f(%edx)
                           .text:01002db1 34 00                            xor    $0x0,%al
                           .text:01002db3 00 fc                            add    %bh,%ah
                           .text:01002db5 33 00                            xor    (%eax),%eax
                           .text:01002db7 00 e2                            add    %ah,%dl
                           .text:01002db9 33 00                            xor    (%eax),%eax
                           .text:01002dbb 00 cc                            add    %cl,%ah
                           .text:01002dbd 33 00                            xor    (%eax),%eax
                           .text:01002dbf 00 b6 33 00 00 a6                add    %dh,-0x59ffffcd(%esi)
                           .text:01002dc5 33 00                            xor    (%eax),%eax
                           .text:01002dc7 00 8c 33 00 00 78 33             add    %cl,0x33780000(%ebx,%esi,1)
                           .text:01002dce 00 00                            add    %al,(%eax)
                           .text:01002dd0 5a                               pop    %edx
                           .text:01002dd1 33 00                            xor    (%eax),%eax
                           .text:01002dd3 00 48 33                         add    %cl,0x33(%eax)
                           .text:01002dd6 00 00                            add    %al,(%eax)
                           .text:01002dd8 2a 33                            sub    (%ebx),%dh
                           .text:01002dda 00 00                            add    %al,(%eax)
                           .text:01002ddc 22 33                            and    (%ebx),%dh
                           .text:01002dde 00 00                            add    %al,(%eax)
                           .text:01002de0 0c 33                            or     $0x33,%al
                           .text:01002de2 00 00                            add    %al,(%eax)
                           .text:01002de4 76 2f                            jbe    0x01002e15
                           .text:01002de6 00 00                            add    %al,(%eax)
                           .text:01002de8 66 2f                            data16 das 
                           .text:01002dea 00 00                            add    %al,(%eax)
                           .text:01002dec 58                               pop    %eax
                           .text:01002ded 2f                               das    
                           .text:01002dee 00 00                            add    %al,(%eax)
                           .text:01002df0 4c                               dec    %esp
                           .text:01002df1 2f                               das    
                           .text:01002df2 00 00                            add    %al,(%eax)
                           .text:01002df4 3e 2f                            ds das 
                           .text:01002df6 00 00                            add    %al,(%eax)
                           .text:01002df8 32 2f                            xor    (%edi),%ch
                           .text:01002dfa 00 00                            add    %al,(%eax)
                           .text:01002dfc 50                               push   %eax
                           .text:01002dfd 30 00                            xor    %al,(%eax)
                           .text:01002dff 00 24 34                         add    %ah,(%esp,%esi,1)
                           .text:01002e02 00 00                            add    %al,(%eax)
                           .text:01002e04 00 00                            add    %al,(%eax)
                           .text:01002e06 00 00                            add    %al,(%eax)
                           .text:01002e08 ee                               out    %al,(%dx)
                           .text:01002e09 32 00                            xor    (%eax),%al
                           .text:01002e0b 00 da                            add    %bl,%dl
                           .text:01002e0d 32 00                            xor    (%eax),%al
                           .text:01002e0f 00 a5 00 00 80 2a                add    %ah,0x2a800000(%ebp)
                           .text:01002e15 00 00                            add    %al,(%eax)
                           .text:01002e17 80 3a 00                         cmpb   $0x0,(%edx)
                           .text:01002e1a 00 80 31 00 00 80                add    %al,-0x7fffffcf(%eax)
                           .text:01002e20 33 00                            xor    (%eax),%eax
                           .text:01002e22 00 80 c6 32 00 00                add    %al,0x32c6(%eax)
                           .text:01002e28 a4                               movsb  %ds:(%esi),%es:(%edi)
                           .text:01002e29 00 00                            add    %al,(%eax)
                           .text:01002e2b 80 5e 00 00                      sbbb   $0x0,0x0(%esi)
                           .text:01002e2f 80 00 00                         addb   $0x0,(%eax)
                           .text:01002e32 00 00                            add    %al,(%eax)
                           .text:01002e34 0c 32                            or     $0x32,%al
                           .text:01002e36 00 00                            add    %al,(%eax)
                           .text:01002e38 22 32                            and    (%edx),%dh
                           .text:01002e3a 00 00                            add    %al,(%eax)
                           .text:01002e3c 2e 32 00                         xor    %cs:(%eax),%al
                           .text:01002e3f 00 44 32 00                      add    %al,0x0(%edx,%esi,1)
                           .text:01002e43 00 54 32 00                      add    %dl,0x0(%edx,%esi,1)
                           .text:01002e47 00 66 32                         add    %ah,0x32(%esi)
                           .text:01002e4a 00 00                            add    %al,(%eax)
                           .text:01002e4c 74 32                            je     0x01002e80
                           .text:01002e4e 00 00                            add    %al,(%eax)
                           .text:01002e50 82                               (bad)  
                           .text:01002e51 32 00                            xor    (%eax),%al
                           .text:01002e53 00 98 32 00 00 c8                add    %bl,-0x37ffffce(%eax)
                           .text:01002e59 01 00                            add    %eax,(%eax)
                           .text:01002e5b 80 9e 00 00 80 00 00             sbbb   $0x0,0x800000(%esi)
                           .text:01002e62 00 00                            add    %al,(%eax)
                           .text:01002e64 8a 30                            mov    (%eax),%dh
                           .text:01002e66 00 00                            add    %al,(%eax)
                           .text:01002e68 70 30                            jo     0x01002e9a
                           .text:01002e6a 00 00                            add    %al,(%eax)
                           .text:01002e6c 7c 30                            jl     0x01002e9e
                           .text:01002e6e 00 00                            add    %al,(%eax)
                           .text:01002e70 96                               xchg   %eax,%esi
                           .text:01002e71 30 00                            xor    %al,(%eax)
                           .text:01002e73 00 00                            add    %al,(%eax)
                           .text:01002e75 00 00                            add    %al,(%eax)
                           .text:01002e77 00 0a                            add    %cl,(%edx)
                           .text:01002e79 31 00                            xor    %eax,(%eax)
                           .text:01002e7b 00 74 31 00                      add    %dh,0x0(%ecx,%esi,1)
                           .text:01002e7f 00 16                            add    %dl,(%esi)
                           .text:01002e81 31 00                            xor    %eax,(%eax)
                           .text:01002e83 00 24 31                         add    %ah,(%ecx,%esi,1)
                           .text:01002e86 00 00                            add    %al,(%eax)
                           .text:01002e88 38 31                            cmp    %dh,(%ecx)
                           .text:01002e8a 00 00                            add    %al,(%eax)
                           .text:01002e8c 48                               dec    %eax
                           .text:01002e8d 31 00                            xor    %eax,(%eax)
                           .text:01002e8f 00 88 31 00 00 56                add    %cl,0x56000031(%eax)
                           .text:01002e95 31 00                            xor    %eax,(%eax)
                           .text:01002e97 00 00                            add    %al,(%eax)
                           .text:01002e99 31 00                            xor    %eax,(%eax)
                           .text:01002e9b 00 f8                            add    %bh,%al
                           .text:01002e9d 30 00                            xor    %al,(%eax)
                           .text:01002e9f 00 ea                            add    %ch,%dl
                           .text:01002ea1 30 00                            xor    %al,(%eax)
                           .text:01002ea3 00 dc                            add    %bl,%ah
                           .text:01002ea5 30 00                            xor    %al,(%eax)
                           .text:01002ea7 00 d4                            add    %dl,%ah
                           .text:01002ea9 30 00                            xor    %al,(%eax)
                           .text:01002eab 00 ca                            add    %cl,%dl
                           .text:01002ead 30 00                            xor    %al,(%eax)
                           .text:01002eaf 00 ba 30 00 00 b0                add    %bh,-0x4fffffd0(%edx)
                           .text:01002eb5 30 00                            xor    %al,(%eax)
                           .text:01002eb7 00 a2 31 00 00 00                add    %ah,0x31(%edx)
                           .text:01002ebd 00 00                            add    %al,(%eax)
                           .text:01002ebf 00 c4                            add    %al,%ah
                           .text:01002ec1 31 00                            xor    %eax,(%eax)
                           .text:01002ec3 00 b0 31 00 00 d6                add    %dh,-0x29ffffcf(%eax)
                           .text:01002ec9 31 00                            xor    %eax,(%eax)
                           .text:01002ecb 00 00                            add    %al,(%eax)
                           .text:01002ecd 00 00                            add    %al,(%eax)
                           .text:01002ecf 00 30                            add    %dh,(%eax)
                           .text:01002ed1 02 52 65                         add    0x65(%edx),%dl
                           .text:01002ed4 67 43                            addr16 inc %ebx
                           .text:01002ed6 6c                               insb   (%dx),%es:(%edi)
                           .text:01002ed7 6f                               outsl  %ds:(%esi),(%dx)
                           .text:01002ed8 73 65                            jae    0x01002f3f
                           .text:01002eda 4b                               dec    %ebx
                           .text:01002edb 65 79 00                         gs jns 0x01002ede
                           .text:01002ede 6e                               outsb  %ds:(%esi),(%dx)
                           .text:01002edf 02 52 65                         add    0x65(%edx),%dl
                           .text:01002ee2 67 51                            addr16 push %ecx
                           .text:01002ee4 75 65                            jne    0x01002f4b
                           .text:01002ee6 72 79                            jb     0x01002f61
                           .text:01002ee8 56                               push   %esi
                           .text:01002ee9 61                               popa   
                           .text:01002eea 6c                               insb   (%dx),%es:(%edi)
                           .text:01002eeb 75 65                            jne    0x01002f52
                           .text:01002eed 45                               inc    %ebp
                           .text:01002eee 78 57                            js     0x01002f47
                           .text:01002ef0 00 00                            add    %al,(%eax)
                           .text:01002ef2 52                               push   %edx
                           .text:01002ef3 02 52 65                         add    0x65(%edx),%dl
                           .text:01002ef6 67 45                            addr16 inc %ebp
                           .text:01002ef8 6e                               outsb  %ds:(%esi),(%dx)
                           .text:01002ef9 75 6d                            jne    0x01002f68
                           .text:01002efb 56                               push   %esi
                           .text:01002efc 61                               popa   
                           .text:01002efd 6c                               insb   (%dx),%es:(%edi)
                           .text:01002efe 75 65                            jne    0x01002f65
                           .text:01002f00 57                               push   %edi
                           .text:01002f01 00 61 02                         add    %ah,0x2(%ecx)
                           .text:01002f04 52                               push   %edx
                           .text:01002f05 65 67 4f                         gs addr16 dec %edi
                           .text:01002f08 70 65                            jo     0x01002f6f
                           .text:01002f0a 6e                               outsb  %ds:(%esi),(%dx)
                           .text:01002f0b 4b                               dec    %ebx
                           .text:01002f0c 65 79 45                         gs jns 0x01002f54
                           .text:01002f0f 78 57                            js     0x01002f68
                           .text:01002f11 00 39                            add    %bh,(%ecx)
                           .text:01002f13 02 52 65                         add    0x65(%edx),%dl
                           .text:01002f16 67 43                            addr16 inc %ebx
                           .text:01002f18 72 65                            jb     0x01002f7f
                           .text:01002f1a 61                               popa   
                           .text:01002f1b 74 65                            je     0x01002f82
                           .text:01002f1d 4b                               dec    %ebx
                           .text:01002f1e 65 79 45                         gs jns 0x01002f66
                           .text:01002f21 78 57                            js     0x01002f7a
                           .text:01002f23 00 41 44                         add    %al,0x44(%ecx)
                           .text:01002f26 56                               push   %esi
                           .text:01002f27 41                               inc    %ecx
                           .text:01002f28 50                               push   %eax
                           .text:01002f29 49                               dec    %ecx
                           .text:01002f2a 33 32                            xor    (%edx),%esi
                           .text:01002f2c 2e 64 6c                         cs fs insb (%dx),%es:(%edi)
                           .text:01002f2f 6c                               insb   (%dx),%es:(%edi)
                           .text:01002f30 00 00                            add    %al,(%eax)
                           .text:01002f32 48                               dec    %eax
                           .text:01002f33 03 4c 6f 63                      add    0x63(%edi,%ebp,2),%ecx
                           .text:01002f37 61                               popa   
                           .text:01002f38 6c                               insb   (%dx),%es:(%edi)
                           .text:01002f39 46                               inc    %esi
                           .text:01002f3a 72 65                            jb     0x01002fa1
                           .text:01002f3c 65 00 44 03 4c                   add    %al,%gs:0x4c(%ebx,%eax,1)
                           .text:01002f41 6f                               outsl  %ds:(%esi),(%dx)
                           .text:01002f42 63 61 6c                         arpl   %sp,0x6c(%ecx)
                           .text:01002f45 41                               inc    %ecx
                           .text:01002f46 6c                               insb   (%dx),%es:(%edi)
                           .text:01002f47 6c                               insb   (%dx),%es:(%edi)
                           .text:01002f48 6f                               outsl  %ds:(%esi),(%dx)
                           .text:01002f49 63 00                            arpl   %ax,(%eax)
                           .text:01002f4b 00 45 05                         add    %al,0x5(%ebp)
                           .text:01002f4e 6c                               insb   (%dx),%es:(%edi)
                           .text:01002f4f 73 74                            jae    0x01002fc5
                           .text:01002f51 72 63                            jb     0x01002fb6
                           .text:01002f53 6d                               insl   (%dx),%es:(%edi)
                           .text:01002f54 70 69                            jo     0x01002fbf
                           .text:01002f56 57                               push   %edi
                           .text:01002f57 00 ba 02 47 6c 6f                add    %bh,0x6f6c4702(%edx)
                           .text:01002f5d 62 61 6c                         bound  %esp,0x6c(%ecx)
                           .text:01002f60 46                               inc    %esi
                           .text:01002f61 72 65                            jb     0x01002fc8
                           .text:01002f63 65 00 00                         add    %al,%gs:(%eax)
                           .text:01002f66 c5 02                            lds    (%edx),%eax
                           .text:01002f68 47                               inc    %edi
                           .text:01002f69 6c                               insb   (%dx),%es:(%edi)
                           .text:01002f6a 6f                               outsl  %ds:(%esi),(%dx)
                           .text:01002f6b 62 61 6c                         bound  %esp,0x6c(%ecx)
                           .text:01002f6e 55                               push   %ebp
                           .text:01002f6f 6e                               outsb  %ds:(%esi),(%dx)
                           .text:01002f70 6c                               insb   (%dx),%es:(%edi)
                           .text:01002f71 6f                               outsl  %ds:(%esi),(%dx)
                           .text:01002f72 63 6b 00                         arpl   %bp,0x0(%ebx)
                           .text:01002f75 00 4e 05                         add    %cl,0x5(%esi)
                           .text:01002f78 6c                               insb   (%dx),%es:(%edi)
                           .text:01002f79 73 74                            jae    0x01002fef
                           .text:01002f7b 72 6c                            jb     0x01002fe9
                           .text:01002f7d 65 6e                            outsb  %gs:(%esi),(%dx)
                           .text:01002f7f 57                               push   %edi
                           .text:01002f80 00 00                            add    %al,(%eax)
                           .text:01002f82 40                               inc    %eax
                           .text:01002f83 02 47 65                         add    0x65(%edi),%al
                           .text:01002f86 74 50                            je     0x01002fd8
                           .text:01002f88 72 69                            jb     0x01002ff3
                           .text:01002f8a 76 61                            jbe    0x01002fed
                           .text:01002f8c 74 65                            je     0x01002ff3
                           .text:01002f8e 50                               push   %eax
                           .text:01002f8f 72 6f                            jb     0x01003000
                           .text:01002f91 66 69 6c 65 53 65 63             imul   $0x6365,0x53(%ebp,%eiz,2),%bp
                           .text:01002f98 74 69                            je     0x01003003
                           .text:01002f9a 6f                               outsl  %ds:(%esi),(%dx)
                           .text:01002f9b 6e                               outsb  %ds:(%esi),(%dx)
                           .text:01002f9c 57                               push   %edi
                           .text:01002f9d 00 42 05                         add    %al,0x5(%edx)
                           .text:01002fa0 6c                               insb   (%dx),%es:(%edi)
                           .text:01002fa1 73 74                            jae    0x01003017
                           .text:01002fa3 72 63                            jb     0x01003008
                           .text:01002fa5 6d                               insl   (%dx),%es:(%edi)
                           .text:01002fa6 70 57                            jo     0x01002fff
                           .text:01002fa8 00 00                            add    %al,(%eax)
                           .text:01002faa be 02 47 6c 6f                   mov    $0x6f6c4702,%esi
                           .text:01002faf 62 61 6c                         bound  %esp,0x6c(%ecx)
                           .text:01002fb2 4c                               dec    %esp
                           .text:01002fb3 6f                               outsl  %ds:(%esi),(%dx)
                           .text:01002fb4 63 6b 00                         arpl   %bp,0x0(%ebx)
                           .text:01002fb7 00 b3 02 47 6c 6f                add    %dh,0x6f6c4702(%ebx)
                           .text:01002fbd 62 61 6c                         bound  %esp,0x6c(%ecx)
                           .text:01002fc0 41                               inc    %ecx
                           .text:01002fc1 6c                               insb   (%dx),%es:(%edi)
                           .text:01002fc2 6c                               insb   (%dx),%es:(%edi)
                           .text:01002fc3 6f                               outsl  %ds:(%esi),(%dx)
                           .text:01002fc4 63 00                            arpl   %ax,(%eax)
                           .text:01002fc6 7c 02                            jl     0x01002fca
                           .text:01002fc8 47                               inc    %edi
                           .text:01002fc9 65 74 53                         gs je  0x0100301f
                           .text:01002fcc 79 73                            jns    0x01003041
                           .text:01002fce 74 65                            je     0x01003035
                           .text:01002fd0 6d                               insl   (%dx),%es:(%edi)
                           .text:01002fd1 57                               push   %edi
                           .text:01002fd2 69 6e 64 6f 77 73 44             imul   $0x4473776f,0x64(%esi),%ebp
                           .text:01002fd9 69 72 65 63 74 6f 72             imul   $0x726f7463,0x65(%edx),%esi
                           .text:01002fe0 79 57                            jns    0x01003039
                           .text:01002fe2 00 00                            add    %al,(%eax)
                           .text:01002fe4 af                               scas   %es:(%edi),%eax
                           .text:01002fe5 02 47 65                         add    0x65(%edi),%al
                           .text:01002fe8 74 57                            je     0x01003041
                           .text:01002fea 69 6e 64 6f 77 73 44             imul   $0x4473776f,0x64(%esi),%ebp
                           .text:01002ff1 69 72 65 63 74 6f 72             imul   $0x726f7463,0x65(%edx),%esi
                           .text:01002ff8 79 57                            jns    0x01003051
                           .text:01002ffa 00 00                            add    %al,(%eax)
                           .text:01002ffc 1d 01 45 78 70                   sbb    $0x70784501,%eax
                           .text:01003001 61                               popa   
                           .text:01003002 6e                               outsb  %ds:(%esi),(%dx)
                           .text:01003003 64 45                            fs inc %ebp
                           .text:01003005 6e                               outsb  %ds:(%esi),(%dx)
                           .text:01003006 76 69                            jbe    0x01003071
                           .text:01003008 72 6f                            jb     0x01003079
                           .text:0100300a 6e                               outsb  %ds:(%esi),(%dx)
                           .text:0100300b 6d                               insl   (%dx),%es:(%edi)
                           .text:0100300c 65 6e                            outsb  %gs:(%esi),(%dx)
                           .text:0100300e 74 53                            je     0x01003063
                           .text:01003010 74 72                            je     0x01003084
                           .text:01003012 69 6e 67 73 57 00 d3             imul   $0xd3005773,0x67(%esi),%ebp
                           .text:01003019 02 48 65                         add    0x65(%eax),%cl
                           .text:0100301c 61                               popa   
                           .text:0100301d 70 53                            jo     0x01003072
                           .text:0100301f 65 74 49                         gs je  0x0100306b
                           .text:01003022 6e                               outsb  %ds:(%esi),(%dx)
                           .text:01003023 66 6f                            outsw  %ds:(%esi),(%dx)
                           .text:01003025 72 6d                            jb     0x01003094
                           .text:01003027 61                               popa   
                           .text:01003028 74 69                            je     0x01003093
                           .text:0100302a 6f                               outsl  %ds:(%esi),(%dx)
                           .text:0100302b 6e                               outsb  %ds:(%esi),(%dx)
                           .text:0100302c 00 00                            add    %al,(%eax)
                           .text:0100302e 58                               pop    %eax
                           .text:0100302f 04 53                            add    $0x53,%al
                           .text:01003031 65 74 45                         gs je  0x01003079
                           .text:01003034 72 72                            jb     0x010030a8
                           .text:01003036 6f                               outsl  %ds:(%esi),(%dx)
                           .text:01003037 72 4d                            jb     0x01003086
                           .text:01003039 6f                               outsl  %ds:(%esi),(%dx)
                           .text:0100303a 64 65 00 00                      fs add %al,%gs:(%eax)
                           .text:0100303e 87 01                            xchg   %eax,(%ecx)
                           .text:01003040 47                               inc    %edi
                           .text:01003041 65 74 43                         gs je  0x01003087
                           .text:01003044 6f                               outsl  %ds:(%esi),(%dx)
                           .text:01003045 6d                               insl   (%dx),%es:(%edi)
                           .text:01003046 6d                               insl   (%dx),%es:(%edi)
                           .text:01003047 61                               popa   
                           .text:01003048 6e                               outsb  %ds:(%esi),(%dx)
                           .text:01003049 64 4c                            fs dec %esp
                           .text:0100304b 69 6e 65 57 00 8c 02             imul   $0x28c0057,0x65(%esi),%ebp
                           .text:01003052 47                               inc    %edi
                           .text:01003053 65 74 54                         gs je  0x010030aa
                           .text:01003056 68 72 65 61 64                   push   $0x64616572
                           .text:0100305b 4c                               dec    %esp
                           .text:0100305c 6f                               outsl  %ds:(%esi),(%dx)
                           .text:0100305d 63 61 6c                         arpl   %sp,0x6c(%ecx)
                           .text:01003060 65 00 4b 45                      add    %cl,%gs:0x45(%ebx)
                           .text:01003064 52                               push   %edx
                           .text:01003065 4e                               dec    %esi
                           .text:01003066 45                               inc    %ebp
                           .text:01003067 4c                               dec    %esp
                           .text:01003068 33 32                            xor    (%edx),%esi
                           .text:0100306a 2e 64 6c                         cs fs insb (%dx),%es:(%edi)
                           .text:0100306d 6c                               insb   (%dx),%es:(%edi)
                           .text:0100306e 00 00                            add    %al,(%eax)
                           .text:01003070 31 00                            xor    %eax,(%eax)
                           .text:01003072 43                               inc    %ebx
                           .text:01003073 68 61 72 4e 65                   push   $0x654e7261
                           .text:01003078 78 74                            js     0x010030ee
                           .text:0100307a 57                               push   %edi
                           .text:0100307b 00 fa                            add    %bh,%dl
                           .text:0100307d 01 4c 6f 61                      add    %ecx,0x61(%edi,%ebp,2)
                           .text:01003081 64 53                            fs push %ebx
                           .text:01003083 74 72                            je     0x010030f7
                           .text:01003085 69 6e 67 57 00 88 02             imul   $0x2880057,0x67(%esi),%ebp
                           .text:0100308c 53                               push   %ebx
                           .text:0100308d 65 74 43                         gs je  0x010030d3
                           .text:01003090 75 72                            jne    0x01003104
                           .text:01003092 73 6f                            jae    0x01003103
                           .text:01003094 72 00                            jb     0x01003096
                           .text:01003096 eb 01                            jmp    0x01003099
                           .text:01003098 4c                               dec    %esp
                           .text:01003099 6f                               outsl  %ds:(%esi),(%dx)
                           .text:0100309a 61                               popa   
                           .text:0100309b 64 43                            fs inc %ebx
                           .text:0100309d 75 72                            jne    0x01003111
                           .text:0100309f 73 6f                            jae    0x01003110
                           .text:010030a1 72 57                            jb     0x010030fa
                           .text:010030a3 00 55 53                         add    %dl,0x53(%ebp)
                           .text:010030a6 45                               inc    %ebp
                           .text:010030a7 52                               push   %edx
                           .text:010030a8 33 32                            xor    (%edx),%esi
                           .text:010030aa 2e 64 6c                         cs fs insb (%dx),%es:(%edi)
                           .text:010030ad 6c                               insb   (%dx),%es:(%edi)
                           .text:010030ae 00 00                            add    %al,(%eax)
                           .text:010030b0 ec                               in     (%dx),%al
                           .text:010030b1 04 6d                            add    $0x6d,%al
                           .text:010030b3 65 6d                            gs insl (%dx),%es:(%edi)
                           .text:010030b5 6d                               insl   (%dx),%es:(%edi)
                           .text:010030b6 6f                               outsl  %ds:(%esi),(%dx)
                           .text:010030b7 76 65                            jbe    0x0100311e
                           .text:010030b9 00 91 00 5f 5f 67                add    %dl,0x675f5f00(%ecx)
                           .text:010030bf 65 74 6d                         gs je  0x0100312f
                           .text:010030c2 61                               popa   
                           .text:010030c3 69 6e 61 72 67 73 00             imul   $0x736772,0x61(%esi),%ebp
                           .text:010030ca 14 01                            adc    $0x1,%al
                           .text:010030cc 5f                               pop    %edi
                           .text:010030cd 63 65 78                         arpl   %sp,0x78(%ebp)
                           .text:010030d0 69 74 00 00 62 01 5f 65          imul   $0x655f0162,0x0(%eax,%eax,1),%esi
                           .text:010030d8 78 69                            js     0x01003143
                           .text:010030da 74 00                            je     0x010030dc
                           .text:010030dc 6a 00                            push   $0x0
                           .text:010030de 5f                               pop    %edi
                           .text:010030df 58                               pop    %eax
                           .text:010030e0 63 70 74                         arpl   %si,0x74(%eax)
                           .text:010030e3 46                               inc    %esi
                           .text:010030e4 69 6c 74 65 72 00 f4 01          imul   $0x1f40072,0x65(%esp,%esi,2),%ebp
                           .text:010030ec 5f                               pop    %edi
                           .text:010030ed 69 73 6d 62 62 6c 65             imul   $0x656c6262,0x6d(%ebx),%esi
                           .text:010030f4 61                               popa   
                           .text:010030f5 64 00 00                         add    %al,%fs:(%eax)
                           .text:010030f8 8f 04 65 78 69 74 00             popl   0x746978(,%eiz,2)
                           .text:010030ff 00 e7                            add    %ah,%bh
                           .text:01003101 00 5f 61                         add    %bl,0x61(%edi)
                           .text:01003104 63 6d 64                         arpl   %bp,0x64(%ebp)
                           .text:01003107 6c                               insb   (%dx),%es:(%edi)
                           .text:01003108 6e                               outsb  %ds:(%esi),(%dx)
                           .text:01003109 00 d5                            add    %dl,%ch
                           .text:0100310b 01 5f 69                         add    %ebx,0x69(%edi)
                           .text:0100310e 6e                               outsb  %ds:(%esi),(%dx)
                           .text:0100310f 69 74 74 65 72 6d 00 01          imul   $0x1006d72,0x65(%esp,%esi,2),%esi
                           .text:01003117 01 5f 61                         add    %ebx,0x61(%edi)
                           .text:0100311a 6d                               insl   (%dx),%es:(%edi)
                           .text:0100311b 73 67                            jae    0x01003184
                           .text:0100311d 5f                               pop    %edi
                           .text:0100311e 65 78 69                         gs js  0x0100318a
                           .text:01003121 74 00                            je     0x01003123
                           .text:01003123 00 d4                            add    %dl,%ah
                           .text:01003125 00 5f 5f                         add    %bl,0x5f(%edi)
                           .text:01003128 73 65                            jae    0x0100318f
                           .text:0100312a 74 75                            je     0x010031a1
                           .text:0100312c 73 65                            jae    0x01003193
                           .text:0100312e 72 6d                            jb     0x0100319d
                           .text:01003130 61                               popa   
                           .text:01003131 74 68                            je     0x0100319b
                           .text:01003133 65 72 72                         gs jb  0x010031a8
                           .text:01003136 00 00                            add    %al,(%eax)
                           .text:01003138 b9 00 5f 5f 70                   mov    $0x705f5f00,%ecx
                           .text:0100313d 5f                               pop    %edi
                           .text:0100313e 5f                               pop    %edi
                           .text:0100313f 63 6f 6d                         arpl   %bp,0x6d(%edi)
                           .text:01003142 6d                               insl   (%dx),%es:(%edi)
                           .text:01003143 6f                               outsl  %ds:(%esi),(%dx)
                           .text:01003144 64 65 00 00                      fs add %al,%gs:(%eax)
                           .text:01003148 be 00 5f 5f 70                   mov    $0x705f5f00,%esi
                           .text:0100314d 5f                               pop    %edi
                           .text:0100314e 5f                               pop    %edi
                           .text:0100314f 66 6d                            insw   (%dx),%es:(%edi)
                           .text:01003151 6f                               outsl  %ds:(%esi),(%dx)
                           .text:01003152 64 65 00 00                      fs add %al,%gs:(%eax)
                           .text:01003156 d2 00                            rolb   %cl,(%eax)
                           .text:01003158 5f                               pop    %edi
                           .text:01003159 5f                               pop    %edi
                           .text:0100315a 73 65                            jae    0x010031c1
                           .text:0100315c 74 5f                            je     0x010031bd
                           .text:0100315e 61                               popa   
                           .text:0100315f 70 70                            jo     0x010031d1
                           .text:01003161 5f                               pop    %edi
                           .text:01003162 74 79                            je     0x010031dd
                           .text:01003164 70 65                            jo     0x010031cb
                           .text:01003166 00 00                            add    %al,(%eax)
                           .text:01003168 6d                               insl   (%dx),%es:(%edi)
                           .text:01003169 73 76                            jae    0x010031e1
                           .text:0100316b 63 72 74                         arpl   %si,0x74(%edx)
                           .text:0100316e 2e 64 6c                         cs fs insb (%dx),%es:(%edi)
                           .text:01003171 6c                               insb   (%dx),%es:(%edi)
                           .text:01003172 00 00                            add    %al,(%eax)
                           .text:01003174 37                               aaa    
                           .text:01003175 00 3f                            add    %bh,(%edi)
                           .text:01003177 74 65                            je     0x010031de
                           .text:01003179 72 6d                            jb     0x010031e8
                           .text:0100317b 69 6e 61 74 65 40 40             imul   $0x40406574,0x61(%esi),%ebp
                           .text:01003182 59                               pop    %ecx
                           .text:01003183 41                               inc    %ecx
                           .text:01003184 58                               pop    %eax
                           .text:01003185 58                               pop    %eax
                           .text:01003186 5a                               pop    %edx
                           .text:01003187 00 59 01                         add    %bl,0x1(%ecx)
                           .text:0100318a 5f                               pop    %edi
                           .text:0100318b 65 78 63                         gs js  0x010031f1
                           .text:0100318e 65 70 74                         gs jo  0x01003205
                           .text:01003191 5f                               pop    %edi
                           .text:01003192 68 61 6e 64 6c                   push   $0x6c646e61
                           .text:01003197 65 72 34                         gs jb  0x010031ce
                           .text:0100319a 5f                               pop    %edi
                           .text:0100319b 63 6f 6d                         arpl   %bp,0x6d(%edi)
                           .text:0100319e 6d                               insl   (%dx),%es:(%edi)
                           .text:0100319f 6f                               outsl  %ds:(%esi),(%dx)
                           .text:010031a0 6e                               outsb  %ds:(%esi),(%dx)
                           .text:010031a1 00 27                            add    %ah,(%edi)
                           .text:010031a3 01 5f 63                         add    %ebx,0x63(%edi)
                           .text:010031a6 6f                               outsl  %ds:(%esi),(%dx)
                           .text:010031a7 6e                               outsb  %ds:(%esi),(%dx)
                           .text:010031a8 74 72                            je     0x0100321c
                           .text:010031aa 6f                               outsl  %ds:(%esi),(%dx)
                           .text:010031ab 6c                               insb   (%dx),%es:(%edi)
                           .text:010031ac 66 70 00                         data16 jo 0x010031af
                           .text:010031af 00 10                            add    %dl,(%eax)
                           .text:010031b1 00 43 6f                         add    %al,0x6f(%ebx)
                           .text:010031b4 43                               inc    %ebx
                           .text:010031b5 72 65                            jb     0x0100321c
                           .text:010031b7 61                               popa   
                           .text:010031b8 74 65                            je     0x0100321f
                           .text:010031ba 49                               dec    %ecx
                           .text:010031bb 6e                               outsb  %ds:(%esi),(%dx)
                           .text:010031bc 73 74                            jae    0x01003232
                           .text:010031be 61                               popa   
                           .text:010031bf 6e                               outsb  %ds:(%esi),(%dx)
                           .text:010031c0 63 65 00                         arpl   %sp,0x0(%ebp)
                           .text:010031c3 00 3f                            add    %bh,(%edi)
                           .text:010031c5 00 43 6f                         add    %al,0x6f(%ebx)
                           .text:010031c8 49                               dec    %ecx
                           .text:010031c9 6e                               outsb  %ds:(%esi),(%dx)
                           .text:010031ca 69 74 69 61 6c 69 7a 65          imul   $0x657a696c,0x61(%ecx,%ebp,2),%esi
                           .text:010031d2 45                               inc    %ebp
                           .text:010031d3 78 00                            js     0x010031d5
                           .text:010031d5 00 6c 00 43                      add    %ch,0x43(%eax,%eax,1)
                           .text:010031d9 6f                               outsl  %ds:(%esi),(%dx)
                           .text:010031da 55                               push   %ebp
                           .text:010031db 6e                               outsb  %ds:(%esi),(%dx)
                           .text:010031dc 69 6e 69 74 69 61 6c             imul   $0x6c616974,0x69(%esi),%ebp
                           .text:010031e3 69 7a 65 00 00 6f 6c             imul   $0x6c6f0000,0x65(%edx),%edi
                           .text:010031ea 65 33 32                         xor    %gs:(%edx),%esi
                           .text:010031ed 2e 64 6c                         cs fs insb (%dx),%es:(%edi)
                           .text:010031f0 6c                               insb   (%dx),%es:(%edi)
                           .text:010031f1 00 23                            add    %ah,(%ebx)
                           .text:010031f3 00 49 6d                         add    %cl,0x6d(%ecx)
                           .text:010031f6 6d                               insl   (%dx),%es:(%edi)
                           .text:010031f7 44                               inc    %esp
                           .text:010031f8 69 73 61 62 6c 65 49             imul   $0x49656c62,0x61(%ebx),%esi
                           .text:010031ff 4d                               dec    %ebp
                           .text:01003200 45                               inc    %ebp
                           .text:01003201 00 49 4d                         add    %cl,0x4d(%ecx)
                           .text:01003204 4d                               dec    %ebp
                           .text:01003205 33 32                            xor    (%edx),%esi
                           .text:01003207 2e 64 6c                         cs fs insb (%dx),%es:(%edi)
                           .text:0100320a 6c                               insb   (%dx),%es:(%edi)
                           .text:0100320b 00 8b 00 50 61 74                add    %cl,0x74615000(%ebx)
                           .text:01003211 68 52 65 6d 6f                   push   $0x6f6d6552
                           .text:01003216 76 65                            jbe    0x0100327d
                           .text:01003218 46                               inc    %esi
                           .text:01003219 69 6c 65 53 70 65 63 57          imul   $0x57636570,0x53(%ebp,%eiz,2),%ebp
                           .text:01003221 00 4e 01                         add    %cl,0x1(%esi)
                           .text:01003224 53                               push   %ebx
                           .text:01003225 74 72                            je     0x01003299
                           .text:01003227 54                               push   %esp
                           .text:01003228 6f                               outsl  %ds:(%esi),(%dx)
                           .text:01003229 49                               dec    %ecx
                           .text:0100322a 6e                               outsb  %ds:(%esi),(%dx)
                           .text:0100322b 74 57                            je     0x01003284
                           .text:0100322d 00 9f 00 50 61 74                add    %bl,0x74615000(%edi)
                           .text:01003233 68 55 6e 71 75                   push   $0x75716e55
                           .text:01003238 6f                               outsl  %ds:(%esi),(%dx)
                           .text:01003239 74 65                            je     0x010032a0
                           .text:0100323b 53                               push   %ebx
                           .text:0100323c 70 61                            jo     0x0100329f
                           .text:0100323e 63 65 73                         arpl   %sp,0x73(%ebp)
                           .text:01003241 57                               push   %edi
                           .text:01003242 00 00                            add    %al,(%eax)
                           .text:01003244 51                               push   %ecx
                           .text:01003245 00 50 61                         add    %dl,0x61(%eax)
                           .text:01003248 74 68                            je     0x010032b2
                           .text:0100324a 47                               inc    %edi
                           .text:0100324b 65 74 41                         gs je  0x0100328f
                           .text:0100324e 72 67                            jb     0x010032b7
                           .text:01003250 73 57                            jae    0x010032a9
                           .text:01003252 00 00                            add    %al,(%eax)
                           .text:01003254 45                               inc    %ebp
                           .text:01003255 00 50 61                         add    %dl,0x61(%eax)
                           .text:01003258 74 68                            je     0x010032c2
                           .text:0100325a 46                               inc    %esi
                           .text:0100325b 69 6c 65 45 78 69 73 74          imul   $0x74736978,0x45(%ebp,%eiz,2),%ebp
                           .text:01003263 73 57                            jae    0x010032bc
                           .text:01003265 00 34 00                         add    %dh,(%eax,%eax,1)
                           .text:01003268 50                               push   %eax
                           .text:01003269 61                               popa   
                           .text:0100326a 74 68                            je     0x010032d4
                           .text:0100326c 41                               inc    %ecx
                           .text:0100326d 70 70                            jo     0x010032df
                           .text:0100326f 65 6e                            outsb  %gs:(%esi),(%dx)
                           .text:01003271 64 57                            fs push %edi
                           .text:01003273 00 71 00                         add    %dh,0x0(%ecx)
                           .text:01003276 50                               push   %eax
                           .text:01003277 61                               popa   
                           .text:01003278 74 68                            je     0x010032e2
                           .text:0100327a 49                               dec    %ecx
                           .text:0100327b 73 55                            jae    0x010032d2
                           .text:0100327d 4e                               dec    %esi
                           .text:0100327e 43                               inc    %ebx
                           .text:0100327f 57                               push   %edi
                           .text:01003280 00 00                            add    %al,(%eax)
                           .text:01003282 55                               push   %ebp
                           .text:01003283 00 50 61                         add    %dl,0x61(%eax)
                           .text:01003286 74 68                            je     0x010032f0
                           .text:01003288 47                               inc    %edi
                           .text:01003289 65 74 44                         gs je  0x010032d0
                           .text:0100328c 72 69                            jb     0x010032f7
                           .text:0100328e 76 65                            jbe    0x010032f5
                           .text:01003290 4e                               dec    %esi
                           .text:01003291 75 6d                            jne    0x01003300
                           .text:01003293 62 65 72                         bound  %esp,0x72(%ebp)
                           .text:01003296 57                               push   %edi
                           .text:01003297 00 49 00                         add    %cl,0x0(%ecx)
                           .text:0100329a 50                               push   %eax
                           .text:0100329b 61                               popa   
                           .text:0100329c 74 68                            je     0x01003306
                           .text:0100329e 46                               inc    %esi
                           .text:0100329f 69 6e 64 46 69 6c 65             imul   $0x656c6946,0x64(%esi),%ebp
                           .text:010032a6 4e                               dec    %esi
                           .text:010032a7 61                               popa   
                           .text:010032a8 6d                               insl   (%dx),%es:(%edi)
                           .text:010032a9 65 57                            gs push %edi
                           .text:010032ab 00 53 48                         add    %dl,0x48(%ebx)
                           .text:010032ae 4c                               dec    %esp
                           .text:010032af 57                               push   %edi
                           .text:010032b0 41                               inc    %ecx
                           .text:010032b1 50                               push   %eax
                           .text:010032b2 49                               dec    %ecx
                           .text:010032b3 2e 64 6c                         cs fs insb (%dx),%es:(%edi)
                           .text:010032b6 6c                               insb   (%dx),%es:(%edi)
                           .text:010032b7 00 43 4f                         add    %al,0x4f(%ebx)
                           .text:010032ba 4d                               dec    %ebp
                           .text:010032bb 43                               inc    %ebx
                           .text:010032bc 54                               push   %esp
                           .text:010032bd 4c                               dec    %esp
                           .text:010032be 33 32                            xor    (%edx),%esi
                           .text:010032c0 2e 64 6c                         cs fs insb (%dx),%es:(%edi)
                           .text:010032c3 6c                               insb   (%dx),%es:(%edi)
                           .text:010032c4 00 00                            add    %al,(%eax)
                           .text:010032c6 70 00                            jo     0x010032c8
                           .text:010032c8 53                               push   %ebx
                           .text:010032c9 48                               dec    %eax
                           .text:010032ca 41                               inc    %ecx
                           .text:010032cb 64 64 54                         fs fs push %esp
                           .text:010032ce 6f                               outsl  %ds:(%esi),(%dx)
                           .text:010032cf 52                               push   %edx
                           .text:010032d0 65 63 65 6e                      arpl   %sp,%gs:0x6e(%ebp)
                           .text:010032d4 74 44                            je     0x0100331a
                           .text:010032d6 6f                               outsl  %ds:(%esi),(%dx)
                           .text:010032d7 63 73 00                         arpl   %si,0x0(%ebx)
                           .text:010032da c2 00 53                         ret    $0x5300
                           .text:010032dd 48                               dec    %eax
                           .text:010032de 47                               inc    %edi
                           .text:010032df 65 74 46                         gs je  0x01003328
                           .text:010032e2 6f                               outsl  %ds:(%esi),(%dx)
                           .text:010032e3 6c                               insb   (%dx),%es:(%edi)
                           .text:010032e4 64 65 72 50                      fs gs jb 0x01003338
                           .text:010032e8 61                               popa   
                           .text:010032e9 74 68                            je     0x01003353
                           .text:010032eb 45                               inc    %ebp
                           .text:010032ec 78 00                            js     0x010032ee
                           .text:010032ee 7f 00                            jg     0x010032f0
                           .text:010032f0 53                               push   %ebx
                           .text:010032f1 48                               dec    %eax
                           .text:010032f2 43                               inc    %ebx
                           .text:010032f3 68 61 6e 67 65                   push   $0x65676e61
                           .text:010032f8 4e                               dec    %esi
                           .text:010032f9 6f                               outsl  %ds:(%esi),(%dx)
                           .text:010032fa 74 69                            je     0x01003365
                           .text:010032fc 66 79 00                         data16 jns 0x010032ff
                           .text:010032ff 00 53 48                         add    %dl,0x48(%ebx)
                           .text:01003302 45                               inc    %ebp
                           .text:01003303 4c                               dec    %esp
                           .text:01003304 4c                               dec    %esp
                           .text:01003305 33 32                            xor    (%edx),%esi
                           .text:01003307 2e 64 6c                         cs fs insb (%dx),%es:(%edi)
                           .text:0100330a 6c                               insb   (%dx),%es:(%edi)
                           .text:0100330b 00 ec                            add    %ch,%ah
                           .text:0100330d 02 49 6e                         add    0x6e(%ecx),%cl
                           .text:01003310 74 65                            je     0x01003377
                           .text:01003312 72 6c                            jb     0x01003380
                           .text:01003314 6f                               outsl  %ds:(%esi),(%dx)
                           .text:01003315 63 6b 65                         arpl   %bp,0x65(%ebx)
                           .text:01003318 64 45                            fs inc %ebp
                           .text:0100331a 78 63                            js     0x0100337f
                           .text:0100331c 68 61 6e 67 65                   push   $0x65676e61
                           .text:01003321 00 b2 04 53 6c 65                add    %dh,0x656c5304(%edx)
                           .text:01003327 65 70 00                         gs jo  0x0100332a
                           .text:0100332a e9 02 49 6e 74                   jmp    0x756e7c31
                           .text:0100332f 65 72 6c                         gs jb  0x0100339e
                           .text:01003332 6f                               outsl  %ds:(%esi),(%dx)
                           .text:01003333 63 6b 65                         arpl   %bp,0x65(%ebx)
                           .text:01003336 64 43                            fs inc %ebx
                           .text:01003338 6f                               outsl  %ds:(%esi),(%dx)
                           .text:01003339 6d                               insl   (%dx),%es:(%edi)
                           .text:0100333a 70 61                            jo     0x0100339d
                           .text:0100333c 72 65                            jb     0x010033a3
                           .text:0100333e 45                               inc    %ebp
                           .text:0100333f 78 63                            js     0x010033a4
                           .text:01003341 68 61 6e 67 65                   push   $0x65676e61
                           .text:01003346 00 00                            add    %al,(%eax)
                           .text:01003348 62 02                            bound  %eax,(%edx)
                           .text:0100334a 47                               inc    %edi
                           .text:0100334b 65 74 53                         gs je  0x010033a1
                           .text:0100334e 74 61                            je     0x010033b1
                           .text:01003350 72 74                            jb     0x010033c6
                           .text:01003352 75 70                            jne    0x010033c4
                           .text:01003354 49                               dec    %ecx
                           .text:01003355 6e                               outsb  %ds:(%esi),(%dx)
                           .text:01003356 66 6f                            outsw  %ds:(%esi),(%dx)
                           .text:01003358 41                               inc    %ecx
                           .text:01003359 00 a5 04 53 65 74                add    %ah,0x74655304(%ebp)
                           .text:0100335f 55                               push   %ebp
                           .text:01003360 6e                               outsb  %ds:(%esi),(%dx)
                           .text:01003361 68 61 6e 64 6c                   push   $0x6c646e61
                           .text:01003366 65 64 45                         gs fs inc %ebp
                           .text:01003369 78 63                            js     0x010033ce
                           .text:0100336b 65 70 74                         gs jo  0x010033e2
                           .text:0100336e 69 6f 6e 46 69 6c 74             imul   $0x746c6946,0x6e(%edi),%ebp
                           .text:01003375 65 72 00                         gs jb  0x01003378
                           .text:01003378 15 02 47 65 74                   adc    $0x74654702,%eax
                           .text:0100337d 4d                               dec    %ebp
                           .text:0100337e 6f                               outsl  %ds:(%esi),(%dx)
                           .text:0100337f 64 75 6c                         fs jne 0x010033ee
                           .text:01003382 65 48                            gs dec %eax
                           .text:01003384 61                               popa   
                           .text:01003385 6e                               outsb  %ds:(%esi),(%dx)
                           .text:01003386 64 6c                            fs insb (%dx),%es:(%edi)
                           .text:01003388 65 41                            gs inc %ecx
                           .text:0100338a 00 00                            add    %al,(%eax)
                           .text:0100338c a7                               cmpsl  %es:(%edi),%ds:(%esi)
                           .text:0100338d 03 51 75                         add    0x75(%ecx),%edx
                           .text:01003390 65 72 79                         gs jb  0x0100340c
                           .text:01003393 50                               push   %eax
                           .text:01003394 65 72 66                         gs jb  0x010033fd
                           .text:01003397 6f                               outsl  %ds:(%esi),(%dx)
                           .text:01003398 72 6d                            jb     0x01003407
                           .text:0100339a 61                               popa   
                           .text:0100339b 6e                               outsb  %ds:(%esi),(%dx)
                           .text:0100339c 63 65 43                         arpl   %sp,0x43(%ebp)
                           .text:0100339f 6f                               outsl  %ds:(%esi),(%dx)
                           .text:010033a0 75 6e                            jne    0x01003410
                           .text:010033a2 74 65                            je     0x01003409
                           .text:010033a4 72 00                            jb     0x010033a6
                           .text:010033a6 93                               xchg   %eax,%ebx
                           .text:010033a7 02 47 65                         add    0x65(%edi),%al
                           .text:010033aa 74 54                            je     0x01003400
                           .text:010033ac 69 63 6b 43 6f 75 6e             imul   $0x6e756f43,0x6b(%ebx),%esp
                           .text:010033b3 74 00                            je     0x010033b5
                           .text:010033b5 00 c5                            add    %al,%ch
                           .text:010033b7 01 47 65                         add    %eax,0x65(%edi)
                           .text:010033ba 74 43                            je     0x010033ff
                           .text:010033bc 75 72                            jne    0x01003430
                           .text:010033be 72 65                            jb     0x01003425
                           .text:010033c0 6e                               outsb  %ds:(%esi),(%dx)
                           .text:010033c1 74 54                            je     0x01003417
                           .text:010033c3 68 72 65 61 64                   push   $0x64616572
                           .text:010033c8 49                               dec    %ecx
                           .text:010033c9 64 00 00                         add    %al,%fs:(%eax)
                           .text:010033cc c1 01 47                         roll   $0x47,(%ecx)
                           .text:010033cf 65 74 43                         gs je  0x01003415
                           .text:010033d2 75 72                            jne    0x01003446
                           .text:010033d4 72 65                            jb     0x0100343b
                           .text:010033d6 6e                               outsb  %ds:(%esi),(%dx)
                           .text:010033d7 74 50                            je     0x01003429
                           .text:010033d9 72 6f                            jb     0x0100344a
                           .text:010033db 63 65 73                         arpl   %sp,0x73(%ebp)
                           .text:010033de 73 49                            jae    0x01003429
                           .text:010033e0 64 00 79 02                      add    %bh,%fs:0x2(%ecx)
                           .text:010033e4 47                               inc    %edi
                           .text:010033e5 65 74 53                         gs je  0x0100343b
                           .text:010033e8 79 73                            jns    0x0100345d
                           .text:010033ea 74 65                            je     0x01003451
                           .text:010033ec 6d                               insl   (%dx),%es:(%edi)
                           .text:010033ed 54                               push   %esp
                           .text:010033ee 69 6d 65 41 73 46 69             imul   $0x69467341,0x65(%ebp),%ebp
                           .text:010033f5 6c                               insb   (%dx),%es:(%edi)
                           .text:010033f6 65 54                            gs push %esp
                           .text:010033f8 69 6d 65 00 c0 04 54             imul   $0x5404c000,0x65(%ebp),%ebp
                           .text:010033ff 65 72 6d                         gs jb  0x0100346f
                           .text:01003402 69 6e 61 74 65 50 72             imul   $0x72506574,0x61(%esi),%ebp
                           .text:01003409 6f                               outsl  %ds:(%esi),(%dx)
                           .text:0100340a 63 65 73                         arpl   %sp,0x73(%ebp)
                           .text:0100340d 73 00                            jae    0x0100340f
                           .text:0100340f 00 c0                            add    %al,%al
                           .text:01003411 01 47 65                         add    %eax,0x65(%edi)
                           .text:01003414 74 43                            je     0x01003459
                           .text:01003416 75 72                            jne    0x0100348a
                           .text:01003418 72 65                            jb     0x0100347f
                           .text:0100341a 6e                               outsb  %ds:(%esi),(%dx)
                           .text:0100341b 74 50                            je     0x0100346d
                           .text:0100341d 72 6f                            jb     0x0100348e
                           .text:0100341f 63 65 73                         arpl   %sp,0x73(%ebp)
                           .text:01003422 73 00                            jae    0x01003424
                           .text:01003424 d3 04 55 6e 68 61 6e             roll   %cl,0x6e61686e(,%edx,2)
                           .text:0100342b 64 6c                            fs insb (%dx),%es:(%edi)
                           .text:0100342d 65 64 45                         gs fs inc %ebp
                           .text:01003430 78 63                            js     0x01003495
                           .text:01003432 65 70 74                         gs jo  0x010034a9
                           .text:01003435 69 6f 6e 46 69 6c 74             imul   $0x746c6946,0x6e(%edi),%ebp
                           .text:0100343c 65 72 00                         gs jb  0x0100343f
                           .text:0100343f 00                               .byte 0x0
                           .data:01004000 4e                               0x4e 'N'
                           .data:01004001 e6                               0xe6 
                           .data:01004002 40                               0x40 '@'
                           .data:01004003 bb                               0xbb 
                           .data:01004004 b1                               0xb1 
                           .data:01004005 19                               0x19 
                           .data:01004006 bf                               0xbf 
                           .data:01004007 44                               0x44 'D'
                           .data:01004008 00                               0x00 
                           .data:01004009 00                               0x00 
                           .data:0100400a 00                               0x00 
                           .data:0100400b 00                               0x00 
                           .data:0100400c 00                               0x00 
                           .data:0100400d 00                               0x00 
                           .data:0100400e 00                               0x00 
                           .data:0100400f 00                               0x00 
                           .data:01004010 ff                               0xff 
                           .data:01004011 ff                               0xff 
                           .data:01004012 ff                               0xff 
                           .data:01004013 ff                               0xff 
                           .data:01004014 ff                               0xff 
                           .data:01004015 ff                               0xff 
                           .data:01004016 ff                               0xff 
                           .data:01004017 ff                               0xff 
                           .data:01004018 01                               0x01 
                           .data:01004019 00                               0x00 
                           .data:0100401a 00                               0x00 
                           .data:0100401b 00                               0x00 
                           .data:0100401c 00                               0x00 
                           .data:0100401d 00                               0x00 
                           .data:0100401e 00                               0x00 
                           .data:0100401f 00                               0x00 
                           .data:01004020 00                               0x00 
                           .data:01004021 00                               0x00 
                           .data:01004022 00                               0x00 
                           .data:01004023 00                               0x00 
                           .data:01004024 00                               0x00 
                           .data:01004025 00                               0x00 
                           .data:01004026 00                               0x00 
                           .data:01004027 00                               0x00 
                           .data:01004028 00                               0x00 
                           .data:01004029 00                               0x00 
                           .data:0100402a 00                               0x00 
                           .data:0100402b 00                               0x00 
                           .data:0100402c 00                               0x00 
                           .data:0100402d 00                               0x00 
                           .data:0100402e 00                               0x00 
                           .data:0100402f 00                               0x00 
                           .data:01004030 00                               0x00 
                           .data:01004031 00                               0x00 
                           .data:01004032 00                               0x00 
                           .data:01004033 00                               0x00 
                           .data:01004034 00                               0x00 
                           .data:01004035 00                               0x00 
                           .data:01004036 00                               0x00 
                           .data:01004037 00                               0x00 
                           .data:01004038 00                               0x00 
                           .data:01004039 00                               0x00 
                           .data:0100403a 00                               0x00 
                           .data:0100403b 00                               0x00 
                           .data:0100403c 00                               0x00 
                           .data:0100403d 00                               0x00 
                           .data:0100403e 00                               0x00 
                           .data:0100403f 00                               0x00 
                           .data:01004040 00                               0x00 
                           .data:01004041 00                               0x00 
                           .data:01004042 00                               0x00 
                           .data:01004043 00                               0x00 
                           .data:01004044 00                               0x00 
                           .data:01004045 00                               0x00 
                           .data:01004046 00                               0x00 
                           .data:01004047 00                               0x00 
                           .data:01004048 00                               0x00 
                           .data:01004049 00                               0x00 
                           .data:0100404a 00                               0x00 
                           .data:0100404b 00                               0x00 
                           .data:0100404c 00                               0x00 
                           .data:0100404d 00                               0x00 
                           .data:0100404e 00                               0x00 
                           .data:0100404f 00                               0x00 
                           .data:01004050 00                               0x00 
                           .data:01004051 00                               0x00 
                           .data:01004052 00                               0x00 
                           .data:01004053 00                               0x00 
                           .data:01004054 00                               0x00 
                           .data:01004055 00                               0x00 
                           .data:01004056 00                               0x00 
                           .data:01004057 00                               0x00 
                           .data:01004058 00                               0x00 
                           .data:01004059 00                               0x00 
                           .data:0100405a 00                               0x00 
                           .data:0100405b 00                               0x00 
                           .data:0100405c 00                               0x00 
                           .data:0100405d 00                               0x00 
                           .data:0100405e 00                               0x00 
                           .data:0100405f 00                               0x00 
                           .data:01004060 00                               0x00 
                           .data:01004061 00                               0x00 
                           .data:01004062 00                               0x00 
                           .data:01004063 00                               0x00 
                           .data:01004064 00                               0x00 
                           .data:01004065 00                               0x00 
                           .data:01004066 00                               0x00 
                           .data:01004067 00                               0x00 
                           .data:01004068 00                               0x00 
                           .data:01004069 00                               0x00 
                           .data:0100406a 00                               0x00 
                           .data:0100406b 00                               0x00 
                           .data:0100406c 00                               0x00 
                           .data:0100406d 00                               0x00 
                           .data:0100406e 00                               0x00 
                           .data:0100406f 00                               0x00 
                           .data:01004070 00                               0x00 
                           .data:01004071 00                               0x00 
                           .data:01004072 00                               0x00 
                           .data:01004073 00                               0x00 
                           .data:01004074 00                               0x00 
                           .data:01004075 00                               0x00 
                           .data:01004076 00                               0x00 
                           .data:01004077 00                               0x00 
                           .data:01004078 00                               0x00 
                           .data:01004079 00                               0x00 
                           .data:0100407a 00                               0x00 
                           .data:0100407b 00                               0x00 
                           .data:0100407c 00                               0x00 
                           .data:0100407d 00                               0x00 
                           .data:0100407e 00                               0x00 
                           .data:0100407f 00                               0x00 
                           .data:01004080 00                               0x00 
                           .data:01004081 00                               0x00 
                           .data:01004082 00                               0x00 
                           .data:01004083 00                               0x00 
                           .data:01004084 00                               0x00 
                           .data:01004085 00                               0x00 
                           .data:01004086 00                               0x00 
                           .data:01004087 00                               0x00 
                           .data:01004088 00                               0x00 
                           .data:01004089 00                               0x00 
                           .data:0100408a 00                               0x00 
                           .data:0100408b 00                               0x00 
                           .data:0100408c 00                               0x00 
                           .data:0100408d 00                               0x00 
                           .data:0100408e 00                               0x00 
                           .data:0100408f 00                               0x00 
                           .data:01004090 00                               0x00 
                           .data:01004091 00                               0x00 
                           .data:01004092 00                               0x00 
                           .data:01004093 00                               0x00 
                           .data:01004094 00                               0x00 
                           .data:01004095 00                               0x00 
                           .data:01004096 00                               0x00 
                           .data:01004097 00                               0x00 
                           .data:01004098 00                               0x00 
                           .data:01004099 00                               0x00 
                           .data:0100409a 00                               0x00 
                           .data:0100409b 00                               0x00 
                           .data:0100409c 00                               0x00 
                           .data:0100409d 00                               0x00 
                           .data:0100409e 00                               0x00 
                           .data:0100409f 00                               0x00 
                           .data:010040a0 00                               0x00 
                           .data:010040a1 00                               0x00 
                           .data:010040a2 00                               0x00 
                           .data:010040a3 00                               0x00 
                           .data:010040a4 00                               0x00 
                           .data:010040a5 00                               0x00 
                           .data:010040a6 00                               0x00 
                           .data:010040a7 00                               0x00 
                           .data:010040a8 00                               0x00 
                           .data:010040a9 00                               0x00 
                           .data:010040aa 00                               0x00 
                           .data:010040ab 00                               0x00 
                           .data:010040ac 00                               0x00 
                           .data:010040ad 00                               0x00 
                           .data:010040ae 00                               0x00 
                           .data:010040af 00                               0x00 
                           .data:010040b0 00                               0x00 
                           .data:010040b1 00                               0x00 
                           .data:010040b2 00                               0x00 
                           .data:010040b3 00                               0x00 
                           .data:010040b4 00                               0x00 
                           .data:010040b5 00                               0x00 
                           .data:010040b6 00                               0x00 
                           .data:010040b7 00                               0x00 
                           .data:010040b8 00                               0x00 
                           .data:010040b9 00                               0x00 
                           .data:010040ba 00                               0x00 
                           .data:010040bb 00                               0x00 
                           .data:010040bc 00                               0x00 
                           .data:010040bd 00                               0x00 
                           .data:010040be 00                               0x00 
                           .data:010040bf 00                               0x00 
                           .data:010040c0 00                               0x00 
                           .data:010040c1 00                               0x00 
                           .data:010040c2 00                               0x00 
                           .data:010040c3 00                               0x00 
                           .data:010040c4 00                               0x00 
                           .data:010040c5 00                               0x00 
                           .data:010040c6 00                               0x00 
                           .data:010040c7 00                               0x00 
                           .data:010040c8 00                               0x00 
                           .data:010040c9 00                               0x00 
                           .data:010040ca 00                               0x00 
                           .data:010040cb 00                               0x00 
                           .data:010040cc 00                               0x00 
                           .data:010040cd 00                               0x00 
                           .data:010040ce 00                               0x00 
                           .data:010040cf 00                               0x00 
                           .data:010040d0 00                               0x00 
                           .data:010040d1 00                               0x00 
                           .data:010040d2 00                               0x00 
                           .data:010040d3 00                               0x00 
                           .data:010040d4 00                               0x00 
                           .data:010040d5 00                               0x00 
                           .data:010040d6 00                               0x00 
                           .data:010040d7 00                               0x00 
                           .data:010040d8 00                               0x00 
                           .data:010040d9 00                               0x00 
                           .data:010040da 00                               0x00 
                           .data:010040db 00                               0x00 
                           .data:010040dc 00                               0x00 
                           .data:010040dd 00                               0x00 
                           .data:010040de 00                               0x00 
                           .data:010040df 00                               0x00 
                           .data:010040e0 00                               0x00 
                           .data:010040e1 00                               0x00 
                           .data:010040e2 00                               0x00 
                           .data:010040e3 00                               0x00 
                           .data:010040e4 00                               0x00 
                           .data:010040e5 00                               0x00 
                           .data:010040e6 00                               0x00 
                           .data:010040e7 00                               0x00 
                           .data:010040e8 00                               0x00 
                           .data:010040e9 00                               0x00 
                           .data:010040ea 00                               0x00 
                           .data:010040eb 00                               0x00 
                           .data:010040ec 00                               0x00 
                           .data:010040ed 00                               0x00 
                           .data:010040ee 00                               0x00 
                           .data:010040ef 00                               0x00 
                           .data:010040f0 00                               0x00 
                           .data:010040f1 00                               0x00 
                           .data:010040f2 00                               0x00 
                           .data:010040f3 00                               0x00 
                           .data:010040f4 00                               0x00 
                           .data:010040f5 00                               0x00 
                           .data:010040f6 00                               0x00 
                           .data:010040f7 00                               0x00 
                           .data:010040f8 00                               0x00 
                           .data:010040f9 00                               0x00 
                           .data:010040fa 00                               0x00 
                           .data:010040fb 00                               0x00 
                           .data:010040fc 00                               0x00 
                           .data:010040fd 00                               0x00 
                           .data:010040fe 00                               0x00 
                           .data:010040ff 00                               0x00 
                           .data:01004100 00                               0x00 
                           .data:01004101 00                               0x00 
                           .data:01004102 00                               0x00 
                           .data:01004103 00                               0x00 
                           .data:01004104 00                               0x00 
                           .data:01004105 00                               0x00 
                           .data:01004106 00                               0x00 
                           .data:01004107 00                               0x00 
                           .data:01004108 00                               0x00 
                           .data:01004109 00                               0x00 
                           .data:0100410a 00                               0x00 
                           .data:0100410b 00                               0x00 
                           .data:0100410c 00                               0x00 
                           .data:0100410d 00                               0x00 
                           .data:0100410e 00                               0x00 
                           .data:0100410f 00                               0x00 
                           .data:01004110 00                               0x00 
                           .data:01004111 00                               0x00 
                           .data:01004112 00                               0x00 
                           .data:01004113 00                               0x00 
                           .data:01004114 00                               0x00 
                           .data:01004115 00                               0x00 
                           .data:01004116 00                               0x00 
                           .data:01004117 00                               0x00 
                           .data:01004118 00                               0x00 
                           .data:01004119 00                               0x00 
                           .data:0100411a 00                               0x00 
                           .data:0100411b 00                               0x00 
                           .data:0100411c 00                               0x00 
                           .data:0100411d 00                               0x00 
                           .data:0100411e 00                               0x00 
                           .data:0100411f 00                               0x00 
                           .data:01004120 00                               0x00 
                           .data:01004121 00                               0x00 
                           .data:01004122 00                               0x00 
                           .data:01004123 00                               0x00 
                           .data:01004124 00                               0x00 
                           .data:01004125 00                               0x00 
                           .data:01004126 00                               0x00 
                           .data:01004127 00                               0x00 
                           .data:01004128 00                               0x00 
                           .data:01004129 00                               0x00 
                           .data:0100412a 00                               0x00 
                           .data:0100412b 00                               0x00 
                           .data:0100412c 00                               0x00 
                           .data:0100412d 00                               0x00 
                           .data:0100412e 00                               0x00 
                           .data:0100412f 00                               0x00 
                           .data:01004130 00                               0x00 
                           .data:01004131 00                               0x00 
                           .data:01004132 00                               0x00 
                           .data:01004133 00                               0x00 
                           .data:01004134 00                               0x00 
                           .data:01004135 00                               0x00 
                           .data:01004136 00                               0x00 
                           .data:01004137 00                               0x00 
                           .data:01004138 00                               0x00 
                           .data:01004139 00                               0x00 
                           .data:0100413a 00                               0x00 
                           .data:0100413b 00                               0x00 
                           .data:0100413c 00                               0x00 
                           .data:0100413d 00                               0x00 
                           .data:0100413e 00                               0x00 
                           .data:0100413f 00                               0x00 
                           .data:01004140 00                               0x00 
                           .data:01004141 00                               0x00 
                           .data:01004142 00                               0x00 
                           .data:01004143 00                               0x00 
                           .data:01004144 00                               0x00 
                           .data:01004145 00                               0x00 
                           .data:01004146 00                               0x00 
                           .data:01004147 00                               0x00 
                           .data:01004148 00                               0x00 
                           .data:01004149 00                               0x00 
                           .data:0100414a 00                               0x00 
                           .data:0100414b 00                               0x00 
                           .data:0100414c 00                               0x00 
                           .data:0100414d 00                               0x00 
                           .data:0100414e 00                               0x00 
                           .data:0100414f 00                               0x00 
                           .data:01004150 00                               0x00 
                           .data:01004151 00                               0x00 
                           .data:01004152 00                               0x00 
                           .data:01004153 00                               0x00 
                           .data:01004154 00                               0x00 
                           .data:01004155 00                               0x00 
                           .data:01004156 00                               0x00 
                           .data:01004157 00                               0x00 
                           .data:01004158 00                               0x00 
                           .data:01004159 00                               0x00 
                           .data:0100415a 00                               0x00 
                           .data:0100415b 00                               0x00 
                           .data:0100415c 00                               0x00 
                           .data:0100415d 00                               0x00 
                           .data:0100415e 00                               0x00 
                           .data:0100415f 00                               0x00 
                           .data:01004160 00                               0x00 
                           .data:01004161 00                               0x00 
                           .data:01004162 00                               0x00 
                           .data:01004163 00                               0x00 
                           .data:01004164 00                               0x00 
                           .data:01004165 00                               0x00 
                           .data:01004166 00                               0x00 
                           .data:01004167 00                               0x00 
                           .data:01004168 00                               0x00 
                           .data:01004169 00                               0x00 
                           .data:0100416a 00                               0x00 
                           .data:0100416b 00                               0x00 
                           .data:0100416c 00                               0x00 
                           .data:0100416d 00                               0x00 
                           .data:0100416e 00                               0x00 
                           .data:0100416f 00                               0x00 
                           .data:01004170 00                               0x00 
                           .data:01004171 00                               0x00 
                           .data:01004172 00                               0x00 
                           .data:01004173 00                               0x00 
                           .data:01004174 00                               0x00 
                           .data:01004175 00                               0x00 
                           .data:01004176 00                               0x00 
                           .data:01004177 00                               0x00 
                           .data:01004178 00                               0x00 
                           .data:01004179 00                               0x00 
                           .data:0100417a 00                               0x00 
                           .data:0100417b 00                               0x00 
                           .data:0100417c 00                               0x00 
                           .data:0100417d 00                               0x00 
                           .data:0100417e 00                               0x00 
                           .data:0100417f 00                               0x00 
                           .data:01004180 00                               0x00 
                           .data:01004181 00                               0x00 
                           .data:01004182 00                               0x00 
                           .data:01004183 00                               0x00 
                           .data:01004184 00                               0x00 
                           .data:01004185 00                               0x00 
                           .data:01004186 00                               0x00 
                           .data:01004187 00                               0x00 
                           .data:01004188 00                               0x00 
                           .data:01004189 00                               0x00 
                           .data:0100418a 00                               0x00 
                           .data:0100418b 00                               0x00 
                           .data:0100418c 00                               0x00 
                           .data:0100418d 00                               0x00 
                           .data:0100418e 00                               0x00 
                           .data:0100418f 00                               0x00 
                           .data:01004190 00                               0x00 
                           .data:01004191 00                               0x00 
                           .data:01004192 00                               0x00 
                           .data:01004193 00                               0x00 
                           .data:01004194 00                               0x00 
                           .data:01004195 00                               0x00 
                           .data:01004196 00                               0x00 
                           .data:01004197 00                               0x00 
                           .data:01004198 00                               0x00 
                           .data:01004199 00                               0x00 
                           .data:0100419a 00                               0x00 
                           .data:0100419b 00                               0x00 
                           .data:0100419c 00                               0x00 
                           .data:0100419d 00                               0x00 
                           .data:0100419e 00                               0x00 
                           .data:0100419f 00                               0x00 
                           .data:010041a0 00                               0x00 
                           .data:010041a1 00                               0x00 
                           .data:010041a2 00                               0x00 
                           .data:010041a3 00                               0x00 
                           .data:010041a4 00                               0x00 
                           .data:010041a5 00                               0x00 
                           .data:010041a6 00                               0x00 
                           .data:010041a7 00                               0x00 
                           .data:010041a8 00                               0x00 
                           .data:010041a9 00                               0x00 
                           .data:010041aa 00                               0x00 
                           .data:010041ab 00                               0x00 
                           .data:010041ac 00                               0x00 
                           .data:010041ad 00                               0x00 
                           .data:010041ae 00                               0x00 
                           .data:010041af 00                               0x00 
                           .data:010041b0 00                               0x00 
                           .data:010041b1 00                               0x00 
                           .data:010041b2 00                               0x00 
                           .data:010041b3 00                               0x00 
                           .data:010041b4 00                               0x00 
                           .data:010041b5 00                               0x00 
                           .data:010041b6 00                               0x00 
                           .data:010041b7 00                               0x00 
                           .data:010041b8 00                               0x00 
                           .data:010041b9 00                               0x00 
                           .data:010041ba 00                               0x00 
                           .data:010041bb 00                               0x00 
                           .data:010041bc 00                               0x00 
                           .data:010041bd 00                               0x00 
                           .data:010041be 00                               0x00 
                           .data:010041bf 00                               0x00 
                           .data:010041c0 00                               0x00 
                           .data:010041c1 00                               0x00 
                           .data:010041c2 00                               0x00 
                           .data:010041c3 00                               0x00 
                           .data:010041c4 00                               0x00 
                           .data:010041c5 00                               0x00 
                           .data:010041c6 00                               0x00 
                           .data:010041c7 00                               0x00 
                           .data:010041c8 00                               0x00 
                           .data:010041c9 00                               0x00 
                           .data:010041ca 00                               0x00 
                           .data:010041cb 00                               0x00 
                           .data:010041cc 00                               0x00 
                           .data:010041cd 00                               0x00 
                           .data:010041ce 00                               0x00 
                           .data:010041cf 00                               0x00 
                           .data:010041d0 00                               0x00 
                           .data:010041d1 00                               0x00 
                           .data:010041d2 00                               0x00 
                           .data:010041d3 00                               0x00 
                           .data:010041d4 00                               0x00 
                           .data:010041d5 00                               0x00 
                           .data:010041d6 00                               0x00 
                           .data:010041d7 00                               0x00 
                           .data:010041d8 00                               0x00 
                           .data:010041d9 00                               0x00 
                           .data:010041da 00                               0x00 
                           .data:010041db 00                               0x00 
                           .data:010041dc 00                               0x00 
                           .data:010041dd 00                               0x00 
                           .data:010041de 00                               0x00 
                           .data:010041df 00                               0x00 
                           .data:010041e0 00                               0x00 
                           .data:010041e1 00                               0x00 
                           .data:010041e2 00                               0x00 
                           .data:010041e3 00                               0x00 
                           .data:010041e4 00                               0x00 
                           .data:010041e5 00                               0x00 
                           .data:010041e6 00                               0x00 
                           .data:010041e7 00                               0x00 
                           .data:010041e8 00                               0x00 
                           .data:010041e9 00                               0x00 
                           .data:010041ea 00                               0x00 
                           .data:010041eb 00                               0x00 
                           .data:010041ec 00                               0x00 
                           .data:010041ed 00                               0x00 
                           .data:010041ee 00                               0x00 
                           .data:010041ef 00                               0x00 
                           .data:010041f0 00                               0x00 
                           .data:010041f1 00                               0x00 
                           .data:010041f2 00                               0x00 
                           .data:010041f3 00                               0x00 
                           .data:010041f4 00                               0x00 
                           .data:010041f5 00                               0x00 
                           .data:010041f6 00                               0x00 
                           .data:010041f7 00                               0x00 
                           .data:010041f8 00                               0x00 
                           .data:010041f9 00                               0x00 
                           .data:010041fa 00                               0x00 
                           .data:010041fb 00                               0x00 
                           .data:010041fc 00                               0x00 
                           .data:010041fd 00                               0x00 
                           .data:010041fe 00                               0x00 
                           .data:010041ff 00                               0x00 
                           .rsrc:01005000 00                               0x00 
                           .rsrc:01005001 00                               0x00 
                           .rsrc:01005002 00                               0x00 
                           .rsrc:01005003 00                               0x00 
                           .rsrc:01005004 00                               0x00 
                           .rsrc:01005005 00                               0x00 
                           .rsrc:01005006 00                               0x00 
                           .rsrc:01005007 00                               0x00 
                           .rsrc:01005008 00                               0x00 
                           .rsrc:01005009 00                               0x00 
                           .rsrc:0100500a 00                               0x00 
                           .rsrc:0100500b 00                               0x00 
                           .rsrc:0100500c 01                               0x01 
                           .rsrc:0100500d 00                               0x00 
                           .rsrc:0100500e 04                               0x04 
                           .rsrc:0100500f 00                               0x00 
                           .rsrc:01005010 a8                               0xa8 
                           .rsrc:01005011 01                               0x01 
                           .rsrc:01005012 00                               0x00 
                           .rsrc:01005013 80                               0x80 
                           .rsrc:01005014 38                               0x38 '8'
                           .rsrc:01005015 00                               0x00 
                           .rsrc:01005016 00                               0x00 
                           .rsrc:01005017 80                               0x80 
                           .rsrc:01005018 03                               0x03 
                           .rsrc:01005019 00                               0x00 
                           .rsrc:0100501a 00                               0x00 
                           .rsrc:0100501b 00                               0x00 
                           .rsrc:0100501c 50                               0x50 'P'
                           .rsrc:0100501d 00                               0x00 
                           .rsrc:0100501e 00                               0x00 
                           .rsrc:0100501f 80                               0x80 
                           .rsrc:01005020 0e                               0x0e 
                           .rsrc:01005021 00                               0x00 
                           .rsrc:01005022 00                               0x00 
                           .rsrc:01005023 00                               0x00 
                           .rsrc:01005024 70                               0x70 'p'
                           .rsrc:01005025 00                               0x00 
                           .rsrc:01005026 00                               0x00 
                           .rsrc:01005027 80                               0x80 
                           .rsrc:01005028 10                               0x10 
                           .rsrc:01005029 00                               0x00 
                           .rsrc:0100502a 00                               0x00 
                           .rsrc:0100502b 00                               0x00 
                           .rsrc:0100502c 88                               0x88 
                           .rsrc:0100502d 00                               0x00 
                           .rsrc:0100502e 00                               0x00 
                           .rsrc:0100502f 80                               0x80 
                           .rsrc:01005030 18                               0x18 
                           .rsrc:01005031 00                               0x00 
                           .rsrc:01005032 00                               0x00 
                           .rsrc:01005033 00                               0x00 
                           .rsrc:01005034 a0                               0xa0 
                           .rsrc:01005035 00                               0x00 
                           .rsrc:01005036 00                               0x00 
                           .rsrc:01005037 80                               0x80 
                           .rsrc:01005038 00                               0x00 
                           .rsrc:01005039 00                               0x00 
                           .rsrc:0100503a 00                               0x00 
                           .rsrc:0100503b 00                               0x00 
                           .rsrc:0100503c 00                               0x00 
                           .rsrc:0100503d 00                               0x00 
                           .rsrc:0100503e 00                               0x00 
                           .rsrc:0100503f 00                               0x00 
                           .rsrc:01005040 00                               0x00 
                           .rsrc:01005041 00                               0x00 
                           .rsrc:01005042 00                               0x00 
                           .rsrc:01005043 00                               0x00 
                           .rsrc:01005044 00                               0x00 
                           .rsrc:01005045 00                               0x00 
                           .rsrc:01005046 01                               0x01 
                           .rsrc:01005047 00                               0x00 
                           .rsrc:01005048 01                               0x01 
                           .rsrc:01005049 00                               0x00 
                           .rsrc:0100504a 00                               0x00 
                           .rsrc:0100504b 00                               0x00 
                           .rsrc:0100504c b8                               0xb8 
                           .rsrc:0100504d 00                               0x00 
                           .rsrc:0100504e 00                               0x00 
                           .rsrc:0100504f 80                               0x80 
                           .rsrc:01005050 00                               0x00 
                           .rsrc:01005051 00                               0x00 
                           .rsrc:01005052 00                               0x00 
                           .rsrc:01005053 00                               0x00 
                           .rsrc:01005054 00                               0x00 
                           .rsrc:01005055 00                               0x00 
                           .rsrc:01005056 00                               0x00 
                           .rsrc:01005057 00                               0x00 
                           .rsrc:01005058 00                               0x00 
                           .rsrc:01005059 00                               0x00 
                           .rsrc:0100505a 00                               0x00 
                           .rsrc:0100505b 00                               0x00 
                           .rsrc:0100505c 00                               0x00 
                           .rsrc:0100505d 00                               0x00 
                           .rsrc:0100505e 02                               0x02 
                           .rsrc:0100505f 00                               0x00 
                           .rsrc:01005060 01                               0x01 
                           .rsrc:01005061 00                               0x00 
                           .rsrc:01005062 00                               0x00 
                           .rsrc:01005063 00                               0x00 
                           .rsrc:01005064 d0                               0xd0 
                           .rsrc:01005065 00                               0x00 
                           .rsrc:01005066 00                               0x00 
                           .rsrc:01005067 80                               0x80 
                           .rsrc:01005068 02                               0x02 
                           .rsrc:01005069 00                               0x00 
                           .rsrc:0100506a 00                               0x00 
                           .rsrc:0100506b 00                               0x00 
                           .rsrc:0100506c e8                               0xe8 
                           .rsrc:0100506d 00                               0x00 
                           .rsrc:0100506e 00                               0x00 
                           .rsrc:0100506f 80                               0x80 
                           .rsrc:01005070 00                               0x00 
                           .rsrc:01005071 00                               0x00 
                           .rsrc:01005072 00                               0x00 
                           .rsrc:01005073 00                               0x00 
                           .rsrc:01005074 00                               0x00 
                           .rsrc:01005075 00                               0x00 
                           .rsrc:01005076 00                               0x00 
                           .rsrc:01005077 00                               0x00 
                           .rsrc:01005078 00                               0x00 
                           .rsrc:01005079 00                               0x00 
                           .rsrc:0100507a 00                               0x00 
                           .rsrc:0100507b 00                               0x00 
                           .rsrc:0100507c 00                               0x00 
                           .rsrc:0100507d 00                               0x00 
                           .rsrc:0100507e 01                               0x01 
                           .rsrc:0100507f 00                               0x00 
                           .rsrc:01005080 01                               0x01 
                           .rsrc:01005081 00                               0x00 
                           .rsrc:01005082 00                               0x00 
                           .rsrc:01005083 00                               0x00 
                           .rsrc:01005084 00                               0x00 
                           .rsrc:01005085 01                               0x01 
                           .rsrc:01005086 00                               0x00 
                           .rsrc:01005087 80                               0x80 
                           .rsrc:01005088 00                               0x00 
                           .rsrc:01005089 00                               0x00 
                           .rsrc:0100508a 00                               0x00 
                           .rsrc:0100508b 00                               0x00 
                           .rsrc:0100508c 00                               0x00 
                           .rsrc:0100508d 00                               0x00 
                           .rsrc:0100508e 00                               0x00 
                           .rsrc:0100508f 00                               0x00 
                           .rsrc:01005090 00                               0x00 
                           .rsrc:01005091 00                               0x00 
                           .rsrc:01005092 00                               0x00 
                           .rsrc:01005093 00                               0x00 
                           .rsrc:01005094 00                               0x00 
                           .rsrc:01005095 00                               0x00 
                           .rsrc:01005096 01                               0x01 
                           .rsrc:01005097 00                               0x00 
                           .rsrc:01005098 01                               0x01 
                           .rsrc:01005099 00                               0x00 
                           .rsrc:0100509a 00                               0x00 
                           .rsrc:0100509b 00                               0x00 
                           .rsrc:0100509c 18                               0x18 
                           .rsrc:0100509d 01                               0x01 
                           .rsrc:0100509e 00                               0x00 
                           .rsrc:0100509f 80                               0x80 
                           .rsrc:010050a0 00                               0x00 
                           .rsrc:010050a1 00                               0x00 
                           .rsrc:010050a2 00                               0x00 
                           .rsrc:010050a3 00                               0x00 
                           .rsrc:010050a4 00                               0x00 
                           .rsrc:010050a5 00                               0x00 
                           .rsrc:010050a6 00                               0x00 
                           .rsrc:010050a7 00                               0x00 
                           .rsrc:010050a8 00                               0x00 
                           .rsrc:010050a9 00                               0x00 
                           .rsrc:010050aa 00                               0x00 
                           .rsrc:010050ab 00                               0x00 
                           .rsrc:010050ac 00                               0x00 
                           .rsrc:010050ad 00                               0x00 
                           .rsrc:010050ae 01                               0x01 
                           .rsrc:010050af 00                               0x00 
                           .rsrc:010050b0 01                               0x01 
                           .rsrc:010050b1 00                               0x00 
                           .rsrc:010050b2 00                               0x00 
                           .rsrc:010050b3 00                               0x00 
                           .rsrc:010050b4 30                               0x30 '0'
                           .rsrc:010050b5 01                               0x01 
                           .rsrc:010050b6 00                               0x00 
                           .rsrc:010050b7 80                               0x80 
                           .rsrc:010050b8 00                               0x00 
                           .rsrc:010050b9 00                               0x00 
                           .rsrc:010050ba 00                               0x00 
                           .rsrc:010050bb 00                               0x00 
                           .rsrc:010050bc 00                               0x00 
                           .rsrc:010050bd 00                               0x00 
                           .rsrc:010050be 00                               0x00 
                           .rsrc:010050bf 00                               0x00 
                           .rsrc:010050c0 00                               0x00 
                           .rsrc:010050c1 00                               0x00 
                           .rsrc:010050c2 00                               0x00 
                           .rsrc:010050c3 00                               0x00 
                           .rsrc:010050c4 00                               0x00 
                           .rsrc:010050c5 00                               0x00 
                           .rsrc:010050c6 01                               0x01 
                           .rsrc:010050c7 00                               0x00 
                           .rsrc:010050c8 09                               0x09 '	'
                           .rsrc:010050c9 04                               0x04 
                           .rsrc:010050ca 00                               0x00 
                           .rsrc:010050cb 00                               0x00 
                           .rsrc:010050cc 48                               0x48 'H'
                           .rsrc:010050cd 01                               0x01 
                           .rsrc:010050ce 00                               0x00 
                           .rsrc:010050cf 00                               0x00 
                           .rsrc:010050d0 00                               0x00 
                           .rsrc:010050d1 00                               0x00 
                           .rsrc:010050d2 00                               0x00 
                           .rsrc:010050d3 00                               0x00 
                           .rsrc:010050d4 00                               0x00 
                           .rsrc:010050d5 00                               0x00 
                           .rsrc:010050d6 00                               0x00 
                           .rsrc:010050d7 00                               0x00 
                           .rsrc:010050d8 00                               0x00 
                           .rsrc:010050d9 00                               0x00 
                           .rsrc:010050da 00                               0x00 
                           .rsrc:010050db 00                               0x00 
                           .rsrc:010050dc 00                               0x00 
                           .rsrc:010050dd 00                               0x00 
                           .rsrc:010050de 01                               0x01 
                           .rsrc:010050df 00                               0x00 
                           .rsrc:010050e0 09                               0x09 '	'
                           .rsrc:010050e1 04                               0x04 
                           .rsrc:010050e2 00                               0x00 
                           .rsrc:010050e3 00                               0x00 
                           .rsrc:010050e4 58                               0x58 'X'
                           .rsrc:010050e5 01                               0x01 
                           .rsrc:010050e6 00                               0x00 
                           .rsrc:010050e7 00                               0x00 
                           .rsrc:010050e8 00                               0x00 
                           .rsrc:010050e9 00                               0x00 
                           .rsrc:010050ea 00                               0x00 
                           .rsrc:010050eb 00                               0x00 
                           .rsrc:010050ec 00                               0x00 
                           .rsrc:010050ed 00                               0x00 
                           .rsrc:010050ee 00                               0x00 
                           .rsrc:010050ef 00                               0x00 
                           .rsrc:010050f0 00                               0x00 
                           .rsrc:010050f1 00                               0x00 
                           .rsrc:010050f2 00                               0x00 
                           .rsrc:010050f3 00                               0x00 
                           .rsrc:010050f4 00                               0x00 
                           .rsrc:010050f5 00                               0x00 
                           .rsrc:010050f6 01                               0x01 
                           .rsrc:010050f7 00                               0x00 
                           .rsrc:010050f8 09                               0x09 '	'
                           .rsrc:010050f9 04                               0x04 
                           .rsrc:010050fa 00                               0x00 
                           .rsrc:010050fb 00                               0x00 
                           .rsrc:010050fc 68                               0x68 'h'
                           .rsrc:010050fd 01                               0x01 
                           .rsrc:010050fe 00                               0x00 
                           .rsrc:010050ff 00                               0x00 
                           .rsrc:01005100 00                               0x00 
                           .rsrc:01005101 00                               0x00 
                           .rsrc:01005102 00                               0x00 
                           .rsrc:01005103 00                               0x00 
                           .rsrc:01005104 00                               0x00 
                           .rsrc:01005105 00                               0x00 
                           .rsrc:01005106 00                               0x00 
                           .rsrc:01005107 00                               0x00 
                           .rsrc:01005108 00                               0x00 
                           .rsrc:01005109 00                               0x00 
                           .rsrc:0100510a 00                               0x00 
                           .rsrc:0100510b 00                               0x00 
                           .rsrc:0100510c 00                               0x00 
                           .rsrc:0100510d 00                               0x00 
                           .rsrc:0100510e 01                               0x01 
                           .rsrc:0100510f 00                               0x00 
                           .rsrc:01005110 09                               0x09 '	'
                           .rsrc:01005111 04                               0x04 
                           .rsrc:01005112 00                               0x00 
                           .rsrc:01005113 00                               0x00 
                           .rsrc:01005114 78                               0x78 'x'
                           .rsrc:01005115 01                               0x01 
                           .rsrc:01005116 00                               0x00 
                           .rsrc:01005117 00                               0x00 
                           .rsrc:01005118 00                               0x00 
                           .rsrc:01005119 00                               0x00 
                           .rsrc:0100511a 00                               0x00 
                           .rsrc:0100511b 00                               0x00 
                           .rsrc:0100511c 00                               0x00 
                           .rsrc:0100511d 00                               0x00 
                           .rsrc:0100511e 00                               0x00 
                           .rsrc:0100511f 00                               0x00 
                           .rsrc:01005120 00                               0x00 
                           .rsrc:01005121 00                               0x00 
                           .rsrc:01005122 00                               0x00 
                           .rsrc:01005123 00                               0x00 
                           .rsrc:01005124 00                               0x00 
                           .rsrc:01005125 00                               0x00 
                           .rsrc:01005126 01                               0x01 
                           .rsrc:01005127 00                               0x00 
                           .rsrc:01005128 09                               0x09 '	'
                           .rsrc:01005129 04                               0x04 
                           .rsrc:0100512a 00                               0x00 
                           .rsrc:0100512b 00                               0x00 
                           .rsrc:0100512c 88                               0x88 
                           .rsrc:0100512d 01                               0x01 
                           .rsrc:0100512e 00                               0x00 
                           .rsrc:0100512f 00                               0x00 
                           .rsrc:01005130 00                               0x00 
                           .rsrc:01005131 00                               0x00 
                           .rsrc:01005132 00                               0x00 
                           .rsrc:01005133 00                               0x00 
                           .rsrc:01005134 00                               0x00 
                           .rsrc:01005135 00                               0x00 
                           .rsrc:01005136 00                               0x00 
                           .rsrc:01005137 00                               0x00 
                           .rsrc:01005138 00                               0x00 
                           .rsrc:01005139 00                               0x00 
                           .rsrc:0100513a 00                               0x00 
                           .rsrc:0100513b 00                               0x00 
                           .rsrc:0100513c 00                               0x00 
                           .rsrc:0100513d 00                               0x00 
                           .rsrc:0100513e 01                               0x01 
                           .rsrc:0100513f 00                               0x00 
                           .rsrc:01005140 09                               0x09 '	'
                           .rsrc:01005141 04                               0x04 
                           .rsrc:01005142 00                               0x00 
                           .rsrc:01005143 00                               0x00 
                           .rsrc:01005144 98                               0x98 
                           .rsrc:01005145 01                               0x01 
                           .rsrc:01005146 00                               0x00 
                           .rsrc:01005147 00                               0x00 
                           .rsrc:01005148 28                               0x28 '('
                           .rsrc:01005149 5e                               0x5e '^'
                           .rsrc:0100514a 00                               0x00 
                           .rsrc:0100514b 00                               0x00 
                           .rsrc:0100514c d8                               0xd8 
                           .rsrc:0100514d 00                               0x00 
                           .rsrc:0100514e 00                               0x00 
                           .rsrc:0100514f 00                               0x00 
                           .rsrc:01005150 00                               0x00 
                           .rsrc:01005151 00                               0x00 
                           .rsrc:01005152 00                               0x00 
                           .rsrc:01005153 00                               0x00 
                           .rsrc:01005154 00                               0x00 
                           .rsrc:01005155 00                               0x00 
                           .rsrc:01005156 00                               0x00 
                           .rsrc:01005157 00                               0x00 
                           .rsrc:01005158 48                               0x48 'H'
                           .rsrc:01005159 56                               0x56 'V'
                           .rsrc:0100515a 00                               0x00 
                           .rsrc:0100515b 00                               0x00 
                           .rsrc:0100515c 30                               0x30 '0'
                           .rsrc:0100515d 01                               0x01 
                           .rsrc:0100515e 00                               0x00 
                           .rsrc:0100515f 00                               0x00 
                           .rsrc:01005160 00                               0x00 
                           .rsrc:01005161 00                               0x00 
                           .rsrc:01005162 00                               0x00 
                           .rsrc:01005163 00                               0x00 
                           .rsrc:01005164 00                               0x00 
                           .rsrc:01005165 00                               0x00 
                           .rsrc:01005166 00                               0x00 
                           .rsrc:01005167 00                               0x00 
                           .rsrc:01005168 78                               0x78 'x'
                           .rsrc:01005169 57                               0x57 'W'
                           .rsrc:0100516a 00                               0x00 
                           .rsrc:0100516b 00                               0x00 
                           .rsrc:0100516c e8                               0xe8 
                           .rsrc:0100516d 02                               0x02 
                           .rsrc:0100516e 00                               0x00 
                           .rsrc:0100516f 00                               0x00 
                           .rsrc:01005170 00                               0x00 
                           .rsrc:01005171 00                               0x00 
                           .rsrc:01005172 00                               0x00 
                           .rsrc:01005173 00                               0x00 
                           .rsrc:01005174 00                               0x00 
                           .rsrc:01005175 00                               0x00 
                           .rsrc:01005176 00                               0x00 
                           .rsrc:01005177 00                               0x00 
                           .rsrc:01005178 60                               0x60 '`'
                           .rsrc:01005179 5a                               0x5a 'Z'
                           .rsrc:0100517a 00                               0x00 
                           .rsrc:0100517b 00                               0x00 
                           .rsrc:0100517c 22                               0x22 '"'
                           .rsrc:0100517d 00                               0x00 
                           .rsrc:0100517e 00                               0x00 
                           .rsrc:0100517f 00                               0x00 
                           .rsrc:01005180 00                               0x00 
                           .rsrc:01005181 00                               0x00 
                           .rsrc:01005182 00                               0x00 
                           .rsrc:01005183 00                               0x00 
                           .rsrc:01005184 00                               0x00 
                           .rsrc:01005185 00                               0x00 
                           .rsrc:01005186 00                               0x00 
                           .rsrc:01005187 00                               0x00 
                           .rsrc:01005188 88                               0x88 
                           .rsrc:01005189 5a                               0x5a 'Z'
                           .rsrc:0100518a 00                               0x00 
                           .rsrc:0100518b 00                               0x00 
                           .rsrc:0100518c 9c                               0x9c 
                           .rsrc:0100518d 03                               0x03 
                           .rsrc:0100518e 00                               0x00 
                           .rsrc:0100518f 00                               0x00 
                           .rsrc:01005190 00                               0x00 
                           .rsrc:01005191 00                               0x00 
                           .rsrc:01005192 00                               0x00 
                           .rsrc:01005193 00                               0x00 
                           .rsrc:01005194 00                               0x00 
                           .rsrc:01005195 00                               0x00 
                           .rsrc:01005196 00                               0x00 
                           .rsrc:01005197 00                               0x00 
                           .rsrc:01005198 b0                               0xb0 
                           .rsrc:01005199 51                               0x51 'Q'
                           .rsrc:0100519a 00                               0x00 
                           .rsrc:0100519b 00                               0x00 
                           .rsrc:0100519c 92                               0x92 
                           .rsrc:0100519d 04                               0x04 
                           .rsrc:0100519e 00                               0x00 
                           .rsrc:0100519f 00                               0x00 
                           .rsrc:010051a0 00                               0x00 
                           .rsrc:010051a1 00                               0x00 
                           .rsrc:010051a2 00                               0x00 
                           .rsrc:010051a3 00                               0x00 
                           .rsrc:010051a4 00                               0x00 
                           .rsrc:010051a5 00                               0x00 
                           .rsrc:010051a6 00                               0x00 
                           .rsrc:010051a7 00                               0x00 
                           .rsrc:010051a8 03                               0x03 
                           .rsrc:010051a9 00                               0x00 
                           .rsrc:010051aa 4d                               0x4d 'M'
                           .rsrc:010051ab 00                               0x00 
                           .rsrc:010051ac 55                               0x55 'U'
                           .rsrc:010051ad 00                               0x00 
                           .rsrc:010051ae 49                               0x49 'I'
                           .rsrc:010051af 00                               0x00 
                           .rsrc:010051b0 3c                               0x3c '<'
                           .rsrc:010051b1 3f                               0x3f '?'
                           .rsrc:010051b2 78                               0x78 'x'
                           .rsrc:010051b3 6d                               0x6d 'm'
                           .rsrc:010051b4 6c                               0x6c 'l'
                           .rsrc:010051b5 20                               0x20 ' '
                           .rsrc:010051b6 76                               0x76 'v'
                           .rsrc:010051b7 65                               0x65 'e'
                           .rsrc:010051b8 72                               0x72 'r'
                           .rsrc:010051b9 73                               0x73 's'
                           .rsrc:010051ba 69                               0x69 'i'
                           .rsrc:010051bb 6f                               0x6f 'o'
                           .rsrc:010051bc 6e                               0x6e 'n'
                           .rsrc:010051bd 3d                               0x3d '='
                           .rsrc:010051be 22                               0x22 '"'
                           .rsrc:010051bf 31                               0x31 '1'
                           .rsrc:010051c0 2e                               0x2e '.'
                           .rsrc:010051c1 30                               0x30 '0'
                           .rsrc:010051c2 22                               0x22 '"'
                           .rsrc:010051c3 20                               0x20 ' '
                           .rsrc:010051c4 65                               0x65 'e'
                           .rsrc:010051c5 6e                               0x6e 'n'
                           .rsrc:010051c6 63                               0x63 'c'
                           .rsrc:010051c7 6f                               0x6f 'o'
                           .rsrc:010051c8 64                               0x64 'd'
                           .rsrc:010051c9 69                               0x69 'i'
                           .rsrc:010051ca 6e                               0x6e 'n'
                           .rsrc:010051cb 67                               0x67 'g'
                           .rsrc:010051cc 3d                               0x3d '='
                           .rsrc:010051cd 22                               0x22 '"'
                           .rsrc:010051ce 55                               0x55 'U'
                           .rsrc:010051cf 54                               0x54 'T'
                           .rsrc:010051d0 46                               0x46 'F'
                           .rsrc:010051d1 2d                               0x2d '-'
                           .rsrc:010051d2 38                               0x38 '8'
                           .rsrc:010051d3 22                               0x22 '"'
                           .rsrc:010051d4 20                               0x20 ' '
                           .rsrc:010051d5 73                               0x73 's'
                           .rsrc:010051d6 74                               0x74 't'
                           .rsrc:010051d7 61                               0x61 'a'
                           .rsrc:010051d8 6e                               0x6e 'n'
                           .rsrc:010051d9 64                               0x64 'd'
                           .rsrc:010051da 61                               0x61 'a'
                           .rsrc:010051db 6c                               0x6c 'l'
                           .rsrc:010051dc 6f                               0x6f 'o'
                           .rsrc:010051dd 6e                               0x6e 'n'
                           .rsrc:010051de 65                               0x65 'e'
                           .rsrc:010051df 3d                               0x3d '='
                           .rsrc:010051e0 22                               0x22 '"'
                           .rsrc:010051e1 79                               0x79 'y'
                           .rsrc:010051e2 65                               0x65 'e'
                           .rsrc:010051e3 73                               0x73 's'
                           .rsrc:010051e4 22                               0x22 '"'
                           .rsrc:010051e5 3f                               0x3f '?'
                           .rsrc:010051e6 3e                               0x3e '>'
                           .rsrc:010051e7 0d                               0x0d ''
                           .rsrc:010051e8 0a                               0x0a '
'
                           .rsrc:010051e9 3c                               0x3c '<'
                           .rsrc:010051ea 21                               0x21 '!'
                           .rsrc:010051eb 2d                               0x2d '-'
                           .rsrc:010051ec 2d                               0x2d '-'
                           .rsrc:010051ed 20                               0x20 ' '
                           .rsrc:010051ee 43                               0x43 'C'
                           .rsrc:010051ef 6f                               0x6f 'o'
                           .rsrc:010051f0 70                               0x70 'p'
                           .rsrc:010051f1 79                               0x79 'y'
                           .rsrc:010051f2 72                               0x72 'r'
                           .rsrc:010051f3 69                               0x69 'i'
                           .rsrc:010051f4 67                               0x67 'g'
                           .rsrc:010051f5 68                               0x68 'h'
                           .rsrc:010051f6 74                               0x74 't'
                           .rsrc:010051f7 20                               0x20 ' '
                           .rsrc:010051f8 28                               0x28 '('
                           .rsrc:010051f9 63                               0x63 'c'
                           .rsrc:010051fa 29                               0x29 ')'
                           .rsrc:010051fb 20                               0x20 ' '
                           .rsrc:010051fc 4d                               0x4d 'M'
                           .rsrc:010051fd 69                               0x69 'i'
                           .rsrc:010051fe 63                               0x63 'c'
                           .rsrc:010051ff 72                               0x72 'r'
                           .rsrc:01005200 6f                               0x6f 'o'
                           .rsrc:01005201 73                               0x73 's'
                           .rsrc:01005202 6f                               0x6f 'o'
                           .rsrc:01005203 66                               0x66 'f'
                           .rsrc:01005204 74                               0x74 't'
                           .rsrc:01005205 20                               0x20 ' '
                           .rsrc:01005206 43                               0x43 'C'
                           .rsrc:01005207 6f                               0x6f 'o'
                           .rsrc:01005208 72                               0x72 'r'
                           .rsrc:01005209 70                               0x70 'p'
                           .rsrc:0100520a 6f                               0x6f 'o'
                           .rsrc:0100520b 72                               0x72 'r'
                           .rsrc:0100520c 61                               0x61 'a'
                           .rsrc:0100520d 74                               0x74 't'
                           .rsrc:0100520e 69                               0x69 'i'
                           .rsrc:0100520f 6f                               0x6f 'o'
                           .rsrc:01005210 6e                               0x6e 'n'
                           .rsrc:01005211 20                               0x20 ' '
                           .rsrc:01005212 2d                               0x2d '-'
                           .rsrc:01005213 2d                               0x2d '-'
                           .rsrc:01005214 3e                               0x3e '>'
                           .rsrc:01005215 0d                               0x0d ''
                           .rsrc:01005216 0a                               0x0a '
'
                           .rsrc:01005217 3c                               0x3c '<'
                           .rsrc:01005218 61                               0x61 'a'
                           .rsrc:01005219 73                               0x73 's'
                           .rsrc:0100521a 73                               0x73 's'
                           .rsrc:0100521b 65                               0x65 'e'
                           .rsrc:0100521c 6d                               0x6d 'm'
                           .rsrc:0100521d 62                               0x62 'b'
                           .rsrc:0100521e 6c                               0x6c 'l'
                           .rsrc:0100521f 79                               0x79 'y'
                           .rsrc:01005220 20                               0x20 ' '
                           .rsrc:01005221 78                               0x78 'x'
                           .rsrc:01005222 6d                               0x6d 'm'
                           .rsrc:01005223 6c                               0x6c 'l'
                           .rsrc:01005224 6e                               0x6e 'n'
                           .rsrc:01005225 73                               0x73 's'
                           .rsrc:01005226 3d                               0x3d '='
                           .rsrc:01005227 22                               0x22 '"'
                           .rsrc:01005228 75                               0x75 'u'
                           .rsrc:01005229 72                               0x72 'r'
                           .rsrc:0100522a 6e                               0x6e 'n'
                           .rsrc:0100522b 3a                               0x3a ':'
                           .rsrc:0100522c 73                               0x73 's'
                           .rsrc:0100522d 63                               0x63 'c'
                           .rsrc:0100522e 68                               0x68 'h'
                           .rsrc:0100522f 65                               0x65 'e'
                           .rsrc:01005230 6d                               0x6d 'm'
                           .rsrc:01005231 61                               0x61 'a'
                           .rsrc:01005232 73                               0x73 's'
                           .rsrc:01005233 2d                               0x2d '-'
                           .rsrc:01005234 6d                               0x6d 'm'
                           .rsrc:01005235 69                               0x69 'i'
                           .rsrc:01005236 63                               0x63 'c'
                           .rsrc:01005237 72                               0x72 'r'
                           .rsrc:01005238 6f                               0x6f 'o'
                           .rsrc:01005239 73                               0x73 's'
                           .rsrc:0100523a 6f                               0x6f 'o'
                           .rsrc:0100523b 66                               0x66 'f'
                           .rsrc:0100523c 74                               0x74 't'
                           .rsrc:0100523d 2d                               0x2d '-'
                           .rsrc:0100523e 63                               0x63 'c'
                           .rsrc:0100523f 6f                               0x6f 'o'
                           .rsrc:01005240 6d                               0x6d 'm'
                           .rsrc:01005241 3a                               0x3a ':'
                           .rsrc:01005242 61                               0x61 'a'
                           .rsrc:01005243 73                               0x73 's'
                           .rsrc:01005244 6d                               0x6d 'm'
                           .rsrc:01005245 2e                               0x2e '.'
                           .rsrc:01005246 76                               0x76 'v'
                           .rsrc:01005247 31                               0x31 '1'
                           .rsrc:01005248 22                               0x22 '"'
                           .rsrc:01005249 20                               0x20 ' '
                           .rsrc:0100524a 6d                               0x6d 'm'
                           .rsrc:0100524b 61                               0x61 'a'
                           .rsrc:0100524c 6e                               0x6e 'n'
                           .rsrc:0100524d 69                               0x69 'i'
                           .rsrc:0100524e 66                               0x66 'f'
                           .rsrc:0100524f 65                               0x65 'e'
                           .rsrc:01005250 73                               0x73 's'
                           .rsrc:01005251 74                               0x74 't'
                           .rsrc:01005252 56                               0x56 'V'
                           .rsrc:01005253 65                               0x65 'e'
                           .rsrc:01005254 72                               0x72 'r'
                           .rsrc:01005255 73                               0x73 's'
                           .rsrc:01005256 69                               0x69 'i'
                           .rsrc:01005257 6f                               0x6f 'o'
                           .rsrc:01005258 6e                               0x6e 'n'
                           .rsrc:01005259 3d                               0x3d '='
                           .rsrc:0100525a 22                               0x22 '"'
                           .rsrc:0100525b 31                               0x31 '1'
                           .rsrc:0100525c 2e                               0x2e '.'
                           .rsrc:0100525d 30                               0x30 '0'
                           .rsrc:0100525e 22                               0x22 '"'
                           .rsrc:0100525f 3e                               0x3e '>'
                           .rsrc:01005260 0d                               0x0d ''
                           .rsrc:01005261 0a                               0x0a '
'
                           .rsrc:01005262 3c                               0x3c '<'
                           .rsrc:01005263 61                               0x61 'a'
                           .rsrc:01005264 73                               0x73 's'
                           .rsrc:01005265 73                               0x73 's'
                           .rsrc:01005266 65                               0x65 'e'
                           .rsrc:01005267 6d                               0x6d 'm'
                           .rsrc:01005268 62                               0x62 'b'
                           .rsrc:01005269 6c                               0x6c 'l'
                           .rsrc:0100526a 79                               0x79 'y'
                           .rsrc:0100526b 49                               0x49 'I'
                           .rsrc:0100526c 64                               0x64 'd'
                           .rsrc:0100526d 65                               0x65 'e'
                           .rsrc:0100526e 6e                               0x6e 'n'
                           .rsrc:0100526f 74                               0x74 't'
                           .rsrc:01005270 69                               0x69 'i'
                           .rsrc:01005271 74                               0x74 't'
                           .rsrc:01005272 79                               0x79 'y'
                           .rsrc:01005273 0d                               0x0d ''
                           .rsrc:01005274 0a                               0x0a '
'
                           .rsrc:01005275 20                               0x20 ' '
                           .rsrc:01005276 20                               0x20 ' '
                           .rsrc:01005277 20                               0x20 ' '
                           .rsrc:01005278 20                               0x20 ' '
                           .rsrc:01005279 6e                               0x6e 'n'
                           .rsrc:0100527a 61                               0x61 'a'
                           .rsrc:0100527b 6d                               0x6d 'm'
                           .rsrc:0100527c 65                               0x65 'e'
                           .rsrc:0100527d 3d                               0x3d '='
                           .rsrc:0100527e 22                               0x22 '"'
                           .rsrc:0100527f 4d                               0x4d 'M'
                           .rsrc:01005280 69                               0x69 'i'
                           .rsrc:01005281 63                               0x63 'c'
                           .rsrc:01005282 72                               0x72 'r'
                           .rsrc:01005283 6f                               0x6f 'o'
                           .rsrc:01005284 73                               0x73 's'
                           .rsrc:01005285 6f                               0x6f 'o'
                           .rsrc:01005286 66                               0x66 'f'
                           .rsrc:01005287 74                               0x74 't'
                           .rsrc:01005288 2e                               0x2e '.'
                           .rsrc:01005289 57                               0x57 'W'
                           .rsrc:0100528a 69                               0x69 'i'
                           .rsrc:0100528b 6e                               0x6e 'n'
                           .rsrc:0100528c 64                               0x64 'd'
                           .rsrc:0100528d 6f                               0x6f 'o'
                           .rsrc:0100528e 77                               0x77 'w'
                           .rsrc:0100528f 73                               0x73 's'
                           .rsrc:01005290 2e                               0x2e '.'
                           .rsrc:01005291 53                               0x53 'S'
                           .rsrc:01005292 68                               0x68 'h'
                           .rsrc:01005293 65                               0x65 'e'
                           .rsrc:01005294 6c                               0x6c 'l'
                           .rsrc:01005295 6c                               0x6c 'l'
                           .rsrc:01005296 2e                               0x2e '.'
                           .rsrc:01005297 67                               0x67 'g'
                           .rsrc:01005298 72                               0x72 'r'
                           .rsrc:01005299 70                               0x70 'p'
                           .rsrc:0100529a 63                               0x63 'c'
                           .rsrc:0100529b 6f                               0x6f 'o'
                           .rsrc:0100529c 6e                               0x6e 'n'
                           .rsrc:0100529d 76                               0x76 'v'
                           .rsrc:0100529e 22                               0x22 '"'
                           .rsrc:0100529f 0d                               0x0d ''
                           .rsrc:010052a0 0a                               0x0a '
'
                           .rsrc:010052a1 20                               0x20 ' '
                           .rsrc:010052a2 20                               0x20 ' '
                           .rsrc:010052a3 20                               0x20 ' '
                           .rsrc:010052a4 20                               0x20 ' '
                           .rsrc:010052a5 70                               0x70 'p'
                           .rsrc:010052a6 72                               0x72 'r'
                           .rsrc:010052a7 6f                               0x6f 'o'
                           .rsrc:010052a8 63                               0x63 'c'
                           .rsrc:010052a9 65                               0x65 'e'
                           .rsrc:010052aa 73                               0x73 's'
                           .rsrc:010052ab 73                               0x73 's'
                           .rsrc:010052ac 6f                               0x6f 'o'
                           .rsrc:010052ad 72                               0x72 'r'
                           .rsrc:010052ae 41                               0x41 'A'
                           .rsrc:010052af 72                               0x72 'r'
                           .rsrc:010052b0 63                               0x63 'c'
                           .rsrc:010052b1 68                               0x68 'h'
                           .rsrc:010052b2 69                               0x69 'i'
                           .rsrc:010052b3 74                               0x74 't'
                           .rsrc:010052b4 65                               0x65 'e'
                           .rsrc:010052b5 63                               0x63 'c'
                           .rsrc:010052b6 74                               0x74 't'
                           .rsrc:010052b7 75                               0x75 'u'
                           .rsrc:010052b8 72                               0x72 'r'
                           .rsrc:010052b9 65                               0x65 'e'
                           .rsrc:010052ba 3d                               0x3d '='
                           .rsrc:010052bb 22                               0x22 '"'
                           .rsrc:010052bc 78                               0x78 'x'
                           .rsrc:010052bd 38                               0x38 '8'
                           .rsrc:010052be 36                               0x36 '6'
                           .rsrc:010052bf 22                               0x22 '"'
                           .rsrc:010052c0 0d                               0x0d ''
                           .rsrc:010052c1 0a                               0x0a '
'
                           .rsrc:010052c2 20                               0x20 ' '
                           .rsrc:010052c3 20                               0x20 ' '
                           .rsrc:010052c4 20                               0x20 ' '
                           .rsrc:010052c5 20                               0x20 ' '
                           .rsrc:010052c6 76                               0x76 'v'
                           .rsrc:010052c7 65                               0x65 'e'
                           .rsrc:010052c8 72                               0x72 'r'
                           .rsrc:010052c9 73                               0x73 's'
                           .rsrc:010052ca 69                               0x69 'i'
                           .rsrc:010052cb 6f                               0x6f 'o'
                           .rsrc:010052cc 6e                               0x6e 'n'
                           .rsrc:010052cd 3d                               0x3d '='
                           .rsrc:010052ce 22                               0x22 '"'
                           .rsrc:010052cf 35                               0x35 '5'
                           .rsrc:010052d0 2e                               0x2e '.'
                           .rsrc:010052d1 31                               0x31 '1'
                           .rsrc:010052d2 2e                               0x2e '.'
                           .rsrc:010052d3 30                               0x30 '0'
                           .rsrc:010052d4 2e                               0x2e '.'
                           .rsrc:010052d5 30                               0x30 '0'
                           .rsrc:010052d6 22                               0x22 '"'
                           .rsrc:010052d7 0d                               0x0d ''
                           .rsrc:010052d8 0a                               0x0a '
'
                           .rsrc:010052d9 20                               0x20 ' '
                           .rsrc:010052da 20                               0x20 ' '
                           .rsrc:010052db 20                               0x20 ' '
                           .rsrc:010052dc 20                               0x20 ' '
                           .rsrc:010052dd 74                               0x74 't'
                           .rsrc:010052de 79                               0x79 'y'
                           .rsrc:010052df 70                               0x70 'p'
                           .rsrc:010052e0 65                               0x65 'e'
                           .rsrc:010052e1 3d                               0x3d '='
                           .rsrc:010052e2 22                               0x22 '"'
                           .rsrc:010052e3 77                               0x77 'w'
                           .rsrc:010052e4 69                               0x69 'i'
                           .rsrc:010052e5 6e                               0x6e 'n'
                           .rsrc:010052e6 33                               0x33 '3'
                           .rsrc:010052e7 32                               0x32 '2'
                           .rsrc:010052e8 22                               0x22 '"'
                           .rsrc:010052e9 2f                               0x2f '/'
                           .rsrc:010052ea 3e                               0x3e '>'
                           .rsrc:010052eb 0d                               0x0d ''
                           .rsrc:010052ec 0a                               0x0a '
'
                           .rsrc:010052ed 3c                               0x3c '<'
                           .rsrc:010052ee 64                               0x64 'd'
                           .rsrc:010052ef 65                               0x65 'e'
                           .rsrc:010052f0 73                               0x73 's'
                           .rsrc:010052f1 63                               0x63 'c'
                           .rsrc:010052f2 72                               0x72 'r'
                           .rsrc:010052f3 69                               0x69 'i'
                           .rsrc:010052f4 70                               0x70 'p'
                           .rsrc:010052f5 74                               0x74 't'
                           .rsrc:010052f6 69                               0x69 'i'
                           .rsrc:010052f7 6f                               0x6f 'o'
                           .rsrc:010052f8 6e                               0x6e 'n'
                           .rsrc:010052f9 3e                               0x3e '>'
                           .rsrc:010052fa 57                               0x57 'W'
                           .rsrc:010052fb 69                               0x69 'i'
                           .rsrc:010052fc 6e                               0x6e 'n'
                           .rsrc:010052fd 64                               0x64 'd'
                           .rsrc:010052fe 6f                               0x6f 'o'
                           .rsrc:010052ff 77                               0x77 'w'
                           .rsrc:01005300 73                               0x73 's'
                           .rsrc:01005301 20                               0x20 ' '
                           .rsrc:01005302 53                               0x53 'S'
                           .rsrc:01005303 68                               0x68 'h'
                           .rsrc:01005304 65                               0x65 'e'
                           .rsrc:01005305 6c                               0x6c 'l'
                           .rsrc:01005306 6c                               0x6c 'l'
                           .rsrc:01005307 3c                               0x3c '<'
                           .rsrc:01005308 2f                               0x2f '/'
                           .rsrc:01005309 64                               0x64 'd'
                           .rsrc:0100530a 65                               0x65 'e'
                           .rsrc:0100530b 73                               0x73 's'
                           .rsrc:0100530c 63                               0x63 'c'
                           .rsrc:0100530d 72                               0x72 'r'
                           .rsrc:0100530e 69                               0x69 'i'
                           .rsrc:0100530f 70                               0x70 'p'
                           .rsrc:01005310 74                               0x74 't'
                           .rsrc:01005311 69                               0x69 'i'
                           .rsrc:01005312 6f                               0x6f 'o'
                           .rsrc:01005313 6e                               0x6e 'n'
                           .rsrc:01005314 3e                               0x3e '>'
                           .rsrc:01005315 0d                               0x0d ''
                           .rsrc:01005316 0a                               0x0a '
'
                           .rsrc:01005317 3c                               0x3c '<'
                           .rsrc:01005318 64                               0x64 'd'
                           .rsrc:01005319 65                               0x65 'e'
                           .rsrc:0100531a 70                               0x70 'p'
                           .rsrc:0100531b 65                               0x65 'e'
                           .rsrc:0100531c 6e                               0x6e 'n'
                           .rsrc:0100531d 64                               0x64 'd'
                           .rsrc:0100531e 65                               0x65 'e'
                           .rsrc:0100531f 6e                               0x6e 'n'
                           .rsrc:01005320 63                               0x63 'c'
                           .rsrc:01005321 79                               0x79 'y'
                           .rsrc:01005322 3e                               0x3e '>'
                           .rsrc:01005323 0d                               0x0d ''
                           .rsrc:01005324 0a                               0x0a '
'
                           .rsrc:01005325 20                               0x20 ' '
                           .rsrc:01005326 20                               0x20 ' '
                           .rsrc:01005327 20                               0x20 ' '
                           .rsrc:01005328 20                               0x20 ' '
                           .rsrc:01005329 3c                               0x3c '<'
                           .rsrc:0100532a 64                               0x64 'd'
                           .rsrc:0100532b 65                               0x65 'e'
                           .rsrc:0100532c 70                               0x70 'p'
                           .rsrc:0100532d 65                               0x65 'e'
                           .rsrc:0100532e 6e                               0x6e 'n'
                           .rsrc:0100532f 64                               0x64 'd'
                           .rsrc:01005330 65                               0x65 'e'
                           .rsrc:01005331 6e                               0x6e 'n'
                           .rsrc:01005332 74                               0x74 't'
                           .rsrc:01005333 41                               0x41 'A'
                           .rsrc:01005334 73                               0x73 's'
                           .rsrc:01005335 73                               0x73 's'
                           .rsrc:01005336 65                               0x65 'e'
                           .rsrc:01005337 6d                               0x6d 'm'
                           .rsrc:01005338 62                               0x62 'b'
                           .rsrc:01005339 6c                               0x6c 'l'
                           .rsrc:0100533a 79                               0x79 'y'
                           .rsrc:0100533b 3e                               0x3e '>'
                           .rsrc:0100533c 0d                               0x0d ''
                           .rsrc:0100533d 0a                               0x0a '
'
                           .rsrc:0100533e 20                               0x20 ' '
                           .rsrc:0100533f 20                               0x20 ' '
                           .rsrc:01005340 20                               0x20 ' '
                           .rsrc:01005341 20                               0x20 ' '
                           .rsrc:01005342 20                               0x20 ' '
                           .rsrc:01005343 20                               0x20 ' '
                           .rsrc:01005344 20                               0x20 ' '
                           .rsrc:01005345 20                               0x20 ' '
                           .rsrc:01005346 3c                               0x3c '<'
                           .rsrc:01005347 61                               0x61 'a'
                           .rsrc:01005348 73                               0x73 's'
                           .rsrc:01005349 73                               0x73 's'
                           .rsrc:0100534a 65                               0x65 'e'
                           .rsrc:0100534b 6d                               0x6d 'm'
                           .rsrc:0100534c 62                               0x62 'b'
                           .rsrc:0100534d 6c                               0x6c 'l'
                           .rsrc:0100534e 79                               0x79 'y'
                           .rsrc:0100534f 49                               0x49 'I'
                           .rsrc:01005350 64                               0x64 'd'
                           .rsrc:01005351 65                               0x65 'e'
                           .rsrc:01005352 6e                               0x6e 'n'
                           .rsrc:01005353 74                               0x74 't'
                           .rsrc:01005354 69                               0x69 'i'
                           .rsrc:01005355 74                               0x74 't'
                           .rsrc:01005356 79                               0x79 'y'
                           .rsrc:01005357 0d                               0x0d ''
                           .rsrc:01005358 0a                               0x0a '
'
                           .rsrc:01005359 20                               0x20 ' '
                           .rsrc:0100535a 20                               0x20 ' '
                           .rsrc:0100535b 20                               0x20 ' '
                           .rsrc:0100535c 20                               0x20 ' '
                           .rsrc:0100535d 20                               0x20 ' '
                           .rsrc:0100535e 20                               0x20 ' '
                           .rsrc:0100535f 20                               0x20 ' '
                           .rsrc:01005360 20                               0x20 ' '
                           .rsrc:01005361 20                               0x20 ' '
                           .rsrc:01005362 20                               0x20 ' '
                           .rsrc:01005363 20                               0x20 ' '
                           .rsrc:01005364 20                               0x20 ' '
                           .rsrc:01005365 74                               0x74 't'
                           .rsrc:01005366 79                               0x79 'y'
                           .rsrc:01005367 70                               0x70 'p'
                           .rsrc:01005368 65                               0x65 'e'
                           .rsrc:01005369 3d                               0x3d '='
                           .rsrc:0100536a 22                               0x22 '"'
                           .rsrc:0100536b 77                               0x77 'w'
                           .rsrc:0100536c 69                               0x69 'i'
                           .rsrc:0100536d 6e                               0x6e 'n'
                           .rsrc:0100536e 33                               0x33 '3'
                           .rsrc:0100536f 32                               0x32 '2'
                           .rsrc:01005370 22                               0x22 '"'
                           .rsrc:01005371 0d                               0x0d ''
                           .rsrc:01005372 0a                               0x0a '
'
                           .rsrc:01005373 20                               0x20 ' '
                           .rsrc:01005374 20                               0x20 ' '
                           .rsrc:01005375 20                               0x20 ' '
                           .rsrc:01005376 20                               0x20 ' '
                           .rsrc:01005377 20                               0x20 ' '
                           .rsrc:01005378 20                               0x20 ' '
                           .rsrc:01005379 20                               0x20 ' '
                           .rsrc:0100537a 20                               0x20 ' '
                           .rsrc:0100537b 20                               0x20 ' '
                           .rsrc:0100537c 20                               0x20 ' '
                           .rsrc:0100537d 20                               0x20 ' '
                           .rsrc:0100537e 20                               0x20 ' '
                           .rsrc:0100537f 6e                               0x6e 'n'
                           .rsrc:01005380 61                               0x61 'a'
                           .rsrc:01005381 6d                               0x6d 'm'
                           .rsrc:01005382 65                               0x65 'e'
                           .rsrc:01005383 3d                               0x3d '='
                           .rsrc:01005384 22                               0x22 '"'
                           .rsrc:01005385 4d                               0x4d 'M'
                           .rsrc:01005386 69                               0x69 'i'
                           .rsrc:01005387 63                               0x63 'c'
                           .rsrc:01005388 72                               0x72 'r'
                           .rsrc:01005389 6f                               0x6f 'o'
                           .rsrc:0100538a 73                               0x73 's'
                           .rsrc:0100538b 6f                               0x6f 'o'
                           .rsrc:0100538c 66                               0x66 'f'
                           .rsrc:0100538d 74                               0x74 't'
                           .rsrc:0100538e 2e                               0x2e '.'
                           .rsrc:0100538f 57                               0x57 'W'
                           .rsrc:01005390 69                               0x69 'i'
                           .rsrc:01005391 6e                               0x6e 'n'
                           .rsrc:01005392 64                               0x64 'd'
                           .rsrc:01005393 6f                               0x6f 'o'
                           .rsrc:01005394 77                               0x77 'w'
                           .rsrc:01005395 73                               0x73 's'
                           .rsrc:01005396 2e                               0x2e '.'
                           .rsrc:01005397 43                               0x43 'C'
                           .rsrc:01005398 6f                               0x6f 'o'
                           .rsrc:01005399 6d                               0x6d 'm'
                           .rsrc:0100539a 6d                               0x6d 'm'
                           .rsrc:0100539b 6f                               0x6f 'o'
                           .rsrc:0100539c 6e                               0x6e 'n'
                           .rsrc:0100539d 2d                               0x2d '-'
                           .rsrc:0100539e 43                               0x43 'C'
                           .rsrc:0100539f 6f                               0x6f 'o'
                           .rsrc:010053a0 6e                               0x6e 'n'
                           .rsrc:010053a1 74                               0x74 't'
                           .rsrc:010053a2 72                               0x72 'r'
                           .rsrc:010053a3 6f                               0x6f 'o'
                           .rsrc:010053a4 6c                               0x6c 'l'
                           .rsrc:010053a5 73                               0x73 's'
                           .rsrc:010053a6 22                               0x22 '"'
                           .rsrc:010053a7 0d                               0x0d ''
                           .rsrc:010053a8 0a                               0x0a '
'
                           .rsrc:010053a9 20                               0x20 ' '
                           .rsrc:010053aa 20                               0x20 ' '
                           .rsrc:010053ab 20                               0x20 ' '
                           .rsrc:010053ac 20                               0x20 ' '
                           .rsrc:010053ad 20                               0x20 ' '
                           .rsrc:010053ae 20                               0x20 ' '
                           .rsrc:010053af 20                               0x20 ' '
                           .rsrc:010053b0 20                               0x20 ' '
                           .rsrc:010053b1 20                               0x20 ' '
                           .rsrc:010053b2 20                               0x20 ' '
                           .rsrc:010053b3 20                               0x20 ' '
                           .rsrc:010053b4 20                               0x20 ' '
                           .rsrc:010053b5 76                               0x76 'v'
                           .rsrc:010053b6 65                               0x65 'e'
                           .rsrc:010053b7 72                               0x72 'r'
                           .rsrc:010053b8 73                               0x73 's'
                           .rsrc:010053b9 69                               0x69 'i'
                           .rsrc:010053ba 6f                               0x6f 'o'
                           .rsrc:010053bb 6e                               0x6e 'n'
                           .rsrc:010053bc 3d                               0x3d '='
                           .rsrc:010053bd 22                               0x22 '"'
                           .rsrc:010053be 36                               0x36 '6'
                           .rsrc:010053bf 2e                               0x2e '.'
                           .rsrc:010053c0 30                               0x30 '0'
                           .rsrc:010053c1 2e                               0x2e '.'
                           .rsrc:010053c2 30                               0x30 '0'
                           .rsrc:010053c3 2e                               0x2e '.'
                           .rsrc:010053c4 30                               0x30 '0'
                           .rsrc:010053c5 22                               0x22 '"'
                           .rsrc:010053c6 0d                               0x0d ''
                           .rsrc:010053c7 0a                               0x0a '
'
                           .rsrc:010053c8 20                               0x20 ' '
                           .rsrc:010053c9 20                               0x20 ' '
                           .rsrc:010053ca 20                               0x20 ' '
                           .rsrc:010053cb 20                               0x20 ' '
                           .rsrc:010053cc 20                               0x20 ' '
                           .rsrc:010053cd 20                               0x20 ' '
                           .rsrc:010053ce 20                               0x20 ' '
                           .rsrc:010053cf 20                               0x20 ' '
                           .rsrc:010053d0 20                               0x20 ' '
                           .rsrc:010053d1 20                               0x20 ' '
                           .rsrc:010053d2 20                               0x20 ' '
                           .rsrc:010053d3 20                               0x20 ' '
                           .rsrc:010053d4 70                               0x70 'p'
                           .rsrc:010053d5 72                               0x72 'r'
                           .rsrc:010053d6 6f                               0x6f 'o'
                           .rsrc:010053d7 63                               0x63 'c'
                           .rsrc:010053d8 65                               0x65 'e'
                           .rsrc:010053d9 73                               0x73 's'
                           .rsrc:010053da 73                               0x73 's'
                           .rsrc:010053db 6f                               0x6f 'o'
                           .rsrc:010053dc 72                               0x72 'r'
                           .rsrc:010053dd 41                               0x41 'A'
                           .rsrc:010053de 72                               0x72 'r'
                           .rsrc:010053df 63                               0x63 'c'
                           .rsrc:010053e0 68                               0x68 'h'
                           .rsrc:010053e1 69                               0x69 'i'
                           .rsrc:010053e2 74                               0x74 't'
                           .rsrc:010053e3 65                               0x65 'e'
                           .rsrc:010053e4 63                               0x63 'c'
                           .rsrc:010053e5 74                               0x74 't'
                           .rsrc:010053e6 75                               0x75 'u'
                           .rsrc:010053e7 72                               0x72 'r'
                           .rsrc:010053e8 65                               0x65 'e'
                           .rsrc:010053e9 3d                               0x3d '='
                           .rsrc:010053ea 22                               0x22 '"'
                           .rsrc:010053eb 2a                               0x2a '*'
                           .rsrc:010053ec 22                               0x22 '"'
                           .rsrc:010053ed 0d                               0x0d ''
                           .rsrc:010053ee 0a                               0x0a '
'
                           .rsrc:010053ef 20                               0x20 ' '
                           .rsrc:010053f0 20                               0x20 ' '
                           .rsrc:010053f1 20                               0x20 ' '
                           .rsrc:010053f2 20                               0x20 ' '
                           .rsrc:010053f3 20                               0x20 ' '
                           .rsrc:010053f4 20                               0x20 ' '
                           .rsrc:010053f5 20                               0x20 ' '
                           .rsrc:010053f6 20                               0x20 ' '
                           .rsrc:010053f7 20                               0x20 ' '
                           .rsrc:010053f8 20                               0x20 ' '
                           .rsrc:010053f9 20                               0x20 ' '
                           .rsrc:010053fa 20                               0x20 ' '
                           .rsrc:010053fb 70                               0x70 'p'
                           .rsrc:010053fc 75                               0x75 'u'
                           .rsrc:010053fd 62                               0x62 'b'
                           .rsrc:010053fe 6c                               0x6c 'l'
                           .rsrc:010053ff 69                               0x69 'i'
                           .rsrc:01005400 63                               0x63 'c'
                           .rsrc:01005401 4b                               0x4b 'K'
                           .rsrc:01005402 65                               0x65 'e'
                           .rsrc:01005403 79                               0x79 'y'
                           .rsrc:01005404 54                               0x54 'T'
                           .rsrc:01005405 6f                               0x6f 'o'
                           .rsrc:01005406 6b                               0x6b 'k'
                           .rsrc:01005407 65                               0x65 'e'
                           .rsrc:01005408 6e                               0x6e 'n'
                           .rsrc:01005409 3d                               0x3d '='
                           .rsrc:0100540a 22                               0x22 '"'
                           .rsrc:0100540b 36                               0x36 '6'
                           .rsrc:0100540c 35                               0x35 '5'
                           .rsrc:0100540d 39                               0x39 '9'
                           .rsrc:0100540e 35                               0x35 '5'
                           .rsrc:0100540f 62                               0x62 'b'
                           .rsrc:01005410 36                               0x36 '6'
                           .rsrc:01005411 34                               0x34 '4'
                           .rsrc:01005412 31                               0x31 '1'
                           .rsrc:01005413 34                               0x34 '4'
                           .rsrc:01005414 34                               0x34 '4'
                           .rsrc:01005415 63                               0x63 'c'
                           .rsrc:01005416 63                               0x63 'c'
                           .rsrc:01005417 66                               0x66 'f'
                           .rsrc:01005418 31                               0x31 '1'
                           .rsrc:01005419 64                               0x64 'd'
                           .rsrc:0100541a 66                               0x66 'f'
                           .rsrc:0100541b 22                               0x22 '"'
                           .rsrc:0100541c 0d                               0x0d ''
                           .rsrc:0100541d 0a                               0x0a '
'
                           .rsrc:0100541e 20                               0x20 ' '
                           .rsrc:0100541f 20                               0x20 ' '
                           .rsrc:01005420 20                               0x20 ' '
                           .rsrc:01005421 20                               0x20 ' '
                           .rsrc:01005422 20                               0x20 ' '
                           .rsrc:01005423 20                               0x20 ' '
                           .rsrc:01005424 20                               0x20 ' '
                           .rsrc:01005425 20                               0x20 ' '
                           .rsrc:01005426 20                               0x20 ' '
                           .rsrc:01005427 20                               0x20 ' '
                           .rsrc:01005428 20                               0x20 ' '
                           .rsrc:01005429 20                               0x20 ' '
                           .rsrc:0100542a 6c                               0x6c 'l'
                           .rsrc:0100542b 61                               0x61 'a'
                           .rsrc:0100542c 6e                               0x6e 'n'
                           .rsrc:0100542d 67                               0x67 'g'
                           .rsrc:0100542e 75                               0x75 'u'
                           .rsrc:0100542f 61                               0x61 'a'
                           .rsrc:01005430 67                               0x67 'g'
                           .rsrc:01005431 65                               0x65 'e'
                           .rsrc:01005432 3d                               0x3d '='
                           .rsrc:01005433 22                               0x22 '"'
                           .rsrc:01005434 2a                               0x2a '*'
                           .rsrc:01005435 22                               0x22 '"'
                           .rsrc:01005436 0d                               0x0d ''
                           .rsrc:01005437 0a                               0x0a '
'
                           .rsrc:01005438 20                               0x20 ' '
                           .rsrc:01005439 20                               0x20 ' '
                           .rsrc:0100543a 20                               0x20 ' '
                           .rsrc:0100543b 20                               0x20 ' '
                           .rsrc:0100543c 20                               0x20 ' '
                           .rsrc:0100543d 20                               0x20 ' '
                           .rsrc:0100543e 20                               0x20 ' '
                           .rsrc:0100543f 20                               0x20 ' '
                           .rsrc:01005440 2f                               0x2f '/'
                           .rsrc:01005441 3e                               0x3e '>'
                           .rsrc:01005442 0d                               0x0d ''
                           .rsrc:01005443 0a                               0x0a '
'
                           .rsrc:01005444 20                               0x20 ' '
                           .rsrc:01005445 20                               0x20 ' '
                           .rsrc:01005446 20                               0x20 ' '
                           .rsrc:01005447 20                               0x20 ' '
                           .rsrc:01005448 3c                               0x3c '<'
                           .rsrc:01005449 2f                               0x2f '/'
                           .rsrc:0100544a 64                               0x64 'd'
                           .rsrc:0100544b 65                               0x65 'e'
                           .rsrc:0100544c 70                               0x70 'p'
                           .rsrc:0100544d 65                               0x65 'e'
                           .rsrc:0100544e 6e                               0x6e 'n'
                           .rsrc:0100544f 64                               0x64 'd'
                           .rsrc:01005450 65                               0x65 'e'
                           .rsrc:01005451 6e                               0x6e 'n'
                           .rsrc:01005452 74                               0x74 't'
                           .rsrc:01005453 41                               0x41 'A'
                           .rsrc:01005454 73                               0x73 's'
                           .rsrc:01005455 73                               0x73 's'
                           .rsrc:01005456 65                               0x65 'e'
                           .rsrc:01005457 6d                               0x6d 'm'
                           .rsrc:01005458 62                               0x62 'b'
                           .rsrc:01005459 6c                               0x6c 'l'
                           .rsrc:0100545a 79                               0x79 'y'
                           .rsrc:0100545b 3e                               0x3e '>'
                           .rsrc:0100545c 0d                               0x0d ''
                           .rsrc:0100545d 0a                               0x0a '
'
                           .rsrc:0100545e 3c                               0x3c '<'
                           .rsrc:0100545f 2f                               0x2f '/'
                           .rsrc:01005460 64                               0x64 'd'
                           .rsrc:01005461 65                               0x65 'e'
                           .rsrc:01005462 70                               0x70 'p'
                           .rsrc:01005463 65                               0x65 'e'
                           .rsrc:01005464 6e                               0x6e 'n'
                           .rsrc:01005465 64                               0x64 'd'
                           .rsrc:01005466 65                               0x65 'e'
                           .rsrc:01005467 6e                               0x6e 'n'
                           .rsrc:01005468 63                               0x63 'c'
                           .rsrc:01005469 79                               0x79 'y'
                           .rsrc:0100546a 3e                               0x3e '>'
                           .rsrc:0100546b 0d                               0x0d ''
                           .rsrc:0100546c 0a                               0x0a '
'
                           .rsrc:0100546d 3c                               0x3c '<'
                           .rsrc:0100546e 74                               0x74 't'
                           .rsrc:0100546f 72                               0x72 'r'
                           .rsrc:01005470 75                               0x75 'u'
                           .rsrc:01005471 73                               0x73 's'
                           .rsrc:01005472 74                               0x74 't'
                           .rsrc:01005473 49                               0x49 'I'
                           .rsrc:01005474 6e                               0x6e 'n'
                           .rsrc:01005475 66                               0x66 'f'
                           .rsrc:01005476 6f                               0x6f 'o'
                           .rsrc:01005477 20                               0x20 ' '
                           .rsrc:01005478 78                               0x78 'x'
                           .rsrc:01005479 6d                               0x6d 'm'
                           .rsrc:0100547a 6c                               0x6c 'l'
                           .rsrc:0100547b 6e                               0x6e 'n'
                           .rsrc:0100547c 73                               0x73 's'
                           .rsrc:0100547d 3d                               0x3d '='
                           .rsrc:0100547e 22                               0x22 '"'
                           .rsrc:0100547f 75                               0x75 'u'
                           .rsrc:01005480 72                               0x72 'r'
                           .rsrc:01005481 6e                               0x6e 'n'
                           .rsrc:01005482 3a                               0x3a ':'
                           .rsrc:01005483 73                               0x73 's'
                           .rsrc:01005484 63                               0x63 'c'
                           .rsrc:01005485 68                               0x68 'h'
                           .rsrc:01005486 65                               0x65 'e'
                           .rsrc:01005487 6d                               0x6d 'm'
                           .rsrc:01005488 61                               0x61 'a'
                           .rsrc:01005489 73                               0x73 's'
                           .rsrc:0100548a 2d                               0x2d '-'
                           .rsrc:0100548b 6d                               0x6d 'm'
                           .rsrc:0100548c 69                               0x69 'i'
                           .rsrc:0100548d 63                               0x63 'c'
                           .rsrc:0100548e 72                               0x72 'r'
                           .rsrc:0100548f 6f                               0x6f 'o'
                           .rsrc:01005490 73                               0x73 's'
                           .rsrc:01005491 6f                               0x6f 'o'
                           .rsrc:01005492 66                               0x66 'f'
                           .rsrc:01005493 74                               0x74 't'
                           .rsrc:01005494 2d                               0x2d '-'
                           .rsrc:01005495 63                               0x63 'c'
                           .rsrc:01005496 6f                               0x6f 'o'
                           .rsrc:01005497 6d                               0x6d 'm'
                           .rsrc:01005498 3a                               0x3a ':'
                           .rsrc:01005499 61                               0x61 'a'
                           .rsrc:0100549a 73                               0x73 's'
                           .rsrc:0100549b 6d                               0x6d 'm'
                           .rsrc:0100549c 2e                               0x2e '.'
                           .rsrc:0100549d 76                               0x76 'v'
                           .rsrc:0100549e 33                               0x33 '3'
                           .rsrc:0100549f 22                               0x22 '"'
                           .rsrc:010054a0 3e                               0x3e '>'
                           .rsrc:010054a1 0d                               0x0d ''
                           .rsrc:010054a2 0a                               0x0a '
'
                           .rsrc:010054a3 20                               0x20 ' '
                           .rsrc:010054a4 20                               0x20 ' '
                           .rsrc:010054a5 20                               0x20 ' '
                           .rsrc:010054a6 20                               0x20 ' '
                           .rsrc:010054a7 3c                               0x3c '<'
                           .rsrc:010054a8 73                               0x73 's'
                           .rsrc:010054a9 65                               0x65 'e'
                           .rsrc:010054aa 63                               0x63 'c'
                           .rsrc:010054ab 75                               0x75 'u'
                           .rsrc:010054ac 72                               0x72 'r'
                           .rsrc:010054ad 69                               0x69 'i'
                           .rsrc:010054ae 74                               0x74 't'
                           .rsrc:010054af 79                               0x79 'y'
                           .rsrc:010054b0 3e                               0x3e '>'
                           .rsrc:010054b1 0d                               0x0d ''
                           .rsrc:010054b2 0a                               0x0a '
'
                           .rsrc:010054b3 20                               0x20 ' '
                           .rsrc:010054b4 20                               0x20 ' '
                           .rsrc:010054b5 20                               0x20 ' '
                           .rsrc:010054b6 20                               0x20 ' '
                           .rsrc:010054b7 20                               0x20 ' '
                           .rsrc:010054b8 20                               0x20 ' '
                           .rsrc:010054b9 20                               0x20 ' '
                           .rsrc:010054ba 20                               0x20 ' '
                           .rsrc:010054bb 3c                               0x3c '<'
                           .rsrc:010054bc 72                               0x72 'r'
                           .rsrc:010054bd 65                               0x65 'e'
                           .rsrc:010054be 71                               0x71 'q'
                           .rsrc:010054bf 75                               0x75 'u'
                           .rsrc:010054c0 65                               0x65 'e'
                           .rsrc:010054c1 73                               0x73 's'
                           .rsrc:010054c2 74                               0x74 't'
                           .rsrc:010054c3 65                               0x65 'e'
                           .rsrc:010054c4 64                               0x64 'd'
                           .rsrc:010054c5 50                               0x50 'P'
                           .rsrc:010054c6 72                               0x72 'r'
                           .rsrc:010054c7 69                               0x69 'i'
                           .rsrc:010054c8 76                               0x76 'v'
                           .rsrc:010054c9 69                               0x69 'i'
                           .rsrc:010054ca 6c                               0x6c 'l'
                           .rsrc:010054cb 65                               0x65 'e'
                           .rsrc:010054cc 67                               0x67 'g'
                           .rsrc:010054cd 65                               0x65 'e'
                           .rsrc:010054ce 73                               0x73 's'
                           .rsrc:010054cf 3e                               0x3e '>'
                           .rsrc:010054d0 0d                               0x0d ''
                           .rsrc:010054d1 0a                               0x0a '
'
                           .rsrc:010054d2 20                               0x20 ' '
                           .rsrc:010054d3 20                               0x20 ' '
                           .rsrc:010054d4 20                               0x20 ' '
                           .rsrc:010054d5 20                               0x20 ' '
                           .rsrc:010054d6 20                               0x20 ' '
                           .rsrc:010054d7 20                               0x20 ' '
                           .rsrc:010054d8 20                               0x20 ' '
                           .rsrc:010054d9 20                               0x20 ' '
                           .rsrc:010054da 20                               0x20 ' '
                           .rsrc:010054db 20                               0x20 ' '
                           .rsrc:010054dc 20                               0x20 ' '
                           .rsrc:010054dd 20                               0x20 ' '
                           .rsrc:010054de 3c                               0x3c '<'
                           .rsrc:010054df 72                               0x72 'r'
                           .rsrc:010054e0 65                               0x65 'e'
                           .rsrc:010054e1 71                               0x71 'q'
                           .rsrc:010054e2 75                               0x75 'u'
                           .rsrc:010054e3 65                               0x65 'e'
                           .rsrc:010054e4 73                               0x73 's'
                           .rsrc:010054e5 74                               0x74 't'
                           .rsrc:010054e6 65                               0x65 'e'
                           .rsrc:010054e7 64                               0x64 'd'
                           .rsrc:010054e8 45                               0x45 'E'
                           .rsrc:010054e9 78                               0x78 'x'
                           .rsrc:010054ea 65                               0x65 'e'
                           .rsrc:010054eb 63                               0x63 'c'
                           .rsrc:010054ec 75                               0x75 'u'
                           .rsrc:010054ed 74                               0x74 't'
                           .rsrc:010054ee 69                               0x69 'i'
                           .rsrc:010054ef 6f                               0x6f 'o'
                           .rsrc:010054f0 6e                               0x6e 'n'
                           .rsrc:010054f1 4c                               0x4c 'L'
                           .rsrc:010054f2 65                               0x65 'e'
                           .rsrc:010054f3 76                               0x76 'v'
                           .rsrc:010054f4 65                               0x65 'e'
                           .rsrc:010054f5 6c                               0x6c 'l'
                           .rsrc:010054f6 20                               0x20 ' '
                           .rsrc:010054f7 6c                               0x6c 'l'
                           .rsrc:010054f8 65                               0x65 'e'
                           .rsrc:010054f9 76                               0x76 'v'
                           .rsrc:010054fa 65                               0x65 'e'
                           .rsrc:010054fb 6c                               0x6c 'l'
                           .rsrc:010054fc 3d                               0x3d '='
                           .rsrc:010054fd 22                               0x22 '"'
                           .rsrc:010054fe 61                               0x61 'a'
                           .rsrc:010054ff 73                               0x73 's'
                           .rsrc:01005500 49                               0x49 'I'
                           .rsrc:01005501 6e                               0x6e 'n'
                           .rsrc:01005502 76                               0x76 'v'
                           .rsrc:01005503 6f                               0x6f 'o'
                           .rsrc:01005504 6b                               0x6b 'k'
                           .rsrc:01005505 65                               0x65 'e'
                           .rsrc:01005506 72                               0x72 'r'
                           .rsrc:01005507 22                               0x22 '"'
                           .rsrc:01005508 20                               0x20 ' '
                           .rsrc:01005509 75                               0x75 'u'
                           .rsrc:0100550a 69                               0x69 'i'
                           .rsrc:0100550b 41                               0x41 'A'
                           .rsrc:0100550c 63                               0x63 'c'
                           .rsrc:0100550d 63                               0x63 'c'
                           .rsrc:0100550e 65                               0x65 'e'
                           .rsrc:0100550f 73                               0x73 's'
                           .rsrc:01005510 73                               0x73 's'
                           .rsrc:01005511 3d                               0x3d '='
                           .rsrc:01005512 22                               0x22 '"'
                           .rsrc:01005513 66                               0x66 'f'
                           .rsrc:01005514 61                               0x61 'a'
                           .rsrc:01005515 6c                               0x6c 'l'
                           .rsrc:01005516 73                               0x73 's'
                           .rsrc:01005517 65                               0x65 'e'
                           .rsrc:01005518 22                               0x22 '"'
                           .rsrc:01005519 2f                               0x2f '/'
                           .rsrc:0100551a 3e                               0x3e '>'
                           .rsrc:0100551b 0d                               0x0d ''
                           .rsrc:0100551c 0a                               0x0a '
'
                           .rsrc:0100551d 20                               0x20 ' '
                           .rsrc:0100551e 20                               0x20 ' '
                           .rsrc:0100551f 20                               0x20 ' '
                           .rsrc:01005520 20                               0x20 ' '
                           .rsrc:01005521 20                               0x20 ' '
                           .rsrc:01005522 20                               0x20 ' '
                           .rsrc:01005523 20                               0x20 ' '
                           .rsrc:01005524 20                               0x20 ' '
                           .rsrc:01005525 3c                               0x3c '<'
                           .rsrc:01005526 2f                               0x2f '/'
                           .rsrc:01005527 72                               0x72 'r'
                           .rsrc:01005528 65                               0x65 'e'
                           .rsrc:01005529 71                               0x71 'q'
                           .rsrc:0100552a 75                               0x75 'u'
                           .rsrc:0100552b 65                               0x65 'e'
                           .rsrc:0100552c 73                               0x73 's'
                           .rsrc:0100552d 74                               0x74 't'
                           .rsrc:0100552e 65                               0x65 'e'
                           .rsrc:0100552f 64                               0x64 'd'
                           .rsrc:01005530 50                               0x50 'P'
                           .rsrc:01005531 72                               0x72 'r'
                           .rsrc:01005532 69                               0x69 'i'
                           .rsrc:01005533 76                               0x76 'v'
                           .rsrc:01005534 69                               0x69 'i'
                           .rsrc:01005535 6c                               0x6c 'l'
                           .rsrc:01005536 65                               0x65 'e'
                           .rsrc:01005537 67                               0x67 'g'
                           .rsrc:01005538 65                               0x65 'e'
                           .rsrc:01005539 73                               0x73 's'
                           .rsrc:0100553a 3e                               0x3e '>'
                           .rsrc:0100553b 0d                               0x0d ''
                           .rsrc:0100553c 0a                               0x0a '
'
                           .rsrc:0100553d 20                               0x20 ' '
                           .rsrc:0100553e 20                               0x20 ' '
                           .rsrc:0100553f 20                               0x20 ' '
                           .rsrc:01005540 20                               0x20 ' '
                           .rsrc:01005541 3c                               0x3c '<'
                           .rsrc:01005542 2f                               0x2f '/'
                           .rsrc:01005543 73                               0x73 's'
                           .rsrc:01005544 65                               0x65 'e'
                           .rsrc:01005545 63                               0x63 'c'
                           .rsrc:01005546 75                               0x75 'u'
                           .rsrc:01005547 72                               0x72 'r'
                           .rsrc:01005548 69                               0x69 'i'
                           .rsrc:01005549 74                               0x74 't'
                           .rsrc:0100554a 79                               0x79 'y'
                           .rsrc:0100554b 3e                               0x3e '>'
                           .rsrc:0100554c 0d                               0x0d ''
                           .rsrc:0100554d 0a                               0x0a '
'
                           .rsrc:0100554e 3c                               0x3c '<'
                           .rsrc:0100554f 2f                               0x2f '/'
                           .rsrc:01005550 74                               0x74 't'
                           .rsrc:01005551 72                               0x72 'r'
                           .rsrc:01005552 75                               0x75 'u'
                           .rsrc:01005553 73                               0x73 's'
                           .rsrc:01005554 74                               0x74 't'
                           .rsrc:01005555 49                               0x49 'I'
                           .rsrc:01005556 6e                               0x6e 'n'
                           .rsrc:01005557 66                               0x66 'f'
                           .rsrc:01005558 6f                               0x6f 'o'
                           .rsrc:01005559 3e                               0x3e '>'
                           .rsrc:0100555a 0d                               0x0d ''
                           .rsrc:0100555b 0a                               0x0a '
'
                           .rsrc:0100555c 3c                               0x3c '<'
                           .rsrc:0100555d 61                               0x61 'a'
                           .rsrc:0100555e 70                               0x70 'p'
                           .rsrc:0100555f 70                               0x70 'p'
                           .rsrc:01005560 6c                               0x6c 'l'
                           .rsrc:01005561 69                               0x69 'i'
                           .rsrc:01005562 63                               0x63 'c'
                           .rsrc:01005563 61                               0x61 'a'
                           .rsrc:01005564 74                               0x74 't'
                           .rsrc:01005565 69                               0x69 'i'
                           .rsrc:01005566 6f                               0x6f 'o'
                           .rsrc:01005567 6e                               0x6e 'n'
                           .rsrc:01005568 20                               0x20 ' '
                           .rsrc:01005569 78                               0x78 'x'
                           .rsrc:0100556a 6d                               0x6d 'm'
                           .rsrc:0100556b 6c                               0x6c 'l'
                           .rsrc:0100556c 6e                               0x6e 'n'
                           .rsrc:0100556d 73                               0x73 's'
                           .rsrc:0100556e 3d                               0x3d '='
                           .rsrc:0100556f 22                               0x22 '"'
                           .rsrc:01005570 75                               0x75 'u'
                           .rsrc:01005571 72                               0x72 'r'
                           .rsrc:01005572 6e                               0x6e 'n'
                           .rsrc:01005573 3a                               0x3a ':'
                           .rsrc:01005574 73                               0x73 's'
                           .rsrc:01005575 63                               0x63 'c'
                           .rsrc:01005576 68                               0x68 'h'
                           .rsrc:01005577 65                               0x65 'e'
                           .rsrc:01005578 6d                               0x6d 'm'
                           .rsrc:01005579 61                               0x61 'a'
                           .rsrc:0100557a 73                               0x73 's'
                           .rsrc:0100557b 2d                               0x2d '-'
                           .rsrc:0100557c 6d                               0x6d 'm'
                           .rsrc:0100557d 69                               0x69 'i'
                           .rsrc:0100557e 63                               0x63 'c'
                           .rsrc:0100557f 72                               0x72 'r'
                           .rsrc:01005580 6f                               0x6f 'o'
                           .rsrc:01005581 73                               0x73 's'
                           .rsrc:01005582 6f                               0x6f 'o'
                           .rsrc:01005583 66                               0x66 'f'
                           .rsrc:01005584 74                               0x74 't'
                           .rsrc:01005585 2d                               0x2d '-'
                           .rsrc:01005586 63                               0x63 'c'
                           .rsrc:01005587 6f                               0x6f 'o'
                           .rsrc:01005588 6d                               0x6d 'm'
                           .rsrc:01005589 3a                               0x3a ':'
                           .rsrc:0100558a 61                               0x61 'a'
                           .rsrc:0100558b 73                               0x73 's'
                           .rsrc:0100558c 6d                               0x6d 'm'
                           .rsrc:0100558d 2e                               0x2e '.'
                           .rsrc:0100558e 76                               0x76 'v'
                           .rsrc:0100558f 33                               0x33 '3'
                           .rsrc:01005590 22                               0x22 '"'
                           .rsrc:01005591 3e                               0x3e '>'
                           .rsrc:01005592 0d                               0x0d ''
                           .rsrc:01005593 0a                               0x0a '
'
                           .rsrc:01005594 20                               0x20 ' '
                           .rsrc:01005595 20                               0x20 ' '
                           .rsrc:01005596 20                               0x20 ' '
                           .rsrc:01005597 20                               0x20 ' '
                           .rsrc:01005598 3c                               0x3c '<'
                           .rsrc:01005599 77                               0x77 'w'
                           .rsrc:0100559a 69                               0x69 'i'
                           .rsrc:0100559b 6e                               0x6e 'n'
                           .rsrc:0100559c 64                               0x64 'd'
                           .rsrc:0100559d 6f                               0x6f 'o'
                           .rsrc:0100559e 77                               0x77 'w'
                           .rsrc:0100559f 73                               0x73 's'
                           .rsrc:010055a0 53                               0x53 'S'
                           .rsrc:010055a1 65                               0x65 'e'
                           .rsrc:010055a2 74                               0x74 't'
                           .rsrc:010055a3 74                               0x74 't'
                           .rsrc:010055a4 69                               0x69 'i'
                           .rsrc:010055a5 6e                               0x6e 'n'
                           .rsrc:010055a6 67                               0x67 'g'
                           .rsrc:010055a7 73                               0x73 's'
                           .rsrc:010055a8 3e                               0x3e '>'
                           .rsrc:010055a9 0d                               0x0d ''
                           .rsrc:010055aa 0a                               0x0a '
'
                           .rsrc:010055ab 20                               0x20 ' '
                           .rsrc:010055ac 20                               0x20 ' '
                           .rsrc:010055ad 20                               0x20 ' '
                           .rsrc:010055ae 20                               0x20 ' '
                           .rsrc:010055af 20                               0x20 ' '
                           .rsrc:010055b0 20                               0x20 ' '
                           .rsrc:010055b1 20                               0x20 ' '
                           .rsrc:010055b2 20                               0x20 ' '
                           .rsrc:010055b3 3c                               0x3c '<'
                           .rsrc:010055b4 64                               0x64 'd'
                           .rsrc:010055b5 70                               0x70 'p'
                           .rsrc:010055b6 69                               0x69 'i'
                           .rsrc:010055b7 41                               0x41 'A'
                           .rsrc:010055b8 77                               0x77 'w'
                           .rsrc:010055b9 61                               0x61 'a'
                           .rsrc:010055ba 72                               0x72 'r'
                           .rsrc:010055bb 65                               0x65 'e'
                           .rsrc:010055bc 20                               0x20 ' '
                           .rsrc:010055bd 20                               0x20 ' '
                           .rsrc:010055be 78                               0x78 'x'
                           .rsrc:010055bf 6d                               0x6d 'm'
                           .rsrc:010055c0 6c                               0x6c 'l'
                           .rsrc:010055c1 6e                               0x6e 'n'
                           .rsrc:010055c2 73                               0x73 's'
                           .rsrc:010055c3 3d                               0x3d '='
                           .rsrc:010055c4 22                               0x22 '"'
                           .rsrc:010055c5 68                               0x68 'h'
                           .rsrc:010055c6 74                               0x74 't'
                           .rsrc:010055c7 74                               0x74 't'
                           .rsrc:010055c8 70                               0x70 'p'
                           .rsrc:010055c9 3a                               0x3a ':'
                           .rsrc:010055ca 2f                               0x2f '/'
                           .rsrc:010055cb 2f                               0x2f '/'
                           .rsrc:010055cc 73                               0x73 's'
                           .rsrc:010055cd 63                               0x63 'c'
                           .rsrc:010055ce 68                               0x68 'h'
                           .rsrc:010055cf 65                               0x65 'e'
                           .rsrc:010055d0 6d                               0x6d 'm'
                           .rsrc:010055d1 61                               0x61 'a'
                           .rsrc:010055d2 73                               0x73 's'
                           .rsrc:010055d3 2e                               0x2e '.'
                           .rsrc:010055d4 6d                               0x6d 'm'
                           .rsrc:010055d5 69                               0x69 'i'
                           .rsrc:010055d6 63                               0x63 'c'
                           .rsrc:010055d7 72                               0x72 'r'
                           .rsrc:010055d8 6f                               0x6f 'o'
                           .rsrc:010055d9 73                               0x73 's'
                           .rsrc:010055da 6f                               0x6f 'o'
                           .rsrc:010055db 66                               0x66 'f'
                           .rsrc:010055dc 74                               0x74 't'
                           .rsrc:010055dd 2e                               0x2e '.'
                           .rsrc:010055de 63                               0x63 'c'
                           .rsrc:010055df 6f                               0x6f 'o'
                           .rsrc:010055e0 6d                               0x6d 'm'
                           .rsrc:010055e1 2f                               0x2f '/'
                           .rsrc:010055e2 53                               0x53 'S'
                           .rsrc:010055e3 4d                               0x4d 'M'
                           .rsrc:010055e4 49                               0x49 'I'
                           .rsrc:010055e5 2f                               0x2f '/'
                           .rsrc:010055e6 32                               0x32 '2'
                           .rsrc:010055e7 30                               0x30 '0'
                           .rsrc:010055e8 30                               0x30 '0'
                           .rsrc:010055e9 35                               0x35 '5'
                           .rsrc:010055ea 2f                               0x2f '/'
                           .rsrc:010055eb 57                               0x57 'W'
                           .rsrc:010055ec 69                               0x69 'i'
                           .rsrc:010055ed 6e                               0x6e 'n'
                           .rsrc:010055ee 64                               0x64 'd'
                           .rsrc:010055ef 6f                               0x6f 'o'
                           .rsrc:010055f0 77                               0x77 'w'
                           .rsrc:010055f1 73                               0x73 's'
                           .rsrc:010055f2 53                               0x53 'S'
                           .rsrc:010055f3 65                               0x65 'e'
                           .rsrc:010055f4 74                               0x74 't'
                           .rsrc:010055f5 74                               0x74 't'
                           .rsrc:010055f6 69                               0x69 'i'
                           .rsrc:010055f7 6e                               0x6e 'n'
                           .rsrc:010055f8 67                               0x67 'g'
                           .rsrc:010055f9 73                               0x73 's'
                           .rsrc:010055fa 22                               0x22 '"'
                           .rsrc:010055fb 3e                               0x3e '>'
                           .rsrc:010055fc 74                               0x74 't'
                           .rsrc:010055fd 72                               0x72 'r'
                           .rsrc:010055fe 75                               0x75 'u'
                           .rsrc:010055ff 65                               0x65 'e'
                           .rsrc:01005600 3c                               0x3c '<'
                           .rsrc:01005601 2f                               0x2f '/'
                           .rsrc:01005602 64                               0x64 'd'
                           .rsrc:01005603 70                               0x70 'p'
                           .rsrc:01005604 69                               0x69 'i'
                           .rsrc:01005605 41                               0x41 'A'
                           .rsrc:01005606 77                               0x77 'w'
                           .rsrc:01005607 61                               0x61 'a'
                           .rsrc:01005608 72                               0x72 'r'
                           .rsrc:01005609 65                               0x65 'e'
                           .rsrc:0100560a 3e                               0x3e '>'
                           .rsrc:0100560b 0d                               0x0d ''
                           .rsrc:0100560c 0a                               0x0a '
'
                           .rsrc:0100560d 20                               0x20 ' '
                           .rsrc:0100560e 20                               0x20 ' '
                           .rsrc:0100560f 20                               0x20 ' '
                           .rsrc:01005610 20                               0x20 ' '
                           .rsrc:01005611 3c                               0x3c '<'
                           .rsrc:01005612 2f                               0x2f '/'
                           .rsrc:01005613 77                               0x77 'w'
                           .rsrc:01005614 69                               0x69 'i'
                           .rsrc:01005615 6e                               0x6e 'n'
                           .rsrc:01005616 64                               0x64 'd'
                           .rsrc:01005617 6f                               0x6f 'o'
                           .rsrc:01005618 77                               0x77 'w'
                           .rsrc:01005619 73                               0x73 's'
                           .rsrc:0100561a 53                               0x53 'S'
                           .rsrc:0100561b 65                               0x65 'e'
                           .rsrc:0100561c 74                               0x74 't'
                           .rsrc:0100561d 74                               0x74 't'
                           .rsrc:0100561e 69                               0x69 'i'
                           .rsrc:0100561f 6e                               0x6e 'n'
                           .rsrc:01005620 67                               0x67 'g'
                           .rsrc:01005621 73                               0x73 's'
                           .rsrc:01005622 3e                               0x3e '>'
                           .rsrc:01005623 0d                               0x0d ''
                           .rsrc:01005624 0a                               0x0a '
'
                           .rsrc:01005625 3c                               0x3c '<'
                           .rsrc:01005626 2f                               0x2f '/'
                           .rsrc:01005627 61                               0x61 'a'
                           .rsrc:01005628 70                               0x70 'p'
                           .rsrc:01005629 70                               0x70 'p'
                           .rsrc:0100562a 6c                               0x6c 'l'
                           .rsrc:0100562b 69                               0x69 'i'
                           .rsrc:0100562c 63                               0x63 'c'
                           .rsrc:0100562d 61                               0x61 'a'
                           .rsrc:0100562e 74                               0x74 't'
                           .rsrc:0100562f 69                               0x69 'i'
                           .rsrc:01005630 6f                               0x6f 'o'
                           .rsrc:01005631 6e                               0x6e 'n'
                           .rsrc:01005632 3e                               0x3e '>'
                           .rsrc:01005633 0d                               0x0d ''
                           .rsrc:01005634 0a                               0x0a '
'
                           .rsrc:01005635 3c                               0x3c '<'
                           .rsrc:01005636 2f                               0x2f '/'
                           .rsrc:01005637 61                               0x61 'a'
                           .rsrc:01005638 73                               0x73 's'
                           .rsrc:01005639 73                               0x73 's'
                           .rsrc:0100563a 65                               0x65 'e'
                           .rsrc:0100563b 6d                               0x6d 'm'
                           .rsrc:0100563c 62                               0x62 'b'
                           .rsrc:0100563d 6c                               0x6c 'l'
                           .rsrc:0100563e 79                               0x79 'y'
                           .rsrc:0100563f 3e                               0x3e '>'
                           .rsrc:01005640 0d                               0x0d ''
                           .rsrc:01005641 0a                               0x0a '
'
                           .rsrc:01005642 00                               0x00 
                           .rsrc:01005643 00                               0x00 
                           .rsrc:01005644 00                               0x00 
                           .rsrc:01005645 00                               0x00 
                           .rsrc:01005646 00                               0x00 
                           .rsrc:01005647 00                               0x00 
                           .rsrc:01005648 28                               0x28 '('
                           .rsrc:01005649 00                               0x00 
                           .rsrc:0100564a 00                               0x00 
                           .rsrc:0100564b 00                               0x00 
                           .rsrc:0100564c 20                               0x20 ' '
                           .rsrc:0100564d 00                               0x00 
                           .rsrc:0100564e 00                               0x00 
                           .rsrc:0100564f 00                               0x00 
                           .rsrc:01005650 40                               0x40 '@'
                           .rsrc:01005651 00                               0x00 
                           .rsrc:01005652 00                               0x00 
                           .rsrc:01005653 00                               0x00 
                           .rsrc:01005654 01                               0x01 
                           .rsrc:01005655 00                               0x00 
                           .rsrc:01005656 01                               0x01 
                           .rsrc:01005657 00                               0x00 
                           .rsrc:01005658 00                               0x00 
                           .rsrc:01005659 00                               0x00 
                           .rsrc:0100565a 00                               0x00 
                           .rsrc:0100565b 00                               0x00 
                           .rsrc:0100565c 00                               0x00 
                           .rsrc:0100565d 01                               0x01 
                           .rsrc:0100565e 00                               0x00 
                           .rsrc:0100565f 00                               0x00 
                           .rsrc:01005660 00                               0x00 
                           .rsrc:01005661 00                               0x00 
                           .rsrc:01005662 00                               0x00 
                           .rsrc:01005663 00                               0x00 
                           .rsrc:01005664 00                               0x00 
                           .rsrc:01005665 00                               0x00 
                           .rsrc:01005666 00                               0x00 
                           .rsrc:01005667 00                               0x00 
                           .rsrc:01005668 00                               0x00 
                           .rsrc:01005669 00                               0x00 
                           .rsrc:0100566a 00                               0x00 
                           .rsrc:0100566b 00                               0x00 
                           .rsrc:0100566c 00                               0x00 
                           .rsrc:0100566d 00                               0x00 
                           .rsrc:0100566e 00                               0x00 
                           .rsrc:0100566f 00                               0x00 
                           .rsrc:01005670 00                               0x00 
                           .rsrc:01005671 00                               0x00 
                           .rsrc:01005672 00                               0x00 
                           .rsrc:01005673 00                               0x00 
                           .rsrc:01005674 ff                               0xff 
                           .rsrc:01005675 ff                               0xff 
                           .rsrc:01005676 ff                               0xff 
                           .rsrc:01005677 00                               0x00 
                           .rsrc:01005678 00                               0x00 
                           .rsrc:01005679 00                               0x00 
                           .rsrc:0100567a 00                               0x00 
                           .rsrc:0100567b 00                               0x00 
                           .rsrc:0100567c 00                               0x00 
                           .rsrc:0100567d 00                               0x00 
                           .rsrc:0100567e 00                               0x00 
                           .rsrc:0100567f 00                               0x00 
                           .rsrc:01005680 3f                               0x3f '?'
                           .rsrc:01005681 ff                               0xff 
                           .rsrc:01005682 fe                               0xfe 
                           .rsrc:01005683 00                               0x00 
                           .rsrc:01005684 30                               0x30 '0'
                           .rsrc:01005685 c1                               0xc1 
                           .rsrc:01005686 86                               0x86 
                           .rsrc:01005687 00                               0x00 
                           .rsrc:01005688 3f                               0x3f '?'
                           .rsrc:01005689 ff                               0xff 
                           .rsrc:0100568a fe                               0xfe 
                           .rsrc:0100568b 00                               0x00 
                           .rsrc:0100568c 30                               0x30 '0'
                           .rsrc:0100568d e7                               0xe7 
                           .rsrc:0100568e 86                               0x86 
                           .rsrc:0100568f 00                               0x00 
                           .rsrc:01005690 3a                               0x3a ':'
                           .rsrc:01005691 cb                               0xcb 
                           .rsrc:01005692 a6                               0xa6 
                           .rsrc:01005693 00                               0x00 
                           .rsrc:01005694 3c                               0x3c '<'
                           .rsrc:01005695 c1                               0xc1 
                           .rsrc:01005696 8e                               0x8e 
                           .rsrc:01005697 00                               0x00 
                           .rsrc:01005698 3f                               0x3f '?'
                           .rsrc:01005699 ff                               0xff 
                           .rsrc:0100569a fe                               0xfe 
                           .rsrc:0100569b fc                               0xfc 
                           .rsrc:0100569c 30                               0x30 '0'
                           .rsrc:0100569d c1                               0xc1 
                           .rsrc:0100569e 86                               0x86 
                           .rsrc:0100569f 84                               0x84 
                           .rsrc:010056a0 3f                               0x3f '?'
                           .rsrc:010056a1 ff                               0xff 
                           .rsrc:010056a2 fe                               0xfe 
                           .rsrc:010056a3 fc                               0xfc 
                           .rsrc:010056a4 38                               0x38 '8'
                           .rsrc:010056a5 e3                               0xe3 
                           .rsrc:010056a6 06                               0x06 
                           .rsrc:010056a7 84                               0x84 
                           .rsrc:010056a8 30                               0x30 '0'
                           .rsrc:010056a9 c3                               0xc3 
                           .rsrc:010056aa 56                               0x56 'V'
                           .rsrc:010056ab fc                               0xfc 
                           .rsrc:010056ac 3a                               0x3a ':'
                           .rsrc:010056ad eb                               0xeb 
                           .rsrc:010056ae ae                               0xae 
                           .rsrc:010056af 84                               0x84 
                           .rsrc:010056b0 38                               0x38 '8'
                           .rsrc:010056b1 e3                               0xe3 
                           .rsrc:010056b2 8e                               0x8e 
                           .rsrc:010056b3 fc                               0xfc 
                           .rsrc:010056b4 3f                               0x3f '?'
                           .rsrc:010056b5 ff                               0xff 
                           .rsrc:010056b6 fe                               0xfe 
                           .rsrc:010056b7 84                               0x84 
                           .rsrc:010056b8 00                               0x00 
                           .rsrc:010056b9 00                               0x00 
                           .rsrc:010056ba 00                               0x00 
                           .rsrc:010056bb fc                               0xfc 
                           .rsrc:010056bc 3f                               0x3f '?'
                           .rsrc:010056bd ff                               0xff 
                           .rsrc:010056be fe                               0xfe 
                           .rsrc:010056bf 84                               0x84 
                           .rsrc:010056c0 00                               0x00 
                           .rsrc:010056c1 00                               0x00 
                           .rsrc:010056c2 00                               0x00 
                           .rsrc:010056c3 fc                               0xfc 
                           .rsrc:010056c4 00                               0x00 
                           .rsrc:010056c5 00                               0x00 
                           .rsrc:010056c6 ff                               0xff 
                           .rsrc:010056c7 84                               0x84 
                           .rsrc:010056c8 00                               0x00 
                           .rsrc:010056c9 00                               0x00 
                           .rsrc:010056ca ff                               0xff 
                           .rsrc:010056cb fc                               0xfc 
                           .rsrc:010056cc 00                               0x00 
                           .rsrc:010056cd 00                               0x00 
                           .rsrc:010056ce 00                               0x00 
                           .rsrc:010056cf 00                               0x00 
                           .rsrc:010056d0 00                               0x00 
                           .rsrc:010056d1 c0                               0xc0 
                           .rsrc:010056d2 ff                               0xff 
                           .rsrc:010056d3 fc                               0xfc 
                           .rsrc:010056d4 01                               0x01 
                           .rsrc:010056d5 28                               0x28 '('
                           .rsrc:010056d6 00                               0x00 
                           .rsrc:010056d7 00                               0x00 
                           .rsrc:010056d8 01                               0x01 
                           .rsrc:010056d9 00                               0x00 
                           .rsrc:010056da 00                               0x00 
                           .rsrc:010056db 00                               0x00 
                           .rsrc:010056dc 01                               0x01 
                           .rsrc:010056dd 28                               0x28 '('
                           .rsrc:010056de 00                               0x00 
                           .rsrc:010056df 00                               0x00 
                           .rsrc:010056e0 00                               0x00 
                           .rsrc:010056e1 c0                               0xc0 
                           .rsrc:010056e2 00                               0x00 
                           .rsrc:010056e3 00                               0x00 
                           .rsrc:010056e4 00                               0x00 
                           .rsrc:010056e5 00                               0x00 
                           .rsrc:010056e6 00                               0x00 
                           .rsrc:010056e7 00                               0x00 
                           .rsrc:010056e8 00                               0x00 
                           .rsrc:010056e9 00                               0x00 
                           .rsrc:010056ea 00                               0x00 
                           .rsrc:010056eb 00                               0x00 
                           .rsrc:010056ec 03                               0x03 
                           .rsrc:010056ed ff                               0xff 
                           .rsrc:010056ee ff                               0xff 
                           .rsrc:010056ef c0                               0xc0 
                           .rsrc:010056f0 00                               0x00 
                           .rsrc:010056f1 00                               0x00 
                           .rsrc:010056f2 00                               0x00 
                           .rsrc:010056f3 00                               0x00 
                           .rsrc:010056f4 00                               0x00 
                           .rsrc:010056f5 00                               0x00 
                           .rsrc:010056f6 00                               0x00 
                           .rsrc:010056f7 00                               0x00 
                           .rsrc:010056f8 ff                               0xff 
                           .rsrc:010056f9 ff                               0xff 
                           .rsrc:010056fa ff                               0xff 
                           .rsrc:010056fb ff                               0xff 
                           .rsrc:010056fc 80                               0x80 
                           .rsrc:010056fd 00                               0x00 
                           .rsrc:010056fe 00                               0x00 
                           .rsrc:010056ff ff                               0xff 
                           .rsrc:01005700 80                               0x80 
                           .rsrc:01005701 00                               0x00 
                           .rsrc:01005702 00                               0x00 
                           .rsrc:01005703 ff                               0xff 
                           .rsrc:01005704 80                               0x80 
                           .rsrc:01005705 00                               0x00 
                           .rsrc:01005706 00                               0x00 
                           .rsrc:01005707 ff                               0xff 
                           .rsrc:01005708 80                               0x80 
                           .rsrc:01005709 00                               0x00 
                           .rsrc:0100570a 00                               0x00 
                           .rsrc:0100570b ff                               0xff 
                           .rsrc:0100570c 80                               0x80 
                           .rsrc:0100570d 00                               0x00 
                           .rsrc:0100570e 00                               0x00 
                           .rsrc:0100570f ff                               0xff 
                           .rsrc:01005710 80                               0x80 
                           .rsrc:01005711 00                               0x00 
                           .rsrc:01005712 00                               0x00 
                           .rsrc:01005713 ff                               0xff 
                           .rsrc:01005714 80                               0x80 
                           .rsrc:01005715 00                               0x00 
                           .rsrc:01005716 00                               0x00 
                           .rsrc:01005717 01                               0x01 
                           .rsrc:01005718 80                               0x80 
                           .rsrc:01005719 00                               0x00 
                           .rsrc:0100571a 00                               0x00 
                           .rsrc:0100571b 01                               0x01 
                           .rsrc:0100571c 80                               0x80 
                           .rsrc:0100571d 00                               0x00 
                           .rsrc:0100571e 00                               0x00 
                           .rsrc:0100571f 01                               0x01 
                           .rsrc:01005720 80                               0x80 
                           .rsrc:01005721 00                               0x00 
                           .rsrc:01005722 00                               0x00 
                           .rsrc:01005723 01                               0x01 
                           .rsrc:01005724 80                               0x80 
                           .rsrc:01005725 00                               0x00 
                           .rsrc:01005726 00                               0x00 
                           .rsrc:01005727 01                               0x01 
                           .rsrc:01005728 80                               0x80 
                           .rsrc:01005729 00                               0x00 
                           .rsrc:0100572a 00                               0x00 
                           .rsrc:0100572b 01                               0x01 
                           .rsrc:0100572c 80                               0x80 
                           .rsrc:0100572d 00                               0x00 
                           .rsrc:0100572e 00                               0x00 
                           .rsrc:0100572f 01                               0x01 
                           .rsrc:01005730 80                               0x80 
                           .rsrc:01005731 00                               0x00 
                           .rsrc:01005732 00                               0x00 
                           .rsrc:01005733 01                               0x01 
                           .rsrc:01005734 80                               0x80 
                           .rsrc:01005735 00                               0x00 
                           .rsrc:01005736 00                               0x00 
                           .rsrc:01005737 01                               0x01 
                           .rsrc:01005738 80                               0x80 
                           .rsrc:01005739 00                               0x00 
                           .rsrc:0100573a 00                               0x00 
                           .rsrc:0100573b 01                               0x01 
                           .rsrc:0100573c 80                               0x80 
                           .rsrc:0100573d 00                               0x00 
                           .rsrc:0100573e 00                               0x00 
                           .rsrc:0100573f 01                               0x01 
                           .rsrc:01005740 80                               0x80 
                           .rsrc:01005741 00                               0x00 
                           .rsrc:01005742 00                               0x00 
                           .rsrc:01005743 01                               0x01 
                           .rsrc:01005744 f8                               0xf8 
                           .rsrc:01005745 00                               0x00 
                           .rsrc:01005746 00                               0x00 
                           .rsrc:01005747 01                               0x01 
                           .rsrc:01005748 f8                               0xf8 
                           .rsrc:01005749 00                               0x00 
                           .rsrc:0100574a 00                               0x00 
                           .rsrc:0100574b 01                               0x01 
                           .rsrc:0100574c f8                               0xf8 
                           .rsrc:0100574d 00                               0x00 
                           .rsrc:0100574e 00                               0x00 
                           .rsrc:0100574f 01                               0x01 
                           .rsrc:01005750 f8                               0xf8 
                           .rsrc:01005751 00                               0x00 
                           .rsrc:01005752 00                               0x00 
                           .rsrc:01005753 01                               0x01 
                           .rsrc:01005754 f8                               0xf8 
                           .rsrc:01005755 00                               0x00 
                           .rsrc:01005756 00                               0x00 
                           .rsrc:01005757 01                               0x01 
                           .rsrc:01005758 f8                               0xf8 
                           .rsrc:01005759 00                               0x00 
                           .rsrc:0100575a 00                               0x00 
                           .rsrc:0100575b 1f                               0x1f 
                           .rsrc:0100575c f8                               0xf8 
                           .rsrc:0100575d 00                               0x00 
                           .rsrc:0100575e 00                               0x00 
                           .rsrc:0100575f 1f                               0x1f 
                           .rsrc:01005760 f8                               0xf8 
                           .rsrc:01005761 00                               0x00 
                           .rsrc:01005762 00                               0x00 
                           .rsrc:01005763 1f                               0x1f 
                           .rsrc:01005764 f8                               0xf8 
                           .rsrc:01005765 00                               0x00 
                           .rsrc:01005766 00                               0x00 
                           .rsrc:01005767 1f                               0x1f 
                           .rsrc:01005768 f8                               0xf8 
                           .rsrc:01005769 00                               0x00 
                           .rsrc:0100576a 00                               0x00 
                           .rsrc:0100576b 1f                               0x1f 
                           .rsrc:0100576c f8                               0xf8 
                           .rsrc:0100576d 00                               0x00 
                           .rsrc:0100576e 00                               0x00 
                           .rsrc:0100576f 1f                               0x1f 
                           .rsrc:01005770 f8                               0xf8 
                           .rsrc:01005771 00                               0x00 
                           .rsrc:01005772 00                               0x00 
                           .rsrc:01005773 1f                               0x1f 
                           .rsrc:01005774 ff                               0xff 
                           .rsrc:01005775 ff                               0xff 
                           .rsrc:01005776 ff                               0xff 
                           .rsrc:01005777 ff                               0xff 
                           .rsrc:01005778 28                               0x28 '('
                           .rsrc:01005779 00                               0x00 
                           .rsrc:0100577a 00                               0x00 
                           .rsrc:0100577b 00                               0x00 
                           .rsrc:0100577c 20                               0x20 ' '
                           .rsrc:0100577d 00                               0x00 
                           .rsrc:0100577e 00                               0x00 
                           .rsrc:0100577f 00                               0x00 
                           .rsrc:01005780 40                               0x40 '@'
                           .rsrc:01005781 00                               0x00 
                           .rsrc:01005782 00                               0x00 
                           .rsrc:01005783 00                               0x00 
                           .rsrc:01005784 01                               0x01 
                           .rsrc:01005785 00                               0x00 
                           .rsrc:01005786 04                               0x04 
                           .rsrc:01005787 00                               0x00 
                           .rsrc:01005788 00                               0x00 
                           .rsrc:01005789 00                               0x00 
                           .rsrc:0100578a 00                               0x00 
                           .rsrc:0100578b 00                               0x00 
                           .rsrc:0100578c 80                               0x80 
                           .rsrc:0100578d 02                               0x02 
                           .rsrc:0100578e 00                               0x00 
                           .rsrc:0100578f 00                               0x00 
                           .rsrc:01005790 00                               0x00 
                           .rsrc:01005791 00                               0x00 
                           .rsrc:01005792 00                               0x00 
                           .rsrc:01005793 00                               0x00 
                           .rsrc:01005794 00                               0x00 
                           .rsrc:01005795 00                               0x00 
                           .rsrc:01005796 00                               0x00 
                           .rsrc:01005797 00                               0x00 
                           .rsrc:01005798 00                               0x00 
                           .rsrc:01005799 00                               0x00 
                           .rsrc:0100579a 00                               0x00 
                           .rsrc:0100579b 00                               0x00 
                           .rsrc:0100579c 00                               0x00 
                           .rsrc:0100579d 00                               0x00 
                           .rsrc:0100579e 00                               0x00 
                           .rsrc:0100579f 00                               0x00 
                           .rsrc:010057a0 00                               0x00 
                           .rsrc:010057a1 00                               0x00 
                           .rsrc:010057a2 00                               0x00 
                           .rsrc:010057a3 00                               0x00 
                           .rsrc:010057a4 00                               0x00 
                           .rsrc:010057a5 00                               0x00 
                           .rsrc:010057a6 80                               0x80 
                           .rsrc:010057a7 00                               0x00 
                           .rsrc:010057a8 00                               0x00 
                           .rsrc:010057a9 80                               0x80 
                           .rsrc:010057aa 00                               0x00 
                           .rsrc:010057ab 00                               0x00 
                           .rsrc:010057ac 00                               0x00 
                           .rsrc:010057ad 80                               0x80 
                           .rsrc:010057ae 80                               0x80 
                           .rsrc:010057af 00                               0x00 
                           .rsrc:010057b0 80                               0x80 
                           .rsrc:010057b1 00                               0x00 
                           .rsrc:010057b2 00                               0x00 
                           .rsrc:010057b3 00                               0x00 
                           .rsrc:010057b4 80                               0x80 
                           .rsrc:010057b5 00                               0x00 
                           .rsrc:010057b6 80                               0x80 
                           .rsrc:010057b7 00                               0x00 
                           .rsrc:010057b8 80                               0x80 
                           .rsrc:010057b9 80                               0x80 
                           .rsrc:010057ba 00                               0x00 
                           .rsrc:010057bb 00                               0x00 
                           .rsrc:010057bc 80                               0x80 
                           .rsrc:010057bd 80                               0x80 
                           .rsrc:010057be 80                               0x80 
                           .rsrc:010057bf 00                               0x00 
                           .rsrc:010057c0 c0                               0xc0 
                           .rsrc:010057c1 c0                               0xc0 
                           .rsrc:010057c2 c0                               0xc0 
                           .rsrc:010057c3 00                               0x00 
                           .rsrc:010057c4 00                               0x00 
                           .rsrc:010057c5 00                               0x00 
                           .rsrc:010057c6 ff                               0xff 
                           .rsrc:010057c7 00                               0x00 
                           .rsrc:010057c8 00                               0x00 
                           .rsrc:010057c9 ff                               0xff 
                           .rsrc:010057ca 00                               0x00 
                           .rsrc:010057cb 00                               0x00 
                           .rsrc:010057cc 00                               0x00 
                           .rsrc:010057cd ff                               0xff 
                           .rsrc:010057ce ff                               0xff 
                           .rsrc:010057cf 00                               0x00 
                           .rsrc:010057d0 ff                               0xff 
                           .rsrc:010057d1 00                               0x00 
                           .rsrc:010057d2 00                               0x00 
                           .rsrc:010057d3 00                               0x00 
                           .rsrc:010057d4 ff                               0xff 
                           .rsrc:010057d5 00                               0x00 
                           .rsrc:010057d6 ff                               0xff 
                           .rsrc:010057d7 00                               0x00 
                           .rsrc:010057d8 ff                               0xff 
                           .rsrc:010057d9 ff                               0xff 
                           .rsrc:010057da 00                               0x00 
                           .rsrc:010057db 00                               0x00 
                           .rsrc:010057dc ff                               0xff 
                           .rsrc:010057dd ff                               0xff 
                           .rsrc:010057de ff                               0xff 
                           .rsrc:010057df 00                               0x00 
                           .rsrc:010057e0 00                               0x00 
                           .rsrc:010057e1 00                               0x00 
                           .rsrc:010057e2 00                               0x00 
                           .rsrc:010057e3 00                               0x00 
                           .rsrc:010057e4 00                               0x00 
                           .rsrc:010057e5 00                               0x00 
                           .rsrc:010057e6 00                               0x00 
                           .rsrc:010057e7 00                               0x00 
                           .rsrc:010057e8 00                               0x00 
                           .rsrc:010057e9 00                               0x00 
                           .rsrc:010057ea 00                               0x00 
                           .rsrc:010057eb 00                               0x00 
                           .rsrc:010057ec 00                               0x00 
                           .rsrc:010057ed 00                               0x00 
                           .rsrc:010057ee 00                               0x00 
                           .rsrc:010057ef 00                               0x00 
                           .rsrc:010057f0 07                               0x07 
                           .rsrc:010057f1 77                               0x77 'w'
                           .rsrc:010057f2 77                               0x77 'w'
                           .rsrc:010057f3 77                               0x77 'w'
                           .rsrc:010057f4 77                               0x77 'w'
                           .rsrc:010057f5 77                               0x77 'w'
                           .rsrc:010057f6 77                               0x77 'w'
                           .rsrc:010057f7 77                               0x77 'w'
                           .rsrc:010057f8 77                               0x77 'w'
                           .rsrc:010057f9 77                               0x77 'w'
                           .rsrc:010057fa 77                               0x77 'w'
                           .rsrc:010057fb 77                               0x77 'w'
                           .rsrc:010057fc 00                               0x00 
                           .rsrc:010057fd 00                               0x00 
                           .rsrc:010057fe 00                               0x00 
                           .rsrc:010057ff 00                               0x00 
                           .rsrc:01005800 00                               0x00 
                           .rsrc:01005801 00                               0x00 
                           .rsrc:01005802 00                               0x00 
                           .rsrc:01005803 00                               0x00 
                           .rsrc:01005804 00                               0x00 
                           .rsrc:01005805 00                               0x00 
                           .rsrc:01005806 00                               0x00 
                           .rsrc:01005807 00                               0x00 
                           .rsrc:01005808 00                               0x00 
                           .rsrc:01005809 00                               0x00 
                           .rsrc:0100580a 00                               0x00 
                           .rsrc:0100580b 07                               0x07 
                           .rsrc:0100580c 00                               0x00 
                           .rsrc:0100580d 00                               0x00 
                           .rsrc:0100580e 00                               0x00 
                           .rsrc:0100580f 00                               0x00 
                           .rsrc:01005810 0f                               0x0f 
                           .rsrc:01005811 ff                               0xff 
                           .rsrc:01005812 ff                               0xff 
                           .rsrc:01005813 ff                               0xff 
                           .rsrc:01005814 ff                               0xff 
                           .rsrc:01005815 ff                               0xff 
                           .rsrc:01005816 ff                               0xff 
                           .rsrc:01005817 ff                               0xff 
                           .rsrc:01005818 ff                               0xff 
                           .rsrc:01005819 ff                               0xff 
                           .rsrc:0100581a ff                               0xff 
                           .rsrc:0100581b 07                               0x07 
                           .rsrc:0100581c 00                               0x00 
                           .rsrc:0100581d 00                               0x00 
                           .rsrc:0100581e 00                               0x00 
                           .rsrc:0100581f 00                               0x00 
                           .rsrc:01005820 0f                               0x0f 
                           .rsrc:01005821 f0                               0xf0 
                           .rsrc:01005822 00                               0x00 
                           .rsrc:01005823 0f                               0x0f 
                           .rsrc:01005824 f0                               0xf0 
                           .rsrc:01005825 00                               0x00 
                           .rsrc:01005826 00                               0x00 
                           .rsrc:01005827 ff                               0xff 
                           .rsrc:01005828 00                               0x00 
                           .rsrc:01005829 00                               0x00 
                           .rsrc:0100582a ff                               0xff 
                           .rsrc:0100582b 07                               0x07 
                           .rsrc:0100582c 00                               0x00 
                           .rsrc:0100582d 00                               0x00 
                           .rsrc:0100582e 00                               0x00 
                           .rsrc:0100582f 00                               0x00 
                           .rsrc:01005830 0f                               0x0f 
                           .rsrc:01005831 ff                               0xff 
                           .rsrc:01005832 ff                               0xff 
                           .rsrc:01005833 ff                               0xff 
                           .rsrc:01005834 ff                               0xff 
                           .rsrc:01005835 ff                               0xff 
                           .rsrc:01005836 ff                               0xff 
                           .rsrc:01005837 ff                               0xff 
                           .rsrc:01005838 ff                               0xff 
                           .rsrc:01005839 ff                               0xff 
                           .rsrc:0100583a ff                               0xff 
                           .rsrc:0100583b 07                               0x07 
                           .rsrc:0100583c 00                               0x00 
                           .rsrc:0100583d 00                               0x00 
                           .rsrc:0100583e 00                               0x00 
                           .rsrc:0100583f 00                               0x00 
                           .rsrc:01005840 0f                               0x0f 
                           .rsrc:01005841 f5                               0xf5 
                           .rsrc:01005842 55                               0x55 'U'
                           .rsrc:01005843 0f                               0x0f 
                           .rsrc:01005844 ff                               0xff 
                           .rsrc:01005845 00                               0x00 
                           .rsrc:01005846 ff                               0xff 
                           .rsrc:01005847 ff                               0xff 
                           .rsrc:01005848 00                               0x00 
                           .rsrc:01005849 00                               0x00 
                           .rsrc:0100584a ff                               0xff 
                           .rsrc:0100584b 07                               0x07 
                           .rsrc:0100584c 00                               0x00 
                           .rsrc:0100584d 00                               0x00 
                           .rsrc:0100584e 00                               0x00 
                           .rsrc:0100584f 00                               0x00 
                           .rsrc:01005850 0f                               0x0f 
                           .rsrc:01005851 ff                               0xff 
                           .rsrc:01005852 0f                               0x0f 
                           .rsrc:01005853 5f                               0x5f '_'
                           .rsrc:01005854 f0                               0xf0 
                           .rsrc:01005855 0b                               0x0b ''
                           .rsrc:01005856 0f                               0x0f 
                           .rsrc:01005857 ff                               0xff 
                           .rsrc:01005858 0e                               0x0e 
                           .rsrc:01005859 c0                               0xc0 
                           .rsrc:0100585a ff                               0xff 
                           .rsrc:0100585b 07                               0x07 
                           .rsrc:0100585c 77                               0x77 'w'
                           .rsrc:0100585d 77                               0x77 'w'
                           .rsrc:0100585e 77                               0x77 'w'
                           .rsrc:0100585f 70                               0x70 'p'
                           .rsrc:01005860 0f                               0x0f 
                           .rsrc:01005861 ff                               0xff 
                           .rsrc:01005862 f5                               0xf5 
                           .rsrc:01005863 0f                               0x0f 
                           .rsrc:01005864 f0                               0xf0 
                           .rsrc:01005865 00                               0x00 
                           .rsrc:01005866 00                               0x00 
                           .rsrc:01005867 ff                               0xff 
                           .rsrc:01005868 00                               0x00 
                           .rsrc:01005869 00                               0x00 
                           .rsrc:0100586a ff                               0xff 
                           .rsrc:0100586b 00                               0x00 
                           .rsrc:0100586c 00                               0x00 
                           .rsrc:0100586d 00                               0x00 
                           .rsrc:0100586e 00                               0x00 
                           .rsrc:0100586f 70                               0x70 'p'
                           .rsrc:01005870 0f                               0x0f 
                           .rsrc:01005871 ff                               0xff 
                           .rsrc:01005872 ff                               0xff 
                           .rsrc:01005873 ff                               0xff 
                           .rsrc:01005874 ff                               0xff 
                           .rsrc:01005875 ff                               0xff 
                           .rsrc:01005876 ff                               0xff 
                           .rsrc:01005877 ff                               0xff 
                           .rsrc:01005878 ff                               0xff 
                           .rsrc:01005879 ff                               0xff 
                           .rsrc:0100587a ff                               0xff 
                           .rsrc:0100587b 08                               0x08 
                           .rsrc:0100587c ff                               0xff 
                           .rsrc:0100587d ff                               0xff 
                           .rsrc:0100587e f0                               0xf0 
                           .rsrc:0100587f 70                               0x70 'p'
                           .rsrc:01005880 0f                               0x0f 
                           .rsrc:01005881 f0                               0xf0 
                           .rsrc:01005882 00                               0x00 
                           .rsrc:01005883 0f                               0x0f 
                           .rsrc:01005884 f0                               0xf0 
                           .rsrc:01005885 00                               0x00 
                           .rsrc:01005886 00                               0x00 
                           .rsrc:01005887 ff                               0xff 
                           .rsrc:01005888 00                               0x00 
                           .rsrc:01005889 00                               0x00 
                           .rsrc:0100588a ff                               0xff 
                           .rsrc:0100588b 08                               0x08 
                           .rsrc:0100588c 00                               0x00 
                           .rsrc:0100588d 00                               0x00 
                           .rsrc:0100588e f0                               0xf0 
                           .rsrc:0100588f 70                               0x70 'p'
                           .rsrc:01005890 0f                               0x0f 
                           .rsrc:01005891 ff                               0xff 
                           .rsrc:01005892 ff                               0xff 
                           .rsrc:01005893 ff                               0xff 
                           .rsrc:01005894 ff                               0xff 
                           .rsrc:01005895 ff                               0xff 
                           .rsrc:01005896 ff                               0xff 
                           .rsrc:01005897 ff                               0xff 
                           .rsrc:01005898 ff                               0xff 
                           .rsrc:01005899 ff                               0xff 
                           .rsrc:0100589a ff                               0xff 
                           .rsrc:0100589b 08                               0x08 
                           .rsrc:0100589c ff                               0xff 
                           .rsrc:0100589d ff                               0xff 
                           .rsrc:0100589e f0                               0xf0 
                           .rsrc:0100589f 70                               0x70 'p'
                           .rsrc:010058a0 0f                               0x0f 
                           .rsrc:010058a1 f7                               0xf7 
                           .rsrc:010058a2 00                               0x00 
                           .rsrc:010058a3 0f                               0x0f 
                           .rsrc:010058a4 ff                               0xff 
                           .rsrc:010058a5 00                               0x00 
                           .rsrc:010058a6 0f                               0x0f 
                           .rsrc:010058a7 f0                               0xf0 
                           .rsrc:010058a8 00                               0x00 
                           .rsrc:010058a9 00                               0x00 
                           .rsrc:010058aa ff                               0xff 
                           .rsrc:010058ab 08                               0x08 
                           .rsrc:010058ac 00                               0x00 
                           .rsrc:010058ad 00                               0x00 
                           .rsrc:010058ae f0                               0xf0 
                           .rsrc:010058af 70                               0x70 'p'
                           .rsrc:010058b0 0f                               0x0f 
                           .rsrc:010058b1 f0                               0xf0 
                           .rsrc:010058b2 00                               0x00 
                           .rsrc:010058b3 0f                               0x0f 
                           .rsrc:010058b4 f0                               0xf0 
                           .rsrc:010058b5 00                               0x00 
                           .rsrc:010058b6 0f                               0x0f 
                           .rsrc:010058b7 f0                               0xf0 
                           .rsrc:010058b8 77                               0x77 'w'
                           .rsrc:010058b9 00                               0x00 
                           .rsrc:010058ba ff                               0xff 
                           .rsrc:010058bb 08                               0x08 
                           .rsrc:010058bc ff                               0xff 
                           .rsrc:010058bd ff                               0xff 
                           .rsrc:010058be f0                               0xf0 
                           .rsrc:010058bf 70                               0x70 'p'
                           .rsrc:010058c0 0f                               0x0f 
                           .rsrc:010058c1 ff                               0xff 
                           .rsrc:010058c2 0f                               0x0f 
                           .rsrc:010058c3 0f                               0x0f 
                           .rsrc:010058c4 ff                               0xff 
                           .rsrc:010058c5 06                               0x06 
                           .rsrc:010058c6 0f                               0x0f 
                           .rsrc:010058c7 ff                               0xff 
                           .rsrc:010058c8 7c                               0x7c '|'
                           .rsrc:010058c9 0f                               0x0f 
                           .rsrc:010058ca ff                               0xff 
                           .rsrc:010058cb 08                               0x08 
                           .rsrc:010058cc 00                               0x00 
                           .rsrc:010058cd 00                               0x00 
                           .rsrc:010058ce f0                               0xf0 
                           .rsrc:010058cf 70                               0x70 'p'
                           .rsrc:010058d0 0f                               0x0f 
                           .rsrc:010058d1 ff                               0xff 
                           .rsrc:010058d2 00                               0x00 
                           .rsrc:010058d3 0f                               0x0f 
                           .rsrc:010058d4 ff                               0xff 
                           .rsrc:010058d5 00                               0x00 
                           .rsrc:010058d6 0f                               0x0f 
                           .rsrc:010058d7 ff                               0xff 
                           .rsrc:010058d8 77                               0x77 'w'
                           .rsrc:010058d9 0f                               0x0f 
                           .rsrc:010058da ff                               0xff 
                           .rsrc:010058db 08                               0x08 
                           .rsrc:010058dc ff                               0xff 
                           .rsrc:010058dd ff                               0xff 
                           .rsrc:010058de f0                               0xf0 
                           .rsrc:010058df 70                               0x70 'p'
                           .rsrc:010058e0 0f                               0x0f 
                           .rsrc:010058e1 ff                               0xff 
                           .rsrc:010058e2 ff                               0xff 
                           .rsrc:010058e3 ff                               0xff 
                           .rsrc:010058e4 ff                               0xff 
                           .rsrc:010058e5 ff                               0xff 
                           .rsrc:010058e6 ff                               0xff 
                           .rsrc:010058e7 ff                               0xff 
                           .rsrc:010058e8 ff                               0xff 
                           .rsrc:010058e9 ff                               0xff 
                           .rsrc:010058ea ff                               0xff 
                           .rsrc:010058eb 08                               0x08 
                           .rsrc:010058ec 00                               0x00 
                           .rsrc:010058ed 00                               0x00 
                           .rsrc:010058ee f0                               0xf0 
                           .rsrc:010058ef 70                               0x70 'p'
                           .rsrc:010058f0 00                               0x00 
                           .rsrc:010058f1 00                               0x00 
                           .rsrc:010058f2 00                               0x00 
                           .rsrc:010058f3 00                               0x00 
                           .rsrc:010058f4 00                               0x00 
                           .rsrc:010058f5 00                               0x00 
                           .rsrc:010058f6 00                               0x00 
                           .rsrc:010058f7 00                               0x00 
                           .rsrc:010058f8 00                               0x00 
                           .rsrc:010058f9 00                               0x00 
                           .rsrc:010058fa 00                               0x00 
                           .rsrc:010058fb 08                               0x08 
                           .rsrc:010058fc ff                               0xff 
                           .rsrc:010058fd ff                               0xff 
                           .rsrc:010058fe f0                               0xf0 
                           .rsrc:010058ff 70                               0x70 'p'
                           .rsrc:01005900 0e                               0x0e 
                           .rsrc:01005901 ee                               0xee 
                           .rsrc:01005902 ee                               0xee 
                           .rsrc:01005903 ee                               0xee 
                           .rsrc:01005904 ee                               0xee 
                           .rsrc:01005905 ee                               0xee 
                           .rsrc:01005906 ee                               0xee 
                           .rsrc:01005907 ee                               0xee 
                           .rsrc:01005908 ee                               0xee 
                           .rsrc:01005909 ee                               0xee 
                           .rsrc:0100590a ee                               0xee 
                           .rsrc:0100590b 08                               0x08 
                           .rsrc:0100590c 00                               0x00 
                           .rsrc:0100590d 00                               0x00 
                           .rsrc:0100590e f0                               0xf0 
                           .rsrc:0100590f 70                               0x70 'p'
                           .rsrc:01005910 00                               0x00 
                           .rsrc:01005911 00                               0x00 
                           .rsrc:01005912 00                               0x00 
                           .rsrc:01005913 00                               0x00 
                           .rsrc:01005914 00                               0x00 
                           .rsrc:01005915 00                               0x00 
                           .rsrc:01005916 00                               0x00 
                           .rsrc:01005917 00                               0x00 
                           .rsrc:01005918 00                               0x00 
                           .rsrc:01005919 00                               0x00 
                           .rsrc:0100591a 00                               0x00 
                           .rsrc:0100591b 0f                               0x0f 
                           .rsrc:0100591c ff                               0xff 
                           .rsrc:0100591d ff                               0xff 
                           .rsrc:0100591e f0                               0xf0 
                           .rsrc:0100591f 70                               0x70 'p'
                           .rsrc:01005920 00                               0x00 
                           .rsrc:01005921 00                               0x00 
                           .rsrc:01005922 04                               0x04 
                           .rsrc:01005923 c4                               0xc4 
                           .rsrc:01005924 c4                               0xc4 
                           .rsrc:01005925 c4                               0xc4 
                           .rsrc:01005926 c4                               0xc4 
                           .rsrc:01005927 0f                               0x0f 
                           .rsrc:01005928 ff                               0xff 
                           .rsrc:01005929 ff                               0xff 
                           .rsrc:0100592a ff                               0xff 
                           .rsrc:0100592b ff                               0xff 
                           .rsrc:0100592c 00                               0x00 
                           .rsrc:0100592d 00                               0x00 
                           .rsrc:0100592e f0                               0xf0 
                           .rsrc:0100592f 70                               0x70 'p'
                           .rsrc:01005930 00                               0x00 
                           .rsrc:01005931 00                               0x00 
                           .rsrc:01005932 0c                               0x0c ''
                           .rsrc:01005933 4c                               0x4c 'L'
                           .rsrc:01005934 4c                               0x4c 'L'
                           .rsrc:01005935 4c                               0x4c 'L'
                           .rsrc:01005936 4c                               0x4c 'L'
                           .rsrc:01005937 0f                               0x0f 
                           .rsrc:01005938 ff                               0xff 
                           .rsrc:01005939 ff                               0xff 
                           .rsrc:0100593a ff                               0xff 
                           .rsrc:0100593b ff                               0xff 
                           .rsrc:0100593c ff                               0xff 
                           .rsrc:0100593d ff                               0xff 
                           .rsrc:0100593e f0                               0xf0 
                           .rsrc:0100593f 70                               0x70 'p'
                           .rsrc:01005940 00                               0x00 
                           .rsrc:01005941 00                               0x00 
                           .rsrc:01005942 04                               0x04 
                           .rsrc:01005943 c4                               0xc4 
                           .rsrc:01005944 c4                               0xc4 
                           .rsrc:01005945 c4                               0xc4 
                           .rsrc:01005946 c4                               0xc4 
                           .rsrc:01005947 00                               0x00 
                           .rsrc:01005948 00                               0x00 
                           .rsrc:01005949 00                               0x00 
                           .rsrc:0100594a 00                               0x00 
                           .rsrc:0100594b 00                               0x00 
                           .rsrc:0100594c 00                               0x00 
                           .rsrc:0100594d 00                               0x00 
                           .rsrc:0100594e 00                               0x00 
                           .rsrc:0100594f 70                               0x70 'p'
                           .rsrc:01005950 00                               0x00 
                           .rsrc:01005951 00                               0x00 
                           .rsrc:01005952 0c                               0x0c ''
                           .rsrc:01005953 4f                               0x4f 'O'
                           .rsrc:01005954 fc                               0xfc 
                           .rsrc:01005955 4c                               0x4c 'L'
                           .rsrc:01005956 4c                               0x4c 'L'
                           .rsrc:01005957 0e                               0x0e 
                           .rsrc:01005958 ee                               0xee 
                           .rsrc:01005959 ee                               0xee 
                           .rsrc:0100595a ee                               0xee 
                           .rsrc:0100595b ee                               0xee 
                           .rsrc:0100595c ee                               0xee 
                           .rsrc:0100595d ee                               0xee 
                           .rsrc:0100595e e0                               0xe0 
                           .rsrc:0100595f 00                               0x00 
                           .rsrc:01005960 00                               0x00 
                           .rsrc:01005961 00                               0x00 
                           .rsrc:01005962 04                               0x04 
                           .rsrc:01005963 f4                               0xf4 
                           .rsrc:01005964 cf                               0xcf 
                           .rsrc:01005965 cf                               0xcf 
                           .rsrc:01005966 c4                               0xc4 
                           .rsrc:01005967 00                               0x00 
                           .rsrc:01005968 00                               0x00 
                           .rsrc:01005969 00                               0x00 
                           .rsrc:0100596a 00                               0x00 
                           .rsrc:0100596b 00                               0x00 
                           .rsrc:0100596c 00                               0x00 
                           .rsrc:0100596d 00                               0x00 
                           .rsrc:0100596e 00                               0x00 
                           .rsrc:0100596f 00                               0x00 
                           .rsrc:01005970 00                               0x00 
                           .rsrc:01005971 00                               0x00 
                           .rsrc:01005972 0c                               0x0c ''
                           .rsrc:01005973 fc                               0xfc 
                           .rsrc:01005974 4c                               0x4c 'L'
                           .rsrc:01005975 4c                               0x4c 'L'
                           .rsrc:01005976 4c                               0x4c 'L'
                           .rsrc:01005977 4c                               0x4c 'L'
                           .rsrc:01005978 4c                               0x4c 'L'
                           .rsrc:01005979 4c                               0x4c 'L'
                           .rsrc:0100597a 4c                               0x4c 'L'
                           .rsrc:0100597b 4c                               0x4c 'L'
                           .rsrc:0100597c 40                               0x40 '@'
                           .rsrc:0100597d 70                               0x70 'p'
                           .rsrc:0100597e 00                               0x00 
                           .rsrc:0100597f 00                               0x00 
                           .rsrc:01005980 00                               0x00 
                           .rsrc:01005981 00                               0x00 
                           .rsrc:01005982 04                               0x04 
                           .rsrc:01005983 f4                               0xf4 
                           .rsrc:01005984 cf                               0xcf 
                           .rsrc:01005985 cf                               0xcf 
                           .rsrc:01005986 c4                               0xc4 
                           .rsrc:01005987 c4                               0xc4 
                           .rsrc:01005988 c4                               0xc4 
                           .rsrc:01005989 c4                               0xc4 
                           .rsrc:0100598a c4                               0xc4 
                           .rsrc:0100598b c4                               0xc4 
                           .rsrc:0100598c c0                               0xc0 
                           .rsrc:0100598d 70                               0x70 'p'
                           .rsrc:0100598e 00                               0x00 
                           .rsrc:0100598f 00                               0x00 
                           .rsrc:01005990 00                               0x00 
                           .rsrc:01005991 00                               0x00 
                           .rsrc:01005992 0c                               0x0c ''
                           .rsrc:01005993 4f                               0x4f 'O'
                           .rsrc:01005994 fc                               0xfc 
                           .rsrc:01005995 4c                               0x4c 'L'
                           .rsrc:01005996 4c                               0x4c 'L'
                           .rsrc:01005997 4c                               0x4c 'L'
                           .rsrc:01005998 4c                               0x4c 'L'
                           .rsrc:01005999 4c                               0x4c 'L'
                           .rsrc:0100599a 4c                               0x4c 'L'
                           .rsrc:0100599b 4c                               0x4c 'L'
                           .rsrc:0100599c 40                               0x40 '@'
                           .rsrc:0100599d 70                               0x70 'p'
                           .rsrc:0100599e 00                               0x00 
                           .rsrc:0100599f 00                               0x00 
                           .rsrc:010059a0 00                               0x00 
                           .rsrc:010059a1 00                               0x00 
                           .rsrc:010059a2 04                               0x04 
                           .rsrc:010059a3 c4                               0xc4 
                           .rsrc:010059a4 c4                               0xc4 
                           .rsrc:010059a5 c4                               0xc4 
                           .rsrc:010059a6 c4                               0xc4 
                           .rsrc:010059a7 c4                               0xc4 
                           .rsrc:010059a8 c4                               0xc4 
                           .rsrc:010059a9 c4                               0xc4 
                           .rsrc:010059aa c4                               0xc4 
                           .rsrc:010059ab c4                               0xc4 
                           .rsrc:010059ac c0                               0xc0 
                           .rsrc:010059ad 70                               0x70 'p'
                           .rsrc:010059ae 00                               0x00 
                           .rsrc:010059af 00                               0x00 
                           .rsrc:010059b0 00                               0x00 
                           .rsrc:010059b1 00                               0x00 
                           .rsrc:010059b2 00                               0x00 
                           .rsrc:010059b3 00                               0x00 
                           .rsrc:010059b4 00                               0x00 
                           .rsrc:010059b5 00                               0x00 
                           .rsrc:010059b6 00                               0x00 
                           .rsrc:010059b7 00                               0x00 
                           .rsrc:010059b8 00                               0x00 
                           .rsrc:010059b9 00                               0x00 
                           .rsrc:010059ba 00                               0x00 
                           .rsrc:010059bb 00                               0x00 
                           .rsrc:010059bc 00                               0x00 
                           .rsrc:010059bd 70                               0x70 'p'
                           .rsrc:010059be 00                               0x00 
                           .rsrc:010059bf 00                               0x00 
                           .rsrc:010059c0 00                               0x00 
                           .rsrc:010059c1 00                               0x00 
                           .rsrc:010059c2 0e                               0x0e 
                           .rsrc:010059c3 ee                               0xee 
                           .rsrc:010059c4 ee                               0xee 
                           .rsrc:010059c5 ee                               0xee 
                           .rsrc:010059c6 ee                               0xee 
                           .rsrc:010059c7 ee                               0xee 
                           .rsrc:010059c8 ee                               0xee 
                           .rsrc:010059c9 ee                               0xee 
                           .rsrc:010059ca ee                               0xee 
                           .rsrc:010059cb ee                               0xee 
                           .rsrc:010059cc e0                               0xe0 
                           .rsrc:010059cd 70                               0x70 'p'
                           .rsrc:010059ce 00                               0x00 
                           .rsrc:010059cf 00                               0x00 
                           .rsrc:010059d0 00                               0x00 
                           .rsrc:010059d1 00                               0x00 
                           .rsrc:010059d2 00                               0x00 
                           .rsrc:010059d3 00                               0x00 
                           .rsrc:010059d4 00                               0x00 
                           .rsrc:010059d5 00                               0x00 
                           .rsrc:010059d6 00                               0x00 
                           .rsrc:010059d7 00                               0x00 
                           .rsrc:010059d8 00                               0x00 
                           .rsrc:010059d9 00                               0x00 
                           .rsrc:010059da 00                               0x00 
                           .rsrc:010059db 00                               0x00 
                           .rsrc:010059dc 00                               0x00 
                           .rsrc:010059dd 00                               0x00 
                           .rsrc:010059de 00                               0x00 
                           .rsrc:010059df 00                               0x00 
                           .rsrc:010059e0 ff                               0xff 
                           .rsrc:010059e1 ff                               0xff 
                           .rsrc:010059e2 ff                               0xff 
                           .rsrc:010059e3 ff                               0xff 
                           .rsrc:010059e4 80                               0x80 
                           .rsrc:010059e5 00                               0x00 
                           .rsrc:010059e6 00                               0x00 
                           .rsrc:010059e7 ff                               0xff 
                           .rsrc:010059e8 00                               0x00 
                           .rsrc:010059e9 00                               0x00 
                           .rsrc:010059ea 00                               0x00 
                           .rsrc:010059eb ff                               0xff 
                           .rsrc:010059ec 00                               0x00 
                           .rsrc:010059ed 00                               0x00 
                           .rsrc:010059ee 00                               0x00 
                           .rsrc:010059ef ff                               0xff 
                           .rsrc:010059f0 00                               0x00 
                           .rsrc:010059f1 00                               0x00 
                           .rsrc:010059f2 00                               0x00 
                           .rsrc:010059f3 ff                               0xff 
                           .rsrc:010059f4 00                               0x00 
                           .rsrc:010059f5 00                               0x00 
                           .rsrc:010059f6 00                               0x00 
                           .rsrc:010059f7 ff                               0xff 
                           .rsrc:010059f8 00                               0x00 
                           .rsrc:010059f9 00                               0x00 
                           .rsrc:010059fa 00                               0x00 
                           .rsrc:010059fb ff                               0xff 
                           .rsrc:010059fc 00                               0x00 
                           .rsrc:010059fd 00                               0x00 
                           .rsrc:010059fe 00                               0x00 
                           .rsrc:010059ff 01                               0x01 
                           .rsrc:01005a00 00                               0x00 
                           .rsrc:01005a01 00                               0x00 
                           .rsrc:01005a02 00                               0x00 
                           .rsrc:01005a03 01                               0x01 
                           .rsrc:01005a04 00                               0x00 
                           .rsrc:01005a05 00                               0x00 
                           .rsrc:01005a06 00                               0x00 
                           .rsrc:01005a07 01                               0x01 
                           .rsrc:01005a08 00                               0x00 
                           .rsrc:01005a09 00                               0x00 
                           .rsrc:01005a0a 00                               0x00 
                           .rsrc:01005a0b 01                               0x01 
                           .rsrc:01005a0c 00                               0x00 
                           .rsrc:01005a0d 00                               0x00 
                           .rsrc:01005a0e 00                               0x00 
                           .rsrc:01005a0f 01                               0x01 
                           .rsrc:01005a10 00                               0x00 
                           .rsrc:01005a11 00                               0x00 
                           .rsrc:01005a12 00                               0x00 
                           .rsrc:01005a13 01                               0x01 
                           .rsrc:01005a14 00                               0x00 
                           .rsrc:01005a15 00                               0x00 
                           .rsrc:01005a16 00                               0x00 
                           .rsrc:01005a17 01                               0x01 
                           .rsrc:01005a18 00                               0x00 
                           .rsrc:01005a19 00                               0x00 
                           .rsrc:01005a1a 00                               0x00 
                           .rsrc:01005a1b 01                               0x01 
                           .rsrc:01005a1c 00                               0x00 
                           .rsrc:01005a1d 00                               0x00 
                           .rsrc:01005a1e 00                               0x00 
                           .rsrc:01005a1f 01                               0x01 
                           .rsrc:01005a20 00                               0x00 
                           .rsrc:01005a21 00                               0x00 
                           .rsrc:01005a22 00                               0x00 
                           .rsrc:01005a23 01                               0x01 
                           .rsrc:01005a24 00                               0x00 
                           .rsrc:01005a25 00                               0x00 
                           .rsrc:01005a26 00                               0x00 
                           .rsrc:01005a27 01                               0x01 
                           .rsrc:01005a28 00                               0x00 
                           .rsrc:01005a29 00                               0x00 
                           .rsrc:01005a2a 00                               0x00 
                           .rsrc:01005a2b 01                               0x01 
                           .rsrc:01005a2c 00                               0x00 
                           .rsrc:01005a2d 00                               0x00 
                           .rsrc:01005a2e 00                               0x00 
                           .rsrc:01005a2f 01                               0x01 
                           .rsrc:01005a30 f0                               0xf0 
                           .rsrc:01005a31 00                               0x00 
                           .rsrc:01005a32 00                               0x00 
                           .rsrc:01005a33 01                               0x01 
                           .rsrc:01005a34 f0                               0xf0 
                           .rsrc:01005a35 00                               0x00 
                           .rsrc:01005a36 00                               0x00 
                           .rsrc:01005a37 01                               0x01 
                           .rsrc:01005a38 f0                               0xf0 
                           .rsrc:01005a39 00                               0x00 
                           .rsrc:01005a3a 00                               0x00 
                           .rsrc:01005a3b 01                               0x01 
                           .rsrc:01005a3c f0                               0xf0 
                           .rsrc:01005a3d 00                               0x00 
                           .rsrc:01005a3e 00                               0x00 
                           .rsrc:01005a3f 03                               0x03 
                           .rsrc:01005a40 f0                               0xf0 
                           .rsrc:01005a41 00                               0x00 
                           .rsrc:01005a42 00                               0x00 
                           .rsrc:01005a43 03                               0x03 
                           .rsrc:01005a44 f0                               0xf0 
                           .rsrc:01005a45 00                               0x00 
                           .rsrc:01005a46 00                               0x00 
                           .rsrc:01005a47 1f                               0x1f 
                           .rsrc:01005a48 f0                               0xf0 
                           .rsrc:01005a49 00                               0x00 
                           .rsrc:01005a4a 00                               0x00 
                           .rsrc:01005a4b 1f                               0x1f 
                           .rsrc:01005a4c f0                               0xf0 
                           .rsrc:01005a4d 00                               0x00 
                           .rsrc:01005a4e 00                               0x00 
                           .rsrc:01005a4f 1f                               0x1f 
                           .rsrc:01005a50 f0                               0xf0 
                           .rsrc:01005a51 00                               0x00 
                           .rsrc:01005a52 00                               0x00 
                           .rsrc:01005a53 1f                               0x1f 
                           .rsrc:01005a54 f0                               0xf0 
                           .rsrc:01005a55 00                               0x00 
                           .rsrc:01005a56 00                               0x00 
                           .rsrc:01005a57 1f                               0x1f 
                           .rsrc:01005a58 f0                               0xf0 
                           .rsrc:01005a59 00                               0x00 
                           .rsrc:01005a5a 00                               0x00 
                           .rsrc:01005a5b 1f                               0x1f 
                           .rsrc:01005a5c f0                               0xf0 
                           .rsrc:01005a5d 00                               0x00 
                           .rsrc:01005a5e 00                               0x00 
                           .rsrc:01005a5f 3f                               0x3f '?'
                           .rsrc:01005a60 00                               0x00 
                           .rsrc:01005a61 00                               0x00 
                           .rsrc:01005a62 01                               0x01 
                           .rsrc:01005a63 00                               0x00 
                           .rsrc:01005a64 02                               0x02 
                           .rsrc:01005a65 00                               0x00 
                           .rsrc:01005a66 20                               0x20 ' '
                           .rsrc:01005a67 20                               0x20 ' '
                           .rsrc:01005a68 02                               0x02 
                           .rsrc:01005a69 00                               0x00 
                           .rsrc:01005a6a 01                               0x01 
                           .rsrc:01005a6b 00                               0x00 
                           .rsrc:01005a6c 01                               0x01 
                           .rsrc:01005a6d 00                               0x00 
                           .rsrc:01005a6e 30                               0x30 '0'
                           .rsrc:01005a6f 01                               0x01 
                           .rsrc:01005a70 00                               0x00 
                           .rsrc:01005a71 00                               0x00 
                           .rsrc:01005a72 01                               0x01 
                           .rsrc:01005a73 00                               0x00 
                           .rsrc:01005a74 20                               0x20 ' '
                           .rsrc:01005a75 20                               0x20 ' '
                           .rsrc:01005a76 10                               0x10 
                           .rsrc:01005a77 00                               0x00 
                           .rsrc:01005a78 01                               0x01 
                           .rsrc:01005a79 00                               0x00 
                           .rsrc:01005a7a 04                               0x04 
                           .rsrc:01005a7b 00                               0x00 
                           .rsrc:01005a7c e8                               0xe8 
                           .rsrc:01005a7d 02                               0x02 
                           .rsrc:01005a7e 00                               0x00 
                           .rsrc:01005a7f 00                               0x00 
                           .rsrc:01005a80 02                               0x02 
                           .rsrc:01005a81 00                               0x00 
                           .rsrc:01005a82 00                               0x00 
                           .rsrc:01005a83 00                               0x00 
                           .rsrc:01005a84 00                               0x00 
                           .rsrc:01005a85 00                               0x00 
                           .rsrc:01005a86 00                               0x00 
                           .rsrc:01005a87 00                               0x00 
                           .rsrc:01005a88 9c                               0x9c 
                           .rsrc:01005a89 03                               0x03 
                           .rsrc:01005a8a 34                               0x34 '4'
                           .rsrc:01005a8b 00                               0x00 
                           .rsrc:01005a8c 00                               0x00 
                           .rsrc:01005a8d 00                               0x00 
                           .rsrc:01005a8e 56                               0x56 'V'
                           .rsrc:01005a8f 00                               0x00 
                           .rsrc:01005a90 53                               0x53 'S'
                           .rsrc:01005a91 00                               0x00 
                           .rsrc:01005a92 5f                               0x5f '_'
                           .rsrc:01005a93 00                               0x00 
                           .rsrc:01005a94 56                               0x56 'V'
                           .rsrc:01005a95 00                               0x00 
                           .rsrc:01005a96 45                               0x45 'E'
                           .rsrc:01005a97 00                               0x00 
                           .rsrc:01005a98 52                               0x52 'R'
                           .rsrc:01005a99 00                               0x00 
                           .rsrc:01005a9a 53                               0x53 'S'
                           .rsrc:01005a9b 00                               0x00 
                           .rsrc:01005a9c 49                               0x49 'I'
                           .rsrc:01005a9d 00                               0x00 
                           .rsrc:01005a9e 4f                               0x4f 'O'
                           .rsrc:01005a9f 00                               0x00 
                           .rsrc:01005aa0 4e                               0x4e 'N'
                           .rsrc:01005aa1 00                               0x00 
                           .rsrc:01005aa2 5f                               0x5f '_'
                           .rsrc:01005aa3 00                               0x00 
                           .rsrc:01005aa4 49                               0x49 'I'
                           .rsrc:01005aa5 00                               0x00 
                           .rsrc:01005aa6 4e                               0x4e 'N'
                           .rsrc:01005aa7 00                               0x00 
                           .rsrc:01005aa8 46                               0x46 'F'
                           .rsrc:01005aa9 00                               0x00 
                           .rsrc:01005aaa 4f                               0x4f 'O'
                           .rsrc:01005aab 00                               0x00 
                           .rsrc:01005aac 00                               0x00 
                           .rsrc:01005aad 00                               0x00 
                           .rsrc:01005aae 00                               0x00 
                           .rsrc:01005aaf 00                               0x00 
                           .rsrc:01005ab0 bd                               0xbd 
                           .rsrc:01005ab1 04                               0x04 
                           .rsrc:01005ab2 ef                               0xef 
                           .rsrc:01005ab3 fe                               0xfe 
                           .rsrc:01005ab4 00                               0x00 
                           .rsrc:01005ab5 00                               0x00 
                           .rsrc:01005ab6 01                               0x01 
                           .rsrc:01005ab7 00                               0x00 
                           .rsrc:01005ab8 01                               0x01 
                           .rsrc:01005ab9 00                               0x00 
                           .rsrc:01005aba 06                               0x06 
                           .rsrc:01005abb 00                               0x00 
                           .rsrc:01005abc 01                               0x01 
                           .rsrc:01005abd 40                               0x40 '@'
                           .rsrc:01005abe b0                               0xb0 
                           .rsrc:01005abf 1d                               0x1d 
                           .rsrc:01005ac0 01                               0x01 
                           .rsrc:01005ac1 00                               0x00 
                           .rsrc:01005ac2 06                               0x06 
                           .rsrc:01005ac3 00                               0x00 
                           .rsrc:01005ac4 01                               0x01 
                           .rsrc:01005ac5 40                               0x40 '@'
                           .rsrc:01005ac6 b0                               0xb0 
                           .rsrc:01005ac7 1d                               0x1d 
                           .rsrc:01005ac8 3f                               0x3f '?'
                           .rsrc:01005ac9 00                               0x00 
                           .rsrc:01005aca 00                               0x00 
                           .rsrc:01005acb 00                               0x00 
                           .rsrc:01005acc 00                               0x00 
                           .rsrc:01005acd 00                               0x00 
                           .rsrc:01005ace 00                               0x00 
                           .rsrc:01005acf 00                               0x00 
                           .rsrc:01005ad0 04                               0x04 
                           .rsrc:01005ad1 00                               0x00 
                           .rsrc:01005ad2 04                               0x04 
                           .rsrc:01005ad3 00                               0x00 
                           .rsrc:01005ad4 01                               0x01 
                           .rsrc:01005ad5 00                               0x00 
                           .rsrc:01005ad6 00                               0x00 
                           .rsrc:01005ad7 00                               0x00 
                           .rsrc:01005ad8 00                               0x00 
                           .rsrc:01005ad9 00                               0x00 
                           .rsrc:01005ada 00                               0x00 
                           .rsrc:01005adb 00                               0x00 
                           .rsrc:01005adc 00                               0x00 
                           .rsrc:01005add 00                               0x00 
                           .rsrc:01005ade 00                               0x00 
                           .rsrc:01005adf 00                               0x00 
                           .rsrc:01005ae0 00                               0x00 
                           .rsrc:01005ae1 00                               0x00 
                           .rsrc:01005ae2 00                               0x00 
                           .rsrc:01005ae3 00                               0x00 
                           .rsrc:01005ae4 fa                               0xfa 
                           .rsrc:01005ae5 02                               0x02 
                           .rsrc:01005ae6 00                               0x00 
                           .rsrc:01005ae7 00                               0x00 
                           .rsrc:01005ae8 01                               0x01 
                           .rsrc:01005ae9 00                               0x00 
                           .rsrc:01005aea 53                               0x53 'S'
                           .rsrc:01005aeb 00                               0x00 
                           .rsrc:01005aec 74                               0x74 't'
                           .rsrc:01005aed 00                               0x00 
                           .rsrc:01005aee 72                               0x72 'r'
                           .rsrc:01005aef 00                               0x00 
                           .rsrc:01005af0 69                               0x69 'i'
                           .rsrc:01005af1 00                               0x00 
                           .rsrc:01005af2 6e                               0x6e 'n'
                           .rsrc:01005af3 00                               0x00 
                           .rsrc:01005af4 67                               0x67 'g'
                           .rsrc:01005af5 00                               0x00 
                           .rsrc:01005af6 46                               0x46 'F'
                           .rsrc:01005af7 00                               0x00 
                           .rsrc:01005af8 69                               0x69 'i'
                           .rsrc:01005af9 00                               0x00 
                           .rsrc:01005afa 6c                               0x6c 'l'
                           .rsrc:01005afb 00                               0x00 
                           .rsrc:01005afc 65                               0x65 'e'
                           .rsrc:01005afd 00                               0x00 
                           .rsrc:01005afe 49                               0x49 'I'
                           .rsrc:01005aff 00                               0x00 
                           .rsrc:01005b00 6e                               0x6e 'n'
                           .rsrc:01005b01 00                               0x00 
                           .rsrc:01005b02 66                               0x66 'f'
                           .rsrc:01005b03 00                               0x00 
                           .rsrc:01005b04 6f                               0x6f 'o'
                           .rsrc:01005b05 00                               0x00 
                           .rsrc:01005b06 00                               0x00 
                           .rsrc:01005b07 00                               0x00 
                           .rsrc:01005b08 d6                               0xd6 
                           .rsrc:01005b09 02                               0x02 
                           .rsrc:01005b0a 00                               0x00 
                           .rsrc:01005b0b 00                               0x00 
                           .rsrc:01005b0c 01                               0x01 
                           .rsrc:01005b0d 00                               0x00 
                           .rsrc:01005b0e 30                               0x30 '0'
                           .rsrc:01005b0f 00                               0x00 
                           .rsrc:01005b10 34                               0x34 '4'
                           .rsrc:01005b11 00                               0x00 
                           .rsrc:01005b12 30                               0x30 '0'
                           .rsrc:01005b13 00                               0x00 
                           .rsrc:01005b14 39                               0x39 '9'
                           .rsrc:01005b15 00                               0x00 
                           .rsrc:01005b16 30                               0x30 '0'
                           .rsrc:01005b17 00                               0x00 
                           .rsrc:01005b18 34                               0x34 '4'
                           .rsrc:01005b19 00                               0x00 
                           .rsrc:01005b1a 42                               0x42 'B'
                           .rsrc:01005b1b 00                               0x00 
                           .rsrc:01005b1c 30                               0x30 '0'
                           .rsrc:01005b1d 00                               0x00 
                           .rsrc:01005b1e 00                               0x00 
                           .rsrc:01005b1f 00                               0x00 
                           .rsrc:01005b20 4c                               0x4c 'L'
                           .rsrc:01005b21 00                               0x00 
                           .rsrc:01005b22 16                               0x16 
                           .rsrc:01005b23 00                               0x00 
                           .rsrc:01005b24 01                               0x01 
                           .rsrc:01005b25 00                               0x00 
                           .rsrc:01005b26 43                               0x43 'C'
                           .rsrc:01005b27 00                               0x00 
                           .rsrc:01005b28 6f                               0x6f 'o'
                           .rsrc:01005b29 00                               0x00 
                           .rsrc:01005b2a 6d                               0x6d 'm'
                           .rsrc:01005b2b 00                               0x00 
                           .rsrc:01005b2c 70                               0x70 'p'
                           .rsrc:01005b2d 00                               0x00 
                           .rsrc:01005b2e 61                               0x61 'a'
                           .rsrc:01005b2f 00                               0x00 
                           .rsrc:01005b30 6e                               0x6e 'n'
                           .rsrc:01005b31 00                               0x00 
                           .rsrc:01005b32 79                               0x79 'y'
                           .rsrc:01005b33 00                               0x00 
                           .rsrc:01005b34 4e                               0x4e 'N'
                           .rsrc:01005b35 00                               0x00 
                           .rsrc:01005b36 61                               0x61 'a'
                           .rsrc:01005b37 00                               0x00 
                           .rsrc:01005b38 6d                               0x6d 'm'
                           .rsrc:01005b39 00                               0x00 
                           .rsrc:01005b3a 65                               0x65 'e'
                           .rsrc:01005b3b 00                               0x00 
                           .rsrc:01005b3c 00                               0x00 
                           .rsrc:01005b3d 00                               0x00 
                           .rsrc:01005b3e 00                               0x00 
                           .rsrc:01005b3f 00                               0x00 
                           .rsrc:01005b40 4d                               0x4d 'M'
                           .rsrc:01005b41 00                               0x00 
                           .rsrc:01005b42 69                               0x69 'i'
                           .rsrc:01005b43 00                               0x00 
                           .rsrc:01005b44 63                               0x63 'c'
                           .rsrc:01005b45 00                               0x00 
                           .rsrc:01005b46 72                               0x72 'r'
                           .rsrc:01005b47 00                               0x00 
                           .rsrc:01005b48 6f                               0x6f 'o'
                           .rsrc:01005b49 00                               0x00 
                           .rsrc:01005b4a 73                               0x73 's'
                           .rsrc:01005b4b 00                               0x00 
                           .rsrc:01005b4c 6f                               0x6f 'o'
                           .rsrc:01005b4d 00                               0x00 
                           .rsrc:01005b4e 66                               0x66 'f'
                           .rsrc:01005b4f 00                               0x00 
                           .rsrc:01005b50 74                               0x74 't'
                           .rsrc:01005b51 00                               0x00 
                           .rsrc:01005b52 20                               0x20 ' '
                           .rsrc:01005b53 00                               0x00 
                           .rsrc:01005b54 43                               0x43 'C'
                           .rsrc:01005b55 00                               0x00 
                           .rsrc:01005b56 6f                               0x6f 'o'
                           .rsrc:01005b57 00                               0x00 
                           .rsrc:01005b58 72                               0x72 'r'
                           .rsrc:01005b59 00                               0x00 
                           .rsrc:01005b5a 70                               0x70 'p'
                           .rsrc:01005b5b 00                               0x00 
                           .rsrc:01005b5c 6f                               0x6f 'o'
                           .rsrc:01005b5d 00                               0x00 
                           .rsrc:01005b5e 72                               0x72 'r'
                           .rsrc:01005b5f 00                               0x00 
                           .rsrc:01005b60 61                               0x61 'a'
                           .rsrc:01005b61 00                               0x00 
                           .rsrc:01005b62 74                               0x74 't'
                           .rsrc:01005b63 00                               0x00 
                           .rsrc:01005b64 69                               0x69 'i'
                           .rsrc:01005b65 00                               0x00 
                           .rsrc:01005b66 6f                               0x6f 'o'
                           .rsrc:01005b67 00                               0x00 
                           .rsrc:01005b68 6e                               0x6e 'n'
                           .rsrc:01005b69 00                               0x00 
                           .rsrc:01005b6a 00                               0x00 
                           .rsrc:01005b6b 00                               0x00 
                           .rsrc:01005b6c 68                               0x68 'h'
                           .rsrc:01005b6d 00                               0x00 
                           .rsrc:01005b6e 20                               0x20 ' '
                           .rsrc:01005b6f 00                               0x00 
                           .rsrc:01005b70 01                               0x01 
                           .rsrc:01005b71 00                               0x00 
                           .rsrc:01005b72 46                               0x46 'F'
                           .rsrc:01005b73 00                               0x00 
                           .rsrc:01005b74 69                               0x69 'i'
                           .rsrc:01005b75 00                               0x00 
                           .rsrc:01005b76 6c                               0x6c 'l'
                           .rsrc:01005b77 00                               0x00 
                           .rsrc:01005b78 65                               0x65 'e'
                           .rsrc:01005b79 00                               0x00 
                           .rsrc:01005b7a 44                               0x44 'D'
                           .rsrc:01005b7b 00                               0x00 
                           .rsrc:01005b7c 65                               0x65 'e'
                           .rsrc:01005b7d 00                               0x00 
                           .rsrc:01005b7e 73                               0x73 's'
                           .rsrc:01005b7f 00                               0x00 
                           .rsrc:01005b80 63                               0x63 'c'
                           .rsrc:01005b81 00                               0x00 
                           .rsrc:01005b82 72                               0x72 'r'
                           .rsrc:01005b83 00                               0x00 
                           .rsrc:01005b84 69                               0x69 'i'
                           .rsrc:01005b85 00                               0x00 
                           .rsrc:01005b86 70                               0x70 'p'
                           .rsrc:01005b87 00                               0x00 
                           .rsrc:01005b88 74                               0x74 't'
                           .rsrc:01005b89 00                               0x00 
                           .rsrc:01005b8a 69                               0x69 'i'
                           .rsrc:01005b8b 00                               0x00 
                           .rsrc:01005b8c 6f                               0x6f 'o'
                           .rsrc:01005b8d 00                               0x00 
                           .rsrc:01005b8e 6e                               0x6e 'n'
                           .rsrc:01005b8f 00                               0x00 
                           .rsrc:01005b90 00                               0x00 
                           .rsrc:01005b91 00                               0x00 
                           .rsrc:01005b92 00                               0x00 
                           .rsrc:01005b93 00                               0x00 
                           .rsrc:01005b94 57                               0x57 'W'
                           .rsrc:01005b95 00                               0x00 
                           .rsrc:01005b96 69                               0x69 'i'
                           .rsrc:01005b97 00                               0x00 
                           .rsrc:01005b98 6e                               0x6e 'n'
                           .rsrc:01005b99 00                               0x00 
                           .rsrc:01005b9a 64                               0x64 'd'
                           .rsrc:01005b9b 00                               0x00 
                           .rsrc:01005b9c 6f                               0x6f 'o'
                           .rsrc:01005b9d 00                               0x00 
                           .rsrc:01005b9e 77                               0x77 'w'
                           .rsrc:01005b9f 00                               0x00 
                           .rsrc:01005ba0 73                               0x73 's'
                           .rsrc:01005ba1 00                               0x00 
                           .rsrc:01005ba2 20                               0x20 ' '
                           .rsrc:01005ba3 00                               0x00 
                           .rsrc:01005ba4 50                               0x50 'P'
                           .rsrc:01005ba5 00                               0x00 
                           .rsrc:01005ba6 72                               0x72 'r'
                           .rsrc:01005ba7 00                               0x00 
                           .rsrc:01005ba8 6f                               0x6f 'o'
                           .rsrc:01005ba9 00                               0x00 
                           .rsrc:01005baa 67                               0x67 'g'
                           .rsrc:01005bab 00                               0x00 
                           .rsrc:01005bac 6d                               0x6d 'm'
                           .rsrc:01005bad 00                               0x00 
                           .rsrc:01005bae 61                               0x61 'a'
                           .rsrc:01005baf 00                               0x00 
                           .rsrc:01005bb0 6e                               0x6e 'n'
                           .rsrc:01005bb1 00                               0x00 
                           .rsrc:01005bb2 20                               0x20 ' '
                           .rsrc:01005bb3 00                               0x00 
                           .rsrc:01005bb4 47                               0x47 'G'
                           .rsrc:01005bb5 00                               0x00 
                           .rsrc:01005bb6 72                               0x72 'r'
                           .rsrc:01005bb7 00                               0x00 
                           .rsrc:01005bb8 6f                               0x6f 'o'
                           .rsrc:01005bb9 00                               0x00 
                           .rsrc:01005bba 75                               0x75 'u'
                           .rsrc:01005bbb 00                               0x00 
                           .rsrc:01005bbc 70                               0x70 'p'
                           .rsrc:01005bbd 00                               0x00 
                           .rsrc:01005bbe 20                               0x20 ' '
                           .rsrc:01005bbf 00                               0x00 
                           .rsrc:01005bc0 43                               0x43 'C'
                           .rsrc:01005bc1 00                               0x00 
                           .rsrc:01005bc2 6f                               0x6f 'o'
                           .rsrc:01005bc3 00                               0x00 
                           .rsrc:01005bc4 6e                               0x6e 'n'
                           .rsrc:01005bc5 00                               0x00 
                           .rsrc:01005bc6 76                               0x76 'v'
                           .rsrc:01005bc7 00                               0x00 
                           .rsrc:01005bc8 65                               0x65 'e'
                           .rsrc:01005bc9 00                               0x00 
                           .rsrc:01005bca 72                               0x72 'r'
                           .rsrc:01005bcb 00                               0x00 
                           .rsrc:01005bcc 74                               0x74 't'
                           .rsrc:01005bcd 00                               0x00 
                           .rsrc:01005bce 65                               0x65 'e'
                           .rsrc:01005bcf 00                               0x00 
                           .rsrc:01005bd0 72                               0x72 'r'
                           .rsrc:01005bd1 00                               0x00 
                           .rsrc:01005bd2 00                               0x00 
                           .rsrc:01005bd3 00                               0x00 
                           .rsrc:01005bd4 6c                               0x6c 'l'
                           .rsrc:01005bd5 00                               0x00 
                           .rsrc:01005bd6 26                               0x26 '&'
                           .rsrc:01005bd7 00                               0x00 
                           .rsrc:01005bd8 01                               0x01 
                           .rsrc:01005bd9 00                               0x00 
                           .rsrc:01005bda 46                               0x46 'F'
                           .rsrc:01005bdb 00                               0x00 
                           .rsrc:01005bdc 69                               0x69 'i'
                           .rsrc:01005bdd 00                               0x00 
                           .rsrc:01005bde 6c                               0x6c 'l'
                           .rsrc:01005bdf 00                               0x00 
                           .rsrc:01005be0 65                               0x65 'e'
                           .rsrc:01005be1 00                               0x00 
                           .rsrc:01005be2 56                               0x56 'V'
                           .rsrc:01005be3 00                               0x00 
                           .rsrc:01005be4 65                               0x65 'e'
                           .rsrc:01005be5 00                               0x00 
                           .rsrc:01005be6 72                               0x72 'r'
                           .rsrc:01005be7 00                               0x00 
                           .rsrc:01005be8 73                               0x73 's'
                           .rsrc:01005be9 00                               0x00 
                           .rsrc:01005bea 69                               0x69 'i'
                           .rsrc:01005beb 00                               0x00 
                           .rsrc:01005bec 6f                               0x6f 'o'
                           .rsrc:01005bed 00                               0x00 
                           .rsrc:01005bee 6e                               0x6e 'n'
                           .rsrc:01005bef 00                               0x00 
                           .rsrc:01005bf0 00                               0x00 
                           .rsrc:01005bf1 00                               0x00 
                           .rsrc:01005bf2 00                               0x00 
                           .rsrc:01005bf3 00                               0x00 
                           .rsrc:01005bf4 36                               0x36 '6'
                           .rsrc:01005bf5 00                               0x00 
                           .rsrc:01005bf6 2e                               0x2e '.'
                           .rsrc:01005bf7 00                               0x00 
                           .rsrc:01005bf8 31                               0x31 '1'
                           .rsrc:01005bf9 00                               0x00 
                           .rsrc:01005bfa 2e                               0x2e '.'
                           .rsrc:01005bfb 00                               0x00 
                           .rsrc:01005bfc 37                               0x37 '7'
                           .rsrc:01005bfd 00                               0x00 
                           .rsrc:01005bfe 36                               0x36 '6'
                           .rsrc:01005bff 00                               0x00 
                           .rsrc:01005c00 30                               0x30 '0'
                           .rsrc:01005c01 00                               0x00 
                           .rsrc:01005c02 30                               0x30 '0'
                           .rsrc:01005c03 00                               0x00 
                           .rsrc:01005c04 2e                               0x2e '.'
                           .rsrc:01005c05 00                               0x00 
                           .rsrc:01005c06 31                               0x31 '1'
                           .rsrc:01005c07 00                               0x00 
                           .rsrc:01005c08 36                               0x36 '6'
                           .rsrc:01005c09 00                               0x00 
                           .rsrc:01005c0a 33                               0x33 '3'
                           .rsrc:01005c0b 00                               0x00 
                           .rsrc:01005c0c 38                               0x38 '8'
                           .rsrc:01005c0d 00                               0x00 
                           .rsrc:01005c0e 35                               0x35 '5'
                           .rsrc:01005c0f 00                               0x00 
                           .rsrc:01005c10 20                               0x20 ' '
                           .rsrc:01005c11 00                               0x00 
                           .rsrc:01005c12 28                               0x28 '('
                           .rsrc:01005c13 00                               0x00 
                           .rsrc:01005c14 77                               0x77 'w'
                           .rsrc:01005c15 00                               0x00 
                           .rsrc:01005c16 69                               0x69 'i'
                           .rsrc:01005c17 00                               0x00 
                           .rsrc:01005c18 6e                               0x6e 'n'
                           .rsrc:01005c19 00                               0x00 
                           .rsrc:01005c1a 37                               0x37 '7'
                           .rsrc:01005c1b 00                               0x00 
                           .rsrc:01005c1c 5f                               0x5f '_'
                           .rsrc:01005c1d 00                               0x00 
                           .rsrc:01005c1e 72                               0x72 'r'
                           .rsrc:01005c1f 00                               0x00 
                           .rsrc:01005c20 74                               0x74 't'
                           .rsrc:01005c21 00                               0x00 
                           .rsrc:01005c22 6d                               0x6d 'm'
                           .rsrc:01005c23 00                               0x00 
                           .rsrc:01005c24 2e                               0x2e '.'
                           .rsrc:01005c25 00                               0x00 
                           .rsrc:01005c26 30                               0x30 '0'
                           .rsrc:01005c27 00                               0x00 
                           .rsrc:01005c28 39                               0x39 '9'
                           .rsrc:01005c29 00                               0x00 
                           .rsrc:01005c2a 30                               0x30 '0'
                           .rsrc:01005c2b 00                               0x00 
                           .rsrc:01005c2c 37                               0x37 '7'
                           .rsrc:01005c2d 00                               0x00 
                           .rsrc:01005c2e 31                               0x31 '1'
                           .rsrc:01005c2f 00                               0x00 
                           .rsrc:01005c30 33                               0x33 '3'
                           .rsrc:01005c31 00                               0x00 
                           .rsrc:01005c32 2d                               0x2d '-'
                           .rsrc:01005c33 00                               0x00 
                           .rsrc:01005c34 31                               0x31 '1'
                           .rsrc:01005c35 00                               0x00 
                           .rsrc:01005c36 32                               0x32 '2'
                           .rsrc:01005c37 00                               0x00 
                           .rsrc:01005c38 35                               0x35 '5'
                           .rsrc:01005c39 00                               0x00 
                           .rsrc:01005c3a 35                               0x35 '5'
                           .rsrc:01005c3b 00                               0x00 
                           .rsrc:01005c3c 29                               0x29 ')'
                           .rsrc:01005c3d 00                               0x00 
                           .rsrc:01005c3e 00                               0x00 
                           .rsrc:01005c3f 00                               0x00 
                           .rsrc:01005c40 30                               0x30 '0'
                           .rsrc:01005c41 00                               0x00 
                           .rsrc:01005c42 08                               0x08 
                           .rsrc:01005c43 00                               0x00 
                           .rsrc:01005c44 01                               0x01 
                           .rsrc:01005c45 00                               0x00 
                           .rsrc:01005c46 49                               0x49 'I'
                           .rsrc:01005c47 00                               0x00 
                           .rsrc:01005c48 6e                               0x6e 'n'
                           .rsrc:01005c49 00                               0x00 
                           .rsrc:01005c4a 74                               0x74 't'
                           .rsrc:01005c4b 00                               0x00 
                           .rsrc:01005c4c 65                               0x65 'e'
                           .rsrc:01005c4d 00                               0x00 
                           .rsrc:01005c4e 72                               0x72 'r'
                           .rsrc:01005c4f 00                               0x00 
                           .rsrc:01005c50 6e                               0x6e 'n'
                           .rsrc:01005c51 00                               0x00 
                           .rsrc:01005c52 61                               0x61 'a'
                           .rsrc:01005c53 00                               0x00 
                           .rsrc:01005c54 6c                               0x6c 'l'
                           .rsrc:01005c55 00                               0x00 
                           .rsrc:01005c56 4e                               0x4e 'N'
                           .rsrc:01005c57 00                               0x00 
                           .rsrc:01005c58 61                               0x61 'a'
                           .rsrc:01005c59 00                               0x00 
                           .rsrc:01005c5a 6d                               0x6d 'm'
                           .rsrc:01005c5b 00                               0x00 
                           .rsrc:01005c5c 65                               0x65 'e'
                           .rsrc:01005c5d 00                               0x00 
                           .rsrc:01005c5e 00                               0x00 
                           .rsrc:01005c5f 00                               0x00 
                           .rsrc:01005c60 47                               0x47 'G'
                           .rsrc:01005c61 00                               0x00 
                           .rsrc:01005c62 72                               0x72 'r'
                           .rsrc:01005c63 00                               0x00 
                           .rsrc:01005c64 70                               0x70 'p'
                           .rsrc:01005c65 00                               0x00 
                           .rsrc:01005c66 43                               0x43 'C'
                           .rsrc:01005c67 00                               0x00 
                           .rsrc:01005c68 6f                               0x6f 'o'
                           .rsrc:01005c69 00                               0x00 
                           .rsrc:01005c6a 6e                               0x6e 'n'
                           .rsrc:01005c6b 00                               0x00 
                           .rsrc:01005c6c 76                               0x76 'v'
                           .rsrc:01005c6d 00                               0x00 
                           .rsrc:01005c6e 00                               0x00 
                           .rsrc:01005c6f 00                               0x00 
                           .rsrc:01005c70 80                               0x80 
                           .rsrc:01005c71 00                               0x00 
                           .rsrc:01005c72 2e                               0x2e '.'
                           .rsrc:01005c73 00                               0x00 
                           .rsrc:01005c74 01                               0x01 
                           .rsrc:01005c75 00                               0x00 
                           .rsrc:01005c76 4c                               0x4c 'L'
                           .rsrc:01005c77 00                               0x00 
                           .rsrc:01005c78 65                               0x65 'e'
                           .rsrc:01005c79 00                               0x00 
                           .rsrc:01005c7a 67                               0x67 'g'
                           .rsrc:01005c7b 00                               0x00 
                           .rsrc:01005c7c 61                               0x61 'a'
                           .rsrc:01005c7d 00                               0x00 
                           .rsrc:01005c7e 6c                               0x6c 'l'
                           .rsrc:01005c7f 00                               0x00 
                           .rsrc:01005c80 43                               0x43 'C'
                           .rsrc:01005c81 00                               0x00 
                           .rsrc:01005c82 6f                               0x6f 'o'
                           .rsrc:01005c83 00                               0x00 
                           .rsrc:01005c84 70                               0x70 'p'
                           .rsrc:01005c85 00                               0x00 
                           .rsrc:01005c86 79                               0x79 'y'
                           .rsrc:01005c87 00                               0x00 
                           .rsrc:01005c88 72                               0x72 'r'
                           .rsrc:01005c89 00                               0x00 
                           .rsrc:01005c8a 69                               0x69 'i'
                           .rsrc:01005c8b 00                               0x00 
                           .rsrc:01005c8c 67                               0x67 'g'
                           .rsrc:01005c8d 00                               0x00 
                           .rsrc:01005c8e 68                               0x68 'h'
                           .rsrc:01005c8f 00                               0x00 
                           .rsrc:01005c90 74                               0x74 't'
                           .rsrc:01005c91 00                               0x00 
                           .rsrc:01005c92 00                               0x00 
                           .rsrc:01005c93 00                               0x00 
                           .rsrc:01005c94 a9                               0xa9 
                           .rsrc:01005c95 00                               0x00 
                           .rsrc:01005c96 20                               0x20 ' '
                           .rsrc:01005c97 00                               0x00 
                           .rsrc:01005c98 4d                               0x4d 'M'
                           .rsrc:01005c99 00                               0x00 
                           .rsrc:01005c9a 69                               0x69 'i'
                           .rsrc:01005c9b 00                               0x00 
                           .rsrc:01005c9c 63                               0x63 'c'
                           .rsrc:01005c9d 00                               0x00 
                           .rsrc:01005c9e 72                               0x72 'r'
                           .rsrc:01005c9f 00                               0x00 
                           .rsrc:01005ca0 6f                               0x6f 'o'
                           .rsrc:01005ca1 00                               0x00 
                           .rsrc:01005ca2 73                               0x73 's'
                           .rsrc:01005ca3 00                               0x00 
                           .rsrc:01005ca4 6f                               0x6f 'o'
                           .rsrc:01005ca5 00                               0x00 
                           .rsrc:01005ca6 66                               0x66 'f'
                           .rsrc:01005ca7 00                               0x00 
                           .rsrc:01005ca8 74                               0x74 't'
                           .rsrc:01005ca9 00                               0x00 
                           .rsrc:01005caa 20                               0x20 ' '
                           .rsrc:01005cab 00                               0x00 
                           .rsrc:01005cac 43                               0x43 'C'
                           .rsrc:01005cad 00                               0x00 
                           .rsrc:01005cae 6f                               0x6f 'o'
                           .rsrc:01005caf 00                               0x00 
                           .rsrc:01005cb0 72                               0x72 'r'
                           .rsrc:01005cb1 00                               0x00 
                           .rsrc:01005cb2 70                               0x70 'p'
                           .rsrc:01005cb3 00                               0x00 
                           .rsrc:01005cb4 6f                               0x6f 'o'
                           .rsrc:01005cb5 00                               0x00 
                           .rsrc:01005cb6 72                               0x72 'r'
                           .rsrc:01005cb7 00                               0x00 
                           .rsrc:01005cb8 61                               0x61 'a'
                           .rsrc:01005cb9 00                               0x00 
                           .rsrc:01005cba 74                               0x74 't'
                           .rsrc:01005cbb 00                               0x00 
                           .rsrc:01005cbc 69                               0x69 'i'
                           .rsrc:01005cbd 00                               0x00 
                           .rsrc:01005cbe 6f                               0x6f 'o'
                           .rsrc:01005cbf 00                               0x00 
                           .rsrc:01005cc0 6e                               0x6e 'n'
                           .rsrc:01005cc1 00                               0x00 
                           .rsrc:01005cc2 2e                               0x2e '.'
                           .rsrc:01005cc3 00                               0x00 
                           .rsrc:01005cc4 20                               0x20 ' '
                           .rsrc:01005cc5 00                               0x00 
                           .rsrc:01005cc6 41                               0x41 'A'
                           .rsrc:01005cc7 00                               0x00 
                           .rsrc:01005cc8 6c                               0x6c 'l'
                           .rsrc:01005cc9 00                               0x00 
                           .rsrc:01005cca 6c                               0x6c 'l'
                           .rsrc:01005ccb 00                               0x00 
                           .rsrc:01005ccc 20                               0x20 ' '
                           .rsrc:01005ccd 00                               0x00 
                           .rsrc:01005cce 72                               0x72 'r'
                           .rsrc:01005ccf 00                               0x00 
                           .rsrc:01005cd0 69                               0x69 'i'
                           .rsrc:01005cd1 00                               0x00 
                           .rsrc:01005cd2 67                               0x67 'g'
                           .rsrc:01005cd3 00                               0x00 
                           .rsrc:01005cd4 68                               0x68 'h'
                           .rsrc:01005cd5 00                               0x00 
                           .rsrc:01005cd6 74                               0x74 't'
                           .rsrc:01005cd7 00                               0x00 
                           .rsrc:01005cd8 73                               0x73 's'
                           .rsrc:01005cd9 00                               0x00 
                           .rsrc:01005cda 20                               0x20 ' '
                           .rsrc:01005cdb 00                               0x00 
                           .rsrc:01005cdc 72                               0x72 'r'
                           .rsrc:01005cdd 00                               0x00 
                           .rsrc:01005cde 65                               0x65 'e'
                           .rsrc:01005cdf 00                               0x00 
                           .rsrc:01005ce0 73                               0x73 's'
                           .rsrc:01005ce1 00                               0x00 
                           .rsrc:01005ce2 65                               0x65 'e'
                           .rsrc:01005ce3 00                               0x00 
                           .rsrc:01005ce4 72                               0x72 'r'
                           .rsrc:01005ce5 00                               0x00 
                           .rsrc:01005ce6 76                               0x76 'v'
                           .rsrc:01005ce7 00                               0x00 
                           .rsrc:01005ce8 65                               0x65 'e'
                           .rsrc:01005ce9 00                               0x00 
                           .rsrc:01005cea 64                               0x64 'd'
                           .rsrc:01005ceb 00                               0x00 
                           .rsrc:01005cec 2e                               0x2e '.'
                           .rsrc:01005ced 00                               0x00 
                           .rsrc:01005cee 00                               0x00 
                           .rsrc:01005cef 00                               0x00 
                           .rsrc:01005cf0 40                               0x40 '@'
                           .rsrc:01005cf1 00                               0x00 
                           .rsrc:01005cf2 0c                               0x0c ''
                           .rsrc:01005cf3 00                               0x00 
                           .rsrc:01005cf4 01                               0x01 
                           .rsrc:01005cf5 00                               0x00 
                           .rsrc:01005cf6 4f                               0x4f 'O'
                           .rsrc:01005cf7 00                               0x00 
                           .rsrc:01005cf8 72                               0x72 'r'
                           .rsrc:01005cf9 00                               0x00 
                           .rsrc:01005cfa 69                               0x69 'i'
                           .rsrc:01005cfb 00                               0x00 
                           .rsrc:01005cfc 67                               0x67 'g'
                           .rsrc:01005cfd 00                               0x00 
                           .rsrc:01005cfe 69                               0x69 'i'
                           .rsrc:01005cff 00                               0x00 
                           .rsrc:01005d00 6e                               0x6e 'n'
                           .rsrc:01005d01 00                               0x00 
                           .rsrc:01005d02 61                               0x61 'a'
                           .rsrc:01005d03 00                               0x00 
                           .rsrc:01005d04 6c                               0x6c 'l'
                           .rsrc:01005d05 00                               0x00 
                           .rsrc:01005d06 46                               0x46 'F'
                           .rsrc:01005d07 00                               0x00 
                           .rsrc:01005d08 69                               0x69 'i'
                           .rsrc:01005d09 00                               0x00 
                           .rsrc:01005d0a 6c                               0x6c 'l'
                           .rsrc:01005d0b 00                               0x00 
                           .rsrc:01005d0c 65                               0x65 'e'
                           .rsrc:01005d0d 00                               0x00 
                           .rsrc:01005d0e 6e                               0x6e 'n'
                           .rsrc:01005d0f 00                               0x00 
                           .rsrc:01005d10 61                               0x61 'a'
                           .rsrc:01005d11 00                               0x00 
                           .rsrc:01005d12 6d                               0x6d 'm'
                           .rsrc:01005d13 00                               0x00 
                           .rsrc:01005d14 65                               0x65 'e'
                           .rsrc:01005d15 00                               0x00 
                           .rsrc:01005d16 00                               0x00 
                           .rsrc:01005d17 00                               0x00 
                           .rsrc:01005d18 47                               0x47 'G'
                           .rsrc:01005d19 00                               0x00 
                           .rsrc:01005d1a 52                               0x52 'R'
                           .rsrc:01005d1b 00                               0x00 
                           .rsrc:01005d1c 50                               0x50 'P'
                           .rsrc:01005d1d 00                               0x00 
                           .rsrc:01005d1e 43                               0x43 'C'
                           .rsrc:01005d1f 00                               0x00 
                           .rsrc:01005d20 4f                               0x4f 'O'
                           .rsrc:01005d21 00                               0x00 
                           .rsrc:01005d22 4e                               0x4e 'N'
                           .rsrc:01005d23 00                               0x00 
                           .rsrc:01005d24 56                               0x56 'V'
                           .rsrc:01005d25 00                               0x00 
                           .rsrc:01005d26 2e                               0x2e '.'
                           .rsrc:01005d27 00                               0x00 
                           .rsrc:01005d28 45                               0x45 'E'
                           .rsrc:01005d29 00                               0x00 
                           .rsrc:01005d2a 58                               0x58 'X'
                           .rsrc:01005d2b 00                               0x00 
                           .rsrc:01005d2c 45                               0x45 'E'
                           .rsrc:01005d2d 00                               0x00 
                           .rsrc:01005d2e 00                               0x00 
                           .rsrc:01005d2f 00                               0x00 
                           .rsrc:01005d30 6a                               0x6a 'j'
                           .rsrc:01005d31 00                               0x00 
                           .rsrc:01005d32 25                               0x25 '%'
                           .rsrc:01005d33 00                               0x00 
                           .rsrc:01005d34 01                               0x01 
                           .rsrc:01005d35 00                               0x00 
                           .rsrc:01005d36 50                               0x50 'P'
                           .rsrc:01005d37 00                               0x00 
                           .rsrc:01005d38 72                               0x72 'r'
                           .rsrc:01005d39 00                               0x00 
                           .rsrc:01005d3a 6f                               0x6f 'o'
                           .rsrc:01005d3b 00                               0x00 
                           .rsrc:01005d3c 64                               0x64 'd'
                           .rsrc:01005d3d 00                               0x00 
                           .rsrc:01005d3e 75                               0x75 'u'
                           .rsrc:01005d3f 00                               0x00 
                           .rsrc:01005d40 63                               0x63 'c'
                           .rsrc:01005d41 00                               0x00 
                           .rsrc:01005d42 74                               0x74 't'
                           .rsrc:01005d43 00                               0x00 
                           .rsrc:01005d44 4e                               0x4e 'N'
                           .rsrc:01005d45 00                               0x00 
                           .rsrc:01005d46 61                               0x61 'a'
                           .rsrc:01005d47 00                               0x00 
                           .rsrc:01005d48 6d                               0x6d 'm'
                           .rsrc:01005d49 00                               0x00 
                           .rsrc:01005d4a 65                               0x65 'e'
                           .rsrc:01005d4b 00                               0x00 
                           .rsrc:01005d4c 00                               0x00 
                           .rsrc:01005d4d 00                               0x00 
                           .rsrc:01005d4e 00                               0x00 
                           .rsrc:01005d4f 00                               0x00 
                           .rsrc:01005d50 4d                               0x4d 'M'
                           .rsrc:01005d51 00                               0x00 
                           .rsrc:01005d52 69                               0x69 'i'
                           .rsrc:01005d53 00                               0x00 
                           .rsrc:01005d54 63                               0x63 'c'
                           .rsrc:01005d55 00                               0x00 
                           .rsrc:01005d56 72                               0x72 'r'
                           .rsrc:01005d57 00                               0x00 
                           .rsrc:01005d58 6f                               0x6f 'o'
                           .rsrc:01005d59 00                               0x00 
                           .rsrc:01005d5a 73                               0x73 's'
                           .rsrc:01005d5b 00                               0x00 
                           .rsrc:01005d5c 6f                               0x6f 'o'
                           .rsrc:01005d5d 00                               0x00 
                           .rsrc:01005d5e 66                               0x66 'f'
                           .rsrc:01005d5f 00                               0x00 
                           .rsrc:01005d60 74                               0x74 't'
                           .rsrc:01005d61 00                               0x00 
                           .rsrc:01005d62 ae                               0xae 
                           .rsrc:01005d63 00                               0x00 
                           .rsrc:01005d64 20                               0x20 ' '
                           .rsrc:01005d65 00                               0x00 
                           .rsrc:01005d66 57                               0x57 'W'
                           .rsrc:01005d67 00                               0x00 
                           .rsrc:01005d68 69                               0x69 'i'
                           .rsrc:01005d69 00                               0x00 
                           .rsrc:01005d6a 6e                               0x6e 'n'
                           .rsrc:01005d6b 00                               0x00 
                           .rsrc:01005d6c 64                               0x64 'd'
                           .rsrc:01005d6d 00                               0x00 
                           .rsrc:01005d6e 6f                               0x6f 'o'
                           .rsrc:01005d6f 00                               0x00 
                           .rsrc:01005d70 77                               0x77 'w'
                           .rsrc:01005d71 00                               0x00 
                           .rsrc:01005d72 73                               0x73 's'
                           .rsrc:01005d73 00                               0x00 
                           .rsrc:01005d74 ae                               0xae 
                           .rsrc:01005d75 00                               0x00 
                           .rsrc:01005d76 20                               0x20 ' '
                           .rsrc:01005d77 00                               0x00 
                           .rsrc:01005d78 4f                               0x4f 'O'
                           .rsrc:01005d79 00                               0x00 
                           .rsrc:01005d7a 70                               0x70 'p'
                           .rsrc:01005d7b 00                               0x00 
                           .rsrc:01005d7c 65                               0x65 'e'
                           .rsrc:01005d7d 00                               0x00 
                           .rsrc:01005d7e 72                               0x72 'r'
                           .rsrc:01005d7f 00                               0x00 
                           .rsrc:01005d80 61                               0x61 'a'
                           .rsrc:01005d81 00                               0x00 
                           .rsrc:01005d82 74                               0x74 't'
                           .rsrc:01005d83 00                               0x00 
                           .rsrc:01005d84 69                               0x69 'i'
                           .rsrc:01005d85 00                               0x00 
                           .rsrc:01005d86 6e                               0x6e 'n'
                           .rsrc:01005d87 00                               0x00 
                           .rsrc:01005d88 67                               0x67 'g'
                           .rsrc:01005d89 00                               0x00 
                           .rsrc:01005d8a 20                               0x20 ' '
                           .rsrc:01005d8b 00                               0x00 
                           .rsrc:01005d8c 53                               0x53 'S'
                           .rsrc:01005d8d 00                               0x00 
                           .rsrc:01005d8e 79                               0x79 'y'
                           .rsrc:01005d8f 00                               0x00 
                           .rsrc:01005d90 73                               0x73 's'
                           .rsrc:01005d91 00                               0x00 
                           .rsrc:01005d92 74                               0x74 't'
                           .rsrc:01005d93 00                               0x00 
                           .rsrc:01005d94 65                               0x65 'e'
                           .rsrc:01005d95 00                               0x00 
                           .rsrc:01005d96 6d                               0x6d 'm'
                           .rsrc:01005d97 00                               0x00 
                           .rsrc:01005d98 00                               0x00 
                           .rsrc:01005d99 00                               0x00 
                           .rsrc:01005d9a 00                               0x00 
                           .rsrc:01005d9b 00                               0x00 
                           .rsrc:01005d9c 42                               0x42 'B'
                           .rsrc:01005d9d 00                               0x00 
                           .rsrc:01005d9e 0f                               0x0f 
                           .rsrc:01005d9f 00                               0x00 
                           .rsrc:01005da0 01                               0x01 
                           .rsrc:01005da1 00                               0x00 
                           .rsrc:01005da2 50                               0x50 'P'
                           .rsrc:01005da3 00                               0x00 
                           .rsrc:01005da4 72                               0x72 'r'
                           .rsrc:01005da5 00                               0x00 
                           .rsrc:01005da6 6f                               0x6f 'o'
                           .rsrc:01005da7 00                               0x00 
                           .rsrc:01005da8 64                               0x64 'd'
                           .rsrc:01005da9 00                               0x00 
                           .rsrc:01005daa 75                               0x75 'u'
                           .rsrc:01005dab 00                               0x00 
                           .rsrc:01005dac 63                               0x63 'c'
                           .rsrc:01005dad 00                               0x00 
                           .rsrc:01005dae 74                               0x74 't'
                           .rsrc:01005daf 00                               0x00 
                           .rsrc:01005db0 56                               0x56 'V'
                           .rsrc:01005db1 00                               0x00 
                           .rsrc:01005db2 65                               0x65 'e'
                           .rsrc:01005db3 00                               0x00 
                           .rsrc:01005db4 72                               0x72 'r'
                           .rsrc:01005db5 00                               0x00 
                           .rsrc:01005db6 73                               0x73 's'
                           .rsrc:01005db7 00                               0x00 
                           .rsrc:01005db8 69                               0x69 'i'
                           .rsrc:01005db9 00                               0x00 
                           .rsrc:01005dba 6f                               0x6f 'o'
                           .rsrc:01005dbb 00                               0x00 
                           .rsrc:01005dbc 6e                               0x6e 'n'
                           .rsrc:01005dbd 00                               0x00 
                           .rsrc:01005dbe 00                               0x00 
                           .rsrc:01005dbf 00                               0x00 
                           .rsrc:01005dc0 36                               0x36 '6'
                           .rsrc:01005dc1 00                               0x00 
                           .rsrc:01005dc2 2e                               0x2e '.'
                           .rsrc:01005dc3 00                               0x00 
                           .rsrc:01005dc4 31                               0x31 '1'
                           .rsrc:01005dc5 00                               0x00 
                           .rsrc:01005dc6 2e                               0x2e '.'
                           .rsrc:01005dc7 00                               0x00 
                           .rsrc:01005dc8 37                               0x37 '7'
                           .rsrc:01005dc9 00                               0x00 
                           .rsrc:01005dca 36                               0x36 '6'
                           .rsrc:01005dcb 00                               0x00 
                           .rsrc:01005dcc 30                               0x30 '0'
                           .rsrc:01005dcd 00                               0x00 
                           .rsrc:01005dce 30                               0x30 '0'
                           .rsrc:01005dcf 00                               0x00 
                           .rsrc:01005dd0 2e                               0x2e '.'
                           .rsrc:01005dd1 00                               0x00 
                           .rsrc:01005dd2 31                               0x31 '1'
                           .rsrc:01005dd3 00                               0x00 
                           .rsrc:01005dd4 36                               0x36 '6'
                           .rsrc:01005dd5 00                               0x00 
                           .rsrc:01005dd6 33                               0x33 '3'
                           .rsrc:01005dd7 00                               0x00 
                           .rsrc:01005dd8 38                               0x38 '8'
                           .rsrc:01005dd9 00                               0x00 
                           .rsrc:01005dda 35                               0x35 '5'
                           .rsrc:01005ddb 00                               0x00 
                           .rsrc:01005ddc 00                               0x00 
                           .rsrc:01005ddd 00                               0x00 
                           .rsrc:01005dde 00                               0x00 
                           .rsrc:01005ddf 00                               0x00 
                           .rsrc:01005de0 44                               0x44 'D'
                           .rsrc:01005de1 00                               0x00 
                           .rsrc:01005de2 00                               0x00 
                           .rsrc:01005de3 00                               0x00 
                           .rsrc:01005de4 01                               0x01 
                           .rsrc:01005de5 00                               0x00 
                           .rsrc:01005de6 56                               0x56 'V'
                           .rsrc:01005de7 00                               0x00 
                           .rsrc:01005de8 61                               0x61 'a'
                           .rsrc:01005de9 00                               0x00 
                           .rsrc:01005dea 72                               0x72 'r'
                           .rsrc:01005deb 00                               0x00 
                           .rsrc:01005dec 46                               0x46 'F'
                           .rsrc:01005ded 00                               0x00 
                           .rsrc:01005dee 69                               0x69 'i'
                           .rsrc:01005def 00                               0x00 
                           .rsrc:01005df0 6c                               0x6c 'l'
                           .rsrc:01005df1 00                               0x00 
                           .rsrc:01005df2 65                               0x65 'e'
                           .rsrc:01005df3 00                               0x00 
                           .rsrc:01005df4 49                               0x49 'I'
                           .rsrc:01005df5 00                               0x00 
                           .rsrc:01005df6 6e                               0x6e 'n'
                           .rsrc:01005df7 00                               0x00 
                           .rsrc:01005df8 66                               0x66 'f'
                           .rsrc:01005df9 00                               0x00 
                           .rsrc:01005dfa 6f                               0x6f 'o'
                           .rsrc:01005dfb 00                               0x00 
                           .rsrc:01005dfc 00                               0x00 
                           .rsrc:01005dfd 00                               0x00 
                           .rsrc:01005dfe 00                               0x00 
                           .rsrc:01005dff 00                               0x00 
                           .rsrc:01005e00 24                               0x24 '$'
                           .rsrc:01005e01 00                               0x00 
                           .rsrc:01005e02 04                               0x04 
                           .rsrc:01005e03 00                               0x00 
                           .rsrc:01005e04 00                               0x00 
                           .rsrc:01005e05 00                               0x00 
                           .rsrc:01005e06 54                               0x54 'T'
                           .rsrc:01005e07 00                               0x00 
                           .rsrc:01005e08 72                               0x72 'r'
                           .rsrc:01005e09 00                               0x00 
                           .rsrc:01005e0a 61                               0x61 'a'
                           .rsrc:01005e0b 00                               0x00 
                           .rsrc:01005e0c 6e                               0x6e 'n'
                           .rsrc:01005e0d 00                               0x00 
                           .rsrc:01005e0e 73                               0x73 's'
                           .rsrc:01005e0f 00                               0x00 
                           .rsrc:01005e10 6c                               0x6c 'l'
                           .rsrc:01005e11 00                               0x00 
                           .rsrc:01005e12 61                               0x61 'a'
                           .rsrc:01005e13 00                               0x00 
                           .rsrc:01005e14 74                               0x74 't'
                           .rsrc:01005e15 00                               0x00 
                           .rsrc:01005e16 69                               0x69 'i'
                           .rsrc:01005e17 00                               0x00 
                           .rsrc:01005e18 6f                               0x6f 'o'
                           .rsrc:01005e19 00                               0x00 
                           .rsrc:01005e1a 6e                               0x6e 'n'
                           .rsrc:01005e1b 00                               0x00 
                           .rsrc:01005e1c 00                               0x00 
                           .rsrc:01005e1d 00                               0x00 
                           .rsrc:01005e1e 00                               0x00 
                           .rsrc:01005e1f 00                               0x00 
                           .rsrc:01005e20 09                               0x09 '	'
                           .rsrc:01005e21 04                               0x04 
                           .rsrc:01005e22 b0                               0xb0 
                           .rsrc:01005e23 04                               0x04 
                           .rsrc:01005e24 00                               0x00 
                           .rsrc:01005e25 00                               0x00 
                           .rsrc:01005e26 00                               0x00 
                           .rsrc:01005e27 00                               0x00 
                           .rsrc:01005e28 cd                               0xcd 
                           .rsrc:01005e29 fe                               0xfe 
                           .rsrc:01005e2a cd                               0xcd 
                           .rsrc:01005e2b fe                               0xfe 
                           .rsrc:01005e2c d8                               0xd8 
                           .rsrc:01005e2d 00                               0x00 
                           .rsrc:01005e2e 00                               0x00 
                           .rsrc:01005e2f 00                               0x00 
                           .rsrc:01005e30 00                               0x00 
                           .rsrc:01005e31 00                               0x00 
                           .rsrc:01005e32 01                               0x01 
                           .rsrc:01005e33 00                               0x00 
                           .rsrc:01005e34 00                               0x00 
                           .rsrc:01005e35 00                               0x00 
                           .rsrc:01005e36 00                               0x00 
                           .rsrc:01005e37 00                               0x00 
                           .rsrc:01005e38 11                               0x11 
                           .rsrc:01005e39 00                               0x00 
                           .rsrc:01005e3a 00                               0x00 
                           .rsrc:01005e3b 00                               0x00 
                           .rsrc:01005e3c 00                               0x00 
                           .rsrc:01005e3d 00                               0x00 
                           .rsrc:01005e3e 00                               0x00 
                           .rsrc:01005e3f 00                               0x00 
                           .rsrc:01005e40 02                               0x02 
                           .rsrc:01005e41 00                               0x00 
                           .rsrc:01005e42 00                               0x00 
                           .rsrc:01005e43 00                               0x00 
                           .rsrc:01005e44 12                               0x12 
                           .rsrc:01005e45 7b                               0x7b '{'
                           .rsrc:01005e46 ae                               0xae 
                           .rsrc:01005e47 ac                               0xac 
                           .rsrc:01005e48 70                               0x70 'p'
                           .rsrc:01005e49 a8                               0xa8 
                           .rsrc:01005e4a 60                               0x60 '`'
                           .rsrc:01005e4b f9                               0xf9 
                           .rsrc:01005e4c fc                               0xfc 
                           .rsrc:01005e4d 34                               0x34 '4'
                           .rsrc:01005e4e fc                               0xfc 
                           .rsrc:01005e4f ac                               0xac 
                           .rsrc:01005e50 de                               0xde 
                           .rsrc:01005e51 80                               0x80 
                           .rsrc:01005e52 42                               0x42 'B'
                           .rsrc:01005e53 ed                               0xed 
                           .rsrc:01005e54 61                               0x61 'a'
                           .rsrc:01005e55 d9                               0xd9 
                           .rsrc:01005e56 0c                               0x0c ''
                           .rsrc:01005e57 5e                               0x5e '^'
                           .rsrc:01005e58 11                               0x11 
                           .rsrc:01005e59 5e                               0x5e '^'
                           .rsrc:01005e5a 66                               0x66 'f'
                           .rsrc:01005e5b e7                               0xe7 
                           .rsrc:01005e5c 8f                               0x8f 
                           .rsrc:01005e5d 6a                               0x6a 'j'
                           .rsrc:01005e5e 78                               0x78 'x'
                           .rsrc:01005e5f dd                               0xdd 
                           .rsrc:01005e60 a9                               0xa9 
                           .rsrc:01005e61 47                               0x47 'G'
                           .rsrc:01005e62 39                               0x39 '9'
                           .rsrc:01005e63 af                               0xaf 
                           .rsrc:01005e64 00                               0x00 
                           .rsrc:01005e65 00                               0x00 
                           .rsrc:01005e66 00                               0x00 
                           .rsrc:01005e67 00                               0x00 
                           .rsrc:01005e68 00                               0x00 
                           .rsrc:01005e69 00                               0x00 
                           .rsrc:01005e6a 00                               0x00 
                           .rsrc:01005e6b 00                               0x00 
                           .rsrc:01005e6c 00                               0x00 
                           .rsrc:01005e6d 00                               0x00 
                           .rsrc:01005e6e 00                               0x00 
                           .rsrc:01005e6f 00                               0x00 
                           .rsrc:01005e70 00                               0x00 
                           .rsrc:01005e71 00                               0x00 
                           .rsrc:01005e72 00                               0x00 
                           .rsrc:01005e73 00                               0x00 
                           .rsrc:01005e74 00                               0x00 
                           .rsrc:01005e75 00                               0x00 
                           .rsrc:01005e76 00                               0x00 
                           .rsrc:01005e77 00                               0x00 
                           .rsrc:01005e78 00                               0x00 
                           .rsrc:01005e79 00                               0x00 
                           .rsrc:01005e7a 00                               0x00 
                           .rsrc:01005e7b 00                               0x00 
                           .rsrc:01005e7c 88                               0x88 
                           .rsrc:01005e7d 00                               0x00 
                           .rsrc:01005e7e 00                               0x00 
                           .rsrc:01005e7f 00                               0x00 
                           .rsrc:01005e80 0e                               0x0e 
                           .rsrc:01005e81 00                               0x00 
                           .rsrc:01005e82 00                               0x00 
                           .rsrc:01005e83 00                               0x00 
                           .rsrc:01005e84 98                               0x98 
                           .rsrc:01005e85 00                               0x00 
                           .rsrc:01005e86 00                               0x00 
                           .rsrc:01005e87 00                               0x00 
                           .rsrc:01005e88 10                               0x10 
                           .rsrc:01005e89 00                               0x00 
                           .rsrc:01005e8a 00                               0x00 
                           .rsrc:01005e8b 00                               0x00 
                           .rsrc:01005e8c a8                               0xa8 
                           .rsrc:01005e8d 00                               0x00 
                           .rsrc:01005e8e 00                               0x00 
                           .rsrc:01005e8f 00                               0x00 
                           .rsrc:01005e90 0e                               0x0e 
                           .rsrc:01005e91 00                               0x00 
                           .rsrc:01005e92 00                               0x00 
                           .rsrc:01005e93 00                               0x00 
                           .rsrc:01005e94 b8                               0xb8 
                           .rsrc:01005e95 00                               0x00 
                           .rsrc:01005e96 00                               0x00 
                           .rsrc:01005e97 00                               0x00 
                           .rsrc:01005e98 10                               0x10 
                           .rsrc:01005e99 00                               0x00 
                           .rsrc:01005e9a 00                               0x00 
                           .rsrc:01005e9b 00                               0x00 
                           .rsrc:01005e9c 00                               0x00 
                           .rsrc:01005e9d 00                               0x00 
                           .rsrc:01005e9e 00                               0x00 
                           .rsrc:01005e9f 00                               0x00 
                           .rsrc:01005ea0 00                               0x00 
                           .rsrc:01005ea1 00                               0x00 
                           .rsrc:01005ea2 00                               0x00 
                           .rsrc:01005ea3 00                               0x00 
                           .rsrc:01005ea4 c8                               0xc8 
                           .rsrc:01005ea5 00                               0x00 
                           .rsrc:01005ea6 00                               0x00 
                           .rsrc:01005ea7 00                               0x00 
                           .rsrc:01005ea8 0c                               0x0c ''
                           .rsrc:01005ea9 00                               0x00 
                           .rsrc:01005eaa 00                               0x00 
                           .rsrc:01005eab 00                               0x00 
                           .rsrc:01005eac 00                               0x00 
                           .rsrc:01005ead 00                               0x00 
                           .rsrc:01005eae 00                               0x00 
                           .rsrc:01005eaf 00                               0x00 
                           .rsrc:01005eb0 4d                               0x4d 'M'
                           .rsrc:01005eb1 00                               0x00 
                           .rsrc:01005eb2 55                               0x55 'U'
                           .rsrc:01005eb3 00                               0x00 
                           .rsrc:01005eb4 49                               0x49 'I'
                           .rsrc:01005eb5 00                               0x00 
                           .rsrc:01005eb6 00                               0x00 
                           .rsrc:01005eb7 00                               0x00 
                           .rsrc:01005eb8 00                               0x00 
                           .rsrc:01005eb9 00                               0x00 
                           .rsrc:01005eba 00                               0x00 
                           .rsrc:01005ebb 00                               0x00 
                           .rsrc:01005ebc 00                               0x00 
                           .rsrc:01005ebd 00                               0x00 
                           .rsrc:01005ebe 00                               0x00 
                           .rsrc:01005ebf 00                               0x00 
                           .rsrc:01005ec0 03                               0x03 
                           .rsrc:01005ec1 00                               0x00 
                           .rsrc:01005ec2 00                               0x00 
                           .rsrc:01005ec3 00                               0x00 
                           .rsrc:01005ec4 0e                               0x0e 
                           .rsrc:01005ec5 00                               0x00 
                           .rsrc:01005ec6 00                               0x00 
                           .rsrc:01005ec7 00                               0x00 
                           .rsrc:01005ec8 10                               0x10 
                           .rsrc:01005ec9 00                               0x00 
                           .rsrc:01005eca 00                               0x00 
                           .rsrc:01005ecb 00                               0x00 
                           .rsrc:01005ecc 18                               0x18 
                           .rsrc:01005ecd 00                               0x00 
                           .rsrc:01005ece 00                               0x00 
                           .rsrc:01005ecf 00                               0x00 
                           .rsrc:01005ed0 4d                               0x4d 'M'
                           .rsrc:01005ed1 00                               0x00 
                           .rsrc:01005ed2 55                               0x55 'U'
                           .rsrc:01005ed3 00                               0x00 
                           .rsrc:01005ed4 49                               0x49 'I'
                           .rsrc:01005ed5 00                               0x00 
                           .rsrc:01005ed6 00                               0x00 
                           .rsrc:01005ed7 00                               0x00 
                           .rsrc:01005ed8 00                               0x00 
                           .rsrc:01005ed9 00                               0x00 
                           .rsrc:01005eda 00                               0x00 
                           .rsrc:01005edb 00                               0x00 
                           .rsrc:01005edc 00                               0x00 
                           .rsrc:01005edd 00                               0x00 
                           .rsrc:01005ede 00                               0x00 
                           .rsrc:01005edf 00                               0x00 
                           .rsrc:01005ee0 03                               0x03 
                           .rsrc:01005ee1 00                               0x00 
                           .rsrc:01005ee2 00                               0x00 
                           .rsrc:01005ee3 00                               0x00 
                           .rsrc:01005ee4 06                               0x06 
                           .rsrc:01005ee5 00                               0x00 
                           .rsrc:01005ee6 00                               0x00 
                           .rsrc:01005ee7 00                               0x00 
                           .rsrc:01005ee8 0e                               0x0e 
                           .rsrc:01005ee9 00                               0x00 
                           .rsrc:01005eea 00                               0x00 
                           .rsrc:01005eeb 00                               0x00 
                           .rsrc:01005eec 10                               0x10 
                           .rsrc:01005eed 00                               0x00 
                           .rsrc:01005eee 00                               0x00 
                           .rsrc:01005eef 00                               0x00 
                           .rsrc:01005ef0 65                               0x65 'e'
                           .rsrc:01005ef1 00                               0x00 
                           .rsrc:01005ef2 6e                               0x6e 'n'
                           .rsrc:01005ef3 00                               0x00 
                           .rsrc:01005ef4 2d                               0x2d '-'
                           .rsrc:01005ef5 00                               0x00 
                           .rsrc:01005ef6 55                               0x55 'U'
                           .rsrc:01005ef7 00                               0x00 
                           .rsrc:01005ef8 53                               0x53 'S'
                           .rsrc:01005ef9 00                               0x00 
                           .rsrc:01005efa 00                               0x00 
                           .rsrc:01005efb 00                               0x00 
                           .rsrc:01005efc 00                               0x00 
                           .rsrc:01005efd 00                               0x00 
                           .rsrc:01005efe 00                               0x00 
                           .rsrc:01005eff 00                               0x00 
                          .reloc:01006000 00                               0x00 
                          .reloc:01006001 10                               0x10 
                          .reloc:01006002 00                               0x00 
                          .reloc:01006003 00                               0x00 
                          .reloc:01006004 a8                               0xa8 
                          .reloc:01006005 00                               0x00 
                          .reloc:01006006 00                               0x00 
                          .reloc:01006007 00                               0x00 
                          .reloc:01006008 80                               0x80 
                          .reloc:01006009 31                               0x31 '1'
                          .reloc:0100600a 8c                               0x8c 
                          .reloc:0100600b 31                               0x31 '1'
                          .reloc:0100600c 90                               0x90 
                          .reloc:0100600d 31                               0x31 '1'
                          .reloc:0100600e ec                               0xec 
                          .reloc:0100600f 33                               0x33 '3'
                          .reloc:01006010 f0                               0xf0 
                          .reloc:01006011 33                               0x33 '3'
                          .reloc:01006012 84                               0x84 
                          .reloc:01006013 34                               0x34 '4'
                          .reloc:01006014 88                               0x88 
                          .reloc:01006015 34                               0x34 '4'
                          .reloc:01006016 a2                               0xa2 
                          .reloc:01006017 35                               0x35 '5'
                          .reloc:01006018 d4                               0xd4 
                          .reloc:01006019 35                               0x35 '5'
                          .reloc:0100601a df                               0xdf 
                          .reloc:0100601b 35                               0x35 '5'
                          .reloc:0100601c ef                               0xef 
                          .reloc:0100601d 35                               0x35 '5'
                          .reloc:0100601e 33                               0x33 '3'
                          .reloc:0100601f 36                               0x36 '6'
                          .reloc:01006020 4b                               0x4b 'K'
                          .reloc:01006021 36                               0x36 '6'
                          .reloc:01006022 6e                               0x6e 'n'
                          .reloc:01006023 36                               0x36 '6'
                          .reloc:01006024 80                               0x80 
                          .reloc:01006025 36                               0x36 '6'
                          .reloc:01006026 a4                               0xa4 
                          .reloc:01006027 36                               0x36 '6'
                          .reloc:01006028 b6                               0xb6 
                          .reloc:01006029 36                               0x36 '6'
                          .reloc:0100602a dd                               0xdd 
                          .reloc:0100602b 36                               0x36 '6'
                          .reloc:0100602c e5                               0xe5 
                          .reloc:0100602d 36                               0x36 '6'
                          .reloc:0100602e f3                               0xf3 
                          .reloc:0100602f 36                               0x36 '6'
                          .reloc:01006030 04                               0x04 
                          .reloc:01006031 37                               0x37 '7'
                          .reloc:01006032 0a                               0x0a '
'
                          .reloc:01006033 37                               0x37 '7'
                          .reloc:01006034 18                               0x18 
                          .reloc:01006035 37                               0x37 '7'
                          .reloc:01006036 2a                               0x2a '*'
                          .reloc:01006037 37                               0x37 '7'
                          .reloc:01006038 68                               0x68 'h'
                          .reloc:01006039 37                               0x37 '7'
                          .reloc:0100603a 18                               0x18 
                          .reloc:0100603b 38                               0x38 '8'
                          .reloc:0100603c 2b                               0x2b '+'
                          .reloc:0100603d 38                               0x38 '8'
                          .reloc:0100603e 46                               0x46 'F'
                          .reloc:0100603f 38                               0x38 '8'
                          .reloc:01006040 6c                               0x6c 'l'
                          .reloc:01006041 38                               0x38 '8'
                          .reloc:01006042 81                               0x81 
                          .reloc:01006043 38                               0x38 '8'
                          .reloc:01006044 96                               0x96 
                          .reloc:01006045 38                               0x38 '8'
                          .reloc:01006046 be                               0xbe 
                          .reloc:01006047 38                               0x38 '8'
                          .reloc:01006048 d8                               0xd8 
                          .reloc:01006049 38                               0x38 '8'
                          .reloc:0100604a f2                               0xf2 
                          .reloc:0100604b 38                               0x38 '8'
                          .reloc:0100604c 17                               0x17 
                          .reloc:0100604d 39                               0x39 '9'
                          .reloc:0100604e 1f                               0x1f 
                          .reloc:0100604f 39                               0x39 '9'
                          .reloc:01006050 38                               0x38 '8'
                          .reloc:01006051 39                               0x39 '9'
                          .reloc:01006052 58                               0x58 'X'
                          .reloc:01006053 39                               0x39 '9'
                          .reloc:01006054 86                               0x86 
                          .reloc:01006055 39                               0x39 '9'
                          .reloc:01006056 90                               0x90 
                          .reloc:01006057 39                               0x39 '9'
                          .reloc:01006058 96                               0x96 
                          .reloc:01006059 39                               0x39 '9'
                          .reloc:0100605a b2                               0xb2 
                          .reloc:0100605b 39                               0x39 '9'
                          .reloc:0100605c db                               0xdb 
                          .reloc:0100605d 39                               0x39 '9'
                          .reloc:0100605e 05                               0x05 
                          .reloc:0100605f 3a                               0x3a ':'
                          .reloc:01006060 16                               0x16 
                          .reloc:01006061 3a                               0x3a ':'
                          .reloc:01006062 29                               0x29 ')'
                          .reloc:01006063 3a                               0x3a ':'
                          .reloc:01006064 3b                               0x3b ';'
                          .reloc:01006065 3a                               0x3a ':'
                          .reloc:01006066 55                               0x55 'U'
                          .reloc:01006067 3a                               0x3a ':'
                          .reloc:01006068 93                               0x93 
                          .reloc:01006069 3a                               0x3a ':'
                          .reloc:0100606a a5                               0xa5 
                          .reloc:0100606b 3a                               0x3a ':'
                          .reloc:0100606c b2                               0xb2 
                          .reloc:0100606d 3a                               0x3a ':'
                          .reloc:0100606e cf                               0xcf 
                          .reloc:0100606f 3a                               0x3a ':'
                          .reloc:01006070 25                               0x25 '%'
                          .reloc:01006071 3b                               0x3b ';'
                          .reloc:01006072 40                               0x40 '@'
                          .reloc:01006073 3b                               0x3b ';'
                          .reloc:01006074 5b                               0x5b '['
                          .reloc:01006075 3b                               0x3b ';'
                          .reloc:01006076 de                               0xde 
                          .reloc:01006077 3b                               0x3b ';'
                          .reloc:01006078 f6                               0xf6 
                          .reloc:01006079 3b                               0x3b ';'
                          .reloc:0100607a 12                               0x12 
                          .reloc:0100607b 3c                               0x3c '<'
                          .reloc:0100607c a4                               0xa4 
                          .reloc:0100607d 3c                               0x3c '<'
                          .reloc:0100607e e3                               0xe3 
                          .reloc:0100607f 3c                               0x3c '<'
                          .reloc:01006080 f4                               0xf4 
                          .reloc:01006081 3c                               0x3c '<'
                          .reloc:01006082 13                               0x13 
                          .reloc:01006083 3d                               0x3d '='
                          .reloc:01006084 92                               0x92 
                          .reloc:01006085 3d                               0x3d '='
                          .reloc:01006086 ab                               0xab 
                          .reloc:01006087 3d                               0x3d '='
                          .reloc:01006088 c9                               0xc9 
                          .reloc:01006089 3d                               0x3d '='
                          .reloc:0100608a 70                               0x70 'p'
                          .reloc:0100608b 3e                               0x3e '>'
                          .reloc:0100608c 7a                               0x7a 'z'
                          .reloc:0100608d 3e                               0x3e '>'
                          .reloc:0100608e a1                               0xa1 
                          .reloc:0100608f 3e                               0x3e '>'
                          .reloc:01006090 a6                               0xa6 
                          .reloc:01006091 3e                               0x3e '>'
                          .reloc:01006092 c3                               0xc3 
                          .reloc:01006093 3e                               0x3e '>'
                          .reloc:01006094 d0                               0xd0 
                          .reloc:01006095 3e                               0x3e '>'
                          .reloc:01006096 dd                               0xdd 
                          .reloc:01006097 3e                               0x3e '>'
                          .reloc:01006098 1d                               0x1d 
                          .reloc:01006099 3f                               0x3f '?'
                          .reloc:0100609a 60                               0x60 '`'
                          .reloc:0100609b 3f                               0x3f '?'
                          .reloc:0100609c 6c                               0x6c 'l'
                          .reloc:0100609d 3f                               0x3f '?'
                          .reloc:0100609e 92                               0x92 
                          .reloc:0100609f 3f                               0x3f '?'
                          .reloc:010060a0 ac                               0xac 
                          .reloc:010060a1 3f                               0x3f '?'
                          .reloc:010060a2 c2                               0xc2 
                          .reloc:010060a3 3f                               0x3f '?'
                          .reloc:010060a4 da                               0xda 
                          .reloc:010060a5 3f                               0x3f '?'
                          .reloc:010060a6 ef                               0xef 
                          .reloc:010060a7 3f                               0x3f '?'
                          .reloc:010060a8 00                               0x00 
                          .reloc:010060a9 20                               0x20 ' '
                          .reloc:010060aa 00                               0x00 
                          .reloc:010060ab 00                               0x00 
                          .reloc:010060ac 48                               0x48 'H'
                          .reloc:010060ad 01                               0x01 
                          .reloc:010060ae 00                               0x00 
                          .reloc:010060af 00                               0x00 
                          .reloc:010060b0 36                               0x36 '6'
                          .reloc:010060b1 30                               0x30 '0'
                          .reloc:010060b2 47                               0x47 'G'
                          .reloc:010060b3 30                               0x30 '0'
                          .reloc:010060b4 57                               0x57 'W'
                          .reloc:010060b5 30                               0x30 '0'
                          .reloc:010060b6 7d                               0x7d '}'
                          .reloc:010060b7 30                               0x30 '0'
                          .reloc:010060b8 a0                               0xa0 
                          .reloc:010060b9 30                               0x30 '0'
                          .reloc:010060ba b0                               0xb0 
                          .reloc:010060bb 30                               0x30 '0'
                          .reloc:010060bc b6                               0xb6 
                          .reloc:010060bd 30                               0x30 '0'
                          .reloc:010060be bb                               0xbb 
                          .reloc:010060bf 30                               0x30 '0'
                          .reloc:010060c0 da                               0xda 
                          .reloc:010060c1 30                               0x30 '0'
                          .reloc:010060c2 ec                               0xec 
                          .reloc:010060c3 30                               0x30 '0'
                          .reloc:010060c4 0b                               0x0b ''
                          .reloc:010060c5 31                               0x31 '1'
                          .reloc:010060c6 1d                               0x1d 
                          .reloc:010060c7 31                               0x31 '1'
                          .reloc:010060c8 3c                               0x3c '<'
                          .reloc:010060c9 31                               0x31 '1'
                          .reloc:010060ca 8a                               0x8a 
                          .reloc:010060cb 31                               0x31 '1'
                          .reloc:010060cc b2                               0xb2 
                          .reloc:010060cd 31                               0x31 '1'
                          .reloc:010060ce c8                               0xc8 
                          .reloc:010060cf 31                               0x31 '1'
                          .reloc:010060d0 df                               0xdf 
                          .reloc:010060d1 31                               0x31 '1'
                          .reloc:010060d2 f6                               0xf6 
                          .reloc:010060d3 31                               0x31 '1'
                          .reloc:010060d4 0d                               0x0d ''
                          .reloc:010060d5 32                               0x32 '2'
                          .reloc:010060d6 24                               0x24 '$'
                          .reloc:010060d7 32                               0x32 '2'
                          .reloc:010060d8 3d                               0x3d '='
                          .reloc:010060d9 32                               0x32 '2'
                          .reloc:010060da 6d                               0x6d 'm'
                          .reloc:010060db 32                               0x32 '2'
                          .reloc:010060dc 9e                               0x9e 
                          .reloc:010060dd 32                               0x32 '2'
                          .reloc:010060de a7                               0xa7 
                          .reloc:010060df 32                               0x32 '2'
                          .reloc:010060e0 b4                               0xb4 
                          .reloc:010060e1 32                               0x32 '2'
                          .reloc:010060e2 c1                               0xc1 
                          .reloc:010060e3 32                               0x32 '2'
                          .reloc:010060e4 d7                               0xd7 
                          .reloc:010060e5 32                               0x32 '2'
                          .reloc:010060e6 e2                               0xe2 
                          .reloc:010060e7 32                               0x32 '2'
                          .reloc:010060e8 0a                               0x0a '
'
                          .reloc:010060e9 33                               0x33 '3'
                          .reloc:010060ea 1c                               0x1c 
                          .reloc:010060eb 33                               0x33 '3'
                          .reloc:010060ec 21                               0x21 '!'
                          .reloc:010060ed 33                               0x33 '3'
                          .reloc:010060ee 2d                               0x2d '-'
                          .reloc:010060ef 33                               0x33 '3'
                          .reloc:010060f0 41                               0x41 'A'
                          .reloc:010060f1 33                               0x33 '3'
                          .reloc:010060f2 47                               0x47 'G'
                          .reloc:010060f3 33                               0x33 '3'
                          .reloc:010060f4 72                               0x72 'r'
                          .reloc:010060f5 33                               0x33 '3'
                          .reloc:010060f6 78                               0x78 'x'
                          .reloc:010060f7 33                               0x33 '3'
                          .reloc:010060f8 b1                               0xb1 
                          .reloc:010060f9 33                               0x33 '3'
                          .reloc:010060fa b8                               0xb8 
                          .reloc:010060fb 33                               0x33 '3'
                          .reloc:010060fc c4                               0xc4 
                          .reloc:010060fd 33                               0x33 '3'
                          .reloc:010060fe 14                               0x14 
                          .reloc:010060ff 34                               0x34 '4'
                          .reloc:01006100 19                               0x19 
                          .reloc:01006101 34                               0x34 '4'
                          .reloc:01006102 1f                               0x1f 
                          .reloc:01006103 34                               0x34 '4'
                          .reloc:01006104 24                               0x24 '$'
                          .reloc:01006105 34                               0x34 '4'
                          .reloc:01006106 29                               0x29 ')'
                          .reloc:01006107 34                               0x34 '4'
                          .reloc:01006108 2e                               0x2e '.'
                          .reloc:01006109 34                               0x34 '4'
                          .reloc:0100610a 33                               0x33 '3'
                          .reloc:0100610b 34                               0x34 '4'
                          .reloc:0100610c 39                               0x39 '9'
                          .reloc:0100610d 34                               0x34 '4'
                          .reloc:0100610e 41                               0x41 'A'
                          .reloc:0100610f 34                               0x34 '4'
                          .reloc:01006110 4e                               0x4e 'N'
                          .reloc:01006111 34                               0x34 '4'
                          .reloc:01006112 65                               0x65 'e'
                          .reloc:01006113 34                               0x34 '4'
                          .reloc:01006114 81                               0x81 
                          .reloc:01006115 34                               0x34 '4'
                          .reloc:01006116 8b                               0x8b 
                          .reloc:01006117 34                               0x34 '4'
                          .reloc:01006118 a5                               0xa5 
                          .reloc:01006119 34                               0x34 '4'
                          .reloc:0100611a af                               0xaf 
                          .reloc:0100611b 34                               0x34 '4'
                          .reloc:0100611c c2                               0xc2 
                          .reloc:0100611d 34                               0x34 '4'
                          .reloc:0100611e cc                               0xcc 
                          .reloc:0100611f 34                               0x34 '4'
                          .reloc:01006120 d1                               0xd1 
                          .reloc:01006121 34                               0x34 '4'
                          .reloc:01006122 d6                               0xd6 
                          .reloc:01006123 34                               0x34 '4'
                          .reloc:01006124 ec                               0xec 
                          .reloc:01006125 34                               0x34 '4'
                          .reloc:01006126 f1                               0xf1 
                          .reloc:01006127 34                               0x34 '4'
                          .reloc:01006128 fa                               0xfa 
                          .reloc:01006129 34                               0x34 '4'
                          .reloc:0100612a ff                               0xff 
                          .reloc:0100612b 34                               0x34 '4'
                          .reloc:0100612c 0c                               0x0c ''
                          .reloc:0100612d 35                               0x35 '5'
                          .reloc:0100612e 1c                               0x1c 
                          .reloc:0100612f 35                               0x35 '5'
                          .reloc:01006130 22                               0x22 '"'
                          .reloc:01006131 35                               0x35 '5'
                          .reloc:01006132 2a                               0x2a '*'
                          .reloc:01006133 35                               0x35 '5'
                          .reloc:01006134 40                               0x40 '@'
                          .reloc:01006135 35                               0x35 '5'
                          .reloc:01006136 45                               0x45 'E'
                          .reloc:01006137 35                               0x35 '5'
                          .reloc:01006138 82                               0x82 
                          .reloc:01006139 35                               0x35 '5'
                          .reloc:0100613a 8c                               0x8c 
                          .reloc:0100613b 35                               0x35 '5'
                          .reloc:0100613c 92                               0x92 
                          .reloc:0100613d 35                               0x35 '5'
                          .reloc:0100613e 9c                               0x9c 
                          .reloc:0100613f 35                               0x35 '5'
                          .reloc:01006140 b5                               0xb5 
                          .reloc:01006141 35                               0x35 '5'
                          .reloc:01006142 e0                               0xe0 
                          .reloc:01006143 35                               0x35 '5'
                          .reloc:01006144 e6                               0xe6 
                          .reloc:01006145 35                               0x35 '5'
                          .reloc:01006146 f0                               0xf0 
                          .reloc:01006147 35                               0x35 '5'
                          .reloc:01006148 f6                               0xf6 
                          .reloc:01006149 35                               0x35 '5'
                          .reloc:0100614a ff                               0xff 
                          .reloc:0100614b 35                               0x35 '5'
                          .reloc:0100614c 0b                               0x0b ''
                          .reloc:0100614d 36                               0x36 '6'
                          .reloc:0100614e 37                               0x37 '7'
                          .reloc:0100614f 36                               0x36 '6'
                          .reloc:01006150 42                               0x42 'B'
                          .reloc:01006151 36                               0x36 '6'
                          .reloc:01006152 48                               0x48 'H'
                          .reloc:01006153 36                               0x36 '6'
                          .reloc:01006154 91                               0x91 
                          .reloc:01006155 36                               0x36 '6'
                          .reloc:01006156 9d                               0x9d 
                          .reloc:01006157 36                               0x36 '6'
                          .reloc:01006158 a3                               0xa3 
                          .reloc:01006159 36                               0x36 '6'
                          .reloc:0100615a aa                               0xaa 
                          .reloc:0100615b 36                               0x36 '6'
                          .reloc:0100615c b3                               0xb3 
                          .reloc:0100615d 36                               0x36 '6'
                          .reloc:0100615e b9                               0xb9 
                          .reloc:0100615f 36                               0x36 '6'
                          .reloc:01006160 c1                               0xc1 
                          .reloc:01006161 36                               0x36 '6'
                          .reloc:01006162 c7                               0xc7 
                          .reloc:01006163 36                               0x36 '6'
                          .reloc:01006164 d4                               0xd4 
                          .reloc:01006165 36                               0x36 '6'
                          .reloc:01006166 dc                               0xdc 
                          .reloc:01006167 36                               0x36 '6'
                          .reloc:01006168 e2                               0xe2 
                          .reloc:01006169 36                               0x36 '6'
                          .reloc:0100616a 05                               0x05 
                          .reloc:0100616b 37                               0x37 '7'
                          .reloc:0100616c 89                               0x89 
                          .reloc:0100616d 37                               0x37 '7'
                          .reloc:0100616e 99                               0x99 
                          .reloc:0100616f 37                               0x37 '7'
                          .reloc:01006170 9f                               0x9f 
                          .reloc:01006171 37                               0x37 '7'
                          .reloc:01006172 ae                               0xae 
                          .reloc:01006173 37                               0x37 '7'
                          .reloc:01006174 4c                               0x4c 'L'
                          .reloc:01006175 38                               0x38 '8'
                          .reloc:01006176 5a                               0x5a 'Z'
                          .reloc:01006177 38                               0x38 '8'
                          .reloc:01006178 bc                               0xbc 
                          .reloc:01006179 38                               0x38 '8'
                          .reloc:0100617a c8                               0xc8 
                          .reloc:0100617b 38                               0x38 '8'
                          .reloc:0100617c d5                               0xd5 
                          .reloc:0100617d 38                               0x38 '8'
                          .reloc:0100617e f2                               0xf2 
                          .reloc:0100617f 38                               0x38 '8'
                          .reloc:01006180 44                               0x44 'D'
                          .reloc:01006181 39                               0x39 '9'
                          .reloc:01006182 49                               0x49 'I'
                          .reloc:01006183 39                               0x39 '9'
                          .reloc:01006184 68                               0x68 'h'
                          .reloc:01006185 39                               0x39 '9'
                          .reloc:01006186 7f                               0x7f 
                          .reloc:01006187 39                               0x39 '9'
                          .reloc:01006188 eb                               0xeb 
                          .reloc:01006189 39                               0x39 '9'
                          .reloc:0100618a 2a                               0x2a '*'
                          .reloc:0100618b 3a                               0x3a ':'
                          .reloc:0100618c 4d                               0x4d 'M'
                          .reloc:0100618d 3a                               0x3a ':'
                          .reloc:0100618e 5a                               0x5a 'Z'
                          .reloc:0100618f 3a                               0x3a ':'
                          .reloc:01006190 66                               0x66 'f'
                          .reloc:01006191 3a                               0x3a ':'
                          .reloc:01006192 6e                               0x6e 'n'
                          .reloc:01006193 3a                               0x3a ':'
                          .reloc:01006194 76                               0x76 'v'
                          .reloc:01006195 3a                               0x3a ':'
                          .reloc:01006196 82                               0x82 
                          .reloc:01006197 3a                               0x3a ':'
                          .reloc:01006198 94                               0x94 
                          .reloc:01006199 3a                               0x3a ':'
                          .reloc:0100619a a1                               0xa1 
                          .reloc:0100619b 3a                               0x3a ':'
                          .reloc:0100619c a9                               0xa9 
                          .reloc:0100619d 3a                               0x3a ':'
                          .reloc:0100619e c3                               0xc3 
                          .reloc:0100619f 3a                               0x3a ':'
                          .reloc:010061a0 c9                               0xc9 
                          .reloc:010061a1 3a                               0x3a ':'
                          .reloc:010061a2 cf                               0xcf 
                          .reloc:010061a3 3a                               0x3a ':'
                          .reloc:010061a4 d5                               0xd5 
                          .reloc:010061a5 3a                               0x3a ':'
                          .reloc:010061a6 db                               0xdb 
                          .reloc:010061a7 3a                               0x3a ':'
                          .reloc:010061a8 e1                               0xe1 
                          .reloc:010061a9 3a                               0x3a ':'
                          .reloc:010061aa e8                               0xe8 
                          .reloc:010061ab 3a                               0x3a ':'
                          .reloc:010061ac ef                               0xef 
                          .reloc:010061ad 3a                               0x3a ':'
                          .reloc:010061ae f6                               0xf6 
                          .reloc:010061af 3a                               0x3a ':'
                          .reloc:010061b0 fd                               0xfd 
                          .reloc:010061b1 3a                               0x3a ':'
                          .reloc:010061b2 04                               0x04 
                          .reloc:010061b3 3b                               0x3b ';'
                          .reloc:010061b4 0b                               0x0b ''
                          .reloc:010061b5 3b                               0x3b ';'
                          .reloc:010061b6 12                               0x12 
                          .reloc:010061b7 3b                               0x3b ';'
                          .reloc:010061b8 1a                               0x1a 
                          .reloc:010061b9 3b                               0x3b ';'
                          .reloc:010061ba 22                               0x22 '"'
                          .reloc:010061bb 3b                               0x3b ';'
                          .reloc:010061bc 2a                               0x2a '*'
                          .reloc:010061bd 3b                               0x3b ';'
                          .reloc:010061be 36                               0x36 '6'
                          .reloc:010061bf 3b                               0x3b ';'
                          .reloc:010061c0 3f                               0x3f '?'
                          .reloc:010061c1 3b                               0x3b ';'
                          .reloc:010061c2 44                               0x44 'D'
                          .reloc:010061c3 3b                               0x3b ';'
                          .reloc:010061c4 4a                               0x4a 'J'
                          .reloc:010061c5 3b                               0x3b ';'
                          .reloc:010061c6 54                               0x54 'T'
                          .reloc:010061c7 3b                               0x3b ';'
                          .reloc:010061c8 5d                               0x5d ']'
                          .reloc:010061c9 3b                               0x3b ';'
                          .reloc:010061ca 68                               0x68 'h'
                          .reloc:010061cb 3b                               0x3b ';'
                          .reloc:010061cc 76                               0x76 'v'
                          .reloc:010061cd 3b                               0x3b ';'
                          .reloc:010061ce 7b                               0x7b '{'
                          .reloc:010061cf 3b                               0x3b ';'
                          .reloc:010061d0 81                               0x81 
                          .reloc:010061d1 3b                               0x3b ';'
                          .reloc:010061d2 8c                               0x8c 
                          .reloc:010061d3 3b                               0x3b ';'
                          .reloc:010061d4 93                               0x93 
                          .reloc:010061d5 3b                               0x3b ';'
                          .reloc:010061d6 a0                               0xa0 
                          .reloc:010061d7 3b                               0x3b ';'
                          .reloc:010061d8 00                               0x00 
                          .reloc:010061d9 3c                               0x3c '<'
                          .reloc:010061da 0c                               0x0c ''
                          .reloc:010061db 3c                               0x3c '<'
                          .reloc:010061dc 18                               0x18 
                          .reloc:010061dd 3c                               0x3c '<'
                          .reloc:010061de 24                               0x24 '$'
                          .reloc:010061df 3c                               0x3c '<'
                          .reloc:010061e0 3c                               0x3c '<'
                          .reloc:010061e1 3c                               0x3c '<'
                          .reloc:010061e2 40                               0x40 '@'
                          .reloc:010061e3 3c                               0x3c '<'
                          .reloc:010061e4 48                               0x48 'H'
                          .reloc:010061e5 3c                               0x3c '<'
                          .reloc:010061e6 4c                               0x4c 'L'
                          .reloc:010061e7 3c                               0x3c '<'
                          .reloc:010061e8 64                               0x64 'd'
                          .reloc:010061e9 3c                               0x3c '<'
                          .reloc:010061ea 68                               0x68 'h'
                          .reloc:010061eb 3c                               0x3c '<'
                          .reloc:010061ec 84                               0x84 
                          .reloc:010061ed 3c                               0x3c '<'
                          .reloc:010061ee 88                               0x88 
                          .reloc:010061ef 3c                               0x3c '<'
                          .reloc:010061f0 00                               0x00 
                          .reloc:010061f1 00                               0x00 
                          .reloc:010061f2 00                               0x00 
                          .reloc:010061f3 00                               0x00 
                          .reloc:010061f4 00                               0x00 
                          .reloc:010061f5 00                               0x00 
                          .reloc:010061f6 00                               0x00 
                          .reloc:010061f7 00                               0x00 
                          .reloc:010061f8 00                               0x00 
                          .reloc:010061f9 00                               0x00 
                          .reloc:010061fa 00                               0x00 
                          .reloc:010061fb 00                               0x00 
                          .reloc:010061fc 00                               0x00 
                          .reloc:010061fd 00                               0x00 
                          .reloc:010061fe 00                               0x00 
                          .reloc:010061ff 00                               0x00 
                          .reloc:01006200 00                               0x00 
                          .reloc:01006201 00                               0x00 
                          .reloc:01006202 00                               0x00 
                          .reloc:01006203 00                               0x00 
                          .reloc:01006204 00                               0x00 
                          .reloc:01006205 00                               0x00 
                          .reloc:01006206 00                               0x00 
                          .reloc:01006207 00                               0x00 
                          .reloc:01006208 00                               0x00 
                          .reloc:01006209 00                               0x00 
                          .reloc:0100620a 00                               0x00 
                          .reloc:0100620b 00                               0x00 
                          .reloc:0100620c 00                               0x00 
                          .reloc:0100620d 00                               0x00 
                          .reloc:0100620e 00                               0x00 
                          .reloc:0100620f 00                               0x00 
                          .reloc:01006210 00                               0x00 
                          .reloc:01006211 00                               0x00 
                          .reloc:01006212 00                               0x00 
                          .reloc:01006213 00                               0x00 
                          .reloc:01006214 00                               0x00 
                          .reloc:01006215 00                               0x00 
                          .reloc:01006216 00                               0x00 
                          .reloc:01006217 00                               0x00 
                          .reloc:01006218 00                               0x00 
                          .reloc:01006219 00                               0x00 
                          .reloc:0100621a 00                               0x00 
                          .reloc:0100621b 00                               0x00 
                          .reloc:0100621c 00                               0x00 
                          .reloc:0100621d 00                               0x00 
                          .reloc:0100621e 00                               0x00 
                          .reloc:0100621f 00                               0x00 
                          .reloc:01006220 00                               0x00 
                          .reloc:01006221 00                               0x00 
                          .reloc:01006222 00                               0x00 
                          .reloc:01006223 00                               0x00 
                          .reloc:01006224 00                               0x00 
                          .reloc:01006225 00                               0x00 
                          .reloc:01006226 00                               0x00 
                          .reloc:01006227 00                               0x00 
                          .reloc:01006228 00                               0x00 
                          .reloc:01006229 00                               0x00 
                          .reloc:0100622a 00                               0x00 
                          .reloc:0100622b 00                               0x00 
                          .reloc:0100622c 00                               0x00 
                          .reloc:0100622d 00                               0x00 
                          .reloc:0100622e 00                               0x00 
                          .reloc:0100622f 00                               0x00 
                          .reloc:01006230 00                               0x00 
                          .reloc:01006231 00                               0x00 
                          .reloc:01006232 00                               0x00 
                          .reloc:01006233 00                               0x00 
                          .reloc:01006234 00                               0x00 
                          .reloc:01006235 00                               0x00 
                          .reloc:01006236 00                               0x00 
                          .reloc:01006237 00                               0x00 
                          .reloc:01006238 00                               0x00 
                          .reloc:01006239 00                               0x00 
                          .reloc:0100623a 00                               0x00 
                          .reloc:0100623b 00                               0x00 
                          .reloc:0100623c 00                               0x00 
                          .reloc:0100623d 00                               0x00 
                          .reloc:0100623e 00                               0x00 
                          .reloc:0100623f 00                               0x00 
                          .reloc:01006240 00                               0x00 
                          .reloc:01006241 00                               0x00 
                          .reloc:01006242 00                               0x00 
                          .reloc:01006243 00                               0x00 
                          .reloc:01006244 00                               0x00 
                          .reloc:01006245 00                               0x00 
                          .reloc:01006246 00                               0x00 
                          .reloc:01006247 00                               0x00 
                          .reloc:01006248 00                               0x00 
                          .reloc:01006249 00                               0x00 
                          .reloc:0100624a 00                               0x00 
                          .reloc:0100624b 00                               0x00 
                          .reloc:0100624c 00                               0x00 
                          .reloc:0100624d 00                               0x00 
                          .reloc:0100624e 00                               0x00 
                          .reloc:0100624f 00                               0x00 
                          .reloc:01006250 00                               0x00 
                          .reloc:01006251 00                               0x00 
                          .reloc:01006252 00                               0x00 
                          .reloc:01006253 00                               0x00 
                          .reloc:01006254 00                               0x00 
                          .reloc:01006255 00                               0x00 
                          .reloc:01006256 00                               0x00 
                          .reloc:01006257 00                               0x00 
                          .reloc:01006258 00                               0x00 
                          .reloc:01006259 00                               0x00 
                          .reloc:0100625a 00                               0x00 
                          .reloc:0100625b 00                               0x00 
                          .reloc:0100625c 00                               0x00 
                          .reloc:0100625d 00                               0x00 
                          .reloc:0100625e 00                               0x00 
                          .reloc:0100625f 00                               0x00 
                          .reloc:01006260 00                               0x00 
                          .reloc:01006261 00                               0x00 
                          .reloc:01006262 00                               0x00 
                          .reloc:01006263 00                               0x00 
                          .reloc:01006264 00                               0x00 
                          .reloc:01006265 00                               0x00 
                          .reloc:01006266 00                               0x00 
                          .reloc:01006267 00                               0x00 
                          .reloc:01006268 00                               0x00 
                          .reloc:01006269 00                               0x00 
                          .reloc:0100626a 00                               0x00 
                          .reloc:0100626b 00                               0x00 
                          .reloc:0100626c 00                               0x00 
                          .reloc:0100626d 00                               0x00 
                          .reloc:0100626e 00                               0x00 
                          .reloc:0100626f 00                               0x00 
                          .reloc:01006270 00                               0x00 
                          .reloc:01006271 00                               0x00 
                          .reloc:01006272 00                               0x00 
                          .reloc:01006273 00                               0x00 
                          .reloc:01006274 00                               0x00 
                          .reloc:01006275 00                               0x00 
                          .reloc:01006276 00                               0x00 
                          .reloc:01006277 00                               0x00 
                          .reloc:01006278 00                               0x00 
                          .reloc:01006279 00                               0x00 
                          .reloc:0100627a 00                               0x00 
                          .reloc:0100627b 00                               0x00 
                          .reloc:0100627c 00                               0x00 
                          .reloc:0100627d 00                               0x00 
                          .reloc:0100627e 00                               0x00 
                          .reloc:0100627f 00                               0x00 
                          .reloc:01006280 00                               0x00 
                          .reloc:01006281 00                               0x00 
                          .reloc:01006282 00                               0x00 
                          .reloc:01006283 00                               0x00 
                          .reloc:01006284 00                               0x00 
                          .reloc:01006285 00                               0x00 
                          .reloc:01006286 00                               0x00 
                          .reloc:01006287 00                               0x00 
                          .reloc:01006288 00                               0x00 
                          .reloc:01006289 00                               0x00 
                          .reloc:0100628a 00                               0x00 
                          .reloc:0100628b 00                               0x00 
                          .reloc:0100628c 00                               0x00 
                          .reloc:0100628d 00                               0x00 
                          .reloc:0100628e 00                               0x00 
                          .reloc:0100628f 00                               0x00 
                          .reloc:01006290 00                               0x00 
                          .reloc:01006291 00                               0x00 
                          .reloc:01006292 00                               0x00 
                          .reloc:01006293 00                               0x00 
                          .reloc:01006294 00                               0x00 
                          .reloc:01006295 00                               0x00 
                          .reloc:01006296 00                               0x00 
                          .reloc:01006297 00                               0x00 
                          .reloc:01006298 00                               0x00 
                          .reloc:01006299 00                               0x00 
                          .reloc:0100629a 00                               0x00 
                          .reloc:0100629b 00                               0x00 
                          .reloc:0100629c 00                               0x00 
                          .reloc:0100629d 00                               0x00 
                          .reloc:0100629e 00                               0x00 
                          .reloc:0100629f 00                               0x00 
                          .reloc:010062a0 00                               0x00 
                          .reloc:010062a1 00                               0x00 
                          .reloc:010062a2 00                               0x00 
                          .reloc:010062a3 00                               0x00 
                          .reloc:010062a4 00                               0x00 
                          .reloc:010062a5 00                               0x00 
                          .reloc:010062a6 00                               0x00 
                          .reloc:010062a7 00                               0x00 
                          .reloc:010062a8 00                               0x00 
                          .reloc:010062a9 00                               0x00 
                          .reloc:010062aa 00                               0x00 
                          .reloc:010062ab 00                               0x00 
                          .reloc:010062ac 00                               0x00 
                          .reloc:010062ad 00                               0x00 
                          .reloc:010062ae 00                               0x00 
                          .reloc:010062af 00                               0x00 
                          .reloc:010062b0 00                               0x00 
                          .reloc:010062b1 00                               0x00 
                          .reloc:010062b2 00                               0x00 
                          .reloc:010062b3 00                               0x00 
                          .reloc:010062b4 00                               0x00 
                          .reloc:010062b5 00                               0x00 
                          .reloc:010062b6 00                               0x00 
                          .reloc:010062b7 00                               0x00 
                          .reloc:010062b8 00                               0x00 
                          .reloc:010062b9 00                               0x00 
                          .reloc:010062ba 00                               0x00 
                          .reloc:010062bb 00                               0x00 
                          .reloc:010062bc 00                               0x00 
                          .reloc:010062bd 00                               0x00 
                          .reloc:010062be 00                               0x00 
                          .reloc:010062bf 00                               0x00 
                          .reloc:010062c0 00                               0x00 
                          .reloc:010062c1 00                               0x00 
                          .reloc:010062c2 00                               0x00 
                          .reloc:010062c3 00                               0x00 
                          .reloc:010062c4 00                               0x00 
                          .reloc:010062c5 00                               0x00 
                          .reloc:010062c6 00                               0x00 
                          .reloc:010062c7 00                               0x00 
                          .reloc:010062c8 00                               0x00 
                          .reloc:010062c9 00                               0x00 
                          .reloc:010062ca 00                               0x00 
                          .reloc:010062cb 00                               0x00 
                          .reloc:010062cc 00                               0x00 
                          .reloc:010062cd 00                               0x00 
                          .reloc:010062ce 00                               0x00 
                          .reloc:010062cf 00                               0x00 
                          .reloc:010062d0 00                               0x00 
                          .reloc:010062d1 00                               0x00 
