                           .text:01001000 0d c4 e3 77 1a                   or     $0x1a77e3c4,%eax
                           .text:01001005 c4 e3 77 0c                      (bad)  
                           .text:01001009 06                               push   %es
                           .text:0100100a e3 77                            jecxz  0x01001083
                           .text:0100100c 9b                               fwait
                           .text:0100100d 50                               push   %eax
                           .text:0100100e e2 77                            loop   0x01001087
                           .text:01001010 44                               inc    %esp
                           .text:01001011 fe                               (bad)  
                           .text:01001012 e2 77                            loop   0x0100108b
                           .text:01001014 23 0d e3 77 12 f2                and    0xf21277e3,%ecx
                           .text:0100101a e2 77                            loop   0x01001093
                           .text:0100101c 76 ef                            jbe    0x0100100d
                           .text:0100101e e2 77                            loop   0x01001097
                           .text:01001020 a7                               cmpsl  %es:(%edi),%ds:(%esi)
                           .text:01001021 f2 e2 77                         repnz loop 0x0100109b
                           .text:01001024 d7                               xlat   %ds:(%ebx)
                           .text:01001025 28 e3                            sub    %ah,%bl
                           .text:01001027 77 42                            ja     0x0100106b
                           .text:01001029 31 e3                            xor    %esp,%ebx
                           .text:0100102b 77 3c                            ja     0x01001069
                           .text:0100102d f2 e2 77                         repnz loop 0x010010a7
                           .text:01001030 66 ef                            out    %ax,(%dx)
                           .text:01001032 e2 77                            loop   0x010010ab
                           .text:01001034 5e                               pop    %esi
                           .text:01001035 f2 e2 77                         repnz loop 0x010010af
                           .text:01001038 35 2b e4 77 00                   xor    $0x77e42b,%eax
                           .text:0100103d 00 00                            add    %al,(%eax)
                           .text:0100103f 00 bf d6 8d 41 00                add    %bh,0x418dd6(%edi)
                           .text:01001045 00 00                            add    %al,(%eax)
                           .text:01001047 00 e1                            add    %ah,%cl
                           .text:01001049 e1 f5                            loope  0x01001040
                           .text:0100104b 6f                               outsl  %ds:(%esi),(%dx)
                           .text:0100104c 61                               popa   
                           .text:0100104d aa                               stos   %al,%es:(%edi)
                           .text:0100104e f5                               cmc    
                           .text:0100104f 6f                               outsl  %ds:(%esi),(%dx)
                           .text:01001050 c0 2b f6                         shrb   $0xf6,(%ebx)
                           .text:01001053 6f                               outsl  %ds:(%esi),(%dx)
                           .text:01001054 27                               daa    
                           .text:01001055 3e f7 6f c0                      imull  %ds:-0x40(%edi)
                           .text:01001059 b2 fb                            mov    $0xfb,%dl
                           .text:0100105b 6f                               outsl  %ds:(%esi),(%dx)
                           .text:0100105c 75 dc                            jne    0x0100103a
                           .text:0100105e f7 6f aa                         imull  -0x56(%edi)
                           .text:01001061 36 f6 6f 51                      imulb  %ss:0x51(%edi)
                           .text:01001065 c1                               (bad)  
                           .text:01001066 f5                               cmc    
                           .text:01001067 6f                               outsl  %ds:(%esi),(%dx)
                           .text:01001068 ef                               out    %eax,(%dx)
                           .text:01001069 b2 fb                            mov    $0xfb,%dl
                           .text:0100106b 6f                               outsl  %ds:(%esi),(%dx)
                           .text:0100106c ad                               lods   %ds:(%esi),%eax
                           .text:0100106d 77 fe                            ja     0x0100106d
                           .text:0100106f 6f                               outsl  %ds:(%esi),(%dx)
                           .text:01001070 c3                               ret    
                           .text:01001071 27                               daa    
                           .text:01001072 f6 6f ce                         imulb  -0x32(%edi)
                           .text:01001075 27                               daa    
                           .text:01001076 f6 6f d4                         imulb  -0x2c(%edi)
                           .text:01001079 37                               aaa    
                           .text:0100107a f6 6f cf                         imulb  -0x31(%edi)
                           .text:0100107d 61                               popa   
                           .text:0100107e fa                               cli    
                           .text:0100107f 6f                               outsl  %ds:(%esi),(%dx)
                           .text:01001080 e9 a9 f5 6f 04                   jmp    0x0570062e
                           .text:01001085 28 f6                            sub    %dh,%dh
                           .text:01001087 6f                               outsl  %ds:(%esi),(%dx)
                           .text:01001088 00 00                            add    %al,(%eax)
                           .text:0100108a 00 00                            add    %al,(%eax)
                           .text:0100108c b0 56                            mov    $0x56,%al
                           .text:0100108e f0 77 10                         lock ja 0x010010a1
                           .text:01001091 49                               dec    %ecx
                           .text:01001092 f0 77 20                         lock ja 0x010010b5
                           .text:01001095 51                               push   %ecx
                           .text:01001096 f0 77 31                         lock ja 0x010010ca
                           .text:01001099 1f                               pop    %ds
                           .text:0100109a f1                               icebp  
                           .text:0100109b 77 60                            ja     0x010010fd
                           .text:0100109d 5c                               pop    %esp
                           .text:0100109e f0 77 00                         lock ja 0x010010a1
                           .text:010010a1 00 00                            add    %al,(%eax)
                           .text:010010a3 00 ed                            add    %ch,%ch
                           .text:010010a5 e0 6e                            loopne 0x01001115
                           .text:010010a7 40                               inc    %eax
                           .text:010010a8 eb b4                            jmp    0x0100105e
                           .text:010010aa 6e                               outsb  %ds:(%esi),(%dx)
                           .text:010010ab 40                               inc    %eax
                           .text:010010ac 78 98                            js     0x01001046
                           .text:010010ae 6e                               outsb  %ds:(%esi),(%dx)
                           .text:010010af 40                               inc    %eax
                           .text:010010b0 73 a1                            jae    0x01001053
                           .text:010010b2 6e                               outsb  %ds:(%esi),(%dx)
                           .text:010010b3 40                               inc    %eax
                           .text:010010b4 36 e0 6e                         ss loopne 0x01001125
                           .text:010010b7 40                               inc    %eax
                           .text:010010b8 ec                               in     (%dx),%al
                           .text:010010b9 9d                               popf   
                           .text:010010ba 6e                               outsb  %ds:(%esi),(%dx)
                           .text:010010bb 40                               inc    %eax
                           .text:010010bc 88 96 6e 40 c7 42                mov    %dl,0x42c7406e(%esi)
                           .text:010010c2 6f                               outsl  %ds:(%esi),(%dx)
                           .text:010010c3 40                               inc    %eax
                           .text:010010c4 68 96 6e 40 4f                   push   $0x4f406e96
                           .text:010010c9 97                               xchg   %eax,%edi
                           .text:010010ca 6e                               outsb  %ds:(%esi),(%dx)
                           .text:010010cb 40                               inc    %eax
                           .text:010010cc 2e 9a 6e 40 34 a2 6e 40          cs lcall $0x406e,$0xa234406e
                           .text:010010d4 85 80 6e 40 fd c3                test   %eax,-0x3c02bf92(%eax)
                           .text:010010da 6e                               outsb  %ds:(%esi),(%dx)
                           .text:010010db 40                               inc    %eax
                           .text:010010dc a0 7a 6f 40 24                   mov    0x24406f7a,%al
                           .text:010010e1 83 6e 40 01                      subl   $0x1,0x40(%esi)
                           .text:010010e5 a4                               movsb  %ds:(%esi),%es:(%edi)
                           .text:010010e6 6e                               outsb  %ds:(%esi),(%dx)
                           .text:010010e7 40                               inc    %eax
                           .text:010010e8 aa                               stos   %al,%es:(%edi)
                           .text:010010e9 e5 6e                            in     $0x6e,%eax
                           .text:010010eb 40                               inc    %eax
                           .text:010010ec 5c                               pop    %esp
                           .text:010010ed a4                               movsb  %ds:(%esi),%es:(%edi)
                           .text:010010ee 6e                               outsb  %ds:(%esi),(%dx)
                           .text:010010ef 40                               inc    %eax
                           .text:010010f0 26 a5                            movsl  %es:(%esi),%es:(%edi)
                           .text:010010f2 6e                               outsb  %ds:(%esi),(%dx)
                           .text:010010f3 40                               inc    %eax
                           .text:010010f4 7d a3                            jge    0x01001099
                           .text:010010f6 6e                               outsb  %ds:(%esi),(%dx)
                           .text:010010f7 40                               inc    %eax
                           .text:010010f8 76 a6                            jbe    0x010010a0
                           .text:010010fa 6e                               outsb  %ds:(%esi),(%dx)
                           .text:010010fb 40                               inc    %eax
                           .text:010010fc 74 4c                            je     0x0100114a
                           .text:010010fe 6f                               outsl  %ds:(%esi),(%dx)
                           .text:010010ff 40                               inc    %eax
                           .text:01001100 cf                               iret   
                           .text:01001101 b2 6e                            mov    $0x6e,%dl
                           .text:01001103 40                               inc    %eax
                           .text:01001104 ca 94 6e                         lret   $0x6e94
                           .text:01001107 40                               inc    %eax
                           .text:01001108 c7                               (bad)  
                           .text:01001109 93                               xchg   %eax,%ebx
                           .text:0100110a 6e                               outsb  %ds:(%esi),(%dx)
                           .text:0100110b 40                               inc    %eax
                           .text:0100110c c3                               ret    
                           .text:0100110d 96                               xchg   %eax,%esi
                           .text:0100110e 6e                               outsb  %ds:(%esi),(%dx)
                           .text:0100110f 40                               inc    %eax
                           .text:01001110 8e c5                            mov    %ebp,%es
                           .text:01001112 6e                               outsb  %ds:(%esi),(%dx)
                           .text:01001113 40                               inc    %eax
                           .text:01001114 94                               xchg   %eax,%esp
                           .text:01001115 d9 6e 40                         fldcw  0x40(%esi)
                           .text:01001118 08 c4                            or     %al,%ah
                           .text:0100111a 6e                               outsb  %ds:(%esi),(%dx)
                           .text:0100111b 40                               inc    %eax
                           .text:0100111c 7f 96                            jg     0x010010b4
                           .text:0100111e 6e                               outsb  %ds:(%esi),(%dx)
                           .text:0100111f 40                               inc    %eax
                           .text:01001120 71 70                            jno    0x01001192
                           .text:01001122 6f                               outsl  %ds:(%esi),(%dx)
                           .text:01001123 40                               inc    %eax
                           .text:01001124 c7                               (bad)  
                           .text:01001125 5a                               pop    %edx
                           .text:01001126 6f                               outsl  %ds:(%esi),(%dx)
                           .text:01001127 40                               inc    %eax
                           .text:01001128 ce                               into   
                           .text:01001129 5f                               pop    %edi
                           .text:0100112a 6e                               outsb  %ds:(%esi),(%dx)
                           .text:0100112b 40                               inc    %eax
                           .text:0100112c cc                               int3   
                           .text:0100112d 83 6e 40 16                      subl   $0x16,0x40(%esi)
                           .text:01001131 85 6e 40                         test   %ebp,0x40(%esi)
                           .text:01001134 f0 63 6e 40                      lock arpl %bp,0x40(%esi)
                           .text:01001138 81 82 6e 40 a8 64 6e 40 fa 64    addl   $0x64fa406e,0x64a8406e(%edx)
                           .text:01001142 6e                               outsb  %ds:(%esi),(%dx)
                           .text:01001143 40                               inc    %eax
                           .text:01001144 57                               push   %edi
                           .text:01001145 86 6e 40                         xchg   %ch,0x40(%esi)
                           .text:01001148 21 35 6f 40 f7 9e                and    %esi,0x9ef7406f
                           .text:0100114e 6e                               outsb  %ds:(%esi),(%dx)
                           .text:0100114f 40                               inc    %eax
                           .text:01001150 01 83 6e 40 00 00                add    %eax,0x406e(%ebx)
                           .text:01001156 00 00                            add    %al,(%eax)
                           .text:01001158 00 00                            add    %al,(%eax)
                           .text:0100115a 00 00                            add    %al,(%eax)
                           .text:0100115c 80 22 00                         andb   $0x0,(%edx)
                           .text:0100115f 01 00                            add    %eax,(%eax)
                           .text:01001161 00 00                            add    %al,(%eax)
                           .text:01001163 00 00                            add    %al,(%eax)
                           .text:01001165 00 00                            add    %al,(%eax)
                           .text:01001167 00 26                            add    %ah,(%esi)
                           .text:01001169 24 00                            and    $0x0,%al
                           .text:0100116b 01 57 25                         add    %edx,0x25(%edi)
                           .text:0100116e 00 01                            add    %al,(%ecx)
                           .text:01001170 00 00                            add    %al,(%eax)
                           .text:01001172 00 00                            add    %al,(%eax)
                           .text:01001174 00 00                            add    %al,(%eax)
                           .text:01001176 00 00                            add    %al,(%eax)
                           .text:01001178 00 00                            add    %al,(%eax)
                           .text:0100117a 00 00                            add    %al,(%eax)
                           .text:0100117c 00 00                            add    %al,(%eax)
                           .text:0100117e 00 00                            add    %al,(%eax)
                           .text:01001180 00 00                            add    %al,(%eax)
                           .text:01001182 00 00                            add    %al,(%eax)
                           .text:01001184 01 c0                            add    %eax,%eax
                           .text:01001186 5b                               pop    %ebx
                           .text:01001187 4a                               dec    %edx
                           .text:01001188 00 00                            add    %al,(%eax)
                           .text:0100118a 00 00                            add    %al,(%eax)
                           .text:0100118c 02 00                            add    (%eax),%al
                           .text:0100118e 00 00                            add    %al,(%eax)
                           .text:01001190 22 00                            and    (%eax),%al
                           .text:01001192 00 00                            add    %al,(%eax)
                           .text:01001194 28 12                            sub    %dl,(%edx)
                           .text:01001196 00 00                            add    %al,(%eax)
                           .text:01001198 28 06                            sub    %al,(%esi)
                           .text:0100119a 00 00                            add    %al,(%eax)
                           .text:0100119c 00 00                            add    %al,(%eax)
                           .text:0100119e 00 00                            add    %al,(%eax)
                           .text:010011a0 5c                               pop    %esp
                           .text:010011a1 00 00                            add    %al,(%eax)
                           .text:010011a3 00 4e 54                         add    %cl,0x54(%esi)
                           .text:010011a6 46                               inc    %esi
                           .text:010011a7 53                               push   %ebx
                           .text:010011a8 00 00                            add    %al,(%eax)
                           .text:010011aa 00 00                            add    %al,(%eax)
                           .text:010011ac 25 30 34 58 25                   and    $0x25583430,%eax
                           .text:010011b1 30 34 58                         xor    %dh,(%eax,%ebx,2)
                           .text:010011b4 00 00                            add    %al,(%eax)
                           .text:010011b6 00 00                            add    %al,(%eax)
                           .text:010011b8 25 57 00 00 25                   and    $0x25000057,%eax
                           .text:010011bd 57                               push   %edi
                           .text:010011be 25 57 00 00 00                   and    $0x57,%eax
                           .text:010011c3 00 2e                            add    %ch,(%esi)
                           .text:010011c5 00 00                            add    %al,(%eax)
                           .text:010011c7 00 2f                            add    %ch,(%edi)
                           .text:010011c9 4d                               dec    %ebp
                           .text:010011ca 50                               push   %eax
                           .text:010011cb 00 2f                            add    %ch,(%edi)
                           .text:010011cd 3f                               aas    
                           .text:010011ce 00 00                            add    %al,(%eax)
                           .text:010011d0 2a 00                            sub    (%eax),%al
                           .text:010011d2 00 00                            add    %al,(%eax)
                           .text:010011d4 48                               dec    %eax
                           .text:010011d5 40                               inc    %eax
                           .text:010011d6 00 01                            add    %al,(%ecx)
                           .text:010011d8 98                               cwtl   
                           .text:010011d9 40                               inc    %eax
                           .text:010011da 00 01                            add    %al,(%ecx)
                           .text:010011dc 00 00                            add    %al,(%eax)
                           .text:010011de 00 00                            add    %al,(%eax)
                           .text:010011e0 48                               dec    %eax
                           .text:010011e1 00 00                            add    %al,(%eax)
                           .text:010011e3 00 00                            add    %al,(%eax)
                           .text:010011e5 00 00                            add    %al,(%eax)
                           .text:010011e7 00 00                            add    %al,(%eax)
                           .text:010011e9 00 00                            add    %al,(%eax)
                           .text:010011eb 00 00                            add    %al,(%eax)
                           .text:010011ed 00 00                            add    %al,(%eax)
                           .text:010011ef 00 00                            add    %al,(%eax)
                           .text:010011f1 00 00                            add    %al,(%eax)
                           .text:010011f3 00 00                            add    %al,(%eax)
                           .text:010011f5 00 00                            add    %al,(%eax)
                           .text:010011f7 00 00                            add    %al,(%eax)
                           .text:010011f9 00 00                            add    %al,(%eax)
                           .text:010011fb 00 00                            add    %al,(%eax)
                           .text:010011fd 00 00                            add    %al,(%eax)
                           .text:010011ff 00 00                            add    %al,(%eax)
                           .text:01001201 00 00                            add    %al,(%eax)
                           .text:01001203 00 00                            add    %al,(%eax)
                           .text:01001205 00 00                            add    %al,(%eax)
                           .text:01001207 00 00                            add    %al,(%eax)
                           .text:01001209 00 00                            add    %al,(%eax)
                           .text:0100120b 00 00                            add    %al,(%eax)
                           .text:0100120d 00 00                            add    %al,(%eax)
                           .text:0100120f 00 00                            add    %al,(%eax)
                           .text:01001211 00 00                            add    %al,(%eax)
                           .text:01001213 00 00                            add    %al,(%eax)
                           .text:01001215 00 00                            add    %al,(%eax)
                           .text:01001217 00 00                            add    %al,(%eax)
                           .text:01001219 00 00                            add    %al,(%eax)
                           .text:0100121b 00 00                            add    %al,(%eax)
                           .text:0100121d 40                               inc    %eax
                           .text:0100121e 00 01                            add    %al,(%ecx)
                           .text:01001220 50                               push   %eax
                           .text:01001221 12 00                            adc    (%eax),%al
                           .text:01001223 01 01                            add    %eax,(%ecx)
                           .text:01001225 00 00                            add    %al,(%eax)
                           .text:01001227 00 52 53                         add    %dl,0x53(%edx)
                           .text:0100122a 44                               inc    %esp
                           .text:0100122b 53                               push   %ebx
                           .text:0100122c 17                               pop    %ss
                           .text:0100122d d4 89                            aam    $0x89
                           .text:0100122f ad                               lods   %ds:(%esi),%eax
                           .text:01001230 3d af 2a 45 a2                   cmp    $0xa2452aaf,%eax
                           .text:01001235 3b 50 88                         cmp    -0x78(%eax),%edx
                           .text:01001238 40                               inc    %eax
                           .text:01001239 f3 4c                            repz dec %esp
                           .text:0100123b 99                               cltd   
                           .text:0100123c 01 00                            add    %eax,(%eax)
                           .text:0100123e 00 00                            add    %al,(%eax)
                           .text:01001240 6c                               insb   (%dx),%es:(%edi)
                           .text:01001241 61                               popa   
                           .text:01001242 62 65 6c                         bound  %esp,0x6c(%ebp)
                           .text:01001245 2e 70 64                         jo,pn  0x010012ac
                           .text:01001248 62 00                            bound  %eax,(%eax)
                           .text:0100124a 00 00                            add    %al,(%eax)
                           .text:0100124c 00 00                            add    %al,(%eax)
                           .text:0100124e 00 00                            add    %al,(%eax)
                           .text:01001250 f2 26 00 00                      repnz add %al,%es:(%eax)
                           .text:01001254 00 00                            add    %al,(%eax)
                           .text:01001256 00 00                            add    %al,(%eax)
                           .text:01001258 00 00                            add    %al,(%eax)
                           .text:0100125a 00 00                            add    %al,(%eax)
                           .text:0100125c 00 00                            add    %al,(%eax)
                           .text:0100125e 00 00                            add    %al,(%eax)
                           .text:01001260 00 00                            add    %al,(%eax)
                           .text:01001262 00 00                            add    %al,(%eax)
                           .text:01001264 00 8b ff 55 8b ec                add    %cl,-0x1374aa01(%ebx)
                           .text:0100126a 83 7d 08 00                      cmpl   $0x0,0x8(%ebp)
                           .text:0100126e 74 17                            je     0x01001287
                           .text:01001270 ff 75 08                         pushl  0x8(%ebp)
                           .text:01001273 64 a1 18 00 00 00                mov    %fs:0x18,%eax
                           .text:01001279 8b 40 30                         mov    0x30(%eax),%eax
                           .text:0100127c 6a 00                            push   $0x0
                           .text:0100127e ff 70 18                         pushl  0x18(%eax)
                           .text:01001281 ff 15 98 10 00 01                call   *0x1001098
                           .text:01001287 5d                               pop    %ebp
                           .text:01001288 c3                               ret    
                           .text:01001289 cc                               int3   
                           .text:0100128a cc                               int3   
                           .text:0100128b cc                               int3   
                           .text:0100128c cc                               int3   
                           .text:0100128d cc                               int3   
                           .text:0100128e 8b ff                            mov    %edi,%edi
                           .text:01001290 55                               push   %ebp
                           .text:01001291 8b ec                            mov    %esp,%ebp
                           .text:01001293 53                               push   %ebx
                           .text:01001294 56                               push   %esi
                           .text:01001295 8b 75 08                         mov    0x8(%ebp),%esi
                           .text:01001298 8b 06                            mov    (%esi),%eax
                           .text:0100129a 57                               push   %edi
                           .text:0100129b 6a 03                            push   $0x3
                           .text:0100129d 6a 00                            push   $0x0
                           .text:0100129f 68 70 17 00 00                   push   $0x1770
                           .text:010012a4 8b ce                            mov    %esi,%ecx
                           .text:010012a6 ff 50 0c                         call   *0xc(%eax)
                           .text:010012a9 8b 3d 48 11 00 01                mov    0x1001148,%edi
                           .text:010012af bb 9c 11 00 01                   mov    $0x100119c,%ebx
                           .text:010012b4 53                               push   %ebx
                           .text:010012b5 56                               push   %esi
                           .text:010012b6 ff d7                            call   *%edi
                           .text:010012b8 8b 06                            mov    (%esi),%eax
                           .text:010012ba 59                               pop    %ecx
                           .text:010012bb 59                               pop    %ecx
                           .text:010012bc 6a 03                            push   $0x3
                           .text:010012be 6a 00                            push   $0x0
                           .text:010012c0 68 71 17 00 00                   push   $0x1771
                           .text:010012c5 8b ce                            mov    %esi,%ecx
                           .text:010012c7 ff 50 0c                         call   *0xc(%eax)
                           .text:010012ca 53                               push   %ebx
                           .text:010012cb 56                               push   %esi
                           .text:010012cc ff d7                            call   *%edi
                           .text:010012ce 59                               pop    %ecx
                           .text:010012cf 59                               pop    %ecx
                           .text:010012d0 5f                               pop    %edi
                           .text:010012d1 5e                               pop    %esi
                           .text:010012d2 5b                               pop    %ebx
                           .text:010012d3 5d                               pop    %ebp
                           .text:010012d4 c2 04 00                         ret    $0x4
                           .text:010012d7 cc                               int3   
                           .text:010012d8 cc                               int3   
                           .text:010012d9 cc                               int3   
                           .text:010012da cc                               int3   
                           .text:010012db cc                               int3   
                           .text:010012dc 8b ff                            mov    %edi,%edi
                           .text:010012de 55                               push   %ebp
                           .text:010012df 8b ec                            mov    %esp,%ebp
                           .text:010012e1 83 ec 40                         sub    $0x40,%esp
                           .text:010012e4 8d 4d c0                         lea    -0x40(%ebp),%ecx
                           .text:010012e7 ff 15 3c 11 00 01                call   *0x100113c
                           .text:010012ed 8d 45 c0                         lea    -0x40(%ebp),%eax
                           .text:010012f0 50                               push   %eax
                           .text:010012f1 ff 75 08                         pushl  0x8(%ebp)
                           .text:010012f4 ff 15 40 10 00 01                call   *0x1001040
                           .text:010012fa 8d 4d c0                         lea    -0x40(%ebp),%ecx
                           .text:010012fd 84 c0                            test   %al,%al
                           .text:010012ff 75 15                            jne    0x01001316
                           .text:01001301 8b 45 10                         mov    0x10(%ebp),%eax
                           .text:01001304 c7 00 17 00 00 c0                movl   $0xc0000017,(%eax)
                           .text:0100130a ff 15 40 11 00 01                call   *0x1001140
                           .text:01001310 32 c0                            xor    %al,%al
                           .text:01001312 c9                               leave  
                           .text:01001313 c2 0c 00                         ret    $0xc
                           .text:01001316 53                               push   %ebx
                           .text:01001317 6a 01                            push   $0x1
                           .text:01001319 33 db                            xor    %ebx,%ebx
                           .text:0100131b 53                               push   %ebx
                           .text:0100131c 53                               push   %ebx
                           .text:0100131d 6a ff                            push   $0xffffffff
                           .text:0100131f 53                               push   %ebx
                           .text:01001320 ff 15 44 11 00 01                call   *0x1001144
                           .text:01001326 89 45 fc                         mov    %eax,-0x4(%ebp)
                           .text:01001329 3b c3                            cmp    %ebx,%eax
                           .text:0100132b 75 17                            jne    0x01001344
                           .text:0100132d 8b 45 10                         mov    0x10(%ebp),%eax
                           .text:01001330 c7 00 17 00 00 c0                movl   $0xc0000017,(%eax)
                           .text:01001336 8d 4d c0                         lea    -0x40(%ebp),%ecx
                           .text:01001339 ff 15 40 11 00 01                call   *0x1001140
                           .text:0100133f 8a c3                            mov    %bl,%al
                           .text:01001341 5b                               pop    %ebx
                           .text:01001342 eb ce                            jmp    0x01001312
                           .text:01001344 8b 45 cc                         mov    -0x34(%ebp),%eax
                           .text:01001347 03 c0                            add    %eax,%eax
                           .text:01001349 66 89 45 f8                      mov    %ax,-0x8(%ebp)
                           .text:0100134d 66 89 45 fa                      mov    %ax,-0x6(%ebp)
                           .text:01001351 6a 12                            push   $0x12
                           .text:01001353 8d 45 f8                         lea    -0x8(%ebp),%eax
                           .text:01001356 6a 03                            push   $0x3
                           .text:01001358 89 45 e0                         mov    %eax,-0x20(%ebp)
                           .text:0100135b 8d 45 f0                         lea    -0x10(%ebp),%eax
                           .text:0100135e 50                               push   %eax
                           .text:0100135f 8d 45 d8                         lea    -0x28(%ebp),%eax
                           .text:01001362 50                               push   %eax
                           .text:01001363 68 03 00 10 00                   push   $0x100003
                           .text:01001368 ff 75 0c                         pushl  0xc(%ebp)
                           .text:0100136b c7 45 d8 18 00 00 00             movl   $0x18,-0x28(%ebp)
                           .text:01001372 89 5d dc                         mov    %ebx,-0x24(%ebp)
                           .text:01001375 c7 45 e4 40 00 00 00             movl   $0x40,-0x1c(%ebp)
                           .text:0100137c 89 5d e8                         mov    %ebx,-0x18(%ebp)
                           .text:0100137f 89 5d ec                         mov    %ebx,-0x14(%ebp)
                           .text:01001382 ff 15 94 10 00 01                call   *0x1001094
                           .text:01001388 8b 4d 10                         mov    0x10(%ebp),%ecx
                           .text:0100138b 3b c3                            cmp    %ebx,%eax
                           .text:0100138d 89 01                            mov    %eax,(%ecx)
                           .text:0100138f 0f 9d c3                         setge  %bl
                           .text:01001392 eb a2                            jmp    0x01001336
                           .text:01001394 cc                               int3   
                           .text:01001395 cc                               int3   
                           .text:01001396 cc                               int3   
                           .text:01001397 cc                               int3   
                           .text:01001398 cc                               int3   
                           .text:01001399 8b ff                            mov    %edi,%edi
                           .text:0100139b 55                               push   %ebp
                           .text:0100139c 8b ec                            mov    %esp,%ebp
                           .text:0100139e 83 ec 58                         sub    $0x58,%esp
                           .text:010013a1 56                               push   %esi
                           .text:010013a2 8b 35 3c 11 00 01                mov    0x100113c,%esi
                           .text:010013a8 8d 4d d8                         lea    -0x28(%ebp),%ecx
                           .text:010013ab ff d6                            call   *%esi
                           .text:010013ad 8d 4d a8                         lea    -0x58(%ebp),%ecx
                           .text:010013b0 ff d6                            call   *%esi
                           .text:010013b2 8d 45 d8                         lea    -0x28(%ebp),%eax
                           .text:010013b5 50                               push   %eax
                           .text:010013b6 ff 75 08                         pushl  0x8(%ebp)
                           .text:010013b9 ff 15 40 10 00 01                call   *0x1001040
                           .text:010013bf 84 c0                            test   %al,%al
                           .text:010013c1 0f 84 a1 00 00 00                je     0x01001468
                           .text:010013c7 6a ff                            push   $0xffffffff
                           .text:010013c9 68 a0 11 00 01                   push   $0x10011a0
                           .text:010013ce 8d 4d a8                         lea    -0x58(%ebp),%ecx
                           .text:010013d1 ff 15 34 11 00 01                call   *0x1001134
                           .text:010013d7 84 c0                            test   %al,%al
                           .text:010013d9 0f 84 89 00 00 00                je     0x01001468
                           .text:010013df 8d 45 a8                         lea    -0x58(%ebp),%eax
                           .text:010013e2 50                               push   %eax
                           .text:010013e3 8d 4d d8                         lea    -0x28(%ebp),%ecx
                           .text:010013e6 ff 15 38 11 00 01                call   *0x1001138
                           .text:010013ec 84 c0                            test   %al,%al
                           .text:010013ee 74 78                            je     0x01001468
                           .text:010013f0 6a 01                            push   $0x1
                           .text:010013f2 33 f6                            xor    %esi,%esi
                           .text:010013f4 56                               push   %esi
                           .text:010013f5 56                               push   %esi
                           .text:010013f6 6a ff                            push   $0xffffffff
                           .text:010013f8 56                               push   %esi
                           .text:010013f9 8d 4d d8                         lea    -0x28(%ebp),%ecx
                           .text:010013fc ff 15 44 11 00 01                call   *0x1001144
                           .text:01001402 89 45 fc                         mov    %eax,-0x4(%ebp)
                           .text:01001405 3b c6                            cmp    %esi,%eax
                           .text:01001407 74 5f                            je     0x01001468
                           .text:01001409 8b 45 e4                         mov    -0x1c(%ebp),%eax
                           .text:0100140c 03 c0                            add    %eax,%eax
                           .text:0100140e 53                               push   %ebx
                           .text:0100140f 66 89 45 f8                      mov    %ax,-0x8(%ebp)
                           .text:01001413 66 89 45 fa                      mov    %ax,-0x6(%ebp)
                           .text:01001417 6a 10                            push   $0x10
                           .text:01001419 8d 45 f8                         lea    -0x8(%ebp),%eax
                           .text:0100141c 6a 03                            push   $0x3
                           .text:0100141e 89 45 c8                         mov    %eax,-0x38(%ebp)
                           .text:01001421 8d 45 f0                         lea    -0x10(%ebp),%eax
                           .text:01001424 50                               push   %eax
                           .text:01001425 8d 45 c0                         lea    -0x40(%ebp),%eax
                           .text:01001428 50                               push   %eax
                           .text:01001429 68 01 00 10 00                   push   $0x100001
                           .text:0100142e ff 75 0c                         pushl  0xc(%ebp)
                           .text:01001431 c7 45 c0 18 00 00 00             movl   $0x18,-0x40(%ebp)
                           .text:01001438 89 75 c4                         mov    %esi,-0x3c(%ebp)
                           .text:0100143b c7 45 cc 40 00 00 00             movl   $0x40,-0x34(%ebp)
                           .text:01001442 89 75 d0                         mov    %esi,-0x30(%ebp)
                           .text:01001445 89 75 d4                         mov    %esi,-0x2c(%ebp)
                           .text:01001448 ff 15 94 10 00 01                call   *0x1001094
                           .text:0100144e 8b 35 40 11 00 01                mov    0x1001140,%esi
                           .text:01001454 85 c0                            test   %eax,%eax
                           .text:01001456 8d 4d a8                         lea    -0x58(%ebp),%ecx
                           .text:01001459 0f 9d c3                         setge  %bl
                           .text:0100145c ff d6                            call   *%esi
                           .text:0100145e 8d 4d d8                         lea    -0x28(%ebp),%ecx
                           .text:01001461 ff d6                            call   *%esi
                           .text:01001463 8a c3                            mov    %bl,%al
                           .text:01001465 5b                               pop    %ebx
                           .text:01001466 eb 12                            jmp    0x0100147a
                           .text:01001468 8b 35 40 11 00 01                mov    0x1001140,%esi
                           .text:0100146e 8d 4d a8                         lea    -0x58(%ebp),%ecx
                           .text:01001471 ff d6                            call   *%esi
                           .text:01001473 8d 4d d8                         lea    -0x28(%ebp),%ecx
                           .text:01001476 ff d6                            call   *%esi
                           .text:01001478 32 c0                            xor    %al,%al
                           .text:0100147a 5e                               pop    %esi
                           .text:0100147b c9                               leave  
                           .text:0100147c c2 08 00                         ret    $0x8
                           .text:0100147f cc                               int3   
                           .text:01001480 cc                               int3   
                           .text:01001481 cc                               int3   
                           .text:01001482 cc                               int3   
                           .text:01001483 cc                               int3   
                           .text:01001484 8b ff                            mov    %edi,%edi
                           .text:01001486 55                               push   %ebp
                           .text:01001487 8b ec                            mov    %esp,%ebp
                           .text:01001489 81 ec 04 05 00 00                sub    $0x504,%esp
                           .text:0100148f a1 00 40 00 01                   mov    0x1004000,%eax
                           .text:01001494 33 c5                            xor    %ebp,%eax
                           .text:01001496 89 45 fc                         mov    %eax,-0x4(%ebp)
                           .text:01001499 8b 45 08                         mov    0x8(%ebp),%eax
                           .text:0100149c 53                               push   %ebx
                           .text:0100149d 8b 5d 10                         mov    0x10(%ebp),%ebx
                           .text:010014a0 89 45 a8                         mov    %eax,-0x58(%ebp)
                           .text:010014a3 8b 45 0c                         mov    0xc(%ebp),%eax
                           .text:010014a6 56                               push   %esi
                           .text:010014a7 8b 75 18                         mov    0x18(%ebp),%esi
                           .text:010014aa 89 45 a4                         mov    %eax,-0x5c(%ebp)
                           .text:010014ad 8b 45 14                         mov    0x14(%ebp),%eax
                           .text:010014b0 57                               push   %edi
                           .text:010014b1 8b 3d 3c 11 00 01                mov    0x100113c,%edi
                           .text:010014b7 8d 8d 24 ff ff ff                lea    -0xdc(%ebp),%ecx
                           .text:010014bd 89 45 9c                         mov    %eax,-0x64(%ebp)
                           .text:010014c0 ff d7                            call   *%edi
                           .text:010014c2 8d 4d 84                         lea    -0x7c(%ebp),%ecx
                           .text:010014c5 ff d7                            call   *%edi
                           .text:010014c7 8d 8d 3c ff ff ff                lea    -0xc4(%ebp),%ecx
                           .text:010014cd ff d7                            call   *%edi
                           .text:010014cf 8d 8d 54 ff ff ff                lea    -0xac(%ebp),%ecx
                           .text:010014d5 ff d7                            call   *%edi
                           .text:010014d7 8d 8d 6c ff ff ff                lea    -0x94(%ebp),%ecx
                           .text:010014dd ff d7                            call   *%edi
                           .text:010014df 8d 45 a0                         lea    -0x60(%ebp),%eax
                           .text:010014e2 50                               push   %eax
                           .text:010014e3 ff 75 a4                         pushl  -0x5c(%ebp)
                           .text:010014e6 e8 ae fe ff ff                   call   0x01001399
                           .text:010014eb 84 c0                            test   %al,%al
                           .text:010014ed 75 5c                            jne    0x0100154b
                           .text:010014ef 8b 06                            mov    (%esi),%eax
                           .text:010014f1 6a 03                            push   $0x3
                           .text:010014f3 6a 00                            push   $0x0
                           .text:010014f5 68 f4 07 00 00                   push   $0x7f4
                           .text:010014fa 8b ce                            mov    %esi,%ecx
                           .text:010014fc ff 50 0c                         call   *0xc(%eax)
                           .text:010014ff 68 9c 11 00 01                   push   $0x100119c
                           .text:01001504 56                               push   %esi
                           .text:01001505 ff 15 48 11 00 01                call   *0x1001148
                           .text:0100150b 59                               pop    %ecx
                           .text:0100150c 59                               pop    %ecx
                           .text:0100150d 8b 35 40 11 00 01                mov    0x1001140,%esi
                           .text:01001513 8d 8d 6c ff ff ff                lea    -0x94(%ebp),%ecx
                           .text:01001519 ff d6                            call   *%esi
                           .text:0100151b 8d 8d 54 ff ff ff                lea    -0xac(%ebp),%ecx
                           .text:01001521 ff d6                            call   *%esi
                           .text:01001523 8d 8d 3c ff ff ff                lea    -0xc4(%ebp),%ecx
                           .text:01001529 ff d6                            call   *%esi
                           .text:0100152b 8d 4d 84                         lea    -0x7c(%ebp),%ecx
                           .text:0100152e ff d6                            call   *%esi
                           .text:01001530 8d 8d 24 ff ff ff                lea    -0xdc(%ebp),%ecx
                           .text:01001536 ff d6                            call   *%esi
                           .text:01001538 32 c0                            xor    %al,%al
                           .text:0100153a 8b 4d fc                         mov    -0x4(%ebp),%ecx
                           .text:0100153d 5f                               pop    %edi
                           .text:0100153e 5e                               pop    %esi
                           .text:0100153f 33 cd                            xor    %ebp,%ecx
                           .text:01001541 5b                               pop    %ebx
                           .text:01001542 e8 b3 0f 00 00                   call   0x010024fa
                           .text:01001547 c9                               leave  
                           .text:01001548 c2 14 00                         ret    $0x14
                           .text:0100154b 6a 01                            push   $0x1
                           .text:0100154d 68 18 04 00 00                   push   $0x418
                           .text:01001552 8d 85 fc fa ff ff                lea    -0x504(%ebp),%eax
                           .text:01001558 50                               push   %eax
                           .text:01001559 8d 85 1c ff ff ff                lea    -0xe4(%ebp),%eax
                           .text:0100155f 50                               push   %eax
                           .text:01001560 ff 75 a0                         pushl  -0x60(%ebp)
                           .text:01001563 ff 15 8c 10 00 01                call   *0x100108c
                           .text:01001569 ff 75 a0                         pushl  -0x60(%ebp)
                           .text:0100156c 85 c0                            test   %eax,%eax
                           .text:0100156e 7d 08                            jge    0x01001578
                           .text:01001570 ff 15 90 10 00 01                call   *0x1001090
                           .text:01001576 eb 95                            jmp    0x0100150d
                           .text:01001578 ff 15 90 10 00 01                call   *0x1001090
                           .text:0100157e 8b 85 08 fb ff ff                mov    -0x4f8(%ebp),%eax
                           .text:01001584 d1 e8                            shr    %eax
                           .text:01001586 33 c9                            xor    %ecx,%ecx
                           .text:01001588 66 89 8c 45 0e fb ff ff          mov    %cx,-0x4f2(%ebp,%eax,2)
                           .text:01001590 6a ff                            push   $0xffffffff
                           .text:01001592 8d 85 0e fb ff ff                lea    -0x4f2(%ebp),%eax
                           .text:01001598 50                               push   %eax
                           .text:01001599 8d 8d 24 ff ff ff                lea    -0xdc(%ebp),%ecx
                           .text:0100159f ff 15 2c 11 00 01                call   *0x100112c
                           .text:010015a5 84 c0                            test   %al,%al
                           .text:010015a7 75 34                            jne    0x010015dd
                           .text:010015a9 32 db                            xor    %bl,%bl
                           .text:010015ab 8b 35 40 11 00 01                mov    0x1001140,%esi
                           .text:010015b1 8d 8d 6c ff ff ff                lea    -0x94(%ebp),%ecx
                           .text:010015b7 ff d6                            call   *%esi
                           .text:010015b9 8d 8d 54 ff ff ff                lea    -0xac(%ebp),%ecx
                           .text:010015bf ff d6                            call   *%esi
                           .text:010015c1 8d 8d 3c ff ff ff                lea    -0xc4(%ebp),%ecx
                           .text:010015c7 ff d6                            call   *%esi
                           .text:010015c9 8d 4d 84                         lea    -0x7c(%ebp),%ecx
                           .text:010015cc ff d6                            call   *%esi
                           .text:010015ce 8d 8d 24 ff ff ff                lea    -0xdc(%ebp),%ecx
                           .text:010015d4 ff d6                            call   *%esi
                           .text:010015d6 8a c3                            mov    %bl,%al
                           .text:010015d8 e9 5d ff ff ff                   jmp    0x0100153a
                           .text:010015dd 8b 16                            mov    (%esi),%edx
                           .text:010015df 33 c0                            xor    %eax,%eax
                           .text:010015e1 6a 03                            push   $0x3
                           .text:010015e3 8b ce                            mov    %esi,%ecx
                           .text:010015e5 50                               push   %eax
                           .text:010015e6 39 85 08 fb ff ff                cmp    %eax,-0x4f8(%ebp)
                           .text:010015ec 74 28                            je     0x01001616
                           .text:010015ee 68 73 17 00 00                   push   $0x1773
                           .text:010015f3 ff 52 0c                         call   *0xc(%edx)
                           .text:010015f6 8b 3d 48 11 00 01                mov    0x1001148,%edi
                           .text:010015fc 8d 85 24 ff ff ff                lea    -0xdc(%ebp),%eax
                           .text:01001602 50                               push   %eax
                           .text:01001603 ff 75 a8                         pushl  -0x58(%ebp)
                           .text:01001606 68 bc 11 00 01                   push   $0x10011bc
                           .text:0100160b 56                               push   %esi
                           .text:0100160c ff d7                            call   *%edi
                           .text:0100160e 83 c4 10                         add    $0x10,%esp
                           .text:01001611 c6 03 01                         movb   $0x1,(%ebx)
                           .text:01001614 eb 1f                            jmp    0x01001635
                           .text:01001616 68 72 17 00 00                   push   $0x1772
                           .text:0100161b ff 52 0c                         call   *0xc(%edx)
                           .text:0100161e ff 75 a8                         pushl  -0x58(%ebp)
                           .text:01001621 8b 3d 48 11 00 01                mov    0x1001148,%edi
                           .text:01001627 68 b8 11 00 01                   push   $0x10011b8
                           .text:0100162c 56                               push   %esi
                           .text:0100162d ff d7                            call   *%edi
                           .text:0100162f 83 c4 0c                         add    $0xc,%esp
                           .text:01001632 c6 03 00                         movb   $0x0,(%ebx)
                           .text:01001635 33 db                            xor    %ebx,%ebx
                           .text:01001637 66 39 9d 06 fb ff ff             cmp    %bx,-0x4fa(%ebp)
                           .text:0100163e 75 09                            jne    0x01001649
                           .text:01001640 66 39 9d 04 fb ff ff             cmp    %bx,-0x4fc(%ebp)
                           .text:01001647 74 2a                            je     0x01001673
                           .text:01001649 8b 06                            mov    (%esi),%eax
                           .text:0100164b 6a 03                            push   $0x3
                           .text:0100164d 53                               push   %ebx
                           .text:0100164e 68 bb 0b 00 00                   push   $0xbbb
                           .text:01001653 8b ce                            mov    %esi,%ecx
                           .text:01001655 ff 50 0c                         call   *0xc(%eax)
                           .text:01001658 0f b7 85 04 fb ff ff             movzwl -0x4fc(%ebp),%eax
                           .text:0100165f 50                               push   %eax
                           .text:01001660 0f b7 85 06 fb ff ff             movzwl -0x4fa(%ebp),%eax
                           .text:01001667 50                               push   %eax
                           .text:01001668 68 ac 11 00 01                   push   $0x10011ac
                           .text:0100166d 56                               push   %esi
                           .text:0100166e ff d7                            call   *%edi
                           .text:01001670 83 c4 10                         add    $0x10,%esp
                           .text:01001673 6a ff                            push   $0xffffffff
                           .text:01001675 68 a0 11 00 01                   push   $0x10011a0
                           .text:0100167a 8d 8d 3c ff ff ff                lea    -0xc4(%ebp),%ecx
                           .text:01001680 c7 45 a8 bc 0b 00 00             movl   $0xbbc,-0x58(%ebp)
                           .text:01001687 ff 15 34 11 00 01                call   *0x1001134
                           .text:0100168d 84 c0                            test   %al,%al
                           .text:0100168f 0f 84 b1 00 00 00                je     0x01001746
                           .text:01001695 6a ff                            push   $0xffffffff
                           .text:01001697 53                               push   %ebx
                           .text:01001698 ff 75 a4                         pushl  -0x5c(%ebp)
                           .text:0100169b 8d 4d 84                         lea    -0x7c(%ebp),%ecx
                           .text:0100169e ff 15 30 11 00 01                call   *0x1001130
                           .text:010016a4 84 c0                            test   %al,%al
                           .text:010016a6 0f 84 9a 00 00 00                je     0x01001746
                           .text:010016ac 8d 85 3c ff ff ff                lea    -0xc4(%ebp),%eax
                           .text:010016b2 50                               push   %eax
                           .text:010016b3 8d 4d 84                         lea    -0x7c(%ebp),%ecx
                           .text:010016b6 ff 15 38 11 00 01                call   *0x1001138
                           .text:010016bc 84 c0                            test   %al,%al
                           .text:010016be 0f 84 82 00 00 00                je     0x01001746
                           .text:010016c4 6a ff                            push   $0xffffffff
                           .text:010016c6 68 a4 11 00 01                   push   $0x10011a4
                           .text:010016cb 8d 8d 6c ff ff ff                lea    -0x94(%ebp),%ecx
                           .text:010016d1 ff 15 34 11 00 01                call   *0x1001134
                           .text:010016d7 84 c0                            test   %al,%al
                           .text:010016d9 74 6b                            je     0x01001746
                           .text:010016db 6a 01                            push   $0x1
                           .text:010016dd 53                               push   %ebx
                           .text:010016de 53                               push   %ebx
                           .text:010016df 6a ff                            push   $0xffffffff
                           .text:010016e1 53                               push   %ebx
                           .text:010016e2 8d 4d 84                         lea    -0x7c(%ebp),%ecx
                           .text:010016e5 ff 15 44 11 00 01                call   *0x1001144
                           .text:010016eb 89 45 a4                         mov    %eax,-0x5c(%ebp)
                           .text:010016ee 3b c3                            cmp    %ebx,%eax
                           .text:010016f0 74 54                            je     0x01001746
                           .text:010016f2 6a 28                            push   $0x28
                           .text:010016f4 8d 4d ac                         lea    -0x54(%ebp),%ecx
                           .text:010016f7 51                               push   %ecx
                           .text:010016f8 53                               push   %ebx
                           .text:010016f9 53                               push   %ebx
                           .text:010016fa 53                               push   %ebx
                           .text:010016fb 53                               push   %ebx
                           .text:010016fc 53                               push   %ebx
                           .text:010016fd 50                               push   %eax
                           .text:010016fe ff 15 00 10 00 01                call   *0x1001000
                           .text:01001704 85 c0                            test   %eax,%eax
                           .text:01001706 74 35                            je     0x0100173d
                           .text:01001708 6a ff                            push   $0xffffffff
                           .text:0100170a 8d 45 ac                         lea    -0x54(%ebp),%eax
                           .text:0100170d 50                               push   %eax
                           .text:0100170e 8d 8d 54 ff ff ff                lea    -0xac(%ebp),%ecx
                           .text:01001714 ff 15 2c 11 00 01                call   *0x100112c
                           .text:0100171a 84 c0                            test   %al,%al
                           .text:0100171c 74 1f                            je     0x0100173d
                           .text:0100171e ff b5 74 ff ff ff                pushl  -0x8c(%ebp)
                           .text:01001724 ff b5 5c ff ff ff                pushl  -0xa4(%ebp)
                           .text:0100172a ff 15 80 10 00 01                call   *0x1001080
                           .text:01001730 59                               pop    %ecx
                           .text:01001731 59                               pop    %ecx
                           .text:01001732 85 c0                            test   %eax,%eax
                           .text:01001734 75 07                            jne    0x0100173d
                           .text:01001736 c7 45 a8 d9 0b 00 00             movl   $0xbd9,-0x58(%ebp)
                           .text:0100173d ff 75 a4                         pushl  -0x5c(%ebp)
                           .text:01001740 e8 20 fb ff ff                   call   0x01001265
                           .text:01001745 59                               pop    %ecx
                           .text:01001746 8b 06                            mov    (%esi),%eax
                           .text:01001748 6a 03                            push   $0x3
                           .text:0100174a 6a 01                            push   $0x1
                           .text:0100174c ff 75 a8                         pushl  -0x58(%ebp)
                           .text:0100174f 8b ce                            mov    %esi,%ecx
                           .text:01001751 ff 50 0c                         call   *0xc(%eax)
                           .text:01001754 68 9c 11 00 01                   push   $0x100119c
                           .text:01001759 56                               push   %esi
                           .text:0100175a ff d7                            call   *%edi
                           .text:0100175c 8b 06                            mov    (%esi),%eax
                           .text:0100175e 59                               pop    %ecx
                           .text:0100175f 59                               pop    %ecx
                           .text:01001760 ff 75 9c                         pushl  -0x64(%ebp)
                           .text:01001763 8b ce                            mov    %esi,%ecx
                           .text:01001765 ff 50 18                         call   *0x18(%eax)
                           .text:01001768 8a d8                            mov    %al,%bl
                           .text:0100176a e9 3c fe ff ff                   jmp    0x010015ab
                           .text:0100176f cc                               int3   
                           .text:01001770 cc                               int3   
                           .text:01001771 cc                               int3   
                           .text:01001772 cc                               int3   
                           .text:01001773 cc                               int3   
                           .text:01001774 8b ff                            mov    %edi,%edi
                           .text:01001776 55                               push   %ebp
                           .text:01001777 8b ec                            mov    %esp,%ebp
                           .text:01001779 81 ec 34 04 00 00                sub    $0x434,%esp
                           .text:0100177f a1 00 40 00 01                   mov    0x1004000,%eax
                           .text:01001784 33 c5                            xor    %ebp,%eax
                           .text:01001786 89 45 fc                         mov    %eax,-0x4(%ebp)
                           .text:01001789 53                               push   %ebx
                           .text:0100178a 8b 5d 08                         mov    0x8(%ebp),%ebx
                           .text:0100178d 56                               push   %esi
                           .text:0100178e 8b 75 10                         mov    0x10(%ebp),%esi
                           .text:01001791 57                               push   %edi
                           .text:01001792 8b 7d 0c                         mov    0xc(%ebp),%edi
                           .text:01001795 8d 8d d4 fb ff ff                lea    -0x42c(%ebp),%ecx
                           .text:0100179b ff 15 3c 11 00 01                call   *0x100113c
                           .text:010017a1 8d 85 ec fb ff ff                lea    -0x414(%ebp),%eax
                           .text:010017a7 50                               push   %eax
                           .text:010017a8 8d 85 f0 fb ff ff                lea    -0x410(%ebp),%eax
                           .text:010017ae 50                               push   %eax
                           .text:010017af 53                               push   %ebx
                           .text:010017b0 e8 27 fb ff ff                   call   0x010012dc
                           .text:010017b5 84 c0                            test   %al,%al
                           .text:010017b7 75 50                            jne    0x01001809
                           .text:010017b9 81 bd ec fb ff ff 22 00 00 c0    cmpl   $0xc0000022,-0x414(%ebp)
                           .text:010017c3 8b 06                            mov    (%esi),%eax
                           .text:010017c5 6a 03                            push   $0x3
                           .text:010017c7 8b ce                            mov    %esi,%ecx
                           .text:010017c9 6a 00                            push   $0x0
                           .text:010017cb 75 07                            jne    0x010017d4
                           .text:010017cd 68 d5 0b 00 00                   push   $0xbd5
                           .text:010017d2 eb 05                            jmp    0x010017d9
                           .text:010017d4 68 f4 07 00 00                   push   $0x7f4
                           .text:010017d9 ff 50 0c                         call   *0xc(%eax)
                           .text:010017dc 68 9c 11 00 01                   push   $0x100119c
                           .text:010017e1 56                               push   %esi
                           .text:010017e2 ff 15 48 11 00 01                call   *0x1001148
                           .text:010017e8 59                               pop    %ecx
                           .text:010017e9 59                               pop    %ecx
                           .text:010017ea 8d 8d d4 fb ff ff                lea    -0x42c(%ebp),%ecx
                           .text:010017f0 ff 15 40 11 00 01                call   *0x1001140
                           .text:010017f6 32 c0                            xor    %al,%al
                           .text:010017f8 8b 4d fc                         mov    -0x4(%ebp),%ecx
                           .text:010017fb 5f                               pop    %edi
                           .text:010017fc 5e                               pop    %esi
                           .text:010017fd 33 cd                            xor    %ebp,%ecx
                           .text:010017ff 5b                               pop    %ebx
                           .text:01001800 e8 f5 0c 00 00                   call   0x010024fa
                           .text:01001805 c9                               leave  
                           .text:01001806 c2 0c 00                         ret    $0xc
                           .text:01001809 6a ff                            push   $0xffffffff
                           .text:0100180b 33 db                            xor    %ebx,%ebx
                           .text:0100180d 53                               push   %ebx
                           .text:0100180e 57                               push   %edi
                           .text:0100180f 8d 8d d4 fb ff ff                lea    -0x42c(%ebp),%ecx
                           .text:01001815 ff 15 30 11 00 01                call   *0x1001130
                           .text:0100181b 8d 8d d4 fb ff ff                lea    -0x42c(%ebp),%ecx
                           .text:01001821 84 c0                            test   %al,%al
                           .text:01001823 74 cb                            je     0x010017f0
                           .text:01001825 6a 01                            push   $0x1
                           .text:01001827 68 02 02 00 00                   push   $0x202
                           .text:0100182c 8d 85 f8 fb ff ff                lea    -0x408(%ebp),%eax
                           .text:01001832 50                               push   %eax
                           .text:01001833 6a ff                            push   $0xffffffff
                           .text:01001835 53                               push   %ebx
                           .text:01001836 ff 15 44 11 00 01                call   *0x1001144
                           .text:0100183c 85 c0                            test   %eax,%eax
                           .text:0100183e 75 09                            jne    0x01001849
                           .text:01001840 8b 06                            mov    (%esi),%eax
                           .text:01001842 6a 03                            push   $0x3
                           .text:01001844 53                               push   %ebx
                           .text:01001845 8b ce                            mov    %esi,%ecx
                           .text:01001847 eb 8b                            jmp    0x010017d4
                           .text:01001849 8b 85 e0 fb ff ff                mov    -0x420(%ebp),%eax
                           .text:0100184f 03 c0                            add    %eax,%eax
                           .text:01001851 6a 02                            push   $0x2
                           .text:01001853 89 85 f4 fb ff ff                mov    %eax,-0x40c(%ebp)
                           .text:01001859 68 08 04 00 00                   push   $0x408
                           .text:0100185e 8d 85 f4 fb ff ff                lea    -0x40c(%ebp),%eax
                           .text:01001864 50                               push   %eax
                           .text:01001865 8d 85 cc fb ff ff                lea    -0x434(%ebp),%eax
                           .text:0100186b 50                               push   %eax
                           .text:0100186c ff b5 f0 fb ff ff                pushl  -0x410(%ebp)
                           .text:01001872 ff 15 9c 10 00 01                call   *0x100109c
                           .text:01001878 3b c3                            cmp    %ebx,%eax
                           .text:0100187a 0f 8d b2 00 00 00                jge    0x01001932
                           .text:01001880 b9 a2 00 00 c0                   mov    $0xc00000a2,%ecx
                           .text:01001885 3b c1                            cmp    %ecx,%eax
                           .text:01001887 7f 46                            jg     0x010018cf
                           .text:01001889 74 3a                            je     0x010018c5
                           .text:0100188b 3d 10 00 00 c0                   cmp    $0xc0000010,%eax
                           .text:01001890 74 70                            je     0x01001902
                           .text:01001892 3d 22 00 00 c0                   cmp    $0xc0000022,%eax
                           .text:01001897 74 22                            je     0x010018bb
                           .text:01001899 3d 7f 00 00 c0                   cmp    $0xc000007f,%eax
                           .text:0100189e 74 11                            je     0x010018b1
                           .text:010018a0 3d 86 00 00 c0                   cmp    $0xc0000086,%eax
                           .text:010018a5 75 3d                            jne    0x010018e4
                           .text:010018a7 6a 03                            push   $0x3
                           .text:010018a9 53                               push   %ebx
                           .text:010018aa 68 d7 0b 00 00                   push   $0xbd7
                           .text:010018af eb 59                            jmp    0x0100190a
                           .text:010018b1 6a 03                            push   $0x3
                           .text:010018b3 53                               push   %ebx
                           .text:010018b4 68 c2 0b 00 00                   push   $0xbc2
                           .text:010018b9 eb 4f                            jmp    0x0100190a
                           .text:010018bb 6a 03                            push   $0x3
                           .text:010018bd 53                               push   %ebx
                           .text:010018be 68 d5 0b 00 00                   push   $0xbd5
                           .text:010018c3 eb 45                            jmp    0x0100190a
                           .text:010018c5 6a 03                            push   $0x3
                           .text:010018c7 53                               push   %ebx
                           .text:010018c8 68 79 17 00 00                   push   $0x1779
                           .text:010018cd eb 3b                            jmp    0x0100190a
                           .text:010018cf 3d bb 00 00 c0                   cmp    $0xc00000bb,%eax
                           .text:010018d4 74 2c                            je     0x01001902
                           .text:010018d6 3d 40 02 00 c0                   cmp    $0xc0000240,%eax
                           .text:010018db 74 1b                            je     0x010018f8
                           .text:010018dd 3d ea 02 00 c0                   cmp    $0xc00002ea,%eax
                           .text:010018e2 74 0a                            je     0x010018ee
                           .text:010018e4 6a 03                            push   $0x3
                           .text:010018e6 53                               push   %ebx
                           .text:010018e7 68 f4 07 00 00                   push   $0x7f4
                           .text:010018ec eb 1c                            jmp    0x0100190a
                           .text:010018ee 6a 03                            push   $0x3
                           .text:010018f0 53                               push   %ebx
                           .text:010018f1 68 7a 17 00 00                   push   $0x177a
                           .text:010018f6 eb 12                            jmp    0x0100190a
                           .text:010018f8 6a 03                            push   $0x3
                           .text:010018fa 53                               push   %ebx
                           .text:010018fb 68 7b 17 00 00                   push   $0x177b
                           .text:01001900 eb 08                            jmp    0x0100190a
                           .text:01001902 6a 03                            push   $0x3
                           .text:01001904 53                               push   %ebx
                           .text:01001905 68 76 17 00 00                   push   $0x1776
                           .text:0100190a 8b 06                            mov    (%esi),%eax
                           .text:0100190c 8b ce                            mov    %esi,%ecx
                           .text:0100190e ff 50 0c                         call   *0xc(%eax)
                           .text:01001911 68 9c 11 00 01                   push   $0x100119c
                           .text:01001916 56                               push   %esi
                           .text:01001917 ff 15 48 11 00 01                call   *0x1001148
                           .text:0100191d 59                               pop    %ecx
                           .text:0100191e 59                               pop    %ecx
                           .text:0100191f 8d 8d d4 fb ff ff                lea    -0x42c(%ebp),%ecx
                           .text:01001925 ff 15 40 11 00 01                call   *0x1001140
                           .text:0100192b 8a c3                            mov    %bl,%al
                           .text:0100192d e9 c6 fe ff ff                   jmp    0x010017f8
                           .text:01001932 b3 01                            mov    $0x1,%bl
                           .text:01001934 eb e9                            jmp    0x0100191f
                           .text:01001936 cc                               int3   
                           .text:01001937 cc                               int3   
                           .text:01001938 cc                               int3   
                           .text:01001939 cc                               int3   
                           .text:0100193a cc                               int3   
                           .text:0100193b 8b ff                            mov    %edi,%edi
                           .text:0100193d 56                               push   %esi
                           .text:0100193e 8b f1                            mov    %ecx,%esi
                           .text:01001940 8d 4e 10                         lea    0x10(%esi),%ecx
                           .text:01001943 ff 15 40 11 00 01                call   *0x1001140
                           .text:01001949 8b ce                            mov    %esi,%ecx
                           .text:0100194b 5e                               pop    %esi
                           .text:0100194c ff 25 28 11 00 01                jmp    *0x1001128
                           .text:01001952 cc                               int3   
                           .text:01001953 cc                               int3   
                           .text:01001954 cc                               int3   
                           .text:01001955 cc                               int3   
                           .text:01001956 cc                               int3   
                           .text:01001957 8b ff                            mov    %edi,%edi
                           .text:01001959 56                               push   %esi
                           .text:0100195a 8b f1                            mov    %ecx,%esi
                           .text:0100195c 8d 4e 28                         lea    0x28(%esi),%ecx
                           .text:0100195f ff 15 40 11 00 01                call   *0x1001140
                           .text:01001965 8b ce                            mov    %esi,%ecx
                           .text:01001967 5e                               pop    %esi
                           .text:01001968 e9 ce ff ff ff                   jmp    0x0100193b
                           .text:0100196d cc                               int3   
                           .text:0100196e cc                               int3   
                           .text:0100196f cc                               int3   
                           .text:01001970 cc                               int3   
                           .text:01001971 cc                               int3   
                           .text:01001972 8b ff                            mov    %edi,%edi
                           .text:01001974 55                               push   %ebp
                           .text:01001975 8b ec                            mov    %esp,%ebp
                           .text:01001977 81 ec 48 07 00 00                sub    $0x748,%esp
                           .text:0100197d a1 00 40 00 01                   mov    0x1004000,%eax
                           .text:01001982 33 c5                            xor    %ebp,%eax
                           .text:01001984 89 45 fc                         mov    %eax,-0x4(%ebp)
                           .text:01001987 53                               push   %ebx
                           .text:01001988 56                               push   %esi
                           .text:01001989 57                               push   %edi
                           .text:0100198a 8d 8d f4 f9 ff ff                lea    -0x60c(%ebp),%ecx
                           .text:01001990 ff 15 f8 10 00 01                call   *0x10010f8
                           .text:01001996 8d 8d b8 f8 ff ff                lea    -0x748(%ebp),%ecx
                           .text:0100199c ff 15 f4 10 00 01                call   *0x10010f4
                           .text:010019a2 8b 35 f0 10 00 01                mov    0x10010f0,%esi
                           .text:010019a8 8d 8d 00 fb ff ff                lea    -0x500(%ebp),%ecx
                           .text:010019ae ff d6                            call   *%esi
                           .text:010019b0 8d 8d 30 fb ff ff                lea    -0x4d0(%ebp),%ecx
                           .text:010019b6 ff d6                            call   *%esi
                           .text:010019b8 8d 8d 8c fa ff ff                lea    -0x574(%ebp),%ecx
                           .text:010019be ff 15 ec 10 00 01                call   *0x10010ec
                           .text:010019c4 8d 8d b4 f9 ff ff                lea    -0x64c(%ebp),%ecx
                           .text:010019ca ff 15 e8 10 00 01                call   *0x10010e8
                           .text:010019d0 8b 35 e4 10 00 01                mov    0x10010e4,%esi
                           .text:010019d6 8d 8d 5c fa ff ff                lea    -0x5a4(%ebp),%ecx
                           .text:010019dc ff d6                            call   *%esi
                           .text:010019de 8d 8d b8 fa ff ff                lea    -0x548(%ebp),%ecx
                           .text:010019e4 ff d6                            call   *%esi
                           .text:010019e6 8b 35 3c 11 00 01                mov    0x100113c,%esi
                           .text:010019ec 8d 8d 48 fb ff ff                lea    -0x4b8(%ebp),%ecx
                           .text:010019f2 ff d6                            call   *%esi
                           .text:010019f4 8d 8d 60 fb ff ff                lea    -0x4a0(%ebp),%ecx
                           .text:010019fa ff d6                            call   *%esi
                           .text:010019fc 8b 3d e0 10 00 01                mov    0x10010e0,%edi
                           .text:01001a02 8d 8d bc fd ff ff                lea    -0x244(%ebp),%ecx
                           .text:01001a08 ff d7                            call   *%edi
                           .text:01001a0a 8d 8d 7c fb ff ff                lea    -0x484(%ebp),%ecx
                           .text:01001a10 ff d7                            call   *%edi
                           .text:01001a12 8d 8d e8 fa ff ff                lea    -0x518(%ebp),%ecx
                           .text:01001a18 ff d6                            call   *%esi
                           .text:01001a1a 8d 8d 18 fb ff ff                lea    -0x4e8(%ebp),%ecx
                           .text:01001a20 ff d6                            call   *%esi
                           .text:01001a22 33 db                            xor    %ebx,%ebx
                           .text:01001a24 53                               push   %ebx
                           .text:01001a25 53                               push   %ebx
                           .text:01001a26 6a 01                            push   $0x1
                           .text:01001a28 53                               push   %ebx
                           .text:01001a29 ff 15 04 10 00 01                call   *0x1001004
                           .text:01001a2f ff 15 dc 10 00 01                call   *0x10010dc
                           .text:01001a35 50                               push   %eax
                           .text:01001a36 ff 15 d8 10 00 01                call   *0x10010d8
                           .text:01001a3c 50                               push   %eax
                           .text:01001a3d ff 15 18 11 00 01                call   *0x1001118
                           .text:01001a43 50                               push   %eax
                           .text:01001a44 8d 8d f4 f9 ff ff                lea    -0x60c(%ebp),%ecx
                           .text:01001a4a ff 15 d0 10 00 01                call   *0x10010d0
                           .text:01001a50 84 c0                            test   %al,%al
                           .text:01001a52 0f 84 51 07 00 00                je     0x010021a9
                           .text:01001a58 8b 35 cc 10 00 01                mov    0x10010cc,%esi
                           .text:01001a5e 6a 19                            push   $0x19
                           .text:01001a60 6a 32                            push   $0x32
                           .text:01001a62 8d 8d 00 fb ff ff                lea    -0x500(%ebp),%ecx
                           .text:01001a68 ff d6                            call   *%esi
                           .text:01001a6a 84 c0                            test   %al,%al
                           .text:01001a6c 0f 84 37 07 00 00                je     0x010021a9
                           .text:01001a72 6a 19                            push   $0x19
                           .text:01001a74 6a 32                            push   $0x32
                           .text:01001a76 8d 8d 30 fb ff ff                lea    -0x4d0(%ebp),%ecx
                           .text:01001a7c ff d6                            call   *%esi
                           .text:01001a7e 84 c0                            test   %al,%al
                           .text:01001a80 0f 84 23 07 00 00                je     0x010021a9
                           .text:01001a86 8d 85 00 fb ff ff                lea    -0x500(%ebp),%eax
                           .text:01001a8c 50                               push   %eax
                           .text:01001a8d 8d 8d b8 f8 ff ff                lea    -0x748(%ebp),%ecx
                           .text:01001a93 ff 15 c8 10 00 01                call   *0x10010c8
                           .text:01001a99 84 c0                            test   %al,%al
                           .text:01001a9b 0f 84 08 07 00 00                je     0x010021a9
                           .text:01001aa1 53                               push   %ebx
                           .text:01001aa2 8d 8d b8 f8 ff ff                lea    -0x748(%ebp),%ecx
                           .text:01001aa8 ff 15 c4 10 00 01                call   *0x10010c4
                           .text:01001aae 53                               push   %ebx
                           .text:01001aaf 8d 8d b8 f8 ff ff                lea    -0x748(%ebp),%ecx
                           .text:01001ab5 ff 15 4c 11 00 01                call   *0x100114c
                           .text:01001abb 84 c0                            test   %al,%al
                           .text:01001abd 0f 84 e6 06 00 00                je     0x010021a9
                           .text:01001ac3 68 d0 11 00 01                   push   $0x10011d0
                           .text:01001ac8 8d 8d 8c fa ff ff                lea    -0x574(%ebp),%ecx
                           .text:01001ace ff 15 bc 10 00 01                call   *0x10010bc
                           .text:01001ad4 84 c0                            test   %al,%al
                           .text:01001ad6 0f 84 cd 06 00 00                je     0x010021a9
                           .text:01001adc 8b 35 b8 10 00 01                mov    0x10010b8,%esi
                           .text:01001ae2 68 cc 11 00 01                   push   $0x10011cc
                           .text:01001ae7 8d 8d 5c fa ff ff                lea    -0x5a4(%ebp),%ecx
                           .text:01001aed ff d6                            call   *%esi
                           .text:01001aef 84 c0                            test   %al,%al
                           .text:01001af1 0f 84 b2 06 00 00                je     0x010021a9
                           .text:01001af7 68 c8 11 00 01                   push   $0x10011c8
                           .text:01001afc 8d 8d b8 fa ff ff                lea    -0x548(%ebp),%ecx
                           .text:01001b02 ff d6                            call   *%esi
                           .text:01001b04 84 c0                            test   %al,%al
                           .text:01001b06 0f 84 9d 06 00 00                je     0x010021a9
                           .text:01001b0c 8d 8d b4 f9 ff ff                lea    -0x64c(%ebp),%ecx
                           .text:01001b12 ff 15 b4 10 00 01                call   *0x10010b4
                           .text:01001b18 84 c0                            test   %al,%al
                           .text:01001b1a 0f 84 89 06 00 00                je     0x010021a9
                           .text:01001b20 8b 35 b0 10 00 01                mov    0x10010b0,%esi
                           .text:01001b26 8d 85 8c fa ff ff                lea    -0x574(%ebp),%eax
                           .text:01001b2c 50                               push   %eax
                           .text:01001b2d 8d 8d 30 fb ff ff                lea    -0x4d0(%ebp),%ecx
                           .text:01001b33 ff d6                            call   *%esi
                           .text:01001b35 84 c0                            test   %al,%al
                           .text:01001b37 0f 84 6c 06 00 00                je     0x010021a9
                           .text:01001b3d 8d 85 5c fa ff ff                lea    -0x5a4(%ebp),%eax
                           .text:01001b43 50                               push   %eax
                           .text:01001b44 8d 8d 30 fb ff ff                lea    -0x4d0(%ebp),%ecx
                           .text:01001b4a ff d6                            call   *%esi
                           .text:01001b4c 84 c0                            test   %al,%al
                           .text:01001b4e 0f 84 55 06 00 00                je     0x010021a9
                           .text:01001b54 8d 85 b8 fa ff ff                lea    -0x548(%ebp),%eax
                           .text:01001b5a 50                               push   %eax
                           .text:01001b5b 8d 8d 30 fb ff ff                lea    -0x4d0(%ebp),%ecx
                           .text:01001b61 ff d6                            call   *%esi
                           .text:01001b63 84 c0                            test   %al,%al
                           .text:01001b65 0f 84 3e 06 00 00                je     0x010021a9
                           .text:01001b6b 8d 85 b4 f9 ff ff                lea    -0x64c(%ebp),%eax
                           .text:01001b71 50                               push   %eax
                           .text:01001b72 8d 8d 30 fb ff ff                lea    -0x4d0(%ebp),%ecx
                           .text:01001b78 ff d6                            call   *%esi
                           .text:01001b7a 84 c0                            test   %al,%al
                           .text:01001b7c 0f 84 27 06 00 00                je     0x010021a9
                           .text:01001b82 8d 85 30 fb ff ff                lea    -0x4d0(%ebp),%eax
                           .text:01001b88 50                               push   %eax
                           .text:01001b89 8d 8d b8 f8 ff ff                lea    -0x748(%ebp),%ecx
                           .text:01001b8f ff 15 ac 10 00 01                call   *0x10010ac
                           .text:01001b95 84 c0                            test   %al,%al
                           .text:01001b97 0f 85 d7 00 00 00                jne    0x01001c74
                           .text:01001b9d 6a 03                            push   $0x3
                           .text:01001b9f 53                               push   %ebx
                           .text:01001ba0 68 d2 0b 00 00                   push   $0xbd2
                           .text:01001ba5 8d 8d f4 f9 ff ff                lea    -0x60c(%ebp),%ecx
                           .text:01001bab ff 15 a8 10 00 01                call   *0x10010a8
                           .text:01001bb1 8d 8d b8 f8 ff ff                lea    -0x748(%ebp),%ecx
                           .text:01001bb7 ff 15 a4 10 00 01                call   *0x10010a4
                           .text:01001bbd 50                               push   %eax
                           .text:01001bbe 8d 85 f4 f9 ff ff                lea    -0x60c(%ebp),%eax
                           .text:01001bc4 68 b8 11 00 01                   push   $0x10011b8
                           .text:01001bc9 50                               push   %eax
                           .text:01001bca ff 15 48 11 00 01                call   *0x1001148
                           .text:01001bd0 83 c4 0c                         add    $0xc,%esp
                           .text:01001bd3 33 ff                            xor    %edi,%edi
                           .text:01001bd5 47                               inc    %edi
                           .text:01001bd6 8b 35 40 11 00 01                mov    0x1001140,%esi
                           .text:01001bdc 8d 8d 18 fb ff ff                lea    -0x4e8(%ebp),%ecx
                           .text:01001be2 ff d6                            call   *%esi
                           .text:01001be4 8d 8d e8 fa ff ff                lea    -0x518(%ebp),%ecx
                           .text:01001bea ff d6                            call   *%esi
                           .text:01001bec 8b 1d 50 11 00 01                mov    0x1001150,%ebx
                           .text:01001bf2 8d 8d 7c fb ff ff                lea    -0x484(%ebp),%ecx
                           .text:01001bf8 ff d3                            call   *%ebx
                           .text:01001bfa 8d 8d bc fd ff ff                lea    -0x244(%ebp),%ecx
                           .text:01001c00 ff d3                            call   *%ebx
                           .text:01001c02 8d 8d 60 fb ff ff                lea    -0x4a0(%ebp),%ecx
                           .text:01001c08 ff d6                            call   *%esi
                           .text:01001c0a 8d 8d 48 fb ff ff                lea    -0x4b8(%ebp),%ecx
                           .text:01001c10 ff d6                            call   *%esi
                           .text:01001c12 8d 8d b8 fa ff ff                lea    -0x548(%ebp),%ecx
                           .text:01001c18 e8 1e fd ff ff                   call   0x0100193b
                           .text:01001c1d 8d 8d 5c fa ff ff                lea    -0x5a4(%ebp),%ecx
                           .text:01001c23 e8 13 fd ff ff                   call   0x0100193b
                           .text:01001c28 8d 8d b4 f9 ff ff                lea    -0x64c(%ebp),%ecx
                           .text:01001c2e e8 24 fd ff ff                   call   0x01001957
                           .text:01001c33 8d 8d 8c fa ff ff                lea    -0x574(%ebp),%ecx
                           .text:01001c39 ff 15 04 11 00 01                call   *0x1001104
                           .text:01001c3f 8b 35 08 11 00 01                mov    0x1001108,%esi
                           .text:01001c45 8d 8d 30 fb ff ff                lea    -0x4d0(%ebp),%ecx
                           .text:01001c4b ff d6                            call   *%esi
                           .text:01001c4d 8d 8d 00 fb ff ff                lea    -0x500(%ebp),%ecx
                           .text:01001c53 ff d6                            call   *%esi
                           .text:01001c55 8d 8d b8 f8 ff ff                lea    -0x748(%ebp),%ecx
                           .text:01001c5b ff 15 0c 11 00 01                call   *0x100110c
                           .text:01001c61 8d 8d f4 f9 ff ff                lea    -0x60c(%ebp),%ecx
                           .text:01001c67 ff 15 10 11 00 01                call   *0x1001110
                           .text:01001c6d 8b c7                            mov    %edi,%eax
                           .text:01001c6f e9 cf 05 00 00                   jmp    0x01002243
                           .text:01001c74 38 9d 88 fa ff ff                cmp    %bl,-0x578(%ebp)
                           .text:01001c7a 74 13                            je     0x01001c8f
                           .text:01001c7c 8d 85 f4 f9 ff ff                lea    -0x60c(%ebp),%eax
                           .text:01001c82 50                               push   %eax
                           .text:01001c83 e8 06 f6 ff ff                   call   0x0100128e
                           .text:01001c88 33 ff                            xor    %edi,%edi
                           .text:01001c8a e9 47 ff ff ff                   jmp    0x01001bd6
                           .text:01001c8f 8d 8d 48 fb ff ff                lea    -0x4b8(%ebp),%ecx
                           .text:01001c95 ff 15 14 11 00 01                call   *0x1001114
                           .text:01001c9b 84 c0                            test   %al,%al
                           .text:01001c9d 0f 84 30 ff ff ff                je     0x01001bd3
                           .text:01001ca3 8b 35 1c 11 00 01                mov    0x100111c,%esi
                           .text:01001ca9 8d 8d b4 f9 ff ff                lea    -0x64c(%ebp),%ecx
                           .text:01001caf ff d6                            call   *%esi
                           .text:01001cb1 8b 1d 30 11 00 01                mov    0x1001130,%ebx
                           .text:01001cb7 83 cf ff                         or     $0xffffffff,%edi
                           .text:01001cba 84 c0                            test   %al,%al
                           .text:01001cbc 0f 84 e0 02 00 00                je     0x01001fa2
                           .text:01001cc2 57                               push   %edi
                           .text:01001cc3 6a 00                            push   $0x0
                           .text:01001cc5 8d 85 dc f9 ff ff                lea    -0x624(%ebp),%eax
                           .text:01001ccb 50                               push   %eax
                           .text:01001ccc 8d 8d 60 fb ff ff                lea    -0x4a0(%ebp),%ecx
                           .text:01001cd2 ff d3                            call   *%ebx
                           .text:01001cd4 84 c0                            test   %al,%al
                           .text:01001cd6 0f 84 f7 fe ff ff                je     0x01001bd3
                           .text:01001cdc 6a 00                            push   $0x0
                           .text:01001cde 8d 85 dc f9 ff ff                lea    -0x624(%ebp),%eax
                           .text:01001ce4 50                               push   %eax
                           .text:01001ce5 8d 8d bc fd ff ff                lea    -0x244(%ebp),%ecx
                           .text:01001ceb ff 15 d4 10 00 01                call   *0x10010d4
                           .text:01001cf1 84 c0                            test   %al,%al
                           .text:01001cf3 0f 84 da fe ff ff                je     0x01001bd3
                           .text:01001cf9 8d 8d b8 fa ff ff                lea    -0x548(%ebp),%ecx
                           .text:01001cff ff d6                            call   *%esi
                           .text:01001d01 84 c0                            test   %al,%al
                           .text:01001d03 0f 84 5d 01 00 00                je     0x01001e66
                           .text:01001d09 83 bd 6c fb ff ff 01             cmpl   $0x1,-0x494(%ebp)
                           .text:01001d10 76 0c                            jbe    0x01001d1e
                           .text:01001d12 8b 85 68 fb ff ff                mov    -0x498(%ebp),%eax
                           .text:01001d18 0f b7 40 02                      movzwl 0x2(%eax),%eax
                           .text:01001d1c eb 05                            jmp    0x01001d23
                           .text:01001d1e b8 ff ff 00 00                   mov    $0xffff,%eax
                           .text:01001d23 66 83 f8 3a                      cmp    $0x3a,%ax
                           .text:01001d27 0f 84 b7 00 00 00                je     0x01001de4
                           .text:01001d2d 8d 8d bc fd ff ff                lea    -0x244(%ebp),%ecx
                           .text:01001d33 ff 15 c0 10 00 01                call   *0x10010c0
                           .text:01001d39 84 c0                            test   %al,%al
                           .text:01001d3b 0f 85 a3 00 00 00                jne    0x01001de4
                           .text:01001d41 57                               push   %edi
                           .text:01001d42 6a 00                            push   $0x0
                           .text:01001d44 8d 85 60 fb ff ff                lea    -0x4a0(%ebp),%eax
                           .text:01001d4a 50                               push   %eax
                           .text:01001d4b 8d 8d 48 fb ff ff                lea    -0x4b8(%ebp),%ecx
                           .text:01001d51 ff d3                            call   *%ebx
                           .text:01001d53 84 c0                            test   %al,%al
                           .text:01001d55 0f 84 78 fe ff ff                je     0x01001bd3
                           .text:01001d5b 57                               push   %edi
                           .text:01001d5c 68 c4 11 00 01                   push   $0x10011c4
                           .text:01001d61 8d 8d 60 fb ff ff                lea    -0x4a0(%ebp),%ecx
                           .text:01001d67 ff 15 2c 11 00 01                call   *0x100112c
                           .text:01001d6d 84 c0                            test   %al,%al
                           .text:01001d6f 0f 84 5e fe ff ff                je     0x01001bd3
                           .text:01001d75 33 f6                            xor    %esi,%esi
                           .text:01001d77 56                               push   %esi
                           .text:01001d78 8d 85 60 fb ff ff                lea    -0x4a0(%ebp),%eax
                           .text:01001d7e 50                               push   %eax
                           .text:01001d7f 8d 8d bc fd ff ff                lea    -0x244(%ebp),%ecx
                           .text:01001d85 ff 15 d4 10 00 01                call   *0x10010d4
                           .text:01001d8b 84 c0                            test   %al,%al
                           .text:01001d8d 0f 84 40 fe ff ff                je     0x01001bd3
                           .text:01001d93 8d 85 e8 fa ff ff                lea    -0x518(%ebp),%eax
                           .text:01001d99 50                               push   %eax
                           .text:01001d9a 8d 85 7c fb ff ff                lea    -0x484(%ebp),%eax
                           .text:01001da0 50                               push   %eax
                           .text:01001da1 8d 85 60 fb ff ff                lea    -0x4a0(%ebp),%eax
                           .text:01001da7 50                               push   %eax
                           .text:01001da8 8d 8d bc fd ff ff                lea    -0x244(%ebp),%ecx
                           .text:01001dae ff 15 fc 10 00 01                call   *0x10010fc
                           .text:01001db4 3b c6                            cmp    %esi,%eax
                           .text:01001db6 0f 8c e0 03 00 00                jl     0x0100219c
                           .text:01001dbc 83 f8 01                         cmp    $0x1,%eax
                           .text:01001dbf 0f 8e ee 01 00 00                jle    0x01001fb3
                           .text:01001dc5 83 f8 02                         cmp    $0x2,%eax
                           .text:01001dc8 0f 84 05 fe ff ff                je     0x01001bd3
                           .text:01001dce 83 f8 04                         cmp    $0x4,%eax
                           .text:01001dd1 0f 85 c5 03 00 00                jne    0x0100219c
                           .text:01001dd7 6a 03                            push   $0x3
                           .text:01001dd9 56                               push   %esi
                           .text:01001dda 68 78 17 00 00                   push   $0x1778
                           .text:01001ddf e9 df 01 00 00                   jmp    0x01001fc3
                           .text:01001de4 6a 20                            push   $0x20
                           .text:01001de6 ff b5 68 fb ff ff                pushl  -0x498(%ebp)
                           .text:01001dec ff 15 4c 10 00 01                call   *0x100104c
                           .text:01001df2 59                               pop    %ecx
                           .text:01001df3 59                               pop    %ecx
                           .text:01001df4 85 c0                            test   %eax,%eax
                           .text:01001df6 74 0c                            je     0x01001e04
                           .text:01001df8 2b 85 68 fb ff ff                sub    -0x498(%ebp),%eax
                           .text:01001dfe d1 f8                            sar    %eax
                           .text:01001e00 8b f0                            mov    %eax,%esi
                           .text:01001e02 eb 02                            jmp    0x01001e06
                           .text:01001e04 8b f7                            mov    %edi,%esi
                           .text:01001e06 3b f7                            cmp    %edi,%esi
                           .text:01001e08 0f 84 67 ff ff ff                je     0x01001d75
                           .text:01001e0e 57                               push   %edi
                           .text:01001e0f 56                               push   %esi
                           .text:01001e10 8d 85 60 fb ff ff                lea    -0x4a0(%ebp),%eax
                           .text:01001e16 50                               push   %eax
                           .text:01001e17 8d 8d 48 fb ff ff                lea    -0x4b8(%ebp),%ecx
                           .text:01001e1d ff d3                            call   *%ebx
                           .text:01001e1f 84 c0                            test   %al,%al
                           .text:01001e21 0f 84 ac fd ff ff                je     0x01001bd3
                           .text:01001e27 57                               push   %edi
                           .text:01001e28 56                               push   %esi
                           .text:01001e29 8b 35 00 11 00 01                mov    0x1001100,%esi
                           .text:01001e2f 8d 8d 60 fb ff ff                lea    -0x4a0(%ebp),%ecx
                           .text:01001e35 ff d6                            call   *%esi
                           .text:01001e37 83 bd 54 fb ff ff 00             cmpl   $0x0,-0x4ac(%ebp)
                           .text:01001e3e 76 0b                            jbe    0x01001e4b
                           .text:01001e40 8b 85 50 fb ff ff                mov    -0x4b0(%ebp),%eax
                           .text:01001e46 0f b7 00                         movzwl (%eax),%eax
                           .text:01001e49 eb 05                            jmp    0x01001e50
                           .text:01001e4b b8 ff ff 00 00                   mov    $0xffff,%eax
                           .text:01001e50 66 83 f8 20                      cmp    $0x20,%ax
                           .text:01001e54 0f 85 1b ff ff ff                jne    0x01001d75
                           .text:01001e5a 6a 01                            push   $0x1
                           .text:01001e5c 6a 00                            push   $0x0
                           .text:01001e5e 8d 8d 48 fb ff ff                lea    -0x4b8(%ebp),%ecx
                           .text:01001e64 eb cf                            jmp    0x01001e35
                           .text:01001e66 83 bd 6c fb ff ff 01             cmpl   $0x1,-0x494(%ebp)
                           .text:01001e6d 76 0c                            jbe    0x01001e7b
                           .text:01001e6f 8b 85 68 fb ff ff                mov    -0x498(%ebp),%eax
                           .text:01001e75 0f b7 40 02                      movzwl 0x2(%eax),%eax
                           .text:01001e79 eb 05                            jmp    0x01001e80
                           .text:01001e7b b8 ff ff 00 00                   mov    $0xffff,%eax
                           .text:01001e80 66 83 f8 3a                      cmp    $0x3a,%ax
                           .text:01001e84 75 5a                            jne    0x01001ee0
                           .text:01001e86 57                               push   %edi
                           .text:01001e87 6a 02                            push   $0x2
                           .text:01001e89 8d 85 60 fb ff ff                lea    -0x4a0(%ebp),%eax
                           .text:01001e8f 50                               push   %eax
                           .text:01001e90 8d 8d 48 fb ff ff                lea    -0x4b8(%ebp),%ecx
                           .text:01001e96 ff d3                            call   *%ebx
                           .text:01001e98 84 c0                            test   %al,%al
                           .text:01001e9a 0f 84 33 fd ff ff                je     0x01001bd3
                           .text:01001ea0 8b 35 00 11 00 01                mov    0x1001100,%esi
                           .text:01001ea6 57                               push   %edi
                           .text:01001ea7 6a 02                            push   $0x2
                           .text:01001ea9 8d 8d 60 fb ff ff                lea    -0x4a0(%ebp),%ecx
                           .text:01001eaf ff d6                            call   *%esi
                           .text:01001eb1 83 bd 54 fb ff ff 00             cmpl   $0x0,-0x4ac(%ebp)
                           .text:01001eb8 76 0b                            jbe    0x01001ec5
                           .text:01001eba 8b 85 50 fb ff ff                mov    -0x4b0(%ebp),%eax
                           .text:01001ec0 0f b7 00                         movzwl (%eax),%eax
                           .text:01001ec3 eb 05                            jmp    0x01001eca
                           .text:01001ec5 b8 ff ff 00 00                   mov    $0xffff,%eax
                           .text:01001eca 66 83 f8 20                      cmp    $0x20,%ax
                           .text:01001ece 0f 85 a1 fe ff ff                jne    0x01001d75
                           .text:01001ed4 6a 01                            push   $0x1
                           .text:01001ed6 6a 00                            push   $0x0
                           .text:01001ed8 8d 8d 48 fb ff ff                lea    -0x4b8(%ebp),%ecx
                           .text:01001ede eb cf                            jmp    0x01001eaf
                           .text:01001ee0 8d 8d bc fd ff ff                lea    -0x244(%ebp),%ecx
                           .text:01001ee6 ff 15 c0 10 00 01                call   *0x10010c0
                           .text:01001eec 84 c0                            test   %al,%al
                           .text:01001eee 0f 84 82 00 00 00                je     0x01001f76
                           .text:01001ef4 6a 20                            push   $0x20
                           .text:01001ef6 ff b5 68 fb ff ff                pushl  -0x498(%ebp)
                           .text:01001efc ff 15 4c 10 00 01                call   *0x100104c
                           .text:01001f02 59                               pop    %ecx
                           .text:01001f03 59                               pop    %ecx
                           .text:01001f04 85 c0                            test   %eax,%eax
                           .text:01001f06 74 0c                            je     0x01001f14
                           .text:01001f08 2b 85 68 fb ff ff                sub    -0x498(%ebp),%eax
                           .text:01001f0e d1 f8                            sar    %eax
                           .text:01001f10 8b f0                            mov    %eax,%esi
                           .text:01001f12 eb 02                            jmp    0x01001f16
                           .text:01001f14 8b f7                            mov    %edi,%esi
                           .text:01001f16 3b f7                            cmp    %edi,%esi
                           .text:01001f18 0f 84 57 fe ff ff                je     0x01001d75
                           .text:01001f1e 57                               push   %edi
                           .text:01001f1f 56                               push   %esi
                           .text:01001f20 8d 85 60 fb ff ff                lea    -0x4a0(%ebp),%eax
                           .text:01001f26 50                               push   %eax
                           .text:01001f27 8d 8d 48 fb ff ff                lea    -0x4b8(%ebp),%ecx
                           .text:01001f2d ff d3                            call   *%ebx
                           .text:01001f2f 84 c0                            test   %al,%al
                           .text:01001f31 0f 84 9c fc ff ff                je     0x01001bd3
                           .text:01001f37 57                               push   %edi
                           .text:01001f38 56                               push   %esi
                           .text:01001f39 8b 35 00 11 00 01                mov    0x1001100,%esi
                           .text:01001f3f 8d 8d 60 fb ff ff                lea    -0x4a0(%ebp),%ecx
                           .text:01001f45 ff d6                            call   *%esi
                           .text:01001f47 83 bd 54 fb ff ff 00             cmpl   $0x0,-0x4ac(%ebp)
                           .text:01001f4e 76 0b                            jbe    0x01001f5b
                           .text:01001f50 8b 85 50 fb ff ff                mov    -0x4b0(%ebp),%eax
                           .text:01001f56 0f b7 00                         movzwl (%eax),%eax
                           .text:01001f59 eb 05                            jmp    0x01001f60
                           .text:01001f5b b8 ff ff 00 00                   mov    $0xffff,%eax
                           .text:01001f60 66 83 f8 20                      cmp    $0x20,%ax
                           .text:01001f64 0f 85 0b fe ff ff                jne    0x01001d75
                           .text:01001f6a 6a 01                            push   $0x1
                           .text:01001f6c 6a 00                            push   $0x0
                           .text:01001f6e 8d 8d 48 fb ff ff                lea    -0x4b8(%ebp),%ecx
                           .text:01001f74 eb cf                            jmp    0x01001f45
                           .text:01001f76 57                               push   %edi
                           .text:01001f77 6a 00                            push   $0x0
                           .text:01001f79 8d 85 60 fb ff ff                lea    -0x4a0(%ebp),%eax
                           .text:01001f7f 50                               push   %eax
                           .text:01001f80 8d 8d 48 fb ff ff                lea    -0x4b8(%ebp),%ecx
                           .text:01001f86 ff d3                            call   *%ebx
                           .text:01001f88 84 c0                            test   %al,%al
                           .text:01001f8a 0f 84 43 fc ff ff                je     0x01001bd3
                           .text:01001f90 8d 85 60 fb ff ff                lea    -0x4a0(%ebp),%eax
                           .text:01001f96 50                               push   %eax
                           .text:01001f97 ff 15 20 11 00 01                call   *0x1001120
                           .text:01001f9d e9 cb fd ff ff                   jmp    0x01001d6d
                           .text:01001fa2 8d 8d b8 fa ff ff                lea    -0x548(%ebp),%ecx
                           .text:01001fa8 ff d6                            call   *%esi
                           .text:01001faa 84 c0                            test   %al,%al
                           .text:01001fac 74 e2                            je     0x01001f90
                           .text:01001fae e9 a8 fd ff ff                   jmp    0x01001d5b
                           .text:01001fb3 39 b5 f4 fa ff ff                cmp    %esi,-0x50c(%ebp)
                           .text:01001fb9 74 2d                            je     0x01001fe8
                           .text:01001fbb 6a 03                            push   $0x3
                           .text:01001fbd 56                               push   %esi
                           .text:01001fbe 68 ac 08 00 00                   push   $0x8ac
                           .text:01001fc3 8d 8d f4 f9 ff ff                lea    -0x60c(%ebp),%ecx
                           .text:01001fc9 ff 15 a8 10 00 01                call   *0x10010a8
                           .text:01001fcf 8d 85 f4 f9 ff ff                lea    -0x60c(%ebp),%eax
                           .text:01001fd5 68 9c 11 00 01                   push   $0x100119c
                           .text:01001fda 50                               push   %eax
                           .text:01001fdb ff 15 48 11 00 01                call   *0x1001148
                           .text:01001fe1 59                               pop    %ecx
                           .text:01001fe2 59                               pop    %ecx
                           .text:01001fe3 e9 eb fb ff ff                   jmp    0x01001bd3
                           .text:01001fe8 8d 8d bc fd ff ff                lea    -0x244(%ebp),%ecx
                           .text:01001fee ff 15 c0 10 00 01                call   *0x10010c0
                           .text:01001ff4 57                               push   %edi
                           .text:01001ff5 56                               push   %esi
                           .text:01001ff6 84 c0                            test   %al,%al
                           .text:01001ff8 0f 84 93 01 00 00                je     0x01002191
                           .text:01001ffe 8d 85 60 fb ff ff                lea    -0x4a0(%ebp),%eax
                           .text:01002004 50                               push   %eax
                           .text:01002005 8d 8d 18 fb ff ff                lea    -0x4e8(%ebp),%ecx
                           .text:0100200b ff d3                            call   *%ebx
                           .text:0100200d 84 c0                            test   %al,%al
                           .text:0100200f 0f 84 be fb ff ff                je     0x01001bd3
                           .text:01002015 83 bd 98 fd ff ff 02             cmpl   $0x2,-0x268(%ebp)
                           .text:0100201c 75 26                            jne    0x01002044
                           .text:0100201e 8b 85 94 fd ff ff                mov    -0x26c(%ebp),%eax
                           .text:01002024 66 83 78 02 3a                   cmpw   $0x3a,0x2(%eax)
                           .text:01002029 75 19                            jne    0x01002044
                           .text:0100202b 57                               push   %edi
                           .text:0100202c 56                               push   %esi
                           .text:0100202d 8d 85 8c fd ff ff                lea    -0x274(%ebp),%eax
                           .text:01002033 50                               push   %eax
                           .text:01002034 8d 8d 60 fb ff ff                lea    -0x4a0(%ebp),%ecx
                           .text:0100203a ff d3                            call   *%ebx
                           .text:0100203c 84 c0                            test   %al,%al
                           .text:0100203e 0f 84 8f fb ff ff                je     0x01001bd3
                           .text:01002044 39 b5 54 fb ff ff                cmp    %esi,-0x4ac(%ebp)
                           .text:0100204a 0f 85 82 00 00 00                jne    0x010020d2
                           .text:01002050 8d 85 f4 f9 ff ff                lea    -0x60c(%ebp),%eax
                           .text:01002056 50                               push   %eax
                           .text:01002057 8d 85 48 fb ff ff                lea    -0x4b8(%ebp),%eax
                           .text:0100205d 50                               push   %eax
                           .text:0100205e 8d 85 7b fb ff ff                lea    -0x485(%ebp),%eax
                           .text:01002064 50                               push   %eax
                           .text:01002065 8d 85 60 fb ff ff                lea    -0x4a0(%ebp),%eax
                           .text:0100206b 50                               push   %eax
                           .text:0100206c 8d 85 18 fb ff ff                lea    -0x4e8(%ebp),%eax
                           .text:01002072 50                               push   %eax
                           .text:01002073 e8 0c f4 ff ff                   call   0x01001484
                           .text:01002078 84 c0                            test   %al,%al
                           .text:0100207a 0f 84 53 fb ff ff                je     0x01001bd3
                           .text:01002080 39 b5 54 fb ff ff                cmp    %esi,-0x4ac(%ebp)
                           .text:01002086 75 4a                            jne    0x010020d2
                           .text:01002088 80 bd 7b fb ff ff 00             cmpb   $0x0,-0x485(%ebp)
                           .text:0100208f 0f 84 f3 fb ff ff                je     0x01001c88
                           .text:01002095 6a 03                            push   $0x3
                           .text:01002097 56                               push   %esi
                           .text:01002098 68 75 17 00 00                   push   $0x1775
                           .text:0100209d 8d 8d f4 f9 ff ff                lea    -0x60c(%ebp),%ecx
                           .text:010020a3 ff 15 a8 10 00 01                call   *0x10010a8
                           .text:010020a9 8d 85 f4 f9 ff ff                lea    -0x60c(%ebp),%eax
                           .text:010020af 68 9c 11 00 01                   push   $0x100119c
                           .text:010020b4 50                               push   %eax
                           .text:010020b5 ff 15 48 11 00 01                call   *0x1001148
                           .text:010020bb 59                               pop    %ecx
                           .text:010020bc 59                               pop    %ecx
                           .text:010020bd 56                               push   %esi
                           .text:010020be 8d 8d f4 f9 ff ff                lea    -0x60c(%ebp),%ecx
                           .text:010020c4 ff 15 24 11 00 01                call   *0x1001124
                           .text:010020ca 84 c0                            test   %al,%al
                           .text:010020cc 0f 84 b6 fb ff ff                je     0x01001c88
                           .text:010020d2 8d 85 f4 f9 ff ff                lea    -0x60c(%ebp),%eax
                           .text:010020d8 50                               push   %eax
                           .text:010020d9 8d 85 48 fb ff ff                lea    -0x4b8(%ebp),%eax
                           .text:010020df 50                               push   %eax
                           .text:010020e0 8d 85 60 fb ff ff                lea    -0x4a0(%ebp),%eax
                           .text:010020e6 50                               push   %eax
                           .text:010020e7 e8 88 f6 ff ff                   call   0x01001774
                           .text:010020ec 8b 35 40 11 00 01                mov    0x1001140,%esi
                           .text:010020f2 33 db                            xor    %ebx,%ebx
                           .text:010020f4 84 c0                            test   %al,%al
                           .text:010020f6 8d 8d 18 fb ff ff                lea    -0x4e8(%ebp),%ecx
                           .text:010020fc 0f 94 c3                         sete   %bl
                           .text:010020ff ff d6                            call   *%esi
                           .text:01002101 8d 8d e8 fa ff ff                lea    -0x518(%ebp),%ecx
                           .text:01002107 ff d6                            call   *%esi
                           .text:01002109 8b 3d 50 11 00 01                mov    0x1001150,%edi
                           .text:0100210f 8d 8d 7c fb ff ff                lea    -0x484(%ebp),%ecx
                           .text:01002115 ff d7                            call   *%edi
                           .text:01002117 8d 8d bc fd ff ff                lea    -0x244(%ebp),%ecx
                           .text:0100211d ff d7                            call   *%edi
                           .text:0100211f 8d 8d 60 fb ff ff                lea    -0x4a0(%ebp),%ecx
                           .text:01002125 ff d6                            call   *%esi
                           .text:01002127 8d 8d 48 fb ff ff                lea    -0x4b8(%ebp),%ecx
                           .text:0100212d ff d6                            call   *%esi
                           .text:0100212f 8d 8d b8 fa ff ff                lea    -0x548(%ebp),%ecx
                           .text:01002135 e8 01 f8 ff ff                   call   0x0100193b
                           .text:0100213a 8d 8d 5c fa ff ff                lea    -0x5a4(%ebp),%ecx
                           .text:01002140 e8 f6 f7 ff ff                   call   0x0100193b
                           .text:01002145 8d 8d b4 f9 ff ff                lea    -0x64c(%ebp),%ecx
                           .text:0100214b e8 07 f8 ff ff                   call   0x01001957
                           .text:01002150 8d 8d 8c fa ff ff                lea    -0x574(%ebp),%ecx
                           .text:01002156 ff 15 04 11 00 01                call   *0x1001104
                           .text:0100215c 8b 35 08 11 00 01                mov    0x1001108,%esi
                           .text:01002162 8d 8d 30 fb ff ff                lea    -0x4d0(%ebp),%ecx
                           .text:01002168 ff d6                            call   *%esi
                           .text:0100216a 8d 8d 00 fb ff ff                lea    -0x500(%ebp),%ecx
                           .text:01002170 ff d6                            call   *%esi
                           .text:01002172 8d 8d b8 f8 ff ff                lea    -0x748(%ebp),%ecx
                           .text:01002178 ff 15 0c 11 00 01                call   *0x100110c
                           .text:0100217e 8d 8d f4 f9 ff ff                lea    -0x60c(%ebp),%ecx
                           .text:01002184 ff 15 10 11 00 01                call   *0x1001110
                           .text:0100218a 8b c3                            mov    %ebx,%eax
                           .text:0100218c e9 b2 00 00 00                   jmp    0x01002243
                           .text:01002191 8d 85 8c fd ff ff                lea    -0x274(%ebp),%eax
                           .text:01002197 e9 68 fe ff ff                   jmp    0x01002004
                           .text:0100219c 6a 03                            push   $0x3
                           .text:0100219e 56                               push   %esi
                           .text:0100219f 68 77 17 00 00                   push   $0x1777
                           .text:010021a4 e9 1a fe ff ff                   jmp    0x01001fc3
                           .text:010021a9 8b 35 40 11 00 01                mov    0x1001140,%esi
                           .text:010021af 8d 8d 18 fb ff ff                lea    -0x4e8(%ebp),%ecx
                           .text:010021b5 ff d6                            call   *%esi
                           .text:010021b7 8d 8d e8 fa ff ff                lea    -0x518(%ebp),%ecx
                           .text:010021bd ff d6                            call   *%esi
                           .text:010021bf 8b 1d 50 11 00 01                mov    0x1001150,%ebx
                           .text:010021c5 8d 8d 7c fb ff ff                lea    -0x484(%ebp),%ecx
                           .text:010021cb ff d3                            call   *%ebx
                           .text:010021cd 8d 8d bc fd ff ff                lea    -0x244(%ebp),%ecx
                           .text:010021d3 ff d3                            call   *%ebx
                           .text:010021d5 8d 8d 60 fb ff ff                lea    -0x4a0(%ebp),%ecx
                           .text:010021db ff d6                            call   *%esi
                           .text:010021dd 8d 8d 48 fb ff ff                lea    -0x4b8(%ebp),%ecx
                           .text:010021e3 ff d6                            call   *%esi
                           .text:010021e5 8d 8d b8 fa ff ff                lea    -0x548(%ebp),%ecx
                           .text:010021eb e8 4b f7 ff ff                   call   0x0100193b
                           .text:010021f0 8d 8d 5c fa ff ff                lea    -0x5a4(%ebp),%ecx
                           .text:010021f6 e8 40 f7 ff ff                   call   0x0100193b
                           .text:010021fb 8d 8d b4 f9 ff ff                lea    -0x64c(%ebp),%ecx
                           .text:01002201 e8 51 f7 ff ff                   call   0x01001957
                           .text:01002206 8d 8d 8c fa ff ff                lea    -0x574(%ebp),%ecx
                           .text:0100220c ff 15 04 11 00 01                call   *0x1001104
                           .text:01002212 8b 35 08 11 00 01                mov    0x1001108,%esi
                           .text:01002218 8d 8d 30 fb ff ff                lea    -0x4d0(%ebp),%ecx
                           .text:0100221e ff d6                            call   *%esi
                           .text:01002220 8d 8d 00 fb ff ff                lea    -0x500(%ebp),%ecx
                           .text:01002226 ff d6                            call   *%esi
                           .text:01002228 8d 8d b8 f8 ff ff                lea    -0x748(%ebp),%ecx
                           .text:0100222e ff 15 0c 11 00 01                call   *0x100110c
                           .text:01002234 8d 8d f4 f9 ff ff                lea    -0x60c(%ebp),%ecx
                           .text:0100223a ff 15 10 11 00 01                call   *0x1001110
                           .text:01002240 33 c0                            xor    %eax,%eax
                           .text:01002242 40                               inc    %eax
                           .text:01002243 8b 4d fc                         mov    -0x4(%ebp),%ecx
                           .text:01002246 5f                               pop    %edi
                           .text:01002247 5e                               pop    %esi
                           .text:01002248 33 cd                            xor    %ebp,%ecx
                           .text:0100224a 5b                               pop    %ebx
                           .text:0100224b e8 aa 02 00 00                   call   0x010024fa
                           .text:01002250 c9                               leave  
                           .text:01002251 c3                               ret    
                           .text:01002252 cc                               int3   
                           .text:01002253 cc                               int3   
                           .text:01002254 cc                               int3   
                           .text:01002255 cc                               int3   
                           .text:01002256 cc                               int3   
                           .text:01002257 8b ff                            mov    %edi,%edi
                           .text:01002259 55                               push   %ebp
                           .text:0100225a 8b ec                            mov    %esp,%ebp
                           .text:0100225c 56                               push   %esi
                           .text:0100225d 8b 75 08                         mov    0x8(%ebp),%esi
                           .text:01002260 33 c0                            xor    %eax,%eax
                           .text:01002262 eb 0f                            jmp    0x01002273
                           .text:01002264 85 c0                            test   %eax,%eax
                           .text:01002266 75 10                            jne    0x01002278
                           .text:01002268 8b 0e                            mov    (%esi),%ecx
                           .text:0100226a 85 c9                            test   %ecx,%ecx
                           .text:0100226c 74 02                            je     0x01002270
                           .text:0100226e ff d1                            call   *%ecx
                           .text:01002270 83 c6 04                         add    $0x4,%esi
                           .text:01002273 3b 75 0c                         cmp    0xc(%ebp),%esi
                           .text:01002276 72 ec                            jb     0x01002264
                           .text:01002278 5e                               pop    %esi
                           .text:01002279 5d                               pop    %ebp
                           .text:0100227a c3                               ret    
                           .text:0100227b cc                               int3   
                           .text:0100227c cc                               int3   
                           .text:0100227d cc                               int3   
                           .text:0100227e cc                               int3   
                           .text:0100227f cc                               int3   
                           .text:01002280 a1 3c 40 00 01                   mov    0x100403c,%eax
                           .text:01002285 68 2c 40 00 01                   push   $0x100402c
                           .text:0100228a ff 35 38 40 00 01                pushl  0x1004038
                           .text:01002290 a3 2c 40 00 01                   mov    %eax,0x100402c
                           .text:01002295 68 1c 40 00 01                   push   $0x100401c
                           .text:0100229a 68 20 40 00 01                   push   $0x1004020
                           .text:0100229f 68 18 40 00 01                   push   $0x1004018
                           .text:010022a4 ff 15 50 10 00 01                call   *0x1001050
                           .text:010022aa 83 c4 14                         add    $0x14,%esp
                           .text:010022ad a3 28 40 00 01                   mov    %eax,0x1004028
                           .text:010022b2 c3                               ret    
                           .text:010022b3 cc                               int3   
                           .text:010022b4 cc                               int3   
                           .text:010022b5 cc                               int3   
                           .text:010022b6 cc                               int3   
                           .text:010022b7 cc                               int3   
                           .text:010022b8 6a 10                            push   $0x10
                           .text:010022ba 68 68 29 00 01                   push   $0x1002968
                           .text:010022bf e8 d0 03 00 00                   call   0x01002694
                           .text:010022c4 33 db                            xor    %ebx,%ebx
                           .text:010022c6 89 5d fc                         mov    %ebx,-0x4(%ebp)
                           .text:010022c9 64 a1 18 00 00 00                mov    %fs:0x18,%eax
                           .text:010022cf 8b 70 04                         mov    0x4(%eax),%esi
                           .text:010022d2 89 5d e4                         mov    %ebx,-0x1c(%ebp)
                           .text:010022d5 bf 70 43 00 01                   mov    $0x1004370,%edi
                           .text:010022da 53                               push   %ebx
                           .text:010022db 56                               push   %esi
                           .text:010022dc 57                               push   %edi
                           .text:010022dd ff 15 2c 10 00 01                call   *0x100102c
                           .text:010022e3 3b c3                            cmp    %ebx,%eax
                           .text:010022e5 74 19                            je     0x01002300
                           .text:010022e7 3b c6                            cmp    %esi,%eax
                           .text:010022e9 75 08                            jne    0x010022f3
                           .text:010022eb 33 f6                            xor    %esi,%esi
                           .text:010022ed 46                               inc    %esi
                           .text:010022ee 89 75 e4                         mov    %esi,-0x1c(%ebp)
                           .text:010022f1 eb 10                            jmp    0x01002303
                           .text:010022f3 68 e8 03 00 00                   push   $0x3e8
                           .text:010022f8 ff 15 30 10 00 01                call   *0x1001030
                           .text:010022fe eb da                            jmp    0x010022da
                           .text:01002300 33 f6                            xor    %esi,%esi
                           .text:01002302 46                               inc    %esi
                           .text:01002303 a1 6c 43 00 01                   mov    0x100436c,%eax
                           .text:01002308 3b c6                            cmp    %esi,%eax
                           .text:0100230a 75 0a                            jne    0x01002316
                           .text:0100230c 6a 1f                            push   $0x1f
                           .text:0100230e e8 73 03 00 00                   call   0x01002686
                           .text:01002313 59                               pop    %ecx
                           .text:01002314 eb 3b                            jmp    0x01002351
                           .text:01002316 a1 6c 43 00 01                   mov    0x100436c,%eax
                           .text:0100231b 85 c0                            test   %eax,%eax
                           .text:0100231d 75 2c                            jne    0x0100234b
                           .text:0100231f 89 35 6c 43 00 01                mov    %esi,0x100436c
                           .text:01002325 68 70 11 00 01                   push   $0x1001170
                           .text:0100232a 68 64 11 00 01                   push   $0x1001164
                           .text:0100232f e8 23 ff ff ff                   call   0x01002257
                           .text:01002334 59                               pop    %ecx
                           .text:01002335 59                               pop    %ecx
                           .text:01002336 85 c0                            test   %eax,%eax
                           .text:01002338 74 17                            je     0x01002351
                           .text:0100233a c7 45 fc fe ff ff ff             movl   $0xfffffffe,-0x4(%ebp)
                           .text:01002341 b8 ff 00 00 00                   mov    $0xff,%eax
                           .text:01002346 e9 d0 00 00 00                   jmp    0x0100241b
                           .text:0100234b 89 35 34 40 00 01                mov    %esi,0x1004034
                           .text:01002351 a1 6c 43 00 01                   mov    0x100436c,%eax
                           .text:01002356 3b c6                            cmp    %esi,%eax
                           .text:01002358 75 1b                            jne    0x01002375
                           .text:0100235a 68 60 11 00 01                   push   $0x1001160
                           .text:0100235f 68 58 11 00 01                   push   $0x1001158
                           .text:01002364 e8 11 03 00 00                   call   0x0100267a
                           .text:01002369 59                               pop    %ecx
                           .text:0100236a 59                               pop    %ecx
                           .text:0100236b c7 05 6c 43 00 01 02 00 00 00    movl   $0x2,0x100436c
                           .text:01002375 39 5d e4                         cmp    %ebx,-0x1c(%ebp)
                           .text:01002378 75 08                            jne    0x01002382
                           .text:0100237a 53                               push   %ebx
                           .text:0100237b 57                               push   %edi
                           .text:0100237c ff 15 34 10 00 01                call   *0x1001034
                           .text:01002382 39 1d 74 43 00 01                cmp    %ebx,0x1004374
                           .text:01002388 74 19                            je     0x010023a3
                           .text:0100238a 68 74 43 00 01                   push   $0x1004374
                           .text:0100238f e8 75 02 00 00                   call   0x01002609
                           .text:01002394 59                               pop    %ecx
                           .text:01002395 85 c0                            test   %eax,%eax
                           .text:01002397 74 0a                            je     0x010023a3
                           .text:01002399 53                               push   %ebx
                           .text:0100239a 6a 02                            push   $0x2
                           .text:0100239c 53                               push   %ebx
                           .text:0100239d ff 15 74 43 00 01                call   *0x1004374
                           .text:010023a3 ff 35 1c 40 00 01                pushl  0x100401c
                           .text:010023a9 ff 35 20 40 00 01                pushl  0x1004020
                           .text:010023af ff 35 18 40 00 01                pushl  0x1004018
                           .text:010023b5 e8 b8 f5 ff ff                   call   0x01001972
                           .text:010023ba 83 c4 0c                         add    $0xc,%esp
                           .text:010023bd a3 30 40 00 01                   mov    %eax,0x1004030
                           .text:010023c2 39 1d 24 40 00 01                cmp    %ebx,0x1004024
                           .text:010023c8 75 37                            jne    0x01002401
                           .text:010023ca 50                               push   %eax
                           .text:010023cb ff 15 60 10 00 01                call   *0x1001060
                           .text:010023d1 8b 45 ec                         mov    -0x14(%ebp),%eax
                           .text:010023d4 8b 08                            mov    (%eax),%ecx
                           .text:010023d6 8b 09                            mov    (%ecx),%ecx
                           .text:010023d8 89 4d e0                         mov    %ecx,-0x20(%ebp)
                           .text:010023db 50                               push   %eax
                           .text:010023dc 51                               push   %ecx
                           .text:010023dd e8 88 01 00 00                   call   0x0100256a
                           .text:010023e2 59                               pop    %ecx
                           .text:010023e3 59                               pop    %ecx
                           .text:010023e4 c3                               ret    
                           .text:010023e5 8b 65 e8                         mov    -0x18(%ebp),%esp
                           .text:010023e8 8b 45 e0                         mov    -0x20(%ebp),%eax
                           .text:010023eb a3 30 40 00 01                   mov    %eax,0x1004030
                           .text:010023f0 33 db                            xor    %ebx,%ebx
                           .text:010023f2 39 1d 24 40 00 01                cmp    %ebx,0x1004024
                           .text:010023f8 75 07                            jne    0x01002401
                           .text:010023fa 50                               push   %eax
                           .text:010023fb ff 15 58 10 00 01                call   *0x1001058
                           .text:01002401 39 1d 34 40 00 01                cmp    %ebx,0x1004034
                           .text:01002407 75 06                            jne    0x0100240f
                           .text:01002409 ff 15 78 10 00 01                call   *0x1001078
                           .text:0100240f c7 45 fc fe ff ff ff             movl   $0xfffffffe,-0x4(%ebp)
                           .text:01002416 a1 30 40 00 01                   mov    0x1004030,%eax
                           .text:0100241b e8 b9 02 00 00                   call   0x010026d9
                           .text:01002420 c3                               ret    
                           .text:01002421 cc                               int3   
                           .text:01002422 cc                               int3   
                           .text:01002423 cc                               int3   
                           .text:01002424 cc                               int3   
                           .text:01002425 cc                               int3   
                           .text:01002426 b8 4d 5a 00 00                   mov    $0x5a4d,%eax
                           .text:0100242b 66 39 05 00 00 00 01             cmp    %ax,0x1000000
                           .text:01002432 74 04                            je     0x01002438
                           .text:01002434 33 c0                            xor    %eax,%eax
                           .text:01002436 eb 4d                            jmp    0x01002485
                           .text:01002438 a1 3c 00 00 01                   mov    0x100003c,%eax
                           .text:0100243d 8d 80 00 00 00 01                lea    0x1000000(%eax),%eax
                           .text:01002443 81 38 50 45 00 00                cmpl   $0x4550,(%eax)
                           .text:01002449 75 e9                            jne    0x01002434
                           .text:0100244b 0f b7 48 18                      movzwl 0x18(%eax),%ecx
                           .text:0100244f 81 f9 0b 01 00 00                cmp    $0x10b,%ecx
                           .text:01002455 74 1b                            je     0x01002472
                           .text:01002457 81 f9 0b 02 00 00                cmp    $0x20b,%ecx
                           .text:0100245d 75 d5                            jne    0x01002434
                           .text:0100245f 83 b8 84 00 00 00 0e             cmpl   $0xe,0x84(%eax)
                           .text:01002466 76 cc                            jbe    0x01002434
                           .text:01002468 33 c9                            xor    %ecx,%ecx
                           .text:0100246a 39 88 f8 00 00 00                cmp    %ecx,0xf8(%eax)
                           .text:01002470 eb 0e                            jmp    0x01002480
                           .text:01002472 83 78 74 0e                      cmpl   $0xe,0x74(%eax)
                           .text:01002476 76 bc                            jbe    0x01002434
                           .text:01002478 33 c9                            xor    %ecx,%ecx
                           .text:0100247a 39 88 e8 00 00 00                cmp    %ecx,0xe8(%eax)
                           .text:01002480 0f 95 c1                         setne  %cl
                           .text:01002483 8b c1                            mov    %ecx,%eax
                           .text:01002485 6a 01                            push   $0x1
                           .text:01002487 a3 24 40 00 01                   mov    %eax,0x1004024
                           .text:0100248c e8 11 03 00 00                   call   0x010027a2
                           .text:01002491 50                               push   %eax
                           .text:01002492 ff 15 84 10 00 01                call   *0x1001084
                           .text:01002498 83 0d 64 43 00 01 ff             orl    $0xffffffff,0x1004364
                           .text:0100249f 83 0d 68 43 00 01 ff             orl    $0xffffffff,0x1004368
                           .text:010024a6 59                               pop    %ecx
                           .text:010024a7 59                               pop    %ecx
                           .text:010024a8 ff 15 74 10 00 01                call   *0x1001074
                           .text:010024ae 8b 0d 44 40 00 01                mov    0x1004044,%ecx
                           .text:010024b4 89 08                            mov    %ecx,(%eax)
                           .text:010024b6 ff 15 70 10 00 01                call   *0x1001070
                           .text:010024bc 8b 0d 40 40 00 01                mov    0x1004040,%ecx
                           .text:010024c2 89 08                            mov    %ecx,(%eax)
                           .text:010024c4 e8 6b 02 00 00                   call   0x01002734
                           .text:010024c9 83 3d 10 40 00 01 00             cmpl   $0x0,0x1004010
                           .text:010024d0 75 0c                            jne    0x010024de
                           .text:010024d2 68 34 27 00 01                   push   $0x1002734
                           .text:010024d7 ff 15 6c 10 00 01                call   *0x100106c
                           .text:010024dd 59                               pop    %ecx
                           .text:010024de e8 39 02 00 00                   call   0x0100271c
                           .text:010024e3 33 c0                            xor    %eax,%eax
                           .text:010024e5 c3                               ret    
                           .text:010024e6 cc                               int3   
                           .text:010024e7 cc                               int3   
                           .text:010024e8 cc                               int3   
                           .text:010024e9 cc                               int3   
                           .text:010024ea cc                               int3   
                           .text:010024eb e8 f1 02 00 00                   call   0x010027e1
                           .text:010024f0 e9 c3 fd ff ff                   jmp    0x010022b8
                           .text:010024f5 cc                               int3   
                           .text:010024f6 cc                               int3   
                           .text:010024f7 cc                               int3   
                           .text:010024f8 cc                               int3   
                           .text:010024f9 cc                               int3   
                           .text:010024fa 3b 0d 00 40 00 01                cmp    0x1004000,%ecx
                           .text:01002500 75 03                            jne    0x01002505
                           .text:01002502 c2 00 00                         ret    $0x0
                           .text:01002505 e9 6d 03 00 00                   jmp    0x01002877
                           .text:0100250a cc                               int3   
                           .text:0100250b cc                               int3   
                           .text:0100250c cc                               int3   
                           .text:0100250d cc                               int3   
                           .text:0100250e cc                               int3   
                           .text:0100250f 8b ff                            mov    %edi,%edi
                           .text:01002511 55                               push   %ebp
                           .text:01002512 8b ec                            mov    %esp,%ebp
                           .text:01002514 8b 45 08                         mov    0x8(%ebp),%eax
                           .text:01002517 8b 00                            mov    (%eax),%eax
                           .text:01002519 81 38 63 73 6d e0                cmpl   $0xe06d7363,(%eax)
                           .text:0100251f 75 2b                            jne    0x0100254c
                           .text:01002521 83 78 10 03                      cmpl   $0x3,0x10(%eax)
                           .text:01002525 75 25                            jne    0x0100254c
                           .text:01002527 8b 40 14                         mov    0x14(%eax),%eax
                           .text:0100252a 3d 20 05 93 19                   cmp    $0x19930520,%eax
                           .text:0100252f 74 15                            je     0x01002546
                           .text:01002531 3d 21 05 93 19                   cmp    $0x19930521,%eax
                           .text:01002536 74 0e                            je     0x01002546
                           .text:01002538 3d 22 05 93 19                   cmp    $0x19930522,%eax
                           .text:0100253d 74 07                            je     0x01002546
                           .text:0100253f 3d 00 40 99 01                   cmp    $0x1994000,%eax
                           .text:01002544 75 06                            jne    0x0100254c
                           .text:01002546 ff 15 7c 10 00 01                call   *0x100107c
                           .text:0100254c 33 c0                            xor    %eax,%eax
                           .text:0100254e 5d                               pop    %ebp
                           .text:0100254f c2 04 00                         ret    $0x4
                           .text:01002552 cc                               int3   
                           .text:01002553 cc                               int3   
                           .text:01002554 cc                               int3   
                           .text:01002555 cc                               int3   
                           .text:01002556 cc                               int3   
                           .text:01002557 68 0f 25 00 01                   push   $0x100250f
                           .text:0100255c ff 15 28 10 00 01                call   *0x1001028
                           .text:01002562 33 c0                            xor    %eax,%eax
                           .text:01002564 c3                               ret    
                           .text:01002565 cc                               int3   
                           .text:01002566 cc                               int3   
                           .text:01002567 cc                               int3   
                           .text:01002568 cc                               int3   
                           .text:01002569 cc                               int3   
                           .text:0100256a ff 25 5c 10 00 01                jmp    *0x100105c
                           .text:01002570 cc                               int3   
                           .text:01002571 cc                               int3   
                           .text:01002572 cc                               int3   
                           .text:01002573 cc                               int3   
                           .text:01002574 cc                               int3   
                           .text:01002575 cc                               int3   
                           .text:01002576 cc                               int3   
                           .text:01002577 cc                               int3   
                           .text:01002578 cc                               int3   
                           .text:01002579 cc                               int3   
                           .text:0100257a cc                               int3   
                           .text:0100257b cc                               int3   
                           .text:0100257c cc                               int3   
                           .text:0100257d cc                               int3   
                           .text:0100257e cc                               int3   
                           .text:0100257f cc                               int3   
                           .text:01002580 8b ff                            mov    %edi,%edi
                           .text:01002582 55                               push   %ebp
                           .text:01002583 8b ec                            mov    %esp,%ebp
                           .text:01002585 8b 4d 08                         mov    0x8(%ebp),%ecx
                           .text:01002588 b8 4d 5a 00 00                   mov    $0x5a4d,%eax
                           .text:0100258d 66 39 01                         cmp    %ax,(%ecx)
                           .text:01002590 74 04                            je     0x01002596
                           .text:01002592 33 c0                            xor    %eax,%eax
                           .text:01002594 5d                               pop    %ebp
                           .text:01002595 c3                               ret    
                           .text:01002596 8b 41 3c                         mov    0x3c(%ecx),%eax
                           .text:01002599 03 c1                            add    %ecx,%eax
                           .text:0100259b 81 38 50 45 00 00                cmpl   $0x4550,(%eax)
                           .text:010025a1 75 ef                            jne    0x01002592
                           .text:010025a3 33 d2                            xor    %edx,%edx
                           .text:010025a5 b9 0b 01 00 00                   mov    $0x10b,%ecx
                           .text:010025aa 66 39 48 18                      cmp    %cx,0x18(%eax)
                           .text:010025ae 0f 94 c2                         sete   %dl
                           .text:010025b1 8b c2                            mov    %edx,%eax
                           .text:010025b3 5d                               pop    %ebp
                           .text:010025b4 c3                               ret    
                           .text:010025b5 cc                               int3   
                           .text:010025b6 cc                               int3   
                           .text:010025b7 cc                               int3   
                           .text:010025b8 cc                               int3   
                           .text:010025b9 cc                               int3   
                           .text:010025ba cc                               int3   
                           .text:010025bb cc                               int3   
                           .text:010025bc cc                               int3   
                           .text:010025bd cc                               int3   
                           .text:010025be cc                               int3   
                           .text:010025bf cc                               int3   
                           .text:010025c0 8b ff                            mov    %edi,%edi
                           .text:010025c2 55                               push   %ebp
                           .text:010025c3 8b ec                            mov    %esp,%ebp
                           .text:010025c5 8b 45 08                         mov    0x8(%ebp),%eax
                           .text:010025c8 8b 48 3c                         mov    0x3c(%eax),%ecx
                           .text:010025cb 03 c8                            add    %eax,%ecx
                           .text:010025cd 0f b7 41 14                      movzwl 0x14(%ecx),%eax
                           .text:010025d1 53                               push   %ebx
                           .text:010025d2 56                               push   %esi
                           .text:010025d3 0f b7 71 06                      movzwl 0x6(%ecx),%esi
                           .text:010025d7 33 d2                            xor    %edx,%edx
                           .text:010025d9 57                               push   %edi
                           .text:010025da 8d 44 08 18                      lea    0x18(%eax,%ecx,1),%eax
                           .text:010025de 85 f6                            test   %esi,%esi
                           .text:010025e0 76 1b                            jbe    0x010025fd
                           .text:010025e2 8b 7d 0c                         mov    0xc(%ebp),%edi
                           .text:010025e5 8b 48 0c                         mov    0xc(%eax),%ecx
                           .text:010025e8 3b f9                            cmp    %ecx,%edi
                           .text:010025ea 72 09                            jb     0x010025f5
                           .text:010025ec 8b 58 08                         mov    0x8(%eax),%ebx
                           .text:010025ef 03 d9                            add    %ecx,%ebx
                           .text:010025f1 3b fb                            cmp    %ebx,%edi
                           .text:010025f3 72 0a                            jb     0x010025ff
                           .text:010025f5 42                               inc    %edx
                           .text:010025f6 83 c0 28                         add    $0x28,%eax
                           .text:010025f9 3b d6                            cmp    %esi,%edx
                           .text:010025fb 72 e8                            jb     0x010025e5
                           .text:010025fd 33 c0                            xor    %eax,%eax
                           .text:010025ff 5f                               pop    %edi
                           .text:01002600 5e                               pop    %esi
                           .text:01002601 5b                               pop    %ebx
                           .text:01002602 5d                               pop    %ebp
                           .text:01002603 c3                               ret    
                           .text:01002604 cc                               int3   
                           .text:01002605 cc                               int3   
                           .text:01002606 cc                               int3   
                           .text:01002607 cc                               int3   
                           .text:01002608 cc                               int3   
                           .text:01002609 6a 08                            push   $0x8
                           .text:0100260b 68 88 29 00 01                   push   $0x1002988
                           .text:01002610 e8 7f 00 00 00                   call   0x01002694
                           .text:01002615 83 65 fc 00                      andl   $0x0,-0x4(%ebp)
                           .text:01002619 be 00 00 00 01                   mov    $0x1000000,%esi
                           .text:0100261e 56                               push   %esi
                           .text:0100261f e8 5c ff ff ff                   call   0x01002580
                           .text:01002624 59                               pop    %ecx
                           .text:01002625 85 c0                            test   %eax,%eax
                           .text:01002627 74 3d                            je     0x01002666
                           .text:01002629 8b 45 08                         mov    0x8(%ebp),%eax
                           .text:0100262c 2b c6                            sub    %esi,%eax
                           .text:0100262e 50                               push   %eax
                           .text:0100262f 56                               push   %esi
                           .text:01002630 e8 8b ff ff ff                   call   0x010025c0
                           .text:01002635 59                               pop    %ecx
                           .text:01002636 59                               pop    %ecx
                           .text:01002637 85 c0                            test   %eax,%eax
                           .text:01002639 74 2b                            je     0x01002666
                           .text:0100263b 8b 40 24                         mov    0x24(%eax),%eax
                           .text:0100263e c1 e8 1f                         shr    $0x1f,%eax
                           .text:01002641 f7 d0                            not    %eax
                           .text:01002643 83 e0 01                         and    $0x1,%eax
                           .text:01002646 c7 45 fc fe ff ff ff             movl   $0xfffffffe,-0x4(%ebp)
                           .text:0100264d eb 20                            jmp    0x0100266f
                           .text:0100264f 8b 45 ec                         mov    -0x14(%ebp),%eax
                           .text:01002652 8b 00                            mov    (%eax),%eax
                           .text:01002654 8b 00                            mov    (%eax),%eax
                           .text:01002656 33 c9                            xor    %ecx,%ecx
                           .text:01002658 3d 05 00 00 c0                   cmp    $0xc0000005,%eax
                           .text:0100265d 0f 94 c1                         sete   %cl
                           .text:01002660 8b c1                            mov    %ecx,%eax
                           .text:01002662 c3                               ret    
                           .text:01002663 8b 65 e8                         mov    -0x18(%ebp),%esp
                           .text:01002666 c7 45 fc fe ff ff ff             movl   $0xfffffffe,-0x4(%ebp)
                           .text:0100266d 33 c0                            xor    %eax,%eax
                           .text:0100266f e8 65 00 00 00                   call   0x010026d9
                           .text:01002674 c3                               ret    
                           .text:01002675 cc                               int3   
                           .text:01002676 cc                               int3   
                           .text:01002677 cc                               int3   
                           .text:01002678 cc                               int3   
                           .text:01002679 cc                               int3   
                           .text:0100267a ff 25 64 10 00 01                jmp    *0x1001064
                           .text:01002680 cc                               int3   
                           .text:01002681 cc                               int3   
                           .text:01002682 cc                               int3   
                           .text:01002683 cc                               int3   
                           .text:01002684 cc                               int3   
                           .text:01002685 cc                               int3   
                           .text:01002686 ff 25 68 10 00 01                jmp    *0x1001068
                           .text:0100268c cc                               int3   
                           .text:0100268d cc                               int3   
                           .text:0100268e cc                               int3   
                           .text:0100268f cc                               int3   
                           .text:01002690 cc                               int3   
                           .text:01002691 cc                               int3   
                           .text:01002692 cc                               int3   
                           .text:01002693 cc                               int3   
                           .text:01002694 68 f2 26 00 01                   push   $0x10026f2
                           .text:01002699 64 ff 35 00 00 00 00             pushl  %fs:0x0
                           .text:010026a0 8b 44 24 10                      mov    0x10(%esp),%eax
                           .text:010026a4 89 6c 24 10                      mov    %ebp,0x10(%esp)
                           .text:010026a8 8d 6c 24 10                      lea    0x10(%esp),%ebp
                           .text:010026ac 2b e0                            sub    %eax,%esp
                           .text:010026ae 53                               push   %ebx
                           .text:010026af 56                               push   %esi
                           .text:010026b0 57                               push   %edi
                           .text:010026b1 a1 00 40 00 01                   mov    0x1004000,%eax
                           .text:010026b6 31 45 fc                         xor    %eax,-0x4(%ebp)
                           .text:010026b9 33 c5                            xor    %ebp,%eax
                           .text:010026bb 50                               push   %eax
                           .text:010026bc 89 65 e8                         mov    %esp,-0x18(%ebp)
                           .text:010026bf ff 75 f8                         pushl  -0x8(%ebp)
                           .text:010026c2 8b 45 fc                         mov    -0x4(%ebp),%eax
                           .text:010026c5 c7 45 fc fe ff ff ff             movl   $0xfffffffe,-0x4(%ebp)
                           .text:010026cc 89 45 f8                         mov    %eax,-0x8(%ebp)
                           .text:010026cf 8d 45 f0                         lea    -0x10(%ebp),%eax
                           .text:010026d2 64 a3 00 00 00 00                mov    %eax,%fs:0x0
                           .text:010026d8 c3                               ret    
                           .text:010026d9 8b 4d f0                         mov    -0x10(%ebp),%ecx
                           .text:010026dc 64 89 0d 00 00 00 00             mov    %ecx,%fs:0x0
                           .text:010026e3 59                               pop    %ecx
                           .text:010026e4 5f                               pop    %edi
                           .text:010026e5 5f                               pop    %edi
                           .text:010026e6 5e                               pop    %esi
                           .text:010026e7 5b                               pop    %ebx
                           .text:010026e8 8b e5                            mov    %ebp,%esp
                           .text:010026ea 5d                               pop    %ebp
                           .text:010026eb 51                               push   %ecx
                           .text:010026ec c3                               ret    
                           .text:010026ed cc                               int3   
                           .text:010026ee cc                               int3   
                           .text:010026ef cc                               int3   
                           .text:010026f0 cc                               int3   
                           .text:010026f1 cc                               int3   
                           .text:010026f2 8b ff                            mov    %edi,%edi
                           .text:010026f4 55                               push   %ebp
                           .text:010026f5 8b ec                            mov    %esp,%ebp
                           .text:010026f7 ff 75 14                         pushl  0x14(%ebp)
                           .text:010026fa ff 75 10                         pushl  0x10(%ebp)
                           .text:010026fd ff 75 0c                         pushl  0xc(%ebp)
                           .text:01002700 ff 75 08                         pushl  0x8(%ebp)
                           .text:01002703 68 fa 24 00 01                   push   $0x10024fa
                           .text:01002708 68 00 40 00 01                   push   $0x1004000
                           .text:0100270d e8 4c 02 00 00                   call   0x0100295e
                           .text:01002712 83 c4 18                         add    $0x18,%esp
                           .text:01002715 5d                               pop    %ebp
                           .text:01002716 c3                               ret    
                           .text:01002717 cc                               int3   
                           .text:01002718 cc                               int3   
                           .text:01002719 cc                               int3   
                           .text:0100271a cc                               int3   
                           .text:0100271b cc                               int3   
                           .text:0100271c 68 00 00 03 00                   push   $0x30000
                           .text:01002721 68 00 00 01 00                   push   $0x10000
                           .text:01002726 ff 15 48 10 00 01                call   *0x1001048
                           .text:0100272c 59                               pop    %ecx
                           .text:0100272d 59                               pop    %ecx
                           .text:0100272e c3                               ret    
                           .text:0100272f cc                               int3   
                           .text:01002730 cc                               int3   
                           .text:01002731 cc                               int3   
                           .text:01002732 cc                               int3   
                           .text:01002733 cc                               int3   
                           .text:01002734 33 c0                            xor    %eax,%eax
                           .text:01002736 c3                               ret    
                           .text:01002737 cc                               int3   
                           .text:01002738 cc                               int3   
                           .text:01002739 cc                               int3   
                           .text:0100273a cc                               int3   
                           .text:0100273b cc                               int3   
                           .text:0100273c 6a 0c                            push   $0xc
                           .text:0100273e 68 a8 29 00 01                   push   $0x10029a8
                           .text:01002743 e8 4c ff ff ff                   call   0x01002694
                           .text:01002748 33 c0                            xor    %eax,%eax
                           .text:0100274a 8b 4d 08                         mov    0x8(%ebp),%ecx
                           .text:0100274d 85 c9                            test   %ecx,%ecx
                           .text:0100274f 74 44                            je     0x01002795
                           .text:01002751 83 f9 ff                         cmp    $0xffffffff,%ecx
                           .text:01002754 74 3f                            je     0x01002795
                           .text:01002756 21 45 fc                         and    %eax,-0x4(%ebp)
                           .text:01002759 ba 4d 5a 00 00                   mov    $0x5a4d,%edx
                           .text:0100275e 66 39 11                         cmp    %dx,(%ecx)
                           .text:01002761 75 2b                            jne    0x0100278e
                           .text:01002763 8b 51 3c                         mov    0x3c(%ecx),%edx
                           .text:01002766 85 d2                            test   %edx,%edx
                           .text:01002768 7c 24                            jl     0x0100278e
                           .text:0100276a 81 fa 00 00 00 10                cmp    $0x10000000,%edx
                           .text:01002770 73 1c                            jae    0x0100278e
                           .text:01002772 8d 04 0a                         lea    (%edx,%ecx,1),%eax
                           .text:01002775 89 45 e4                         mov    %eax,-0x1c(%ebp)
                           .text:01002778 81 38 50 45 00 00                cmpl   $0x4550,(%eax)
                           .text:0100277e 74 0e                            je     0x0100278e
                           .text:01002780 eb 07                            jmp    0x01002789
                           .text:01002782 33 c0                            xor    %eax,%eax
                           .text:01002784 40                               inc    %eax
                           .text:01002785 c3                               ret    
                           .text:01002786 8b 65 e8                         mov    -0x18(%ebp),%esp
                           .text:01002789 33 c0                            xor    %eax,%eax
                           .text:0100278b 89 45 e4                         mov    %eax,-0x1c(%ebp)
                           .text:0100278e c7 45 fc fe ff ff ff             movl   $0xfffffffe,-0x4(%ebp)
                           .text:01002795 e8 3f ff ff ff                   call   0x010026d9
                           .text:0100279a c2 04 00                         ret    $0x4
                           .text:0100279d cc                               int3   
                           .text:0100279e cc                               int3   
                           .text:0100279f cc                               int3   
                           .text:010027a0 cc                               int3   
                           .text:010027a1 cc                               int3   
                           .text:010027a2 8b ff                            mov    %edi,%edi
                           .text:010027a4 55                               push   %ebp
                           .text:010027a5 8b ec                            mov    %esp,%ebp
                           .text:010027a7 6a 00                            push   $0x0
                           .text:010027a9 ff 15 24 10 00 01                call   *0x1001024
                           .text:010027af 85 c0                            test   %eax,%eax
                           .text:010027b1 74 24                            je     0x010027d7
                           .text:010027b3 50                               push   %eax
                           .text:010027b4 e8 83 ff ff ff                   call   0x0100273c
                           .text:010027b9 85 c0                            test   %eax,%eax
                           .text:010027bb 74 1a                            je     0x010027d7
                           .text:010027bd 0f b7 40 5c                      movzwl 0x5c(%eax),%eax
                           .text:010027c1 66 83 f8 02                      cmp    $0x2,%ax
                           .text:010027c5 75 05                            jne    0x010027cc
                           .text:010027c7 6a 02                            push   $0x2
                           .text:010027c9 58                               pop    %eax
                           .text:010027ca 5d                               pop    %ebp
                           .text:010027cb c3                               ret    
                           .text:010027cc 66 83 f8 03                      cmp    $0x3,%ax
                           .text:010027d0 75 05                            jne    0x010027d7
                           .text:010027d2 33 c0                            xor    %eax,%eax
                           .text:010027d4 40                               inc    %eax
                           .text:010027d5 5d                               pop    %ebp
                           .text:010027d6 c3                               ret    
                           .text:010027d7 8b 45 08                         mov    0x8(%ebp),%eax
                           .text:010027da 5d                               pop    %ebp
                           .text:010027db c3                               ret    
                           .text:010027dc cc                               int3   
                           .text:010027dd cc                               int3   
                           .text:010027de cc                               int3   
                           .text:010027df cc                               int3   
                           .text:010027e0 cc                               int3   
                           .text:010027e1 8b ff                            mov    %edi,%edi
                           .text:010027e3 55                               push   %ebp
                           .text:010027e4 8b ec                            mov    %esp,%ebp
                           .text:010027e6 83 ec 10                         sub    $0x10,%esp
                           .text:010027e9 a1 00 40 00 01                   mov    0x1004000,%eax
                           .text:010027ee 83 65 f8 00                      andl   $0x0,-0x8(%ebp)
                           .text:010027f2 83 65 fc 00                      andl   $0x0,-0x4(%ebp)
                           .text:010027f6 53                               push   %ebx
                           .text:010027f7 57                               push   %edi
                           .text:010027f8 bf 4e e6 40 bb                   mov    $0xbb40e64e,%edi
                           .text:010027fd bb 00 00 ff ff                   mov    $0xffff0000,%ebx
                           .text:01002802 3b c7                            cmp    %edi,%eax
                           .text:01002804 74 0d                            je     0x01002813
                           .text:01002806 85 c3                            test   %eax,%ebx
                           .text:01002808 74 09                            je     0x01002813
                           .text:0100280a f7 d0                            not    %eax
                           .text:0100280c a3 04 40 00 01                   mov    %eax,0x1004004
                           .text:01002811 eb 5b                            jmp    0x0100286e
                           .text:01002813 56                               push   %esi
                           .text:01002814 8d 45 f8                         lea    -0x8(%ebp),%eax
                           .text:01002817 50                               push   %eax
                           .text:01002818 ff 15 10 10 00 01                call   *0x1001010
                           .text:0100281e 8b 75 fc                         mov    -0x4(%ebp),%esi
                           .text:01002821 33 75 f8                         xor    -0x8(%ebp),%esi
                           .text:01002824 ff 15 14 10 00 01                call   *0x1001014
                           .text:0100282a 33 f0                            xor    %eax,%esi
                           .text:0100282c ff 15 18 10 00 01                call   *0x1001018
                           .text:01002832 33 f0                            xor    %eax,%esi
                           .text:01002834 ff 15 1c 10 00 01                call   *0x100101c
                           .text:0100283a 33 f0                            xor    %eax,%esi
                           .text:0100283c 8d 45 f0                         lea    -0x10(%ebp),%eax
                           .text:0100283f 50                               push   %eax
                           .text:01002840 ff 15 20 10 00 01                call   *0x1001020
                           .text:01002846 8b 45 f4                         mov    -0xc(%ebp),%eax
                           .text:01002849 33 45 f0                         xor    -0x10(%ebp),%eax
                           .text:0100284c 33 f0                            xor    %eax,%esi
                           .text:0100284e 3b f7                            cmp    %edi,%esi
                           .text:01002850 74 08                            je     0x0100285a
                           .text:01002852 85 1d 00 40 00 01                test   %ebx,0x1004000
                           .text:01002858 75 05                            jne    0x0100285f
                           .text:0100285a be 4f e6 40 bb                   mov    $0xbb40e64f,%esi
                           .text:0100285f 89 35 00 40 00 01                mov    %esi,0x1004000
                           .text:01002865 f7 d6                            not    %esi
                           .text:01002867 89 35 04 40 00 01                mov    %esi,0x1004004
                           .text:0100286d 5e                               pop    %esi
                           .text:0100286e 5f                               pop    %edi
                           .text:0100286f 5b                               pop    %ebx
                           .text:01002870 c9                               leave  
                           .text:01002871 c3                               ret    
                           .text:01002872 cc                               int3   
                           .text:01002873 cc                               int3   
                           .text:01002874 cc                               int3   
                           .text:01002875 cc                               int3   
                           .text:01002876 cc                               int3   
                           .text:01002877 8b ff                            mov    %edi,%edi
                           .text:01002879 55                               push   %ebp
                           .text:0100287a 8b ec                            mov    %esp,%ebp
                           .text:0100287c 81 ec 28 03 00 00                sub    $0x328,%esp
                           .text:01002882 a3 48 41 00 01                   mov    %eax,0x1004148
                           .text:01002887 89 0d 44 41 00 01                mov    %ecx,0x1004144
                           .text:0100288d 89 15 40 41 00 01                mov    %edx,0x1004140
                           .text:01002893 89 1d 3c 41 00 01                mov    %ebx,0x100413c
                           .text:01002899 89 35 38 41 00 01                mov    %esi,0x1004138
                           .text:0100289f 89 3d 34 41 00 01                mov    %edi,0x1004134
                           .text:010028a5 66 8c 15 60 41 00 01             data16 mov %ss,0x1004160
                           .text:010028ac 66 8c 0d 54 41 00 01             data16 mov %cs,0x1004154
                           .text:010028b3 66 8c 1d 30 41 00 01             data16 mov %ds,0x1004130
                           .text:010028ba 66 8c 05 2c 41 00 01             data16 mov %es,0x100412c
                           .text:010028c1 66 8c 25 28 41 00 01             data16 mov %fs,0x1004128
                           .text:010028c8 66 8c 2d 24 41 00 01             data16 mov %gs,0x1004124
                           .text:010028cf 9c                               pushf  
                           .text:010028d0 8f 05 58 41 00 01                popl   0x1004158
                           .text:010028d6 8b 45 00                         mov    0x0(%ebp),%eax
                           .text:010028d9 a3 4c 41 00 01                   mov    %eax,0x100414c
                           .text:010028de 8b 45 04                         mov    0x4(%ebp),%eax
                           .text:010028e1 a3 50 41 00 01                   mov    %eax,0x1004150
                           .text:010028e6 8d 45 08                         lea    0x8(%ebp),%eax
                           .text:010028e9 a3 5c 41 00 01                   mov    %eax,0x100415c
                           .text:010028ee 8b 85 e0 fc ff ff                mov    -0x320(%ebp),%eax
                           .text:010028f4 c7 05 98 40 00 01 01 00 01 00    movl   $0x10001,0x1004098
                           .text:010028fe a1 50 41 00 01                   mov    0x1004150,%eax
                           .text:01002903 a3 54 40 00 01                   mov    %eax,0x1004054
                           .text:01002908 c7 05 48 40 00 01 09 04 00 c0    movl   $0xc0000409,0x1004048
                           .text:01002912 c7 05 4c 40 00 01 01 00 00 00    movl   $0x1,0x100404c
                           .text:0100291c a1 00 40 00 01                   mov    0x1004000,%eax
                           .text:01002921 89 85 d8 fc ff ff                mov    %eax,-0x328(%ebp)
                           .text:01002927 a1 04 40 00 01                   mov    0x1004004,%eax
                           .text:0100292c 89 85 dc fc ff ff                mov    %eax,-0x324(%ebp)
                           .text:01002932 6a 00                            push   $0x0
                           .text:01002934 ff 15 28 10 00 01                call   *0x1001028
                           .text:0100293a 68 d4 11 00 01                   push   $0x10011d4
                           .text:0100293f ff 15 38 10 00 01                call   *0x1001038
                           .text:01002945 68 09 04 00 c0                   push   $0xc0000409
                           .text:0100294a ff 15 08 10 00 01                call   *0x1001008
                           .text:01002950 50                               push   %eax
                           .text:01002951 ff 15 0c 10 00 01                call   *0x100100c
                           .text:01002957 c9                               leave  
                           .text:01002958 c3                               ret    
                           .text:01002959 cc                               int3   
                           .text:0100295a cc                               int3   
                           .text:0100295b cc                               int3   
                           .text:0100295c cc                               int3   
                           .text:0100295d cc                               int3   
                           .text:0100295e ff 25 54 10 00 01                jmp    *0x1001054
                           .text:01002964 cc                               int3   
                           .text:01002965 cc                               int3   
                           .text:01002966 cc                               int3   
                           .text:01002967 cc                               int3   
                           .text:01002968 fe                               (bad)  
                           .text:01002969 ff                               (bad)  
                           .text:0100296a ff                               (bad)  
                           .text:0100296b ff 00                            incl   (%eax)
                           .text:0100296d 00 00                            add    %al,(%eax)
                           .text:0100296f 00 d0                            add    %dl,%al
                           .text:01002971 ff                               (bad)  
                           .text:01002972 ff                               (bad)  
                           .text:01002973 ff 00                            incl   (%eax)
                           .text:01002975 00 00                            add    %al,(%eax)
                           .text:01002977 00 fe                            add    %bh,%dh
                           .text:01002979 ff                               (bad)  
                           .text:0100297a ff                               (bad)  
                           .text:0100297b ff d1                            call   *%ecx
                           .text:0100297d 23 00                            and    (%eax),%eax
                           .text:0100297f 01 e5                            add    %esp,%ebp
                           .text:01002981 23 00                            and    (%eax),%eax
                           .text:01002983 01 00                            add    %eax,(%eax)
                           .text:01002985 00 00                            add    %al,(%eax)
                           .text:01002987 00 fe                            add    %bh,%dh
                           .text:01002989 ff                               (bad)  
                           .text:0100298a ff                               (bad)  
                           .text:0100298b ff 00                            incl   (%eax)
                           .text:0100298d 00 00                            add    %al,(%eax)
                           .text:0100298f 00 d8                            add    %bl,%al
                           .text:01002991 ff                               (bad)  
                           .text:01002992 ff                               (bad)  
                           .text:01002993 ff 00                            incl   (%eax)
                           .text:01002995 00 00                            add    %al,(%eax)
                           .text:01002997 00 fe                            add    %bh,%dh
                           .text:01002999 ff                               (bad)  
                           .text:0100299a ff                               (bad)  
                           .text:0100299b ff 4f 26                         decl   0x26(%edi)
                           .text:0100299e 00 01                            add    %al,(%ecx)
                           .text:010029a0 63 26                            arpl   %sp,(%esi)
                           .text:010029a2 00 01                            add    %al,(%ecx)
                           .text:010029a4 00 00                            add    %al,(%eax)
                           .text:010029a6 00 00                            add    %al,(%eax)
                           .text:010029a8 fe                               (bad)  
                           .text:010029a9 ff                               (bad)  
                           .text:010029aa ff                               (bad)  
                           .text:010029ab ff 00                            incl   (%eax)
                           .text:010029ad 00 00                            add    %al,(%eax)
                           .text:010029af 00 d4                            add    %dl,%ah
                           .text:010029b1 ff                               (bad)  
                           .text:010029b2 ff                               (bad)  
                           .text:010029b3 ff 00                            incl   (%eax)
                           .text:010029b5 00 00                            add    %al,(%eax)
                           .text:010029b7 00 fe                            add    %bh,%dh
                           .text:010029b9 ff                               (bad)  
                           .text:010029ba ff                               (bad)  
                           .text:010029bb ff 82 27 00 01 86                incl   -0x79feffd9(%edx)
                           .text:010029c1 27                               daa    
                           .text:010029c2 00 01                            add    %al,(%ecx)
                           .text:010029c4 3c 2a                            cmp    $0x2a,%al
                           .text:010029c6 00 00                            add    %al,(%eax)
                           .text:010029c8 ff                               (bad)  
                           .text:010029c9 ff                               (bad)  
                           .text:010029ca ff                               (bad)  
                           .text:010029cb ff                               (bad)  
                           .text:010029cc ff                               (bad)  
                           .text:010029cd ff                               (bad)  
                           .text:010029ce ff                               (bad)  
                           .text:010029cf ff c2                            inc    %edx
                           .text:010029d1 2b 00                            sub    (%eax),%eax
                           .text:010029d3 00 00                            add    %al,(%eax)
                           .text:010029d5 10 00                            adc    %al,(%eax)
                           .text:010029d7 00 84 2a 00 00 ff ff             add    %al,-0x10000(%edx,%ebp,1)
                           .text:010029de ff                               (bad)  
                           .text:010029df ff                               (bad)  
                           .text:010029e0 ff                               (bad)  
                           .text:010029e1 ff                               (bad)  
                           .text:010029e2 ff                               (bad)  
                           .text:010029e3 ff                               (bad)  
                           .text:010029e4 7c 2c                            jl     0x01002a12
                           .text:010029e6 00 00                            add    %al,(%eax)
                           .text:010029e8 48                               dec    %eax
                           .text:010029e9 10 00                            adc    %al,(%eax)
                           .text:010029eb 00 e0                            add    %ah,%al
                           .text:010029ed 2a 00                            sub    (%eax),%al
                           .text:010029ef 00 ff                            add    %bh,%bh
                           .text:010029f1 ff                               (bad)  
                           .text:010029f2 ff                               (bad)  
                           .text:010029f3 ff                               (bad)  
                           .text:010029f4 ff                               (bad)  
                           .text:010029f5 ff                               (bad)  
                           .text:010029f6 ff                               (bad)  
                           .text:010029f7 ff 12                            call   *(%edx)
                           .text:010029f9 33 00                            xor    (%eax),%eax
                           .text:010029fb 00 a4 10 00 00 7c 2a             add    %ah,0x2a7c0000(%eax,%edx,1)
                           .text:01002a02 00 00                            add    %al,(%eax)
                           .text:01002a04 ff                               (bad)  
                           .text:01002a05 ff                               (bad)  
                           .text:01002a06 ff                               (bad)  
                           .text:01002a07 ff                               (bad)  
                           .text:01002a08 ff                               (bad)  
                           .text:01002a09 ff                               (bad)  
                           .text:01002a0a ff                               (bad)  
                           .text:01002a0b ff 5c 33 00                      lcall  *0x0(%ebx,%esi,1)
                           .text:01002a0f 00 40 10                         add    %al,0x10(%eax)
                           .text:01002a12 00 00                            add    %al,(%eax)
                           .text:01002a14 c8 2a 00 00                      enter  $0x2a,$0x0
                           .text:01002a18 ff                               (bad)  
                           .text:01002a19 ff                               (bad)  
                           .text:01002a1a ff                               (bad)  
                           .text:01002a1b ff                               (bad)  
                           .text:01002a1c ff                               (bad)  
                           .text:01002a1d ff                               (bad)  
                           .text:01002a1e ff                               (bad)  
                           .text:01002a1f ff cc                            dec    %esp
                           .text:01002a21 33 00                            xor    (%eax),%eax
                           .text:01002a23 00 8c 10 00 00 00 00             add    %cl,0x0(%eax,%edx,1)
                           .text:01002a2a 00 00                            add    %al,(%eax)
                           .text:01002a2c 00 00                            add    %al,(%eax)
                           .text:01002a2e 00 00                            add    %al,(%eax)
                           .text:01002a30 00 00                            add    %al,(%eax)
                           .text:01002a32 00 00                            add    %al,(%eax)
                           .text:01002a34 00 00                            add    %al,(%eax)
                           .text:01002a36 00 00                            add    %al,(%eax)
                           .text:01002a38 00 00                            add    %al,(%eax)
                           .text:01002a3a 00 00                            add    %al,(%eax)
                           .text:01002a3c 94                               xchg   %eax,%esp
                           .text:01002a3d 2b 00                            sub    (%eax),%eax
                           .text:01002a3f 00 ac 2b 00 00 c8 34             add    %ch,0x34c80000(%ebx,%ebp,1)
                           .text:01002a46 00 00                            add    %al,(%eax)
                           .text:01002a48 b4 34                            mov    $0x34,%ah
                           .text:01002a4a 00 00                            add    %al,(%eax)
                           .text:01002a4c 9a 34 00 00 84 34 00             lcall  $0x34,$0x84000034
                           .text:01002a53 00 6e 34                         add    %ch,0x34(%esi)
                           .text:01002a56 00 00                            add    %al,(%eax)
                           .text:01002a58 5e                               pop    %esi
                           .text:01002a59 34 00                            xor    $0x0,%al
                           .text:01002a5b 00 44 34 00                      add    %al,0x0(%esp,%esi,1)
                           .text:01002a5f 00 30                            add    %dh,(%eax)
                           .text:01002a61 34 00                            xor    $0x0,%al
                           .text:01002a63 00 12                            add    %dl,(%edx)
                           .text:01002a65 34 00                            xor    $0x0,%al
                           .text:01002a67 00 f4                            add    %dh,%ah
                           .text:01002a69 33 00                            xor    (%eax),%eax
                           .text:01002a6b 00 ec                            add    %ch,%ah
                           .text:01002a6d 33 00                            xor    (%eax),%eax
                           .text:01002a6f 00 d6                            add    %dl,%dh
                           .text:01002a71 33 00                            xor    (%eax),%eax
                           .text:01002a73 00 dc                            add    %bl,%ah
                           .text:01002a75 34 00                            xor    $0x0,%al
                           .text:01002a77 00 00                            add    %al,(%eax)
                           .text:01002a79 00 00                            add    %al,(%eax)
                           .text:01002a7b 00 1c 33                         add    %bl,(%ebx,%esi,1)
                           .text:01002a7e 00 00                            add    %al,(%eax)
                           .text:01002a80 00 00                            add    %al,(%eax)
                           .text:01002a82 00 00                            add    %al,(%eax)
                           .text:01002a84 b6 2c                            mov    $0x2c,%dh
                           .text:01002a86 00 00                            add    %al,(%eax)
                           .text:01002a88 dc 2b                            fsubrl (%ebx)
                           .text:01002a8a 00 00                            add    %al,(%eax)
                           .text:01002a8c e6 2b                            out    %al,$0x2b
                           .text:01002a8e 00 00                            add    %al,(%eax)
                           .text:01002a90 9c                               pushf  
                           .text:01002a91 2c 00                            sub    $0x0,%al
                           .text:01002a93 00 00                            add    %al,(%eax)
                           .text:01002a95 2c 00                            sub    $0x0,%al
                           .text:01002a97 00 08                            add    %cl,(%eax)
                           .text:01002a99 2c 00                            sub    $0x0,%al
                           .text:01002a9b 00 16                            add    %dl,(%esi)
                           .text:01002a9d 2c 00                            sub    $0x0,%al
                           .text:01002a9f 00 1e                            add    %bl,(%esi)
                           .text:01002aa1 2c 00                            sub    $0x0,%al
                           .text:01002aa3 00 2a                            add    %ch,(%edx)
                           .text:01002aa5 2c 00                            sub    $0x0,%al
                           .text:01002aa7 00 38                            add    %bh,(%eax)
                           .text:01002aa9 2c 00                            sub    $0x0,%al
                           .text:01002aab 00 4c 2c 00                      add    %cl,0x0(%esp,%ebp,1)
                           .text:01002aaf 00 5c 2c 00                      add    %bl,0x0(%esp,%ebp,1)
                           .text:01002ab3 00 f6                            add    %dh,%dh
                           .text:01002ab5 2b 00                            sub    (%eax),%eax
                           .text:01002ab7 00 88 2c 00 00 d0                add    %cl,-0x2fffffd4(%eax)
                           .text:01002abd 2b 00                            sub    (%eax),%eax
                           .text:01002abf 00 6a 2c                         add    %ch,0x2c(%edx)
                           .text:01002ac2 00 00                            add    %al,(%eax)
                           .text:01002ac4 00 00                            add    %al,(%eax)
                           .text:01002ac6 00 00                            add    %al,(%eax)
                           .text:01002ac8 8e 33                            mov    (%ebx),%?
                           .text:01002aca 00 00                            add    %al,(%eax)
                           .text:01002acc 84 33                            test   %dh,(%ebx)
                           .text:01002ace 00 00                            add    %al,(%eax)
                           .text:01002ad0 76 33                            jbe    0x01002b05
                           .text:01002ad2 00 00                            add    %al,(%eax)
                           .text:01002ad4 68 33 00 00 ae                   push   $0xae000033
                           .text:01002ad9 33 00                            xor    (%eax),%eax
                           .text:01002adb 00 00                            add    %al,(%eax)
                           .text:01002add 00 00                            add    %al,(%eax)
                           .text:01002adf 00 9a 2f 00 00 d8                add    %bl,-0x27ffffd1(%edx)
                           .text:01002ae5 2f                               das    
                           .text:01002ae6 00 00                            add    %al,(%eax)
                           .text:01002ae8 08 30                            or     %dh,(%eax)
                           .text:01002aea 00 00                            add    %al,(%eax)
                           .text:01002aec 3a 30                            cmp    (%eax),%dh
                           .text:01002aee 00 00                            add    %al,(%eax)
                           .text:01002af0 5a                               pop    %edx
                           .text:01002af1 30 00                            xor    %al,(%eax)
                           .text:01002af3 00 86 30 00 00 ae                add    %al,-0x51ffffd0(%esi)
                           .text:01002af9 30 00                            xor    %al,(%eax)
                           .text:01002afb 00 96 2e 00 00 12                add    %dl,0x1200002e(%esi)
                           .text:01002b01 31 00                            xor    %eax,(%eax)
                           .text:01002b03 00 42 31                         add    %al,0x31(%edx)
                           .text:01002b06 00 00                            add    %al,(%eax)
                           .text:01002b08 76 31                            jbe    0x01002b3b
                           .text:01002b0a 00 00                            add    %al,(%eax)
                           .text:01002b0c 94                               xchg   %eax,%esp
                           .text:01002b0d 31 00                            xor    %eax,(%eax)
                           .text:01002b0f 00 b4 2e 00 00 f6 31             add    %dh,0x31f60000(%esi,%ebp,1)
                           .text:01002b16 00 00                            add    %al,(%eax)
                           .text:01002b18 24 32                            and    $0x32,%al
                           .text:01002b1a 00 00                            add    %al,(%eax)
                           .text:01002b1c 52                               push   %edx
                           .text:01002b1d 32 00                            xor    (%eax),%al
                           .text:01002b1f 00 64 32 00                      add    %ah,0x0(%edx,%esi,1)
                           .text:01002b23 00 80 32 00 00 a4                add    %al,-0x5bffffce(%eax)
                           .text:01002b29 32 00                            xor    (%eax),%al
                           .text:01002b2b 00 c2                            add    %al,%dl
                           .text:01002b2d 32 00                            xor    (%eax),%al
                           .text:01002b2f 00 d6                            add    %dl,%dh
                           .text:01002b31 32 00                            xor    (%eax),%al
                           .text:01002b33 00 f6                            add    %dh,%dh
                           .text:01002b35 32 00                            xor    (%eax),%al
                           .text:01002b37 00 52 2e                         add    %dl,0x2e(%edx)
                           .text:01002b3a 00 00                            add    %al,(%eax)
                           .text:01002b3c 32 2e                            xor    (%esi),%ch
                           .text:01002b3e 00 00                            add    %al,(%eax)
                           .text:01002b40 6a 2f                            push   $0x2f
                           .text:01002b42 00 00                            add    %al,(%eax)
                           .text:01002b44 56                               push   %esi
                           .text:01002b45 2f                               das    
                           .text:01002b46 00 00                            add    %al,(%eax)
                           .text:01002b48 36 2f                            ss das 
                           .text:01002b4a 00 00                            add    %al,(%eax)
                           .text:01002b4c 1a 2f                            sbb    (%edi),%ch
                           .text:01002b4e 00 00                            add    %al,(%eax)
                           .text:01002b50 fc                               cld    
                           .text:01002b51 2e 00 00                         add    %al,%cs:(%eax)
                           .text:01002b54 c6                               (bad)  
                           .text:01002b55 31 00                            xor    %eax,(%eax)
                           .text:01002b57 00 dc                            add    %bl,%ah
                           .text:01002b59 2e 00 00                         add    %al,%cs:(%eax)
                           .text:01002b5c fc                               cld    
                           .text:01002b5d 2d 00 00 d2 2d                   sub    $0x2dd20000,%eax
                           .text:01002b62 00 00                            add    %al,(%eax)
                           .text:01002b64 be 2d 00 00 9c                   mov    $0x9c00002d,%esi
                           .text:01002b69 2d 00 00 76 2d                   sub    $0x2d760000,%eax
                           .text:01002b6e 00 00                            add    %al,(%eax)
                           .text:01002b70 54                               push   %esp
                           .text:01002b71 2d 00 00 34 2d                   sub    $0x2d340000,%eax
                           .text:01002b76 00 00                            add    %al,(%eax)
                           .text:01002b78 1e                               push   %ds
                           .text:01002b79 2d 00 00 08 2d                   sub    $0x2d080000,%eax
                           .text:01002b7e 00 00                            add    %al,(%eax)
                           .text:01002b80 e2 2c                            loop   0x01002bae
                           .text:01002b82 00 00                            add    %al,(%eax)
                           .text:01002b84 c4 2c 00                         les    (%eax,%eax,1),%ebp
                           .text:01002b87 00 d8                            add    %bl,%al
                           .text:01002b89 30 00                            xor    %al,(%eax)
                           .text:01002b8b 00 88 2f 00 00 00                add    %cl,0x2f(%eax)
                           .text:01002b91 00 00                            add    %al,(%eax)
                           .text:01002b93 00 a7 02 47 65 74                add    %ah,0x74654702(%edi)
                           .text:01002b99 56                               push   %esi
                           .text:01002b9a 6f                               outsl  %ds:(%esi),(%dx)
                           .text:01002b9b 6c                               insb   (%dx),%es:(%edi)
                           .text:01002b9c 75 6d                            jne    0x01002c0b
                           .text:01002b9e 65 49                            gs dec %ecx
                           .text:01002ba0 6e                               outsb  %ds:(%esi),(%dx)
                           .text:01002ba1 66 6f                            outsw  %ds:(%esi),(%dx)
                           .text:01002ba3 72 6d                            jb     0x01002c12
                           .text:01002ba5 61                               popa   
                           .text:01002ba6 74 69                            je     0x01002c11
                           .text:01002ba8 6f                               outsl  %ds:(%esi),(%dx)
                           .text:01002ba9 6e                               outsb  %ds:(%esi),(%dx)
                           .text:01002baa 57                               push   %edi
                           .text:01002bab 00 d3                            add    %dl,%bl
                           .text:01002bad 02 48 65                         add    0x65(%eax),%cl
                           .text:01002bb0 61                               popa   
                           .text:01002bb1 70 53                            jo     0x01002c06
                           .text:01002bb3 65 74 49                         gs je  0x01002bff
                           .text:01002bb6 6e                               outsb  %ds:(%esi),(%dx)
                           .text:01002bb7 66 6f                            outsw  %ds:(%esi),(%dx)
                           .text:01002bb9 72 6d                            jb     0x01002c28
                           .text:01002bbb 61                               popa   
                           .text:01002bbc 74 69                            je     0x01002c27
                           .text:01002bbe 6f                               outsl  %ds:(%esi),(%dx)
                           .text:01002bbf 6e                               outsb  %ds:(%esi),(%dx)
                           .text:01002bc0 00 00                            add    %al,(%eax)
                           .text:01002bc2 4b                               dec    %ebx
                           .text:01002bc3 45                               inc    %ebp
                           .text:01002bc4 52                               push   %edx
                           .text:01002bc5 4e                               dec    %esi
                           .text:01002bc6 45                               inc    %ebp
                           .text:01002bc7 4c                               dec    %esp
                           .text:01002bc8 33 32                            xor    (%edx),%esi
                           .text:01002bca 2e 64 6c                         cs fs insb (%dx),%es:(%edi)
                           .text:01002bcd 6c                               insb   (%dx),%es:(%edi)
                           .text:01002bce 00 00                            add    %al,(%eax)
                           .text:01002bd0 ef                               out    %eax,(%dx)
                           .text:01002bd1 03 5f 77                         add    0x77(%edi),%ebx
                           .text:01002bd4 63 73 69                         arpl   %si,0x69(%ebx)
                           .text:01002bd7 63 6d 70                         arpl   %bp,0x70(%ebp)
                           .text:01002bda 00 00                            add    %al,(%eax)
                           .text:01002bdc 51                               push   %ecx
                           .text:01002bdd 05 77 63 73 63                   add    $0x63736377,%eax
                           .text:01002be2 68 72 00 00 91                   push   $0x91000072
                           .text:01002be7 00 5f 5f                         add    %bl,0x5f(%edi)
                           .text:01002bea 67 65 74 6d                      addr16 gs je 0x01002c5b
                           .text:01002bee 61                               popa   
                           .text:01002bef 69 6e 61 72 67 73 00             imul   $0x736772,0x61(%esi),%ebp
                           .text:01002bf6 14 01                            adc    $0x1,%al
                           .text:01002bf8 5f                               pop    %edi
                           .text:01002bf9 63 65 78                         arpl   %sp,0x78(%ebp)
                           .text:01002bfc 69 74 00 00 62 01 5f 65          imul   $0x655f0162,0x0(%eax,%eax,1),%esi
                           .text:01002c04 78 69                            js     0x01002c6f
                           .text:01002c06 74 00                            je     0x01002c08
                           .text:01002c08 6a 00                            push   $0x0
                           .text:01002c0a 5f                               pop    %edi
                           .text:01002c0b 58                               pop    %eax
                           .text:01002c0c 63 70 74                         arpl   %si,0x74(%eax)
                           .text:01002c0f 46                               inc    %esi
                           .text:01002c10 69 6c 74 65 72 00 8f 04          imul   $0x48f0072,0x65(%esp,%esi,2),%ebp
                           .text:01002c18 65 78 69                         gs js  0x01002c84
                           .text:01002c1b 74 00                            je     0x01002c1d
                           .text:01002c1d 00 d5                            add    %dl,%ch
                           .text:01002c1f 01 5f 69                         add    %ebx,0x69(%edi)
                           .text:01002c22 6e                               outsb  %ds:(%esi),(%dx)
                           .text:01002c23 69 74 74 65 72 6d 00 01          imul   $0x1006d72,0x65(%esp,%esi,2),%esi
                           .text:01002c2b 01 5f 61                         add    %ebx,0x61(%edi)
                           .text:01002c2e 6d                               insl   (%dx),%es:(%edi)
                           .text:01002c2f 73 67                            jae    0x01002c98
                           .text:01002c31 5f                               pop    %edi
                           .text:01002c32 65 78 69                         gs js  0x01002c9e
                           .text:01002c35 74 00                            je     0x01002c37
                           .text:01002c37 00 d4                            add    %dl,%ah
                           .text:01002c39 00 5f 5f                         add    %bl,0x5f(%edi)
                           .text:01002c3c 73 65                            jae    0x01002ca3
                           .text:01002c3e 74 75                            je     0x01002cb5
                           .text:01002c40 73 65                            jae    0x01002ca7
                           .text:01002c42 72 6d                            jb     0x01002cb1
                           .text:01002c44 61                               popa   
                           .text:01002c45 74 68                            je     0x01002caf
                           .text:01002c47 65 72 72                         gs jb  0x01002cbc
                           .text:01002c4a 00 00                            add    %al,(%eax)
                           .text:01002c4c b9 00 5f 5f 70                   mov    $0x705f5f00,%ecx
                           .text:01002c51 5f                               pop    %edi
                           .text:01002c52 5f                               pop    %edi
                           .text:01002c53 63 6f 6d                         arpl   %bp,0x6d(%edi)
                           .text:01002c56 6d                               insl   (%dx),%es:(%edi)
                           .text:01002c57 6f                               outsl  %ds:(%esi),(%dx)
                           .text:01002c58 64 65 00 00                      fs add %al,%gs:(%eax)
                           .text:01002c5c be 00 5f 5f 70                   mov    $0x705f5f00,%esi
                           .text:01002c61 5f                               pop    %edi
                           .text:01002c62 5f                               pop    %edi
                           .text:01002c63 66 6d                            insw   (%dx),%es:(%edi)
                           .text:01002c65 6f                               outsl  %ds:(%esi),(%dx)
                           .text:01002c66 64 65 00 00                      fs add %al,%gs:(%eax)
                           .text:01002c6a d2 00                            rolb   %cl,(%eax)
                           .text:01002c6c 5f                               pop    %edi
                           .text:01002c6d 5f                               pop    %edi
                           .text:01002c6e 73 65                            jae    0x01002cd5
                           .text:01002c70 74 5f                            je     0x01002cd1
                           .text:01002c72 61                               popa   
                           .text:01002c73 70 70                            jo     0x01002ce5
                           .text:01002c75 5f                               pop    %edi
                           .text:01002c76 74 79                            je     0x01002cf1
                           .text:01002c78 70 65                            jo     0x01002cdf
                           .text:01002c7a 00 00                            add    %al,(%eax)
                           .text:01002c7c 6d                               insl   (%dx),%es:(%edi)
                           .text:01002c7d 73 76                            jae    0x01002cf5
                           .text:01002c7f 63 72 74                         arpl   %si,0x74(%edx)
                           .text:01002c82 2e 64 6c                         cs fs insb (%dx),%es:(%edi)
                           .text:01002c85 6c                               insb   (%dx),%es:(%edi)
                           .text:01002c86 00 00                            add    %al,(%eax)
                           .text:01002c88 37                               aaa    
                           .text:01002c89 00 3f                            add    %bh,(%edi)
                           .text:01002c8b 74 65                            je     0x01002cf2
                           .text:01002c8d 72 6d                            jb     0x01002cfc
                           .text:01002c8f 69 6e 61 74 65 40 40             imul   $0x40406574,0x61(%esi),%ebp
                           .text:01002c96 59                               pop    %ecx
                           .text:01002c97 41                               inc    %ecx
                           .text:01002c98 58                               pop    %eax
                           .text:01002c99 58                               pop    %eax
                           .text:01002c9a 5a                               pop    %edx
                           .text:01002c9b 00 59 01                         add    %bl,0x1(%ecx)
                           .text:01002c9e 5f                               pop    %edi
                           .text:01002c9f 65 78 63                         gs js  0x01002d05
                           .text:01002ca2 65 70 74                         gs jo  0x01002d19
                           .text:01002ca5 5f                               pop    %edi
                           .text:01002ca6 68 61 6e 64 6c                   push   $0x6c646e61
                           .text:01002cab 65 72 34                         gs jb  0x01002ce2
                           .text:01002cae 5f                               pop    %edi
                           .text:01002caf 63 6f 6d                         arpl   %bp,0x6d(%edi)
                           .text:01002cb2 6d                               insl   (%dx),%es:(%edi)
                           .text:01002cb3 6f                               outsl  %ds:(%esi),(%dx)
                           .text:01002cb4 6e                               outsb  %ds:(%esi),(%dx)
                           .text:01002cb5 00 27                            add    %ah,(%edi)
                           .text:01002cb7 01 5f 63                         add    %ebx,0x63(%edi)
                           .text:01002cba 6f                               outsl  %ds:(%esi),(%dx)
                           .text:01002cbb 6e                               outsb  %ds:(%esi),(%dx)
                           .text:01002cbc 74 72                            je     0x01002d30
                           .text:01002cbe 6f                               outsl  %ds:(%esi),(%dx)
                           .text:01002cbf 6c                               insb   (%dx),%es:(%edi)
                           .text:01002cc0 66 70 00                         data16 jo 0x01002cc3
                           .text:01002cc3 00 87 00 3f 44 69                add    %al,0x69443f00(%edi)
                           .text:01002cc9 73 70                            jae    0x01002d3b
                           .text:01002ccb 6c                               insb   (%dx),%es:(%edi)
                           .text:01002ccc 61                               popa   
                           .text:01002ccd 79 40                            jns    0x01002d0f
                           .text:01002ccf 4d                               dec    %ebp
                           .text:01002cd0 45                               inc    %ebp
                           .text:01002cd1 53                               push   %ebx
                           .text:01002cd2 53                               push   %ebx
                           .text:01002cd3 41                               inc    %ecx
                           .text:01002cd4 47                               inc    %edi
                           .text:01002cd5 45                               inc    %ebp
                           .text:01002cd6 40                               inc    %eax
                           .text:01002cd7 40                               inc    %eax
                           .text:01002cd8 51                               push   %ecx
                           .text:01002cd9 41                               inc    %ecx
                           .text:01002cda 41                               inc    %ecx
                           .text:01002cdb 45                               inc    %ebp
                           .text:01002cdc 50                               push   %eax
                           .text:01002cdd 42                               inc    %edx
                           .text:01002cde 44                               inc    %esp
                           .text:01002cdf 5a                               pop    %edx
                           .text:01002ce0 5a                               pop    %edx
                           .text:01002ce1 00 46 01                         add    %al,0x1(%esi)
                           .text:01002ce4 3f                               aas    
                           .text:01002ce5 51                               push   %ecx
                           .text:01002ce6 75 65                            jne    0x01002d4d
                           .text:01002ce8 72 79                            jb     0x01002d63
                           .text:01002cea 57                               push   %edi
                           .text:01002ceb 53                               push   %ebx
                           .text:01002cec 54                               push   %esp
                           .text:01002ced 52                               push   %edx
                           .text:01002cee 40                               inc    %eax
                           .text:01002cef 57                               push   %edi
                           .text:01002cf0 53                               push   %ebx
                           .text:01002cf1 54                               push   %esp
                           .text:01002cf2 52                               push   %edx
                           .text:01002cf3 49                               dec    %ecx
                           .text:01002cf4 4e                               dec    %esi
                           .text:01002cf5 47                               inc    %edi
                           .text:01002cf6 40                               inc    %eax
                           .text:01002cf7 40                               inc    %eax
                           .text:01002cf8 51                               push   %ecx
                           .text:01002cf9 42                               inc    %edx
                           .text:01002cfa 45                               inc    %ebp
                           .text:01002cfb 50                               push   %eax
                           .text:01002cfc 41                               inc    %ecx
                           .text:01002cfd 47                               inc    %edi
                           .text:01002cfe 4b                               dec    %ebx
                           .text:01002cff 4b                               dec    %ebx
                           .text:01002d00 50                               push   %eax
                           .text:01002d01 41                               inc    %ecx
                           .text:01002d02 47                               inc    %edi
                           .text:01002d03 4b                               dec    %ebx
                           .text:01002d04 45                               inc    %ebp
                           .text:01002d05 40                               inc    %eax
                           .text:01002d06 5a                               pop    %edx
                           .text:01002d07 00 36                            add    %dh,(%esi)
                           .text:01002d09 00 3f                            add    %bh,(%edi)
                           .text:01002d0b 3f                               aas    
                           .text:01002d0c 31 44 53 54                      xor    %eax,0x54(%ebx,%edx,2)
                           .text:01002d10 52                               push   %edx
                           .text:01002d11 49                               dec    %ecx
                           .text:01002d12 4e                               dec    %esi
                           .text:01002d13 47                               inc    %edi
                           .text:01002d14 40                               inc    %eax
                           .text:01002d15 40                               inc    %eax
                           .text:01002d16 55                               push   %ebp
                           .text:01002d17 41                               inc    %ecx
                           .text:01002d18 45                               inc    %ebp
                           .text:01002d19 40                               inc    %eax
                           .text:01002d1a 58                               pop    %eax
                           .text:01002d1b 5a                               pop    %edx
                           .text:01002d1c 00 00                            add    %al,(%eax)
                           .text:01002d1e 0d 00 3f 3f 30                   or     $0x303f3f00,%eax
                           .text:01002d23 44                               inc    %esp
                           .text:01002d24 53                               push   %ebx
                           .text:01002d25 54                               push   %esp
                           .text:01002d26 52                               push   %edx
                           .text:01002d27 49                               dec    %ecx
                           .text:01002d28 4e                               dec    %esi
                           .text:01002d29 47                               inc    %edi
                           .text:01002d2a 40                               inc    %eax
                           .text:01002d2b 40                               inc    %eax
                           .text:01002d2c 51                               push   %ecx
                           .text:01002d2d 41                               inc    %ecx
                           .text:01002d2e 45                               inc    %ebp
                           .text:01002d2f 40                               inc    %eax
                           .text:01002d30 58                               pop    %eax
                           .text:01002d31 5a                               pop    %edx
                           .text:01002d32 00 00                            add    %al,(%eax)
                           .text:01002d34 8b 01                            mov    (%ecx),%eax
                           .text:01002d36 3f                               aas    
                           .text:01002d37 53                               push   %ebx
                           .text:01002d38 74 72                            je     0x01002dac
                           .text:01002d3a 63 61 74                         arpl   %sp,0x74(%ecx)
                           .text:01002d3d 40                               inc    %eax
                           .text:01002d3e 57                               push   %edi
                           .text:01002d3f 53                               push   %ebx
                           .text:01002d40 54                               push   %esp
                           .text:01002d41 52                               push   %edx
                           .text:01002d42 49                               dec    %ecx
                           .text:01002d43 4e                               dec    %esi
                           .text:01002d44 47                               inc    %edi
                           .text:01002d45 40                               inc    %eax
                           .text:01002d46 40                               inc    %eax
                           .text:01002d47 51                               push   %ecx
                           .text:01002d48 41                               inc    %ecx
                           .text:01002d49 45                               inc    %ebp
                           .text:01002d4a 45                               inc    %ebp
                           .text:01002d4b 50                               push   %eax
                           .text:01002d4c 42                               inc    %edx
                           .text:01002d4d 56                               push   %esi
                           .text:01002d4e 31 40 40                         xor    %eax,0x40(%eax)
                           .text:01002d51 5a                               pop    %edx
                           .text:01002d52 00 00                            add    %al,(%eax)
                           .text:01002d54 df 00                            fild   (%eax)
                           .text:01002d56 3f                               aas    
                           .text:01002d57 49                               dec    %ecx
                           .text:01002d58 6e                               outsb  %ds:(%esi),(%dx)
                           .text:01002d59 69 74 69 61 6c 69 7a 65          imul   $0x657a696c,0x61(%ecx,%ebp,2),%esi
                           .text:01002d61 40                               inc    %eax
                           .text:01002d62 57                               push   %edi
                           .text:01002d63 53                               push   %ebx
                           .text:01002d64 54                               push   %esp
                           .text:01002d65 52                               push   %edx
                           .text:01002d66 49                               dec    %ecx
                           .text:01002d67 4e                               dec    %esi
                           .text:01002d68 47                               inc    %edi
                           .text:01002d69 40                               inc    %eax
                           .text:01002d6a 40                               inc    %eax
                           .text:01002d6b 51                               push   %ecx
                           .text:01002d6c 41                               inc    %ecx
                           .text:01002d6d 45                               inc    %ebp
                           .text:01002d6e 45                               inc    %ebp
                           .text:01002d6f 50                               push   %eax
                           .text:01002d70 42                               inc    %edx
                           .text:01002d71 44                               inc    %esp
                           .text:01002d72 4b                               dec    %ebx
                           .text:01002d73 40                               inc    %eax
                           .text:01002d74 5a                               pop    %edx
                           .text:01002d75 00 e1                            add    %ah,%cl
                           .text:01002d77 00 3f                            add    %bh,(%edi)
                           .text:01002d79 49                               dec    %ecx
                           .text:01002d7a 6e                               outsb  %ds:(%esi),(%dx)
                           .text:01002d7b 69 74 69 61 6c 69 7a 65          imul   $0x657a696c,0x61(%ecx,%ebp,2),%esi
                           .text:01002d83 40                               inc    %eax
                           .text:01002d84 57                               push   %edi
                           .text:01002d85 53                               push   %ebx
                           .text:01002d86 54                               push   %esp
                           .text:01002d87 52                               push   %edx
                           .text:01002d88 49                               dec    %ecx
                           .text:01002d89 4e                               dec    %esi
                           .text:01002d8a 47                               inc    %edi
                           .text:01002d8b 40                               inc    %eax
                           .text:01002d8c 40                               inc    %eax
                           .text:01002d8d 51                               push   %ecx
                           .text:01002d8e 41                               inc    %ecx
                           .text:01002d8f 45                               inc    %ebp
                           .text:01002d90 45                               inc    %ebp
                           .text:01002d91 50                               push   %eax
                           .text:01002d92 42                               inc    %edx
                           .text:01002d93 56                               push   %esi
                           .text:01002d94 31 40 4b                         xor    %eax,0x4b(%eax)
                           .text:01002d97 4b                               dec    %ebx
                           .text:01002d98 40                               inc    %eax
                           .text:01002d99 5a                               pop    %edx
                           .text:01002d9a 00 00                            add    %al,(%eax)
                           .text:01002d9c e0 00                            loopne 0x01002d9e
                           .text:01002d9e 3f                               aas    
                           .text:01002d9f 49                               dec    %ecx
                           .text:01002da0 6e                               outsb  %ds:(%esi),(%dx)
                           .text:01002da1 69 74 69 61 6c 69 7a 65          imul   $0x657a696c,0x61(%ecx,%ebp,2),%esi
                           .text:01002da9 40                               inc    %eax
                           .text:01002daa 57                               push   %edi
                           .text:01002dab 53                               push   %ebx
                           .text:01002dac 54                               push   %esp
                           .text:01002dad 52                               push   %edx
                           .text:01002dae 49                               dec    %ecx
                           .text:01002daf 4e                               dec    %esi
                           .text:01002db0 47                               inc    %edi
                           .text:01002db1 40                               inc    %eax
                           .text:01002db2 40                               inc    %eax
                           .text:01002db3 51                               push   %ecx
                           .text:01002db4 41                               inc    %ecx
                           .text:01002db5 45                               inc    %ebp
                           .text:01002db6 45                               inc    %ebp
                           .text:01002db7 50                               push   %eax
                           .text:01002db8 42                               inc    %edx
                           .text:01002db9 47                               inc    %edi
                           .text:01002dba 4b                               dec    %ebx
                           .text:01002dbb 40                               inc    %eax
                           .text:01002dbc 5a                               pop    %edx
                           .text:01002dbd 00 41 00                         add    %al,0x0(%ecx)
                           .text:01002dc0 3f                               aas    
                           .text:01002dc1 3f                               aas    
                           .text:01002dc2 31 4f 42                         xor    %ecx,0x42(%edi)
                           .text:01002dc5 4a                               dec    %edx
                           .text:01002dc6 45                               inc    %ebp
                           .text:01002dc7 43                               inc    %ebx
                           .text:01002dc8 54                               push   %esp
                           .text:01002dc9 40                               inc    %eax
                           .text:01002dca 40                               inc    %eax
                           .text:01002dcb 55                               push   %ebp
                           .text:01002dcc 41                               inc    %ecx
                           .text:01002dcd 45                               inc    %ebp
                           .text:01002dce 40                               inc    %eax
                           .text:01002dcf 58                               pop    %eax
                           .text:01002dd0 5a                               pop    %edx
                           .text:01002dd1 00 f7                            add    %dh,%bh
                           .text:01002dd3 00 3f                            add    %bh,(%edi)
                           .text:01002dd5 49                               dec    %ecx
                           .text:01002dd6 73 59                            jae    0x01002e31
                           .text:01002dd8 65 73 52                         gs jae 0x01002e2d
                           .text:01002ddb 65 73 70                         gs jae 0x01002e4e
                           .text:01002dde 6f                               outsl  %ds:(%esi),(%dx)
                           .text:01002ddf 6e                               outsb  %ds:(%esi),(%dx)
                           .text:01002de0 73 65                            jae    0x01002e47
                           .text:01002de2 40                               inc    %eax
                           .text:01002de3 53                               push   %ebx
                           .text:01002de4 54                               push   %esp
                           .text:01002de5 52                               push   %edx
                           .text:01002de6 45                               inc    %ebp
                           .text:01002de7 41                               inc    %ecx
                           .text:01002de8 4d                               dec    %ebp
                           .text:01002de9 5f                               pop    %edi
                           .text:01002dea 4d                               dec    %ebp
                           .text:01002deb 45                               inc    %ebp
                           .text:01002dec 53                               push   %ebx
                           .text:01002ded 53                               push   %ebx
                           .text:01002dee 41                               inc    %ecx
                           .text:01002def 47                               inc    %edi
                           .text:01002df0 45                               inc    %ebp
                           .text:01002df1 40                               inc    %eax
                           .text:01002df2 40                               inc    %eax
                           .text:01002df3 55                               push   %ebp
                           .text:01002df4 41                               inc    %ecx
                           .text:01002df5 45                               inc    %ebp
                           .text:01002df6 45                               inc    %ebp
                           .text:01002df7 45                               inc    %ebp
                           .text:01002df8 40                               inc    %eax
                           .text:01002df9 5a                               pop    %edx
                           .text:01002dfa 00 00                            add    %al,(%eax)
                           .text:01002dfc 1e                               push   %ds
                           .text:01002dfd 01 3f                            add    %edi,(%edi)
                           .text:01002dff 51                               push   %ecx
                           .text:01002e00 75 65                            jne    0x01002e67
                           .text:01002e02 72 79                            jb     0x01002e7d
                           .text:01002e04 43                               inc    %ebx
                           .text:01002e05 75 72                            jne    0x01002e79
                           .text:01002e07 72 65                            jb     0x01002e6e
                           .text:01002e09 6e                               outsb  %ds:(%esi),(%dx)
                           .text:01002e0a 74 44                            je     0x01002e50
                           .text:01002e0c 6f                               outsl  %ds:(%esi),(%dx)
                           .text:01002e0d 73 44                            jae    0x01002e53
                           .text:01002e0f 72 69                            jb     0x01002e7a
                           .text:01002e11 76 65                            jbe    0x01002e78
                           .text:01002e13 4e                               dec    %esi
                           .text:01002e14 61                               popa   
                           .text:01002e15 6d                               insl   (%dx),%es:(%edi)
                           .text:01002e16 65 40                            gs inc %eax
                           .text:01002e18 53                               push   %ebx
                           .text:01002e19 59                               pop    %ecx
                           .text:01002e1a 53                               push   %ebx
                           .text:01002e1b 54                               push   %esp
                           .text:01002e1c 45                               inc    %ebp
                           .text:01002e1d 4d                               dec    %ebp
                           .text:01002e1e 40                               inc    %eax
                           .text:01002e1f 40                               inc    %eax
                           .text:01002e20 53                               push   %ebx
                           .text:01002e21 47                               inc    %edi
                           .text:01002e22 45                               inc    %ebp
                           .text:01002e23 50                               push   %eax
                           .text:01002e24 41                               inc    %ecx
                           .text:01002e25 56                               push   %esi
                           .text:01002e26 57                               push   %edi
                           .text:01002e27 53                               push   %ebx
                           .text:01002e28 54                               push   %esp
                           .text:01002e29 52                               push   %edx
                           .text:01002e2a 49                               dec    %ecx
                           .text:01002e2b 4e                               dec    %esi
                           .text:01002e2c 47                               inc    %edi
                           .text:01002e2d 40                               inc    %eax
                           .text:01002e2e 40                               inc    %eax
                           .text:01002e2f 40                               inc    %eax
                           .text:01002e30 5a                               pop    %edx
                           .text:01002e31 00 82 00 3f 44 65                add    %al,0x65443f00(%edx)
                           .text:01002e37 6c                               insb   (%dx),%es:(%edi)
                           .text:01002e38 65 74 65                         gs je  0x01002ea0
                           .text:01002e3b 43                               inc    %ebx
                           .text:01002e3c 68 41 74 40 57                   push   $0x57407441
                           .text:01002e41 53                               push   %ebx
                           .text:01002e42 54                               push   %esp
                           .text:01002e43 52                               push   %edx
                           .text:01002e44 49                               dec    %ecx
                           .text:01002e45 4e                               dec    %esi
                           .text:01002e46 47                               inc    %edi
                           .text:01002e47 40                               inc    %eax
                           .text:01002e48 40                               inc    %eax
                           .text:01002e49 51                               push   %ecx
                           .text:01002e4a 41                               inc    %ecx
                           .text:01002e4b 45                               inc    %ebp
                           .text:01002e4c 58                               pop    %eax
                           .text:01002e4d 4b                               dec    %ebx
                           .text:01002e4e 4b                               dec    %ebx
                           .text:01002e4f 40                               inc    %eax
                           .text:01002e50 5a                               pop    %edx
                           .text:01002e51 00 66 00                         add    %ah,0x0(%esi)
                           .text:01002e54 3f                               aas    
                           .text:01002e55 41                               inc    %ecx
                           .text:01002e56 6e                               outsb  %ds:(%esi),(%dx)
                           .text:01002e57 61                               popa   
                           .text:01002e58 6c                               insb   (%dx),%es:(%edi)
                           .text:01002e59 79 7a                            jns    0x01002ed5
                           .text:01002e5b 65 50                            gs push %eax
                           .text:01002e5d 61                               popa   
                           .text:01002e5e 74 68                            je     0x01002ec8
                           .text:01002e60 40                               inc    %eax
                           .text:01002e61 50                               push   %eax
                           .text:01002e62 41                               inc    %ecx
                           .text:01002e63 54                               push   %esp
                           .text:01002e64 48                               dec    %eax
                           .text:01002e65 40                               inc    %eax
                           .text:01002e66 40                               inc    %eax
                           .text:01002e67 51                               push   %ecx
                           .text:01002e68 41                               inc    %ecx
                           .text:01002e69 45                               inc    %ebp
                           .text:01002e6a 3f                               aas    
                           .text:01002e6b 41                               inc    %ecx
                           .text:01002e6c 57                               push   %edi
                           .text:01002e6d 34 50                            xor    $0x50,%al
                           .text:01002e6f 41                               inc    %ecx
                           .text:01002e70 54                               push   %esp
                           .text:01002e71 48                               dec    %eax
                           .text:01002e72 5f                               pop    %edi
                           .text:01002e73 41                               inc    %ecx
                           .text:01002e74 4e                               dec    %esi
                           .text:01002e75 41                               inc    %ecx
                           .text:01002e76 4c                               dec    %esp
                           .text:01002e77 59                               pop    %ecx
                           .text:01002e78 5a                               pop    %edx
                           .text:01002e79 45                               inc    %ebp
                           .text:01002e7a 5f                               pop    %edi
                           .text:01002e7b 43                               inc    %ebx
                           .text:01002e7c 4f                               dec    %edi
                           .text:01002e7d 44                               inc    %esp
                           .text:01002e7e 45                               inc    %ebp
                           .text:01002e7f 40                               inc    %eax
                           .text:01002e80 40                               inc    %eax
                           .text:01002e81 50                               push   %eax
                           .text:01002e82 41                               inc    %ecx
                           .text:01002e83 56                               push   %esi
                           .text:01002e84 57                               push   %edi
                           .text:01002e85 53                               push   %ebx
                           .text:01002e86 54                               push   %esp
                           .text:01002e87 52                               push   %edx
                           .text:01002e88 49                               dec    %ecx
                           .text:01002e89 4e                               dec    %esi
                           .text:01002e8a 47                               inc    %edi
                           .text:01002e8b 40                               inc    %eax
                           .text:01002e8c 40                               inc    %eax
                           .text:01002e8d 50                               push   %eax
                           .text:01002e8e 41                               inc    %ecx
                           .text:01002e8f 56                               push   %esi
                           .text:01002e90 31 40 30                         xor    %eax,0x30(%eax)
                           .text:01002e93 40                               inc    %eax
                           .text:01002e94 5a                               pop    %edx
                           .text:01002e95 00 ea                            add    %ch,%dl
                           .text:01002e97 00 3f                            add    %bh,(%edi)
                           .text:01002e99 49                               dec    %ecx
                           .text:01002e9a 73 47                            jae    0x01002ee3
                           .text:01002e9c 75 69                            jne    0x01002f07
                           .text:01002e9e 64 56                            fs push %esi
                           .text:01002ea0 6f                               outsl  %ds:(%esi),(%dx)
                           .text:01002ea1 6c                               insb   (%dx),%es:(%edi)
                           .text:01002ea2 4e                               dec    %esi
                           .text:01002ea3 61                               popa   
                           .text:01002ea4 6d                               insl   (%dx),%es:(%edi)
                           .text:01002ea5 65 40                            gs inc %eax
                           .text:01002ea7 50                               push   %eax
                           .text:01002ea8 41                               inc    %ecx
                           .text:01002ea9 54                               push   %esp
                           .text:01002eaa 48                               dec    %eax
                           .text:01002eab 40                               inc    %eax
                           .text:01002eac 40                               inc    %eax
                           .text:01002ead 51                               push   %ecx
                           .text:01002eae 41                               inc    %ecx
                           .text:01002eaf 45                               inc    %ebp
                           .text:01002eb0 45                               inc    %ebp
                           .text:01002eb1 58                               pop    %eax
                           .text:01002eb2 5a                               pop    %edx
                           .text:01002eb3 00 cf                            add    %cl,%bh
                           .text:01002eb5 00 3f                            add    %bh,(%edi)
                           .text:01002eb7 49                               dec    %ecx
                           .text:01002eb8 6e                               outsb  %ds:(%esi),(%dx)
                           .text:01002eb9 69 74 69 61 6c 69 7a 65          imul   $0x657a696c,0x61(%ecx,%ebp,2),%esi
                           .text:01002ec1 40                               inc    %eax
                           .text:01002ec2 50                               push   %eax
                           .text:01002ec3 41                               inc    %ecx
                           .text:01002ec4 54                               push   %esp
                           .text:01002ec5 48                               dec    %eax
                           .text:01002ec6 40                               inc    %eax
                           .text:01002ec7 40                               inc    %eax
                           .text:01002ec8 51                               push   %ecx
                           .text:01002ec9 41                               inc    %ecx
                           .text:01002eca 45                               inc    %ebp
                           .text:01002ecb 45                               inc    %ebp
                           .text:01002ecc 50                               push   %eax
                           .text:01002ecd 42                               inc    %edx
                           .text:01002ece 56                               push   %esi
                           .text:01002ecf 57                               push   %edi
                           .text:01002ed0 53                               push   %ebx
                           .text:01002ed1 54                               push   %esp
                           .text:01002ed2 52                               push   %edx
                           .text:01002ed3 49                               dec    %ecx
                           .text:01002ed4 4e                               dec    %esi
                           .text:01002ed5 47                               inc    %edi
                           .text:01002ed6 40                               inc    %eax
                           .text:01002ed7 40                               inc    %eax
                           .text:01002ed8 45                               inc    %ebp
                           .text:01002ed9 40                               inc    %eax
                           .text:01002eda 5a                               pop    %edx
                           .text:01002edb 00 f4                            add    %dh,%ah
                           .text:01002edd 00 3f                            add    %bh,(%edi)
                           .text:01002edf 49                               dec    %ecx
                           .text:01002ee0 73 56                            jae    0x01002f38
                           .text:01002ee2 61                               popa   
                           .text:01002ee3 6c                               insb   (%dx),%es:(%edi)
                           .text:01002ee4 75 65                            jne    0x01002f4b
                           .text:01002ee6 53                               push   %ebx
                           .text:01002ee7 65 74 40                         gs je  0x01002f2a
                           .text:01002eea 41                               inc    %ecx
                           .text:01002eeb 52                               push   %edx
                           .text:01002eec 47                               inc    %edi
                           .text:01002eed 55                               push   %ebp
                           .text:01002eee 4d                               dec    %ebp
                           .text:01002eef 45                               inc    %ebp
                           .text:01002ef0 4e                               dec    %esi
                           .text:01002ef1 54                               push   %esp
                           .text:01002ef2 40                               inc    %eax
                           .text:01002ef3 40                               inc    %eax
                           .text:01002ef4 51                               push   %ecx
                           .text:01002ef5 41                               inc    %ecx
                           .text:01002ef6 45                               inc    %ebp
                           .text:01002ef7 45                               inc    %ebp
                           .text:01002ef8 58                               pop    %eax
                           .text:01002ef9 5a                               pop    %edx
                           .text:01002efa 00 00                            add    %al,(%eax)
                           .text:01002efc e2 00                            loop   0x01002efe
                           .text:01002efe 3f                               aas    
                           .text:01002eff 49                               dec    %ecx
                           .text:01002f00 6e                               outsb  %ds:(%esi),(%dx)
                           .text:01002f01 69 74 69 61 6c 69 7a 65          imul   $0x657a696c,0x61(%ecx,%ebp,2),%esi
                           .text:01002f09 40                               inc    %eax
                           .text:01002f0a 57                               push   %edi
                           .text:01002f0b 53                               push   %ebx
                           .text:01002f0c 54                               push   %esp
                           .text:01002f0d 52                               push   %edx
                           .text:01002f0e 49                               dec    %ecx
                           .text:01002f0f 4e                               dec    %esi
                           .text:01002f10 47                               inc    %edi
                           .text:01002f11 40                               inc    %eax
                           .text:01002f12 40                               inc    %eax
                           .text:01002f13 51                               push   %ecx
                           .text:01002f14 41                               inc    %ecx
                           .text:01002f15 45                               inc    %ebp
                           .text:01002f16 45                               inc    %ebp
                           .text:01002f17 58                               pop    %eax
                           .text:01002f18 5a                               pop    %edx
                           .text:01002f19 00 48 00                         add    %cl,0x0(%eax)
                           .text:01002f1c 3f                               aas    
                           .text:01002f1d 3f                               aas    
                           .text:01002f1e 31 53 54                         xor    %edx,0x54(%ebx)
                           .text:01002f21 52                               push   %edx
                           .text:01002f22 45                               inc    %ebp
                           .text:01002f23 41                               inc    %ecx
                           .text:01002f24 4d                               dec    %ebp
                           .text:01002f25 5f                               pop    %edi
                           .text:01002f26 4d                               dec    %ebp
                           .text:01002f27 45                               inc    %ebp
                           .text:01002f28 53                               push   %ebx
                           .text:01002f29 53                               push   %ebx
                           .text:01002f2a 41                               inc    %ecx
                           .text:01002f2b 47                               inc    %edi
                           .text:01002f2c 45                               inc    %ebp
                           .text:01002f2d 40                               inc    %eax
                           .text:01002f2e 40                               inc    %eax
                           .text:01002f2f 55                               push   %ebp
                           .text:01002f30 41                               inc    %ecx
                           .text:01002f31 45                               inc    %ebp
                           .text:01002f32 40                               inc    %eax
                           .text:01002f33 58                               pop    %eax
                           .text:01002f34 5a                               pop    %edx
                           .text:01002f35 00 2e                            add    %ch,(%esi)
                           .text:01002f37 00 3f                            add    %bh,(%edi)
                           .text:01002f39 3f                               aas    
                           .text:01002f3a 31 41 52                         xor    %eax,0x52(%ecx)
                           .text:01002f3d 47                               inc    %edi
                           .text:01002f3e 55                               push   %ebp
                           .text:01002f3f 4d                               dec    %ebp
                           .text:01002f40 45                               inc    %ebp
                           .text:01002f41 4e                               dec    %esi
                           .text:01002f42 54                               push   %esp
                           .text:01002f43 5f                               pop    %edi
                           .text:01002f44 4c                               dec    %esp
                           .text:01002f45 45                               inc    %ebp
                           .text:01002f46 58                               pop    %eax
                           .text:01002f47 45                               inc    %ebp
                           .text:01002f48 4d                               dec    %ebp
                           .text:01002f49 49                               dec    %ecx
                           .text:01002f4a 5a                               pop    %edx
                           .text:01002f4b 45                               inc    %ebp
                           .text:01002f4c 52                               push   %edx
                           .text:01002f4d 40                               inc    %eax
                           .text:01002f4e 40                               inc    %eax
                           .text:01002f4f 55                               push   %ebp
                           .text:01002f50 41                               inc    %ecx
                           .text:01002f51 45                               inc    %ebp
                           .text:01002f52 40                               inc    %eax
                           .text:01002f53 58                               pop    %eax
                           .text:01002f54 5a                               pop    %edx
                           .text:01002f55 00 2f                            add    %ch,(%edi)
                           .text:01002f57 00 3f                            add    %bh,(%edi)
                           .text:01002f59 3f                               aas    
                           .text:01002f5a 31 41 52                         xor    %eax,0x52(%ecx)
                           .text:01002f5d 52                               push   %edx
                           .text:01002f5e 41                               inc    %ecx
                           .text:01002f5f 59                               pop    %ecx
                           .text:01002f60 40                               inc    %eax
                           .text:01002f61 40                               inc    %eax
                           .text:01002f62 55                               push   %ebp
                           .text:01002f63 41                               inc    %ecx
                           .text:01002f64 45                               inc    %ebp
                           .text:01002f65 40                               inc    %eax
                           .text:01002f66 58                               pop    %eax
                           .text:01002f67 5a                               pop    %edx
                           .text:01002f68 00 00                            add    %al,(%eax)
                           .text:01002f6a 49                               dec    %ecx
                           .text:01002f6b 00 3f                            add    %bh,(%edi)
                           .text:01002f6d 3f                               aas    
                           .text:01002f6e 31 53 54                         xor    %edx,0x54(%ebx)
                           .text:01002f71 52                               push   %edx
                           .text:01002f72 49                               dec    %ecx
                           .text:01002f73 4e                               dec    %esi
                           .text:01002f74 47                               inc    %edi
                           .text:01002f75 5f                               pop    %edi
                           .text:01002f76 41                               inc    %ecx
                           .text:01002f77 52                               push   %edx
                           .text:01002f78 47                               inc    %edi
                           .text:01002f79 55                               push   %ebp
                           .text:01002f7a 4d                               dec    %ebp
                           .text:01002f7b 45                               inc    %ebp
                           .text:01002f7c 4e                               dec    %esi
                           .text:01002f7d 54                               push   %esp
                           .text:01002f7e 40                               inc    %eax
                           .text:01002f7f 40                               inc    %eax
                           .text:01002f80 55                               push   %ebp
                           .text:01002f81 41                               inc    %ecx
                           .text:01002f82 45                               inc    %ebp
                           .text:01002f83 40                               inc    %eax
                           .text:01002f84 58                               pop    %eax
                           .text:01002f85 5a                               pop    %edx
                           .text:01002f86 00 00                            add    %al,(%eax)
                           .text:01002f88 42                               inc    %edx
                           .text:01002f89 00 3f                            add    %bh,(%edi)
                           .text:01002f8b 3f                               aas    
                           .text:01002f8c 31 50 41                         xor    %edx,0x41(%eax)
                           .text:01002f8f 54                               push   %esp
                           .text:01002f90 48                               dec    %eax
                           .text:01002f91 40                               inc    %eax
                           .text:01002f92 40                               inc    %eax
                           .text:01002f93 55                               push   %ebp
                           .text:01002f94 41                               inc    %ecx
                           .text:01002f95 45                               inc    %ebp
                           .text:01002f96 40                               inc    %eax
                           .text:01002f97 58                               pop    %eax
                           .text:01002f98 5a                               pop    %edx
                           .text:01002f99 00 29                            add    %ch,(%ecx)
                           .text:01002f9b 01 3f                            add    %edi,(%edi)
                           .text:01002f9d 51                               push   %ecx
                           .text:01002f9e 75 65                            jne    0x01003005
                           .text:01002fa0 72 79                            jb     0x0100301b
                           .text:01002fa2 49                               dec    %ecx
                           .text:01002fa3 6e                               outsb  %ds:(%esi),(%dx)
                           .text:01002fa4 76 61                            jbe    0x01003007
                           .text:01002fa6 6c                               insb   (%dx),%es:(%edi)
                           .text:01002fa7 69 64 41 72 67 75 6d 65          imul   $0x656d7567,0x72(%ecx,%eax,2),%esp
                           .text:01002faf 6e                               outsb  %ds:(%esi),(%dx)
                           .text:01002fb0 74 40                            je     0x01002ff2
                           .text:01002fb2 41                               inc    %ecx
                           .text:01002fb3 52                               push   %edx
                           .text:01002fb4 47                               inc    %edi
                           .text:01002fb5 55                               push   %ebp
                           .text:01002fb6 4d                               dec    %ebp
                           .text:01002fb7 45                               inc    %ebp
                           .text:01002fb8 4e                               dec    %esi
                           .text:01002fb9 54                               push   %esp
                           .text:01002fba 5f                               pop    %edi
                           .text:01002fbb 4c                               dec    %esp
                           .text:01002fbc 45                               inc    %ebp
                           .text:01002fbd 58                               pop    %eax
                           .text:01002fbe 45                               inc    %ebp
                           .text:01002fbf 4d                               dec    %ebp
                           .text:01002fc0 49                               dec    %ecx
                           .text:01002fc1 5a                               pop    %edx
                           .text:01002fc2 45                               inc    %ebp
                           .text:01002fc3 52                               push   %edx
                           .text:01002fc4 40                               inc    %eax
                           .text:01002fc5 40                               inc    %eax
                           .text:01002fc6 51                               push   %ecx
                           .text:01002fc7 41                               inc    %ecx
                           .text:01002fc8 45                               inc    %ebp
                           .text:01002fc9 50                               push   %eax
                           .text:01002fca 41                               inc    %ecx
                           .text:01002fcb 56                               push   %esi
                           .text:01002fcc 57                               push   %edi
                           .text:01002fcd 53                               push   %ebx
                           .text:01002fce 54                               push   %esp
                           .text:01002fcf 52                               push   %edx
                           .text:01002fd0 49                               dec    %ecx
                           .text:01002fd1 4e                               dec    %esi
                           .text:01002fd2 47                               inc    %edi
                           .text:01002fd3 40                               inc    %eax
                           .text:01002fd4 40                               inc    %eax
                           .text:01002fd5 58                               pop    %eax
                           .text:01002fd6 5a                               pop    %edx
                           .text:01002fd7 00 61 01                         add    %ah,0x1(%ecx)
                           .text:01002fda 3f                               aas    
                           .text:01002fdb 53                               push   %ebx
                           .text:01002fdc 65 74 40                         gs je  0x0100301f
                           .text:01002fdf 53                               push   %ebx
                           .text:01002fe0 54                               push   %esp
                           .text:01002fe1 52                               push   %edx
                           .text:01002fe2 45                               inc    %ebp
                           .text:01002fe3 41                               inc    %ecx
                           .text:01002fe4 4d                               dec    %ebp
                           .text:01002fe5 5f                               pop    %edi
                           .text:01002fe6 4d                               dec    %ebp
                           .text:01002fe7 45                               inc    %ebp
                           .text:01002fe8 53                               push   %ebx
                           .text:01002fe9 53                               push   %ebx
                           .text:01002fea 41                               inc    %ecx
                           .text:01002feb 47                               inc    %edi
                           .text:01002fec 45                               inc    %ebp
                           .text:01002fed 40                               inc    %eax
                           .text:01002fee 40                               inc    %eax
                           .text:01002fef 55                               push   %ebp
                           .text:01002ff0 41                               inc    %ecx
                           .text:01002ff1 45                               inc    %ebp
                           .text:01002ff2 45                               inc    %ebp
                           .text:01002ff3 4b                               dec    %ebx
                           .text:01002ff4 57                               push   %edi
                           .text:01002ff5 34 4d                            xor    $0x4d,%al
                           .text:01002ff7 45                               inc    %ebp
                           .text:01002ff8 53                               push   %ebx
                           .text:01002ff9 53                               push   %ebx
                           .text:01002ffa 41                               inc    %ecx
                           .text:01002ffb 47                               inc    %edi
                           .text:01002ffc 45                               inc    %ebp
                           .text:01002ffd 5f                               pop    %edi
                           .text:01002ffe 54                               push   %esp
                           .text:01002fff 59                               pop    %ecx
                           .text:01003000 50                               push   %eax
                           .text:01003001 45                               inc    %ebp
                           .text:01003002 40                               inc    %eax
                           .text:01003003 40                               inc    %eax
                           .text:01003004 4b                               dec    %ebx
                           .text:01003005 40                               inc    %eax
                           .text:01003006 5a                               pop    %edx
                           .text:01003007 00 90 00 3f 44 6f                add    %dl,0x6f443f00(%eax)
                           .text:0100300d 50                               push   %eax
                           .text:0100300e 61                               popa   
                           .text:0100300f 72 73                            jb     0x01003084
                           .text:01003011 69 6e 67 40 41 52 47             imul   $0x47524140,0x67(%esi),%ebp
                           .text:01003018 55                               push   %ebp
                           .text:01003019 4d                               dec    %ebp
                           .text:0100301a 45                               inc    %ebp
                           .text:0100301b 4e                               dec    %esi
                           .text:0100301c 54                               push   %esp
                           .text:0100301d 5f                               pop    %edi
                           .text:0100301e 4c                               dec    %esp
                           .text:0100301f 45                               inc    %ebp
                           .text:01003020 58                               pop    %eax
                           .text:01003021 45                               inc    %ebp
                           .text:01003022 4d                               dec    %ebp
                           .text:01003023 49                               dec    %ecx
                           .text:01003024 5a                               pop    %edx
                           .text:01003025 45                               inc    %ebp
                           .text:01003026 52                               push   %edx
                           .text:01003027 40                               inc    %eax
                           .text:01003028 40                               inc    %eax
                           .text:01003029 51                               push   %ecx
                           .text:0100302a 41                               inc    %ecx
                           .text:0100302b 45                               inc    %ebp
                           .text:0100302c 45                               inc    %ebp
                           .text:0100302d 50                               push   %eax
                           .text:0100302e 41                               inc    %ecx
                           .text:0100302f 56                               push   %esi
                           .text:01003030 41                               inc    %ecx
                           .text:01003031 52                               push   %edx
                           .text:01003032 52                               push   %edx
                           .text:01003033 41                               inc    %ecx
                           .text:01003034 59                               pop    %ecx
                           .text:01003035 40                               inc    %eax
                           .text:01003036 40                               inc    %eax
                           .text:01003037 40                               inc    %eax
                           .text:01003038 5a                               pop    %edx
                           .text:01003039 00 0c 01                         add    %cl,(%ecx,%eax,1)
                           .text:0100303c 3f                               aas    
                           .text:0100303d 50                               push   %eax
                           .text:0100303e 75 74                            jne    0x010030b4
                           .text:01003040 40                               inc    %eax
                           .text:01003041 41                               inc    %ecx
                           .text:01003042 52                               push   %edx
                           .text:01003043 52                               push   %edx
                           .text:01003044 41                               inc    %ecx
                           .text:01003045 59                               pop    %ecx
                           .text:01003046 40                               inc    %eax
                           .text:01003047 40                               inc    %eax
                           .text:01003048 55                               push   %ebp
                           .text:01003049 41                               inc    %ecx
                           .text:0100304a 45                               inc    %ebp
                           .text:0100304b 45                               inc    %ebp
                           .text:0100304c 50                               push   %eax
                           .text:0100304d 41                               inc    %ecx
                           .text:0100304e 56                               push   %esi
                           .text:0100304f 4f                               dec    %edi
                           .text:01003050 42                               inc    %edx
                           .text:01003051 4a                               dec    %edx
                           .text:01003052 45                               inc    %ebp
                           .text:01003053 43                               inc    %ebx
                           .text:01003054 54                               push   %esp
                           .text:01003055 40                               inc    %eax
                           .text:01003056 40                               inc    %eax
                           .text:01003057 40                               inc    %eax
                           .text:01003058 5a                               pop    %edx
                           .text:01003059 00 d3                            add    %dl,%bl
                           .text:0100305b 00 3f                            add    %bh,(%edi)
                           .text:0100305d 49                               dec    %ecx
                           .text:0100305e 6e                               outsb  %ds:(%esi),(%dx)
                           .text:0100305f 69 74 69 61 6c 69 7a 65          imul   $0x657a696c,0x61(%ecx,%ebp,2),%esi
                           .text:01003067 40                               inc    %eax
                           .text:01003068 52                               push   %edx
                           .text:01003069 45                               inc    %ebp
                           .text:0100306a 53                               push   %ebx
                           .text:0100306b 54                               push   %esp
                           .text:0100306c 5f                               pop    %edi
                           .text:0100306d 4f                               dec    %edi
                           .text:0100306e 46                               inc    %esi
                           .text:0100306f 5f                               pop    %edi
                           .text:01003070 4c                               dec    %esp
                           .text:01003071 49                               dec    %ecx
                           .text:01003072 4e                               dec    %esi
                           .text:01003073 45                               inc    %ebp
                           .text:01003074 5f                               pop    %edi
                           .text:01003075 41                               inc    %ecx
                           .text:01003076 52                               push   %edx
                           .text:01003077 47                               inc    %edi
                           .text:01003078 55                               push   %ebp
                           .text:01003079 4d                               dec    %ebp
                           .text:0100307a 45                               inc    %ebp
                           .text:0100307b 4e                               dec    %esi
                           .text:0100307c 54                               push   %esp
                           .text:0100307d 40                               inc    %eax
                           .text:0100307e 40                               inc    %eax
                           .text:0100307f 51                               push   %ecx
                           .text:01003080 41                               inc    %ecx
                           .text:01003081 45                               inc    %ebp
                           .text:01003082 45                               inc    %ebp
                           .text:01003083 58                               pop    %eax
                           .text:01003084 5a                               pop    %edx
                           .text:01003085 00 c0                            add    %al,%al
                           .text:01003087 00 3f                            add    %bh,(%edi)
                           .text:01003089 49                               dec    %ecx
                           .text:0100308a 6e                               outsb  %ds:(%esi),(%dx)
                           .text:0100308b 69 74 69 61 6c 69 7a 65          imul   $0x657a696c,0x61(%ecx,%ebp,2),%esi
                           .text:01003093 40                               inc    %eax
                           .text:01003094 46                               inc    %esi
                           .text:01003095 4c                               dec    %esp
                           .text:01003096 41                               inc    %ecx
                           .text:01003097 47                               inc    %edi
                           .text:01003098 5f                               pop    %edi
                           .text:01003099 41                               inc    %ecx
                           .text:0100309a 52                               push   %edx
                           .text:0100309b 47                               inc    %edi
                           .text:0100309c 55                               push   %ebp
                           .text:0100309d 4d                               dec    %ebp
                           .text:0100309e 45                               inc    %ebp
                           .text:0100309f 4e                               dec    %esi
                           .text:010030a0 54                               push   %esp
                           .text:010030a1 40                               inc    %eax
                           .text:010030a2 40                               inc    %eax
                           .text:010030a3 51                               push   %ecx
                           .text:010030a4 41                               inc    %ecx
                           .text:010030a5 45                               inc    %ebp
                           .text:010030a6 45                               inc    %ebp
                           .text:010030a7 50                               push   %eax
                           .text:010030a8 41                               inc    %ecx
                           .text:010030a9 44                               inc    %esp
                           .text:010030aa 40                               inc    %eax
                           .text:010030ab 5a                               pop    %edx
                           .text:010030ac 00 00                            add    %al,(%eax)
                           .text:010030ae d7                               xlat   %ds:(%ebx)
                           .text:010030af 00 3f                            add    %bh,(%edi)
                           .text:010030b1 49                               dec    %ecx
                           .text:010030b2 6e                               outsb  %ds:(%esi),(%dx)
                           .text:010030b3 69 74 69 61 6c 69 7a 65          imul   $0x657a696c,0x61(%ecx,%ebp,2),%esi
                           .text:010030bb 40                               inc    %eax
                           .text:010030bc 53                               push   %ebx
                           .text:010030bd 54                               push   %esp
                           .text:010030be 52                               push   %edx
                           .text:010030bf 49                               dec    %ecx
                           .text:010030c0 4e                               dec    %esi
                           .text:010030c1 47                               inc    %edi
                           .text:010030c2 5f                               pop    %edi
                           .text:010030c3 41                               inc    %ecx
                           .text:010030c4 52                               push   %edx
                           .text:010030c5 47                               inc    %edi
                           .text:010030c6 55                               push   %ebp
                           .text:010030c7 4d                               dec    %ebp
                           .text:010030c8 45                               inc    %ebp
                           .text:010030c9 4e                               dec    %esi
                           .text:010030ca 54                               push   %esp
                           .text:010030cb 40                               inc    %eax
                           .text:010030cc 40                               inc    %eax
                           .text:010030cd 51                               push   %ecx
                           .text:010030ce 41                               inc    %ecx
                           .text:010030cf 45                               inc    %ebp
                           .text:010030d0 45                               inc    %ebp
                           .text:010030d1 50                               push   %eax
                           .text:010030d2 41                               inc    %ecx
                           .text:010030d3 44                               inc    %esp
                           .text:010030d4 40                               inc    %eax
                           .text:010030d5 5a                               pop    %edx
                           .text:010030d6 00 00                            add    %al,(%eax)
                           .text:010030d8 0b 01                            or     (%ecx),%eax
                           .text:010030da 3f                               aas    
                           .text:010030db 50                               push   %eax
                           .text:010030dc 72 65                            jb     0x01003143
                           .text:010030de 70 61                            jo     0x01003141
                           .text:010030e0 72 65                            jb     0x01003147
                           .text:010030e2 54                               push   %esp
                           .text:010030e3 6f                               outsl  %ds:(%esi),(%dx)
                           .text:010030e4 50                               push   %eax
                           .text:010030e5 61                               popa   
                           .text:010030e6 72 73                            jb     0x0100315b
                           .text:010030e8 65 40                            gs inc %eax
                           .text:010030ea 41                               inc    %ecx
                           .text:010030eb 52                               push   %edx
                           .text:010030ec 47                               inc    %edi
                           .text:010030ed 55                               push   %ebp
                           .text:010030ee 4d                               dec    %ebp
                           .text:010030ef 45                               inc    %ebp
                           .text:010030f0 4e                               dec    %esi
                           .text:010030f1 54                               push   %esp
                           .text:010030f2 5f                               pop    %edi
                           .text:010030f3 4c                               dec    %esp
                           .text:010030f4 45                               inc    %ebp
                           .text:010030f5 58                               pop    %eax
                           .text:010030f6 45                               inc    %ebp
                           .text:010030f7 4d                               dec    %ebp
                           .text:010030f8 49                               dec    %ecx
                           .text:010030f9 5a                               pop    %edx
                           .text:010030fa 45                               inc    %ebp
                           .text:010030fb 52                               push   %edx
                           .text:010030fc 40                               inc    %eax
                           .text:010030fd 40                               inc    %eax
                           .text:010030fe 51                               push   %ecx
                           .text:010030ff 41                               inc    %ecx
                           .text:01003100 45                               inc    %ebp
                           .text:01003101 45                               inc    %ebp
                           .text:01003102 50                               push   %eax
                           .text:01003103 41                               inc    %ecx
                           .text:01003104 56                               push   %esi
                           .text:01003105 57                               push   %edi
                           .text:01003106 53                               push   %ebx
                           .text:01003107 54                               push   %esp
                           .text:01003108 52                               push   %edx
                           .text:01003109 49                               dec    %ecx
                           .text:0100310a 4e                               dec    %esi
                           .text:0100310b 47                               inc    %edi
                           .text:0100310c 40                               inc    %eax
                           .text:0100310d 40                               inc    %eax
                           .text:0100310e 40                               inc    %eax
                           .text:0100310f 5a                               pop    %edx
                           .text:01003110 00 00                            add    %al,(%eax)
                           .text:01003112 68 01 3f 53 65                   push   $0x65533f01
                           .text:01003117 74 43                            je     0x0100315c
                           .text:01003119 61                               popa   
                           .text:0100311a 73 65                            jae    0x01003181
                           .text:0100311c 53                               push   %ebx
                           .text:0100311d 65 6e                            outsb  %gs:(%esi),(%dx)
                           .text:0100311f 73 69                            jae    0x0100318a
                           .text:01003121 74 69                            je     0x0100318c
                           .text:01003123 76 65                            jbe    0x0100318a
                           .text:01003125 40                               inc    %eax
                           .text:01003126 41                               inc    %ecx
                           .text:01003127 52                               push   %edx
                           .text:01003128 47                               inc    %edi
                           .text:01003129 55                               push   %ebp
                           .text:0100312a 4d                               dec    %ebp
                           .text:0100312b 45                               inc    %ebp
                           .text:0100312c 4e                               dec    %esi
                           .text:0100312d 54                               push   %esp
                           .text:0100312e 5f                               pop    %edi
                           .text:0100312f 4c                               dec    %esp
                           .text:01003130 45                               inc    %ebp
                           .text:01003131 58                               pop    %eax
                           .text:01003132 45                               inc    %ebp
                           .text:01003133 4d                               dec    %ebp
                           .text:01003134 49                               dec    %ecx
                           .text:01003135 5a                               pop    %edx
                           .text:01003136 45                               inc    %ebp
                           .text:01003137 52                               push   %edx
                           .text:01003138 40                               inc    %eax
                           .text:01003139 40                               inc    %eax
                           .text:0100313a 51                               push   %ecx
                           .text:0100313b 41                               inc    %ecx
                           .text:0100313c 45                               inc    %ebp
                           .text:0100313d 58                               pop    %eax
                           .text:0100313e 45                               inc    %ebp
                           .text:0100313f 40                               inc    %eax
                           .text:01003140 5a                               pop    %edx
                           .text:01003141 00 b6 00 3f 49 6e                add    %dh,0x6e493f00(%esi)
                           .text:01003147 69 74 69 61 6c 69 7a 65          imul   $0x657a696c,0x61(%ecx,%ebp,2),%esi
                           .text:0100314f 40                               inc    %eax
                           .text:01003150 41                               inc    %ecx
                           .text:01003151 52                               push   %edx
                           .text:01003152 47                               inc    %edi
                           .text:01003153 55                               push   %ebp
                           .text:01003154 4d                               dec    %ebp
                           .text:01003155 45                               inc    %ebp
                           .text:01003156 4e                               dec    %esi
                           .text:01003157 54                               push   %esp
                           .text:01003158 5f                               pop    %edi
                           .text:01003159 4c                               dec    %esp
                           .text:0100315a 45                               inc    %ebp
                           .text:0100315b 58                               pop    %eax
                           .text:0100315c 45                               inc    %ebp
                           .text:0100315d 4d                               dec    %ebp
                           .text:0100315e 49                               dec    %ecx
                           .text:0100315f 5a                               pop    %edx
                           .text:01003160 45                               inc    %ebp
                           .text:01003161 52                               push   %edx
                           .text:01003162 40                               inc    %eax
                           .text:01003163 40                               inc    %eax
                           .text:01003164 51                               push   %ecx
                           .text:01003165 41                               inc    %ecx
                           .text:01003166 45                               inc    %ebp
                           .text:01003167 45                               inc    %ebp
                           .text:01003168 50                               push   %eax
                           .text:01003169 41                               inc    %ecx
                           .text:0100316a 56                               push   %esi
                           .text:0100316b 41                               inc    %ecx
                           .text:0100316c 52                               push   %edx
                           .text:0100316d 52                               push   %edx
                           .text:0100316e 41                               inc    %ecx
                           .text:0100316f 59                               pop    %ecx
                           .text:01003170 40                               inc    %eax
                           .text:01003171 40                               inc    %eax
                           .text:01003172 40                               inc    %eax
                           .text:01003173 5a                               pop    %edx
                           .text:01003174 00 00                            add    %al,(%eax)
                           .text:01003176 b7 00                            mov    $0x0,%bh
                           .text:01003178 3f                               aas    
                           .text:01003179 49                               dec    %ecx
                           .text:0100317a 6e                               outsb  %ds:(%esi),(%dx)
                           .text:0100317b 69 74 69 61 6c 69 7a 65          imul   $0x657a696c,0x61(%ecx,%ebp,2),%esi
                           .text:01003183 40                               inc    %eax
                           .text:01003184 41                               inc    %ecx
                           .text:01003185 52                               push   %edx
                           .text:01003186 52                               push   %edx
                           .text:01003187 41                               inc    %ecx
                           .text:01003188 59                               pop    %ecx
                           .text:01003189 40                               inc    %eax
                           .text:0100318a 40                               inc    %eax
                           .text:0100318b 51                               push   %ecx
                           .text:0100318c 41                               inc    %ecx
                           .text:0100318d 45                               inc    %ebp
                           .text:0100318e 45                               inc    %ebp
                           .text:0100318f 4b                               dec    %ebx
                           .text:01003190 4b                               dec    %ebx
                           .text:01003191 40                               inc    %eax
                           .text:01003192 5a                               pop    %edx
                           .text:01003193 00 d6                            add    %dl,%dh
                           .text:01003195 00 3f                            add    %bh,(%edi)
                           .text:01003197 49                               dec    %ecx
                           .text:01003198 6e                               outsb  %ds:(%esi),(%dx)
                           .text:01003199 69 74 69 61 6c 69 7a 65          imul   $0x657a696c,0x61(%ecx,%ebp,2),%esi
                           .text:010031a1 40                               inc    %eax
                           .text:010031a2 53                               push   %ebx
                           .text:010031a3 54                               push   %esp
                           .text:010031a4 52                               push   %edx
                           .text:010031a5 45                               inc    %ebp
                           .text:010031a6 41                               inc    %ecx
                           .text:010031a7 4d                               dec    %ebp
                           .text:010031a8 5f                               pop    %edi
                           .text:010031a9 4d                               dec    %ebp
                           .text:010031aa 45                               inc    %ebp
                           .text:010031ab 53                               push   %ebx
                           .text:010031ac 53                               push   %ebx
                           .text:010031ad 41                               inc    %ecx
                           .text:010031ae 47                               inc    %edi
                           .text:010031af 45                               inc    %ebp
                           .text:010031b0 40                               inc    %eax
                           .text:010031b1 40                               inc    %eax
                           .text:010031b2 51                               push   %ecx
                           .text:010031b3 41                               inc    %ecx
                           .text:010031b4 45                               inc    %ebp
                           .text:010031b5 45                               inc    %ebp
                           .text:010031b6 50                               push   %eax
                           .text:010031b7 41                               inc    %ecx
                           .text:010031b8 56                               push   %esi
                           .text:010031b9 53                               push   %ebx
                           .text:010031ba 54                               push   %esp
                           .text:010031bb 52                               push   %edx
                           .text:010031bc 45                               inc    %ebp
                           .text:010031bd 41                               inc    %ecx
                           .text:010031be 4d                               dec    %ebp
                           .text:010031bf 40                               inc    %eax
                           .text:010031c0 40                               inc    %eax
                           .text:010031c1 30 30                            xor    %dh,(%eax)
                           .text:010031c3 40                               inc    %eax
                           .text:010031c4 5a                               pop    %edx
                           .text:010031c5 00 b3 00 3f 47 65                add    %dh,0x65473f00(%ebx)
                           .text:010031cb 74 5f                            je     0x0100322c
                           .text:010031cd 53                               push   %ebx
                           .text:010031ce 74 61                            je     0x01003231
                           .text:010031d0 6e                               outsb  %ds:(%esi),(%dx)
                           .text:010031d1 64 61                            fs popa 
                           .text:010031d3 72 64                            jb     0x01003239
                           .text:010031d5 5f                               pop    %edi
                           .text:010031d6 4f                               dec    %edi
                           .text:010031d7 75 74                            jne    0x0100324d
                           .text:010031d9 70 75                            jo     0x01003250
                           .text:010031db 74 5f                            je     0x0100323c
                           .text:010031dd 53                               push   %ebx
                           .text:010031de 74 72                            je     0x01003252
                           .text:010031e0 65 61                            gs popa 
                           .text:010031e2 6d                               insl   (%dx),%es:(%edi)
                           .text:010031e3 40                               inc    %eax
                           .text:010031e4 40                               inc    %eax
                           .text:010031e5 59                               pop    %ecx
                           .text:010031e6 47                               inc    %edi
                           .text:010031e7 50                               push   %eax
                           .text:010031e8 41                               inc    %ecx
                           .text:010031e9 56                               push   %esi
                           .text:010031ea 53                               push   %ebx
                           .text:010031eb 54                               push   %esp
                           .text:010031ec 52                               push   %edx
                           .text:010031ed 45                               inc    %ebp
                           .text:010031ee 41                               inc    %ecx
                           .text:010031ef 4d                               dec    %ebp
                           .text:010031f0 40                               inc    %eax
                           .text:010031f1 40                               inc    %eax
                           .text:010031f2 58                               pop    %eax
                           .text:010031f3 5a                               pop    %edx
                           .text:010031f4 00 00                            add    %al,(%eax)
                           .text:010031f6 b2 00                            mov    $0x0,%dl
                           .text:010031f8 3f                               aas    
                           .text:010031f9 47                               inc    %edi
                           .text:010031fa 65 74 5f                         gs je  0x0100325c
                           .text:010031fd 53                               push   %ebx
                           .text:010031fe 74 61                            je     0x01003261
                           .text:01003200 6e                               outsb  %ds:(%esi),(%dx)
                           .text:01003201 64 61                            fs popa 
                           .text:01003203 72 64                            jb     0x01003269
                           .text:01003205 5f                               pop    %edi
                           .text:01003206 49                               dec    %ecx
                           .text:01003207 6e                               outsb  %ds:(%esi),(%dx)
                           .text:01003208 70 75                            jo     0x0100327f
                           .text:0100320a 74 5f                            je     0x0100326b
                           .text:0100320c 53                               push   %ebx
                           .text:0100320d 74 72                            je     0x01003281
                           .text:0100320f 65 61                            gs popa 
                           .text:01003211 6d                               insl   (%dx),%es:(%edi)
                           .text:01003212 40                               inc    %eax
                           .text:01003213 40                               inc    %eax
                           .text:01003214 59                               pop    %ecx
                           .text:01003215 47                               inc    %edi
                           .text:01003216 50                               push   %eax
                           .text:01003217 41                               inc    %ecx
                           .text:01003218 56                               push   %esi
                           .text:01003219 53                               push   %ebx
                           .text:0100321a 54                               push   %esp
                           .text:0100321b 52                               push   %edx
                           .text:0100321c 45                               inc    %ebp
                           .text:0100321d 41                               inc    %ecx
                           .text:0100321e 4d                               dec    %ebp
                           .text:0100321f 40                               inc    %eax
                           .text:01003220 40                               inc    %eax
                           .text:01003221 58                               pop    %eax
                           .text:01003222 5a                               pop    %edx
                           .text:01003223 00 b1 00 3f 47 65                add    %dh,0x65473f00(%ecx)
                           .text:01003229 74 5f                            je     0x0100328a
                           .text:0100322b 53                               push   %ebx
                           .text:0100322c 74 61                            je     0x0100328f
                           .text:0100322e 6e                               outsb  %ds:(%esi),(%dx)
                           .text:0100322f 64 61                            fs popa 
                           .text:01003231 72 64                            jb     0x01003297
                           .text:01003233 5f                               pop    %edi
                           .text:01003234 45                               inc    %ebp
                           .text:01003235 72 72                            jb     0x010032a9
                           .text:01003237 6f                               outsl  %ds:(%esi),(%dx)
                           .text:01003238 72 5f                            jb     0x01003299
                           .text:0100323a 53                               push   %ebx
                           .text:0100323b 74 72                            je     0x010032af
                           .text:0100323d 65 61                            gs popa 
                           .text:0100323f 6d                               insl   (%dx),%es:(%edi)
                           .text:01003240 40                               inc    %eax
                           .text:01003241 40                               inc    %eax
                           .text:01003242 59                               pop    %ecx
                           .text:01003243 47                               inc    %edi
                           .text:01003244 50                               push   %eax
                           .text:01003245 41                               inc    %ecx
                           .text:01003246 56                               push   %esi
                           .text:01003247 53                               push   %ebx
                           .text:01003248 54                               push   %esp
                           .text:01003249 52                               push   %edx
                           .text:0100324a 45                               inc    %ebp
                           .text:0100324b 41                               inc    %ecx
                           .text:0100324c 4d                               dec    %ebp
                           .text:0100324d 40                               inc    %eax
                           .text:0100324e 40                               inc    %eax
                           .text:0100324f 58                               pop    %eax
                           .text:01003250 5a                               pop    %edx
                           .text:01003251 00 20                            add    %ah,(%eax)
                           .text:01003253 00 3f                            add    %bh,(%edi)
                           .text:01003255 3f                               aas    
                           .text:01003256 30 50 41                         xor    %dl,0x41(%eax)
                           .text:01003259 54                               push   %esp
                           .text:0100325a 48                               dec    %eax
                           .text:0100325b 40                               inc    %eax
                           .text:0100325c 40                               inc    %eax
                           .text:0100325d 51                               push   %ecx
                           .text:0100325e 41                               inc    %ecx
                           .text:0100325f 45                               inc    %ebp
                           .text:01003260 40                               inc    %eax
                           .text:01003261 58                               pop    %eax
                           .text:01003262 5a                               pop    %edx
                           .text:01003263 00 0e                            add    %cl,(%esi)
                           .text:01003265 00 3f                            add    %bh,(%edi)
                           .text:01003267 3f                               aas    
                           .text:01003268 30 46 4c                         xor    %al,0x4c(%esi)
                           .text:0100326b 41                               inc    %ecx
                           .text:0100326c 47                               inc    %edi
                           .text:0100326d 5f                               pop    %edi
                           .text:0100326e 41                               inc    %ecx
                           .text:0100326f 52                               push   %edx
                           .text:01003270 47                               inc    %edi
                           .text:01003271 55                               push   %ebp
                           .text:01003272 4d                               dec    %ebp
                           .text:01003273 45                               inc    %ebp
                           .text:01003274 4e                               dec    %esi
                           .text:01003275 54                               push   %esp
                           .text:01003276 40                               inc    %eax
                           .text:01003277 40                               inc    %eax
                           .text:01003278 51                               push   %ecx
                           .text:01003279 41                               inc    %ecx
                           .text:0100327a 45                               inc    %ebp
                           .text:0100327b 40                               inc    %eax
                           .text:0100327c 58                               pop    %eax
                           .text:0100327d 5a                               pop    %edx
                           .text:0100327e 00 00                            add    %al,(%eax)
                           .text:01003280 24 00                            and    $0x0,%al
                           .text:01003282 3f                               aas    
                           .text:01003283 3f                               aas    
                           .text:01003284 30 52 45                         xor    %dl,0x45(%edx)
                           .text:01003287 53                               push   %ebx
                           .text:01003288 54                               push   %esp
                           .text:01003289 5f                               pop    %edi
                           .text:0100328a 4f                               dec    %edi
                           .text:0100328b 46                               inc    %esi
                           .text:0100328c 5f                               pop    %edi
                           .text:0100328d 4c                               dec    %esp
                           .text:0100328e 49                               dec    %ecx
                           .text:0100328f 4e                               dec    %esi
                           .text:01003290 45                               inc    %ebp
                           .text:01003291 5f                               pop    %edi
                           .text:01003292 41                               inc    %ecx
                           .text:01003293 52                               push   %edx
                           .text:01003294 47                               inc    %edi
                           .text:01003295 55                               push   %ebp
                           .text:01003296 4d                               dec    %ebp
                           .text:01003297 45                               inc    %ebp
                           .text:01003298 4e                               dec    %esi
                           .text:01003299 54                               push   %esp
                           .text:0100329a 40                               inc    %eax
                           .text:0100329b 40                               inc    %eax
                           .text:0100329c 51                               push   %ecx
                           .text:0100329d 41                               inc    %ecx
                           .text:0100329e 45                               inc    %ebp
                           .text:0100329f 40                               inc    %eax
                           .text:010032a0 58                               pop    %eax
                           .text:010032a1 5a                               pop    %edx
                           .text:010032a2 00 00                            add    %al,(%eax)
                           .text:010032a4 28 00                            sub    %al,(%eax)
                           .text:010032a6 3f                               aas    
                           .text:010032a7 3f                               aas    
                           .text:010032a8 30 53 54                         xor    %dl,0x54(%ebx)
                           .text:010032ab 52                               push   %edx
                           .text:010032ac 49                               dec    %ecx
                           .text:010032ad 4e                               dec    %esi
                           .text:010032ae 47                               inc    %edi
                           .text:010032af 5f                               pop    %edi
                           .text:010032b0 41                               inc    %ecx
                           .text:010032b1 52                               push   %edx
                           .text:010032b2 47                               inc    %edi
                           .text:010032b3 55                               push   %ebp
                           .text:010032b4 4d                               dec    %ebp
                           .text:010032b5 45                               inc    %ebp
                           .text:010032b6 4e                               dec    %esi
                           .text:010032b7 54                               push   %esp
                           .text:010032b8 40                               inc    %eax
                           .text:010032b9 40                               inc    %eax
                           .text:010032ba 51                               push   %ecx
                           .text:010032bb 41                               inc    %ecx
                           .text:010032bc 45                               inc    %ebp
                           .text:010032bd 40                               inc    %eax
                           .text:010032be 58                               pop    %eax
                           .text:010032bf 5a                               pop    %edx
                           .text:010032c0 00 00                            add    %al,(%eax)
                           .text:010032c2 01 00                            add    %eax,(%eax)
                           .text:010032c4 3f                               aas    
                           .text:010032c5 3f                               aas    
                           .text:010032c6 30 41 52                         xor    %al,0x52(%ecx)
                           .text:010032c9 52                               push   %edx
                           .text:010032ca 41                               inc    %ecx
                           .text:010032cb 59                               pop    %ecx
                           .text:010032cc 40                               inc    %eax
                           .text:010032cd 40                               inc    %eax
                           .text:010032ce 51                               push   %ecx
                           .text:010032cf 41                               inc    %ecx
                           .text:010032d0 45                               inc    %ebp
                           .text:010032d1 40                               inc    %eax
                           .text:010032d2 58                               pop    %eax
                           .text:010032d3 5a                               pop    %edx
                           .text:010032d4 00 00                            add    %al,(%eax)
                           .text:010032d6 00 00                            add    %al,(%eax)
                           .text:010032d8 3f                               aas    
                           .text:010032d9 3f                               aas    
                           .text:010032da 30 41 52                         xor    %al,0x52(%ecx)
                           .text:010032dd 47                               inc    %edi
                           .text:010032de 55                               push   %ebp
                           .text:010032df 4d                               dec    %ebp
                           .text:010032e0 45                               inc    %ebp
                           .text:010032e1 4e                               dec    %esi
                           .text:010032e2 54                               push   %esp
                           .text:010032e3 5f                               pop    %edi
                           .text:010032e4 4c                               dec    %esp
                           .text:010032e5 45                               inc    %ebp
                           .text:010032e6 58                               pop    %eax
                           .text:010032e7 45                               inc    %ebp
                           .text:010032e8 4d                               dec    %ebp
                           .text:010032e9 49                               dec    %ecx
                           .text:010032ea 5a                               pop    %edx
                           .text:010032eb 45                               inc    %ebp
                           .text:010032ec 52                               push   %edx
                           .text:010032ed 40                               inc    %eax
                           .text:010032ee 40                               inc    %eax
                           .text:010032ef 51                               push   %ecx
                           .text:010032f0 41                               inc    %ecx
                           .text:010032f1 45                               inc    %ebp
                           .text:010032f2 40                               inc    %eax
                           .text:010032f3 58                               pop    %eax
                           .text:010032f4 5a                               pop    %edx
                           .text:010032f5 00 27                            add    %ah,(%edi)
                           .text:010032f7 00 3f                            add    %bh,(%edi)
                           .text:010032f9 3f                               aas    
                           .text:010032fa 30 53 54                         xor    %dl,0x54(%ebx)
                           .text:010032fd 52                               push   %edx
                           .text:010032fe 45                               inc    %ebp
                           .text:010032ff 41                               inc    %ecx
                           .text:01003300 4d                               dec    %ebp
                           .text:01003301 5f                               pop    %edi
                           .text:01003302 4d                               dec    %ebp
                           .text:01003303 45                               inc    %ebp
                           .text:01003304 53                               push   %ebx
                           .text:01003305 53                               push   %ebx
                           .text:01003306 41                               inc    %ecx
                           .text:01003307 47                               inc    %edi
                           .text:01003308 45                               inc    %ebp
                           .text:01003309 40                               inc    %eax
                           .text:0100330a 40                               inc    %eax
                           .text:0100330b 51                               push   %ecx
                           .text:0100330c 41                               inc    %ecx
                           .text:0100330d 45                               inc    %ebp
                           .text:0100330e 40                               inc    %eax
                           .text:0100330f 58                               pop    %eax
                           .text:01003310 5a                               pop    %edx
                           .text:01003311 00 75 6c                         add    %dh,0x6c(%ebp)
                           .text:01003314 69 62 2e 64 6c 6c 00             imul   $0x6c6c64,0x2e(%edx),%esp
                           .text:0100331b 00 45 00                         add    %al,0x0(%ebp)
                           .text:0100331e 3f                               aas    
                           .text:0100331f 44                               inc    %esp
                           .text:01003320 6f                               outsl  %ds:(%esi),(%dx)
                           .text:01003321 73 44                            jae    0x01003367
                           .text:01003323 72 69                            jb     0x0100338e
                           .text:01003325 76 65                            jbe    0x0100338c
                           .text:01003327 4e                               dec    %esi
                           .text:01003328 61                               popa   
                           .text:01003329 6d                               insl   (%dx),%es:(%edi)
                           .text:0100332a 65 54                            gs push %esp
                           .text:0100332c 6f                               outsl  %ds:(%esi),(%dx)
                           .text:0100332d 4e                               dec    %esi
                           .text:0100332e 74 44                            je     0x01003374
                           .text:01003330 72 69                            jb     0x0100339b
                           .text:01003332 76 65                            jbe    0x01003399
                           .text:01003334 4e                               dec    %esi
                           .text:01003335 61                               popa   
                           .text:01003336 6d                               insl   (%dx),%es:(%edi)
                           .text:01003337 65 40                            gs inc %eax
                           .text:01003339 49                               dec    %ecx
                           .text:0100333a 46                               inc    %esi
                           .text:0100333b 53                               push   %ebx
                           .text:0100333c 5f                               pop    %edi
                           .text:0100333d 53                               push   %ebx
                           .text:0100333e 59                               pop    %ecx
                           .text:0100333f 53                               push   %ebx
                           .text:01003340 54                               push   %esp
                           .text:01003341 45                               inc    %ebp
                           .text:01003342 4d                               dec    %ebp
                           .text:01003343 40                               inc    %eax
                           .text:01003344 40                               inc    %eax
                           .text:01003345 53                               push   %ebx
                           .text:01003346 47                               inc    %edi
                           .text:01003347 45                               inc    %ebp
                           .text:01003348 50                               push   %eax
                           .text:01003349 42                               inc    %edx
                           .text:0100334a 56                               push   %esi
                           .text:0100334b 57                               push   %edi
                           .text:0100334c 53                               push   %ebx
                           .text:0100334d 54                               push   %esp
                           .text:0100334e 52                               push   %edx
                           .text:0100334f 49                               dec    %ecx
                           .text:01003350 4e                               dec    %esi
                           .text:01003351 47                               inc    %edi
                           .text:01003352 40                               inc    %eax
                           .text:01003353 40                               inc    %eax
                           .text:01003354 50                               push   %eax
                           .text:01003355 41                               inc    %ecx
                           .text:01003356 56                               push   %esi
                           .text:01003357 32 40 40                         xor    0x40(%eax),%al
                           .text:0100335a 5a                               pop    %edx
                           .text:0100335b 00 69 66                         add    %ch,0x66(%ecx)
                           .text:0100335e 73 75                            jae    0x010033d5
                           .text:01003360 74 69                            je     0x010033cb
                           .text:01003362 6c                               insb   (%dx),%es:(%edi)
                           .text:01003363 2e 64 6c                         cs fs insb (%dx),%es:(%edi)
                           .text:01003366 6c                               insb   (%dx),%es:(%edi)
                           .text:01003367 00 47 03                         add    %al,0x3(%edi)
                           .text:0100336a 52                               push   %edx
                           .text:0100336b 74 6c                            je     0x010033d9
                           .text:0100336d 46                               inc    %esi
                           .text:0100336e 72 65                            jb     0x010033d5
                           .text:01003370 65 48                            gs dec %eax
                           .text:01003372 65 61                            gs popa 
                           .text:01003374 70 00                            jo     0x01003376
                           .text:01003376 57                               push   %edi
                           .text:01003377 01 4e 74                         add    %ecx,0x74(%esi)
                           .text:0100337a 4f                               dec    %edi
                           .text:0100337b 70 65                            jo     0x010033e2
                           .text:0100337d 6e                               outsb  %ds:(%esi),(%dx)
                           .text:0100337e 46                               inc    %esi
                           .text:0100337f 69 6c 65 00 00 d4 00 4e          imul   $0x4e00d400,0x0(%ebp,%eiz,2),%ebp
                           .text:01003387 74 43                            je     0x010033cc
                           .text:01003389 6c                               insb   (%dx),%es:(%edi)
                           .text:0100338a 6f                               outsl  %ds:(%esi),(%dx)
                           .text:0100338b 73 65                            jae    0x010033f2
                           .text:0100338d 00 b0 01 4e 74 51                add    %dh,0x51744e01(%eax)
                           .text:01003393 75 65                            jne    0x010033fa
                           .text:01003395 72 79                            jb     0x01003410
                           .text:01003397 56                               push   %esi
                           .text:01003398 6f                               outsl  %ds:(%esi),(%dx)
                           .text:01003399 6c                               insb   (%dx),%es:(%edi)
                           .text:0100339a 75 6d                            jne    0x01003409
                           .text:0100339c 65 49                            gs dec %ecx
                           .text:0100339e 6e                               outsb  %ds:(%esi),(%dx)
                           .text:0100339f 66 6f                            outsw  %ds:(%esi),(%dx)
                           .text:010033a1 72 6d                            jb     0x01003410
                           .text:010033a3 61                               popa   
                           .text:010033a4 74 69                            je     0x0100340f
                           .text:010033a6 6f                               outsl  %ds:(%esi),(%dx)
                           .text:010033a7 6e                               outsb  %ds:(%esi),(%dx)
                           .text:010033a8 46                               inc    %esi
                           .text:010033a9 69 6c 65 00 00 0b 02 4e          imul   $0x4e020b00,0x0(%ebp,%eiz,2),%ebp
                           .text:010033b1 74 53                            je     0x01003406
                           .text:010033b3 65 74 56                         gs je  0x0100340c
                           .text:010033b6 6f                               outsl  %ds:(%esi),(%dx)
                           .text:010033b7 6c                               insb   (%dx),%es:(%edi)
                           .text:010033b8 75 6d                            jne    0x01003427
                           .text:010033ba 65 49                            gs dec %ecx
                           .text:010033bc 6e                               outsb  %ds:(%esi),(%dx)
                           .text:010033bd 66 6f                            outsw  %ds:(%esi),(%dx)
                           .text:010033bf 72 6d                            jb     0x0100342e
                           .text:010033c1 61                               popa   
                           .text:010033c2 74 69                            je     0x0100342d
                           .text:010033c4 6f                               outsl  %ds:(%esi),(%dx)
                           .text:010033c5 6e                               outsb  %ds:(%esi),(%dx)
                           .text:010033c6 46                               inc    %esi
                           .text:010033c7 69 6c 65 00 00 6e 74 64          imul   $0x64746e00,0x0(%ebp,%eiz,2),%ebp
                           .text:010033cf 6c                               insb   (%dx),%es:(%edi)
                           .text:010033d0 6c                               insb   (%dx),%es:(%edi)
                           .text:010033d1 2e 64 6c                         cs fs insb (%dx),%es:(%edi)
                           .text:010033d4 6c                               insb   (%dx),%es:(%edi)
                           .text:010033d5 00 ec                            add    %ch,%ah
                           .text:010033d7 02 49 6e                         add    0x6e(%ecx),%cl
                           .text:010033da 74 65                            je     0x01003441
                           .text:010033dc 72 6c                            jb     0x0100344a
                           .text:010033de 6f                               outsl  %ds:(%esi),(%dx)
                           .text:010033df 63 6b 65                         arpl   %bp,0x65(%ebx)
                           .text:010033e2 64 45                            fs inc %ebp
                           .text:010033e4 78 63                            js     0x01003449
                           .text:010033e6 68 61 6e 67 65                   push   $0x65676e61
                           .text:010033eb 00 b2 04 53 6c 65                add    %dh,0x656c5304(%edx)
                           .text:010033f1 65 70 00                         gs jo  0x010033f4
                           .text:010033f4 e9 02 49 6e 74                   jmp    0x756e7cfb
                           .text:010033f9 65 72 6c                         gs jb  0x01003468
                           .text:010033fc 6f                               outsl  %ds:(%esi),(%dx)
                           .text:010033fd 63 6b 65                         arpl   %bp,0x65(%ebx)
                           .text:01003400 64 43                            fs inc %ebx
                           .text:01003402 6f                               outsl  %ds:(%esi),(%dx)
                           .text:01003403 6d                               insl   (%dx),%es:(%edi)
                           .text:01003404 70 61                            jo     0x01003467
                           .text:01003406 72 65                            jb     0x0100346d
                           .text:01003408 45                               inc    %ebp
                           .text:01003409 78 63                            js     0x0100346e
                           .text:0100340b 68 61 6e 67 65                   push   $0x65676e61
                           .text:01003410 00 00                            add    %al,(%eax)
                           .text:01003412 a5                               movsl  %ds:(%esi),%es:(%edi)
                           .text:01003413 04 53                            add    $0x53,%al
                           .text:01003415 65 74 55                         gs je  0x0100346d
                           .text:01003418 6e                               outsb  %ds:(%esi),(%dx)
                           .text:01003419 68 61 6e 64 6c                   push   $0x6c646e61
                           .text:0100341e 65 64 45                         gs fs inc %ebp
                           .text:01003421 78 63                            js     0x01003486
                           .text:01003423 65 70 74                         gs jo  0x0100349a
                           .text:01003426 69 6f 6e 46 69 6c 74             imul   $0x746c6946,0x6e(%edi),%ebp
                           .text:0100342d 65 72 00                         gs jb  0x01003430
                           .text:01003430 15 02 47 65 74                   adc    $0x74654702,%eax
                           .text:01003435 4d                               dec    %ebp
                           .text:01003436 6f                               outsl  %ds:(%esi),(%dx)
                           .text:01003437 64 75 6c                         fs jne 0x010034a6
                           .text:0100343a 65 48                            gs dec %eax
                           .text:0100343c 61                               popa   
                           .text:0100343d 6e                               outsb  %ds:(%esi),(%dx)
                           .text:0100343e 64 6c                            fs insb (%dx),%es:(%edi)
                           .text:01003440 65 41                            gs inc %ecx
                           .text:01003442 00 00                            add    %al,(%eax)
                           .text:01003444 a7                               cmpsl  %es:(%edi),%ds:(%esi)
                           .text:01003445 03 51 75                         add    0x75(%ecx),%edx
                           .text:01003448 65 72 79                         gs jb  0x010034c4
                           .text:0100344b 50                               push   %eax
                           .text:0100344c 65 72 66                         gs jb  0x010034b5
                           .text:0100344f 6f                               outsl  %ds:(%esi),(%dx)
                           .text:01003450 72 6d                            jb     0x010034bf
                           .text:01003452 61                               popa   
                           .text:01003453 6e                               outsb  %ds:(%esi),(%dx)
                           .text:01003454 63 65 43                         arpl   %sp,0x43(%ebp)
                           .text:01003457 6f                               outsl  %ds:(%esi),(%dx)
                           .text:01003458 75 6e                            jne    0x010034c8
                           .text:0100345a 74 65                            je     0x010034c1
                           .text:0100345c 72 00                            jb     0x0100345e
                           .text:0100345e 93                               xchg   %eax,%ebx
                           .text:0100345f 02 47 65                         add    0x65(%edi),%al
                           .text:01003462 74 54                            je     0x010034b8
                           .text:01003464 69 63 6b 43 6f 75 6e             imul   $0x6e756f43,0x6b(%ebx),%esp
                           .text:0100346b 74 00                            je     0x0100346d
                           .text:0100346d 00 c5                            add    %al,%ch
                           .text:0100346f 01 47 65                         add    %eax,0x65(%edi)
                           .text:01003472 74 43                            je     0x010034b7
                           .text:01003474 75 72                            jne    0x010034e8
                           .text:01003476 72 65                            jb     0x010034dd
                           .text:01003478 6e                               outsb  %ds:(%esi),(%dx)
                           .text:01003479 74 54                            je     0x010034cf
                           .text:0100347b 68 72 65 61 64                   push   $0x64616572
                           .text:01003480 49                               dec    %ecx
                           .text:01003481 64 00 00                         add    %al,%fs:(%eax)
                           .text:01003484 c1 01 47                         roll   $0x47,(%ecx)
                           .text:01003487 65 74 43                         gs je  0x010034cd
                           .text:0100348a 75 72                            jne    0x010034fe
                           .text:0100348c 72 65                            jb     0x010034f3
                           .text:0100348e 6e                               outsb  %ds:(%esi),(%dx)
                           .text:0100348f 74 50                            je     0x010034e1
                           .text:01003491 72 6f                            jb     0x01003502
                           .text:01003493 63 65 73                         arpl   %sp,0x73(%ebp)
                           .text:01003496 73 49                            jae    0x010034e1
                           .text:01003498 64 00 79 02                      add    %bh,%fs:0x2(%ecx)
                           .text:0100349c 47                               inc    %edi
                           .text:0100349d 65 74 53                         gs je  0x010034f3
                           .text:010034a0 79 73                            jns    0x01003515
                           .text:010034a2 74 65                            je     0x01003509
                           .text:010034a4 6d                               insl   (%dx),%es:(%edi)
                           .text:010034a5 54                               push   %esp
                           .text:010034a6 69 6d 65 41 73 46 69             imul   $0x69467341,0x65(%ebp),%ebp
                           .text:010034ad 6c                               insb   (%dx),%es:(%edi)
                           .text:010034ae 65 54                            gs push %esp
                           .text:010034b0 69 6d 65 00 c0 04 54             imul   $0x5404c000,0x65(%ebp),%ebp
                           .text:010034b7 65 72 6d                         gs jb  0x01003527
                           .text:010034ba 69 6e 61 74 65 50 72             imul   $0x72506574,0x61(%esi),%ebp
                           .text:010034c1 6f                               outsl  %ds:(%esi),(%dx)
                           .text:010034c2 63 65 73                         arpl   %sp,0x73(%ebp)
                           .text:010034c5 73 00                            jae    0x010034c7
                           .text:010034c7 00 c0                            add    %al,%al
                           .text:010034c9 01 47 65                         add    %eax,0x65(%edi)
                           .text:010034cc 74 43                            je     0x01003511
                           .text:010034ce 75 72                            jne    0x01003542
                           .text:010034d0 72 65                            jb     0x01003537
                           .text:010034d2 6e                               outsb  %ds:(%esi),(%dx)
                           .text:010034d3 74 50                            je     0x01003525
                           .text:010034d5 72 6f                            jb     0x01003546
                           .text:010034d7 63 65 73                         arpl   %sp,0x73(%ebp)
                           .text:010034da 73 00                            jae    0x010034dc
                           .text:010034dc d3 04 55 6e 68 61 6e             roll   %cl,0x6e61686e(,%edx,2)
                           .text:010034e3 64 6c                            fs insb (%dx),%es:(%edi)
                           .text:010034e5 65 64 45                         gs fs inc %ebp
                           .text:010034e8 78 63                            js     0x0100354d
                           .text:010034ea 65 70 74                         gs jo  0x01003561
                           .text:010034ed 69 6f 6e 46 69 6c 74             imul   $0x746c6946,0x6e(%edi),%ebp
                           .text:010034f4 65 72 00                         gs jb  0x010034f7
                           .text:010034f7 00                               .byte 0x0
                           .data:01004000 4e                               0x4e 'N'
                           .data:01004001 e6                               0xe6 
                           .data:01004002 40                               0x40 '@'
                           .data:01004003 bb                               0xbb 
                           .data:01004004 b1                               0xb1 
                           .data:01004005 19                               0x19 
                           .data:01004006 bf                               0xbf 
                           .data:01004007 44                               0x44 'D'
                           .data:01004008 ff                               0xff 
                           .data:01004009 ff                               0xff 
                           .data:0100400a ff                               0xff 
                           .data:0100400b ff                               0xff 
                           .data:0100400c ff                               0xff 
                           .data:0100400d ff                               0xff 
                           .data:0100400e ff                               0xff 
                           .data:0100400f ff                               0xff 
                           .data:01004010 01                               0x01 
                           .data:01004011 00                               0x00 
                           .data:01004012 00                               0x00 
                           .data:01004013 00                               0x00 
                           .data:01004014 00                               0x00 
                           .data:01004015 00                               0x00 
                           .data:01004016 00                               0x00 
                           .data:01004017 00                               0x00 
                           .data:01004018 00                               0x00 
                           .data:01004019 00                               0x00 
                           .data:0100401a 00                               0x00 
                           .data:0100401b 00                               0x00 
                           .data:0100401c 00                               0x00 
                           .data:0100401d 00                               0x00 
                           .data:0100401e 00                               0x00 
                           .data:0100401f 00                               0x00 
                           .data:01004020 00                               0x00 
                           .data:01004021 00                               0x00 
                           .data:01004022 00                               0x00 
                           .data:01004023 00                               0x00 
                           .data:01004024 00                               0x00 
                           .data:01004025 00                               0x00 
                           .data:01004026 00                               0x00 
                           .data:01004027 00                               0x00 
                           .data:01004028 00                               0x00 
                           .data:01004029 00                               0x00 
                           .data:0100402a 00                               0x00 
                           .data:0100402b 00                               0x00 
                           .data:0100402c 00                               0x00 
                           .data:0100402d 00                               0x00 
                           .data:0100402e 00                               0x00 
                           .data:0100402f 00                               0x00 
                           .data:01004030 00                               0x00 
                           .data:01004031 00                               0x00 
                           .data:01004032 00                               0x00 
                           .data:01004033 00                               0x00 
                           .data:01004034 00                               0x00 
                           .data:01004035 00                               0x00 
                           .data:01004036 00                               0x00 
                           .data:01004037 00                               0x00 
                           .data:01004038 00                               0x00 
                           .data:01004039 00                               0x00 
                           .data:0100403a 00                               0x00 
                           .data:0100403b 00                               0x00 
                           .data:0100403c 00                               0x00 
                           .data:0100403d 00                               0x00 
                           .data:0100403e 00                               0x00 
                           .data:0100403f 00                               0x00 
                           .data:01004040 00                               0x00 
                           .data:01004041 00                               0x00 
                           .data:01004042 00                               0x00 
                           .data:01004043 00                               0x00 
                           .data:01004044 00                               0x00 
                           .data:01004045 00                               0x00 
                           .data:01004046 00                               0x00 
                           .data:01004047 00                               0x00 
                           .data:01004048 00                               0x00 
                           .data:01004049 00                               0x00 
                           .data:0100404a 00                               0x00 
                           .data:0100404b 00                               0x00 
                           .data:0100404c 00                               0x00 
                           .data:0100404d 00                               0x00 
                           .data:0100404e 00                               0x00 
                           .data:0100404f 00                               0x00 
                           .data:01004050 00                               0x00 
                           .data:01004051 00                               0x00 
                           .data:01004052 00                               0x00 
                           .data:01004053 00                               0x00 
                           .data:01004054 00                               0x00 
                           .data:01004055 00                               0x00 
                           .data:01004056 00                               0x00 
                           .data:01004057 00                               0x00 
                           .data:01004058 00                               0x00 
                           .data:01004059 00                               0x00 
                           .data:0100405a 00                               0x00 
                           .data:0100405b 00                               0x00 
                           .data:0100405c 00                               0x00 
                           .data:0100405d 00                               0x00 
                           .data:0100405e 00                               0x00 
                           .data:0100405f 00                               0x00 
                           .data:01004060 00                               0x00 
                           .data:01004061 00                               0x00 
                           .data:01004062 00                               0x00 
                           .data:01004063 00                               0x00 
                           .data:01004064 00                               0x00 
                           .data:01004065 00                               0x00 
                           .data:01004066 00                               0x00 
                           .data:01004067 00                               0x00 
                           .data:01004068 00                               0x00 
                           .data:01004069 00                               0x00 
                           .data:0100406a 00                               0x00 
                           .data:0100406b 00                               0x00 
                           .data:0100406c 00                               0x00 
                           .data:0100406d 00                               0x00 
                           .data:0100406e 00                               0x00 
                           .data:0100406f 00                               0x00 
                           .data:01004070 00                               0x00 
                           .data:01004071 00                               0x00 
                           .data:01004072 00                               0x00 
                           .data:01004073 00                               0x00 
                           .data:01004074 00                               0x00 
                           .data:01004075 00                               0x00 
                           .data:01004076 00                               0x00 
                           .data:01004077 00                               0x00 
                           .data:01004078 00                               0x00 
                           .data:01004079 00                               0x00 
                           .data:0100407a 00                               0x00 
                           .data:0100407b 00                               0x00 
                           .data:0100407c 00                               0x00 
                           .data:0100407d 00                               0x00 
                           .data:0100407e 00                               0x00 
                           .data:0100407f 00                               0x00 
                           .data:01004080 00                               0x00 
                           .data:01004081 00                               0x00 
                           .data:01004082 00                               0x00 
                           .data:01004083 00                               0x00 
                           .data:01004084 00                               0x00 
                           .data:01004085 00                               0x00 
                           .data:01004086 00                               0x00 
                           .data:01004087 00                               0x00 
                           .data:01004088 00                               0x00 
                           .data:01004089 00                               0x00 
                           .data:0100408a 00                               0x00 
                           .data:0100408b 00                               0x00 
                           .data:0100408c 00                               0x00 
                           .data:0100408d 00                               0x00 
                           .data:0100408e 00                               0x00 
                           .data:0100408f 00                               0x00 
                           .data:01004090 00                               0x00 
                           .data:01004091 00                               0x00 
                           .data:01004092 00                               0x00 
                           .data:01004093 00                               0x00 
                           .data:01004094 00                               0x00 
                           .data:01004095 00                               0x00 
                           .data:01004096 00                               0x00 
                           .data:01004097 00                               0x00 
                           .data:01004098 00                               0x00 
                           .data:01004099 00                               0x00 
                           .data:0100409a 00                               0x00 
                           .data:0100409b 00                               0x00 
                           .data:0100409c 00                               0x00 
                           .data:0100409d 00                               0x00 
                           .data:0100409e 00                               0x00 
                           .data:0100409f 00                               0x00 
                           .data:010040a0 00                               0x00 
                           .data:010040a1 00                               0x00 
                           .data:010040a2 00                               0x00 
                           .data:010040a3 00                               0x00 
                           .data:010040a4 00                               0x00 
                           .data:010040a5 00                               0x00 
                           .data:010040a6 00                               0x00 
                           .data:010040a7 00                               0x00 
                           .data:010040a8 00                               0x00 
                           .data:010040a9 00                               0x00 
                           .data:010040aa 00                               0x00 
                           .data:010040ab 00                               0x00 
                           .data:010040ac 00                               0x00 
                           .data:010040ad 00                               0x00 
                           .data:010040ae 00                               0x00 
                           .data:010040af 00                               0x00 
                           .data:010040b0 00                               0x00 
                           .data:010040b1 00                               0x00 
                           .data:010040b2 00                               0x00 
                           .data:010040b3 00                               0x00 
                           .data:010040b4 00                               0x00 
                           .data:010040b5 00                               0x00 
                           .data:010040b6 00                               0x00 
                           .data:010040b7 00                               0x00 
                           .data:010040b8 00                               0x00 
                           .data:010040b9 00                               0x00 
                           .data:010040ba 00                               0x00 
                           .data:010040bb 00                               0x00 
                           .data:010040bc 00                               0x00 
                           .data:010040bd 00                               0x00 
                           .data:010040be 00                               0x00 
                           .data:010040bf 00                               0x00 
                           .data:010040c0 00                               0x00 
                           .data:010040c1 00                               0x00 
                           .data:010040c2 00                               0x00 
                           .data:010040c3 00                               0x00 
                           .data:010040c4 00                               0x00 
                           .data:010040c5 00                               0x00 
                           .data:010040c6 00                               0x00 
                           .data:010040c7 00                               0x00 
                           .data:010040c8 00                               0x00 
                           .data:010040c9 00                               0x00 
                           .data:010040ca 00                               0x00 
                           .data:010040cb 00                               0x00 
                           .data:010040cc 00                               0x00 
                           .data:010040cd 00                               0x00 
                           .data:010040ce 00                               0x00 
                           .data:010040cf 00                               0x00 
                           .data:010040d0 00                               0x00 
                           .data:010040d1 00                               0x00 
                           .data:010040d2 00                               0x00 
                           .data:010040d3 00                               0x00 
                           .data:010040d4 00                               0x00 
                           .data:010040d5 00                               0x00 
                           .data:010040d6 00                               0x00 
                           .data:010040d7 00                               0x00 
                           .data:010040d8 00                               0x00 
                           .data:010040d9 00                               0x00 
                           .data:010040da 00                               0x00 
                           .data:010040db 00                               0x00 
                           .data:010040dc 00                               0x00 
                           .data:010040dd 00                               0x00 
                           .data:010040de 00                               0x00 
                           .data:010040df 00                               0x00 
                           .data:010040e0 00                               0x00 
                           .data:010040e1 00                               0x00 
                           .data:010040e2 00                               0x00 
                           .data:010040e3 00                               0x00 
                           .data:010040e4 00                               0x00 
                           .data:010040e5 00                               0x00 
                           .data:010040e6 00                               0x00 
                           .data:010040e7 00                               0x00 
                           .data:010040e8 00                               0x00 
                           .data:010040e9 00                               0x00 
                           .data:010040ea 00                               0x00 
                           .data:010040eb 00                               0x00 
                           .data:010040ec 00                               0x00 
                           .data:010040ed 00                               0x00 
                           .data:010040ee 00                               0x00 
                           .data:010040ef 00                               0x00 
                           .data:010040f0 00                               0x00 
                           .data:010040f1 00                               0x00 
                           .data:010040f2 00                               0x00 
                           .data:010040f3 00                               0x00 
                           .data:010040f4 00                               0x00 
                           .data:010040f5 00                               0x00 
                           .data:010040f6 00                               0x00 
                           .data:010040f7 00                               0x00 
                           .data:010040f8 00                               0x00 
                           .data:010040f9 00                               0x00 
                           .data:010040fa 00                               0x00 
                           .data:010040fb 00                               0x00 
                           .data:010040fc 00                               0x00 
                           .data:010040fd 00                               0x00 
                           .data:010040fe 00                               0x00 
                           .data:010040ff 00                               0x00 
                           .data:01004100 00                               0x00 
                           .data:01004101 00                               0x00 
                           .data:01004102 00                               0x00 
                           .data:01004103 00                               0x00 
                           .data:01004104 00                               0x00 
                           .data:01004105 00                               0x00 
                           .data:01004106 00                               0x00 
                           .data:01004107 00                               0x00 
                           .data:01004108 00                               0x00 
                           .data:01004109 00                               0x00 
                           .data:0100410a 00                               0x00 
                           .data:0100410b 00                               0x00 
                           .data:0100410c 00                               0x00 
                           .data:0100410d 00                               0x00 
                           .data:0100410e 00                               0x00 
                           .data:0100410f 00                               0x00 
                           .data:01004110 00                               0x00 
                           .data:01004111 00                               0x00 
                           .data:01004112 00                               0x00 
                           .data:01004113 00                               0x00 
                           .data:01004114 00                               0x00 
                           .data:01004115 00                               0x00 
                           .data:01004116 00                               0x00 
                           .data:01004117 00                               0x00 
                           .data:01004118 00                               0x00 
                           .data:01004119 00                               0x00 
                           .data:0100411a 00                               0x00 
                           .data:0100411b 00                               0x00 
                           .data:0100411c 00                               0x00 
                           .data:0100411d 00                               0x00 
                           .data:0100411e 00                               0x00 
                           .data:0100411f 00                               0x00 
                           .data:01004120 00                               0x00 
                           .data:01004121 00                               0x00 
                           .data:01004122 00                               0x00 
                           .data:01004123 00                               0x00 
                           .data:01004124 00                               0x00 
                           .data:01004125 00                               0x00 
                           .data:01004126 00                               0x00 
                           .data:01004127 00                               0x00 
                           .data:01004128 00                               0x00 
                           .data:01004129 00                               0x00 
                           .data:0100412a 00                               0x00 
                           .data:0100412b 00                               0x00 
                           .data:0100412c 00                               0x00 
                           .data:0100412d 00                               0x00 
                           .data:0100412e 00                               0x00 
                           .data:0100412f 00                               0x00 
                           .data:01004130 00                               0x00 
                           .data:01004131 00                               0x00 
                           .data:01004132 00                               0x00 
                           .data:01004133 00                               0x00 
                           .data:01004134 00                               0x00 
                           .data:01004135 00                               0x00 
                           .data:01004136 00                               0x00 
                           .data:01004137 00                               0x00 
                           .data:01004138 00                               0x00 
                           .data:01004139 00                               0x00 
                           .data:0100413a 00                               0x00 
                           .data:0100413b 00                               0x00 
                           .data:0100413c 00                               0x00 
                           .data:0100413d 00                               0x00 
                           .data:0100413e 00                               0x00 
                           .data:0100413f 00                               0x00 
                           .data:01004140 00                               0x00 
                           .data:01004141 00                               0x00 
                           .data:01004142 00                               0x00 
                           .data:01004143 00                               0x00 
                           .data:01004144 00                               0x00 
                           .data:01004145 00                               0x00 
                           .data:01004146 00                               0x00 
                           .data:01004147 00                               0x00 
                           .data:01004148 00                               0x00 
                           .data:01004149 00                               0x00 
                           .data:0100414a 00                               0x00 
                           .data:0100414b 00                               0x00 
                           .data:0100414c 00                               0x00 
                           .data:0100414d 00                               0x00 
                           .data:0100414e 00                               0x00 
                           .data:0100414f 00                               0x00 
                           .data:01004150 00                               0x00 
                           .data:01004151 00                               0x00 
                           .data:01004152 00                               0x00 
                           .data:01004153 00                               0x00 
                           .data:01004154 00                               0x00 
                           .data:01004155 00                               0x00 
                           .data:01004156 00                               0x00 
                           .data:01004157 00                               0x00 
                           .data:01004158 00                               0x00 
                           .data:01004159 00                               0x00 
                           .data:0100415a 00                               0x00 
                           .data:0100415b 00                               0x00 
                           .data:0100415c 00                               0x00 
                           .data:0100415d 00                               0x00 
                           .data:0100415e 00                               0x00 
                           .data:0100415f 00                               0x00 
                           .data:01004160 00                               0x00 
                           .data:01004161 00                               0x00 
                           .data:01004162 00                               0x00 
                           .data:01004163 00                               0x00 
                           .data:01004164 00                               0x00 
                           .data:01004165 00                               0x00 
                           .data:01004166 00                               0x00 
                           .data:01004167 00                               0x00 
                           .data:01004168 00                               0x00 
                           .data:01004169 00                               0x00 
                           .data:0100416a 00                               0x00 
                           .data:0100416b 00                               0x00 
                           .data:0100416c 00                               0x00 
                           .data:0100416d 00                               0x00 
                           .data:0100416e 00                               0x00 
                           .data:0100416f 00                               0x00 
                           .data:01004170 00                               0x00 
                           .data:01004171 00                               0x00 
                           .data:01004172 00                               0x00 
                           .data:01004173 00                               0x00 
                           .data:01004174 00                               0x00 
                           .data:01004175 00                               0x00 
                           .data:01004176 00                               0x00 
                           .data:01004177 00                               0x00 
                           .data:01004178 00                               0x00 
                           .data:01004179 00                               0x00 
                           .data:0100417a 00                               0x00 
                           .data:0100417b 00                               0x00 
                           .data:0100417c 00                               0x00 
                           .data:0100417d 00                               0x00 
                           .data:0100417e 00                               0x00 
                           .data:0100417f 00                               0x00 
                           .data:01004180 00                               0x00 
                           .data:01004181 00                               0x00 
                           .data:01004182 00                               0x00 
                           .data:01004183 00                               0x00 
                           .data:01004184 00                               0x00 
                           .data:01004185 00                               0x00 
                           .data:01004186 00                               0x00 
                           .data:01004187 00                               0x00 
                           .data:01004188 00                               0x00 
                           .data:01004189 00                               0x00 
                           .data:0100418a 00                               0x00 
                           .data:0100418b 00                               0x00 
                           .data:0100418c 00                               0x00 
                           .data:0100418d 00                               0x00 
                           .data:0100418e 00                               0x00 
                           .data:0100418f 00                               0x00 
                           .data:01004190 00                               0x00 
                           .data:01004191 00                               0x00 
                           .data:01004192 00                               0x00 
                           .data:01004193 00                               0x00 
                           .data:01004194 00                               0x00 
                           .data:01004195 00                               0x00 
                           .data:01004196 00                               0x00 
                           .data:01004197 00                               0x00 
                           .data:01004198 00                               0x00 
                           .data:01004199 00                               0x00 
                           .data:0100419a 00                               0x00 
                           .data:0100419b 00                               0x00 
                           .data:0100419c 00                               0x00 
                           .data:0100419d 00                               0x00 
                           .data:0100419e 00                               0x00 
                           .data:0100419f 00                               0x00 
                           .data:010041a0 00                               0x00 
                           .data:010041a1 00                               0x00 
                           .data:010041a2 00                               0x00 
                           .data:010041a3 00                               0x00 
                           .data:010041a4 00                               0x00 
                           .data:010041a5 00                               0x00 
                           .data:010041a6 00                               0x00 
                           .data:010041a7 00                               0x00 
                           .data:010041a8 00                               0x00 
                           .data:010041a9 00                               0x00 
                           .data:010041aa 00                               0x00 
                           .data:010041ab 00                               0x00 
                           .data:010041ac 00                               0x00 
                           .data:010041ad 00                               0x00 
                           .data:010041ae 00                               0x00 
                           .data:010041af 00                               0x00 
                           .data:010041b0 00                               0x00 
                           .data:010041b1 00                               0x00 
                           .data:010041b2 00                               0x00 
                           .data:010041b3 00                               0x00 
                           .data:010041b4 00                               0x00 
                           .data:010041b5 00                               0x00 
                           .data:010041b6 00                               0x00 
                           .data:010041b7 00                               0x00 
                           .data:010041b8 00                               0x00 
                           .data:010041b9 00                               0x00 
                           .data:010041ba 00                               0x00 
                           .data:010041bb 00                               0x00 
                           .data:010041bc 00                               0x00 
                           .data:010041bd 00                               0x00 
                           .data:010041be 00                               0x00 
                           .data:010041bf 00                               0x00 
                           .data:010041c0 00                               0x00 
                           .data:010041c1 00                               0x00 
                           .data:010041c2 00                               0x00 
                           .data:010041c3 00                               0x00 
                           .data:010041c4 00                               0x00 
                           .data:010041c5 00                               0x00 
                           .data:010041c6 00                               0x00 
                           .data:010041c7 00                               0x00 
                           .data:010041c8 00                               0x00 
                           .data:010041c9 00                               0x00 
                           .data:010041ca 00                               0x00 
                           .data:010041cb 00                               0x00 
                           .data:010041cc 00                               0x00 
                           .data:010041cd 00                               0x00 
                           .data:010041ce 00                               0x00 
                           .data:010041cf 00                               0x00 
                           .data:010041d0 00                               0x00 
                           .data:010041d1 00                               0x00 
                           .data:010041d2 00                               0x00 
                           .data:010041d3 00                               0x00 
                           .data:010041d4 00                               0x00 
                           .data:010041d5 00                               0x00 
                           .data:010041d6 00                               0x00 
                           .data:010041d7 00                               0x00 
                           .data:010041d8 00                               0x00 
                           .data:010041d9 00                               0x00 
                           .data:010041da 00                               0x00 
                           .data:010041db 00                               0x00 
                           .data:010041dc 00                               0x00 
                           .data:010041dd 00                               0x00 
                           .data:010041de 00                               0x00 
                           .data:010041df 00                               0x00 
                           .data:010041e0 00                               0x00 
                           .data:010041e1 00                               0x00 
                           .data:010041e2 00                               0x00 
                           .data:010041e3 00                               0x00 
                           .data:010041e4 00                               0x00 
                           .data:010041e5 00                               0x00 
                           .data:010041e6 00                               0x00 
                           .data:010041e7 00                               0x00 
                           .data:010041e8 00                               0x00 
                           .data:010041e9 00                               0x00 
                           .data:010041ea 00                               0x00 
                           .data:010041eb 00                               0x00 
                           .data:010041ec 00                               0x00 
                           .data:010041ed 00                               0x00 
                           .data:010041ee 00                               0x00 
                           .data:010041ef 00                               0x00 
                           .data:010041f0 00                               0x00 
                           .data:010041f1 00                               0x00 
                           .data:010041f2 00                               0x00 
                           .data:010041f3 00                               0x00 
                           .data:010041f4 00                               0x00 
                           .data:010041f5 00                               0x00 
                           .data:010041f6 00                               0x00 
                           .data:010041f7 00                               0x00 
                           .data:010041f8 00                               0x00 
                           .data:010041f9 00                               0x00 
                           .data:010041fa 00                               0x00 
                           .data:010041fb 00                               0x00 
                           .data:010041fc 00                               0x00 
                           .data:010041fd 00                               0x00 
                           .data:010041fe 00                               0x00 
                           .data:010041ff 00                               0x00 
                           .rsrc:01005000 00                               0x00 
                           .rsrc:01005001 00                               0x00 
                           .rsrc:01005002 00                               0x00 
                           .rsrc:01005003 00                               0x00 
                           .rsrc:01005004 00                               0x00 
                           .rsrc:01005005 00                               0x00 
                           .rsrc:01005006 00                               0x00 
                           .rsrc:01005007 00                               0x00 
                           .rsrc:01005008 00                               0x00 
                           .rsrc:01005009 00                               0x00 
                           .rsrc:0100500a 00                               0x00 
                           .rsrc:0100500b 00                               0x00 
                           .rsrc:0100500c 01                               0x01 
                           .rsrc:0100500d 00                               0x00 
                           .rsrc:0100500e 02                               0x02 
                           .rsrc:0100500f 00                               0x00 
                           .rsrc:01005010 e8                               0xe8 
                           .rsrc:01005011 00                               0x00 
                           .rsrc:01005012 00                               0x00 
                           .rsrc:01005013 80                               0x80 
                           .rsrc:01005014 28                               0x28 '('
                           .rsrc:01005015 00                               0x00 
                           .rsrc:01005016 00                               0x00 
                           .rsrc:01005017 80                               0x80 
                           .rsrc:01005018 10                               0x10 
                           .rsrc:01005019 00                               0x00 
                           .rsrc:0100501a 00                               0x00 
                           .rsrc:0100501b 00                               0x00 
                           .rsrc:0100501c 40                               0x40 '@'
                           .rsrc:0100501d 00                               0x00 
                           .rsrc:0100501e 00                               0x00 
                           .rsrc:0100501f 80                               0x80 
                           .rsrc:01005020 18                               0x18 
                           .rsrc:01005021 00                               0x00 
                           .rsrc:01005022 00                               0x00 
                           .rsrc:01005023 00                               0x00 
                           .rsrc:01005024 58                               0x58 'X'
                           .rsrc:01005025 00                               0x00 
                           .rsrc:01005026 00                               0x00 
                           .rsrc:01005027 80                               0x80 
                           .rsrc:01005028 00                               0x00 
                           .rsrc:01005029 00                               0x00 
                           .rsrc:0100502a 00                               0x00 
                           .rsrc:0100502b 00                               0x00 
                           .rsrc:0100502c 00                               0x00 
                           .rsrc:0100502d 00                               0x00 
                           .rsrc:0100502e 00                               0x00 
                           .rsrc:0100502f 00                               0x00 
                           .rsrc:01005030 00                               0x00 
                           .rsrc:01005031 00                               0x00 
                           .rsrc:01005032 00                               0x00 
                           .rsrc:01005033 00                               0x00 
                           .rsrc:01005034 00                               0x00 
                           .rsrc:01005035 00                               0x00 
                           .rsrc:01005036 01                               0x01 
                           .rsrc:01005037 00                               0x00 
                           .rsrc:01005038 01                               0x01 
                           .rsrc:01005039 00                               0x00 
                           .rsrc:0100503a 00                               0x00 
                           .rsrc:0100503b 00                               0x00 
                           .rsrc:0100503c 70                               0x70 'p'
                           .rsrc:0100503d 00                               0x00 
                           .rsrc:0100503e 00                               0x00 
                           .rsrc:0100503f 80                               0x80 
                           .rsrc:01005040 00                               0x00 
                           .rsrc:01005041 00                               0x00 
                           .rsrc:01005042 00                               0x00 
                           .rsrc:01005043 00                               0x00 
                           .rsrc:01005044 00                               0x00 
                           .rsrc:01005045 00                               0x00 
                           .rsrc:01005046 00                               0x00 
                           .rsrc:01005047 00                               0x00 
                           .rsrc:01005048 00                               0x00 
                           .rsrc:01005049 00                               0x00 
                           .rsrc:0100504a 00                               0x00 
                           .rsrc:0100504b 00                               0x00 
                           .rsrc:0100504c 00                               0x00 
                           .rsrc:0100504d 00                               0x00 
                           .rsrc:0100504e 01                               0x01 
                           .rsrc:0100504f 00                               0x00 
                           .rsrc:01005050 01                               0x01 
                           .rsrc:01005051 00                               0x00 
                           .rsrc:01005052 00                               0x00 
                           .rsrc:01005053 00                               0x00 
                           .rsrc:01005054 88                               0x88 
                           .rsrc:01005055 00                               0x00 
                           .rsrc:01005056 00                               0x00 
                           .rsrc:01005057 80                               0x80 
                           .rsrc:01005058 00                               0x00 
                           .rsrc:01005059 00                               0x00 
                           .rsrc:0100505a 00                               0x00 
                           .rsrc:0100505b 00                               0x00 
                           .rsrc:0100505c 00                               0x00 
                           .rsrc:0100505d 00                               0x00 
                           .rsrc:0100505e 00                               0x00 
                           .rsrc:0100505f 00                               0x00 
                           .rsrc:01005060 00                               0x00 
                           .rsrc:01005061 00                               0x00 
                           .rsrc:01005062 00                               0x00 
                           .rsrc:01005063 00                               0x00 
                           .rsrc:01005064 00                               0x00 
                           .rsrc:01005065 00                               0x00 
                           .rsrc:01005066 01                               0x01 
                           .rsrc:01005067 00                               0x00 
                           .rsrc:01005068 01                               0x01 
                           .rsrc:01005069 00                               0x00 
                           .rsrc:0100506a 00                               0x00 
                           .rsrc:0100506b 00                               0x00 
                           .rsrc:0100506c a0                               0xa0 
                           .rsrc:0100506d 00                               0x00 
                           .rsrc:0100506e 00                               0x00 
                           .rsrc:0100506f 80                               0x80 
                           .rsrc:01005070 00                               0x00 
                           .rsrc:01005071 00                               0x00 
                           .rsrc:01005072 00                               0x00 
                           .rsrc:01005073 00                               0x00 
                           .rsrc:01005074 00                               0x00 
                           .rsrc:01005075 00                               0x00 
                           .rsrc:01005076 00                               0x00 
                           .rsrc:01005077 00                               0x00 
                           .rsrc:01005078 00                               0x00 
                           .rsrc:01005079 00                               0x00 
                           .rsrc:0100507a 00                               0x00 
                           .rsrc:0100507b 00                               0x00 
                           .rsrc:0100507c 00                               0x00 
                           .rsrc:0100507d 00                               0x00 
                           .rsrc:0100507e 01                               0x01 
                           .rsrc:0100507f 00                               0x00 
                           .rsrc:01005080 09                               0x09 '	'
                           .rsrc:01005081 04                               0x04 
                           .rsrc:01005082 00                               0x00 
                           .rsrc:01005083 00                               0x00 
                           .rsrc:01005084 b8                               0xb8 
                           .rsrc:01005085 00                               0x00 
                           .rsrc:01005086 00                               0x00 
                           .rsrc:01005087 00                               0x00 
                           .rsrc:01005088 00                               0x00 
                           .rsrc:01005089 00                               0x00 
                           .rsrc:0100508a 00                               0x00 
                           .rsrc:0100508b 00                               0x00 
                           .rsrc:0100508c 00                               0x00 
                           .rsrc:0100508d 00                               0x00 
                           .rsrc:0100508e 00                               0x00 
                           .rsrc:0100508f 00                               0x00 
                           .rsrc:01005090 00                               0x00 
                           .rsrc:01005091 00                               0x00 
                           .rsrc:01005092 00                               0x00 
                           .rsrc:01005093 00                               0x00 
                           .rsrc:01005094 00                               0x00 
                           .rsrc:01005095 00                               0x00 
                           .rsrc:01005096 01                               0x01 
                           .rsrc:01005097 00                               0x00 
                           .rsrc:01005098 09                               0x09 '	'
                           .rsrc:01005099 04                               0x04 
                           .rsrc:0100509a 00                               0x00 
                           .rsrc:0100509b 00                               0x00 
                           .rsrc:0100509c c8                               0xc8 
                           .rsrc:0100509d 00                               0x00 
                           .rsrc:0100509e 00                               0x00 
                           .rsrc:0100509f 00                               0x00 
                           .rsrc:010050a0 00                               0x00 
                           .rsrc:010050a1 00                               0x00 
                           .rsrc:010050a2 00                               0x00 
                           .rsrc:010050a3 00                               0x00 
                           .rsrc:010050a4 00                               0x00 
                           .rsrc:010050a5 00                               0x00 
                           .rsrc:010050a6 00                               0x00 
                           .rsrc:010050a7 00                               0x00 
                           .rsrc:010050a8 00                               0x00 
                           .rsrc:010050a9 00                               0x00 
                           .rsrc:010050aa 00                               0x00 
                           .rsrc:010050ab 00                               0x00 
                           .rsrc:010050ac 00                               0x00 
                           .rsrc:010050ad 00                               0x00 
                           .rsrc:010050ae 01                               0x01 
                           .rsrc:010050af 00                               0x00 
                           .rsrc:010050b0 09                               0x09 '	'
                           .rsrc:010050b1 04                               0x04 
                           .rsrc:010050b2 00                               0x00 
                           .rsrc:010050b3 00                               0x00 
                           .rsrc:010050b4 d8                               0xd8 
                           .rsrc:010050b5 00                               0x00 
                           .rsrc:010050b6 00                               0x00 
                           .rsrc:010050b7 00                               0x00 
                           .rsrc:010050b8 18                               0x18 
                           .rsrc:010050b9 57                               0x57 'W'
                           .rsrc:010050ba 00                               0x00 
                           .rsrc:010050bb 00                               0x00 
                           .rsrc:010050bc c8                               0xc8 
                           .rsrc:010050bd 00                               0x00 
                           .rsrc:010050be 00                               0x00 
                           .rsrc:010050bf 00                               0x00 
                           .rsrc:010050c0 00                               0x00 
                           .rsrc:010050c1 00                               0x00 
                           .rsrc:010050c2 00                               0x00 
                           .rsrc:010050c3 00                               0x00 
                           .rsrc:010050c4 00                               0x00 
                           .rsrc:010050c5 00                               0x00 
                           .rsrc:010050c6 00                               0x00 
                           .rsrc:010050c7 00                               0x00 
                           .rsrc:010050c8 98                               0x98 
                           .rsrc:010050c9 53                               0x53 'S'
                           .rsrc:010050ca 00                               0x00 
                           .rsrc:010050cb 00                               0x00 
                           .rsrc:010050cc 7c                               0x7c '|'
                           .rsrc:010050cd 03                               0x03 
                           .rsrc:010050ce 00                               0x00 
                           .rsrc:010050cf 00                               0x00 
                           .rsrc:010050d0 00                               0x00 
                           .rsrc:010050d1 00                               0x00 
                           .rsrc:010050d2 00                               0x00 
                           .rsrc:010050d3 00                               0x00 
                           .rsrc:010050d4 00                               0x00 
                           .rsrc:010050d5 00                               0x00 
                           .rsrc:010050d6 00                               0x00 
                           .rsrc:010050d7 00                               0x00 
                           .rsrc:010050d8 f0                               0xf0 
                           .rsrc:010050d9 50                               0x50 'P'
                           .rsrc:010050da 00                               0x00 
                           .rsrc:010050db 00                               0x00 
                           .rsrc:010050dc a1                               0xa1 
                           .rsrc:010050dd 02                               0x02 
                           .rsrc:010050de 00                               0x00 
                           .rsrc:010050df 00                               0x00 
                           .rsrc:010050e0 00                               0x00 
                           .rsrc:010050e1 00                               0x00 
                           .rsrc:010050e2 00                               0x00 
                           .rsrc:010050e3 00                               0x00 
                           .rsrc:010050e4 00                               0x00 
                           .rsrc:010050e5 00                               0x00 
                           .rsrc:010050e6 00                               0x00 
                           .rsrc:010050e7 00                               0x00 
                           .rsrc:010050e8 03                               0x03 
                           .rsrc:010050e9 00                               0x00 
                           .rsrc:010050ea 4d                               0x4d 'M'
                           .rsrc:010050eb 00                               0x00 
                           .rsrc:010050ec 55                               0x55 'U'
                           .rsrc:010050ed 00                               0x00 
                           .rsrc:010050ee 49                               0x49 'I'
                           .rsrc:010050ef 00                               0x00 
                           .rsrc:010050f0 3c                               0x3c '<'
                           .rsrc:010050f1 3f                               0x3f '?'
                           .rsrc:010050f2 78                               0x78 'x'
                           .rsrc:010050f3 6d                               0x6d 'm'
                           .rsrc:010050f4 6c                               0x6c 'l'
                           .rsrc:010050f5 20                               0x20 ' '
                           .rsrc:010050f6 76                               0x76 'v'
                           .rsrc:010050f7 65                               0x65 'e'
                           .rsrc:010050f8 72                               0x72 'r'
                           .rsrc:010050f9 73                               0x73 's'
                           .rsrc:010050fa 69                               0x69 'i'
                           .rsrc:010050fb 6f                               0x6f 'o'
                           .rsrc:010050fc 6e                               0x6e 'n'
                           .rsrc:010050fd 3d                               0x3d '='
                           .rsrc:010050fe 22                               0x22 '"'
                           .rsrc:010050ff 31                               0x31 '1'
                           .rsrc:01005100 2e                               0x2e '.'
                           .rsrc:01005101 30                               0x30 '0'
                           .rsrc:01005102 22                               0x22 '"'
                           .rsrc:01005103 20                               0x20 ' '
                           .rsrc:01005104 65                               0x65 'e'
                           .rsrc:01005105 6e                               0x6e 'n'
                           .rsrc:01005106 63                               0x63 'c'
                           .rsrc:01005107 6f                               0x6f 'o'
                           .rsrc:01005108 64                               0x64 'd'
                           .rsrc:01005109 69                               0x69 'i'
                           .rsrc:0100510a 6e                               0x6e 'n'
                           .rsrc:0100510b 67                               0x67 'g'
                           .rsrc:0100510c 3d                               0x3d '='
                           .rsrc:0100510d 22                               0x22 '"'
                           .rsrc:0100510e 55                               0x55 'U'
                           .rsrc:0100510f 54                               0x54 'T'
                           .rsrc:01005110 46                               0x46 'F'
                           .rsrc:01005111 2d                               0x2d '-'
                           .rsrc:01005112 38                               0x38 '8'
                           .rsrc:01005113 22                               0x22 '"'
                           .rsrc:01005114 20                               0x20 ' '
                           .rsrc:01005115 73                               0x73 's'
                           .rsrc:01005116 74                               0x74 't'
                           .rsrc:01005117 61                               0x61 'a'
                           .rsrc:01005118 6e                               0x6e 'n'
                           .rsrc:01005119 64                               0x64 'd'
                           .rsrc:0100511a 61                               0x61 'a'
                           .rsrc:0100511b 6c                               0x6c 'l'
                           .rsrc:0100511c 6f                               0x6f 'o'
                           .rsrc:0100511d 6e                               0x6e 'n'
                           .rsrc:0100511e 65                               0x65 'e'
                           .rsrc:0100511f 3d                               0x3d '='
                           .rsrc:01005120 22                               0x22 '"'
                           .rsrc:01005121 79                               0x79 'y'
                           .rsrc:01005122 65                               0x65 'e'
                           .rsrc:01005123 73                               0x73 's'
                           .rsrc:01005124 22                               0x22 '"'
                           .rsrc:01005125 3f                               0x3f '?'
                           .rsrc:01005126 3e                               0x3e '>'
                           .rsrc:01005127 0d                               0x0d ''
                           .rsrc:01005128 0a                               0x0a '
'
                           .rsrc:01005129 3c                               0x3c '<'
                           .rsrc:0100512a 21                               0x21 '!'
                           .rsrc:0100512b 2d                               0x2d '-'
                           .rsrc:0100512c 2d                               0x2d '-'
                           .rsrc:0100512d 20                               0x20 ' '
                           .rsrc:0100512e 43                               0x43 'C'
                           .rsrc:0100512f 6f                               0x6f 'o'
                           .rsrc:01005130 70                               0x70 'p'
                           .rsrc:01005131 79                               0x79 'y'
                           .rsrc:01005132 72                               0x72 'r'
                           .rsrc:01005133 69                               0x69 'i'
                           .rsrc:01005134 67                               0x67 'g'
                           .rsrc:01005135 68                               0x68 'h'
                           .rsrc:01005136 74                               0x74 't'
                           .rsrc:01005137 20                               0x20 ' '
                           .rsrc:01005138 28                               0x28 '('
                           .rsrc:01005139 63                               0x63 'c'
                           .rsrc:0100513a 29                               0x29 ')'
                           .rsrc:0100513b 20                               0x20 ' '
                           .rsrc:0100513c 4d                               0x4d 'M'
                           .rsrc:0100513d 69                               0x69 'i'
                           .rsrc:0100513e 63                               0x63 'c'
                           .rsrc:0100513f 72                               0x72 'r'
                           .rsrc:01005140 6f                               0x6f 'o'
                           .rsrc:01005141 73                               0x73 's'
                           .rsrc:01005142 6f                               0x6f 'o'
                           .rsrc:01005143 66                               0x66 'f'
                           .rsrc:01005144 74                               0x74 't'
                           .rsrc:01005145 20                               0x20 ' '
                           .rsrc:01005146 43                               0x43 'C'
                           .rsrc:01005147 6f                               0x6f 'o'
                           .rsrc:01005148 72                               0x72 'r'
                           .rsrc:01005149 70                               0x70 'p'
                           .rsrc:0100514a 6f                               0x6f 'o'
                           .rsrc:0100514b 72                               0x72 'r'
                           .rsrc:0100514c 61                               0x61 'a'
                           .rsrc:0100514d 74                               0x74 't'
                           .rsrc:0100514e 69                               0x69 'i'
                           .rsrc:0100514f 6f                               0x6f 'o'
                           .rsrc:01005150 6e                               0x6e 'n'
                           .rsrc:01005151 20                               0x20 ' '
                           .rsrc:01005152 2d                               0x2d '-'
                           .rsrc:01005153 2d                               0x2d '-'
                           .rsrc:01005154 3e                               0x3e '>'
                           .rsrc:01005155 0d                               0x0d ''
                           .rsrc:01005156 0a                               0x0a '
'
                           .rsrc:01005157 3c                               0x3c '<'
                           .rsrc:01005158 61                               0x61 'a'
                           .rsrc:01005159 73                               0x73 's'
                           .rsrc:0100515a 73                               0x73 's'
                           .rsrc:0100515b 65                               0x65 'e'
                           .rsrc:0100515c 6d                               0x6d 'm'
                           .rsrc:0100515d 62                               0x62 'b'
                           .rsrc:0100515e 6c                               0x6c 'l'
                           .rsrc:0100515f 79                               0x79 'y'
                           .rsrc:01005160 20                               0x20 ' '
                           .rsrc:01005161 78                               0x78 'x'
                           .rsrc:01005162 6d                               0x6d 'm'
                           .rsrc:01005163 6c                               0x6c 'l'
                           .rsrc:01005164 6e                               0x6e 'n'
                           .rsrc:01005165 73                               0x73 's'
                           .rsrc:01005166 3d                               0x3d '='
                           .rsrc:01005167 22                               0x22 '"'
                           .rsrc:01005168 75                               0x75 'u'
                           .rsrc:01005169 72                               0x72 'r'
                           .rsrc:0100516a 6e                               0x6e 'n'
                           .rsrc:0100516b 3a                               0x3a ':'
                           .rsrc:0100516c 73                               0x73 's'
                           .rsrc:0100516d 63                               0x63 'c'
                           .rsrc:0100516e 68                               0x68 'h'
                           .rsrc:0100516f 65                               0x65 'e'
                           .rsrc:01005170 6d                               0x6d 'm'
                           .rsrc:01005171 61                               0x61 'a'
                           .rsrc:01005172 73                               0x73 's'
                           .rsrc:01005173 2d                               0x2d '-'
                           .rsrc:01005174 6d                               0x6d 'm'
                           .rsrc:01005175 69                               0x69 'i'
                           .rsrc:01005176 63                               0x63 'c'
                           .rsrc:01005177 72                               0x72 'r'
                           .rsrc:01005178 6f                               0x6f 'o'
                           .rsrc:01005179 73                               0x73 's'
                           .rsrc:0100517a 6f                               0x6f 'o'
                           .rsrc:0100517b 66                               0x66 'f'
                           .rsrc:0100517c 74                               0x74 't'
                           .rsrc:0100517d 2d                               0x2d '-'
                           .rsrc:0100517e 63                               0x63 'c'
                           .rsrc:0100517f 6f                               0x6f 'o'
                           .rsrc:01005180 6d                               0x6d 'm'
                           .rsrc:01005181 3a                               0x3a ':'
                           .rsrc:01005182 61                               0x61 'a'
                           .rsrc:01005183 73                               0x73 's'
                           .rsrc:01005184 6d                               0x6d 'm'
                           .rsrc:01005185 2e                               0x2e '.'
                           .rsrc:01005186 76                               0x76 'v'
                           .rsrc:01005187 31                               0x31 '1'
                           .rsrc:01005188 22                               0x22 '"'
                           .rsrc:01005189 20                               0x20 ' '
                           .rsrc:0100518a 6d                               0x6d 'm'
                           .rsrc:0100518b 61                               0x61 'a'
                           .rsrc:0100518c 6e                               0x6e 'n'
                           .rsrc:0100518d 69                               0x69 'i'
                           .rsrc:0100518e 66                               0x66 'f'
                           .rsrc:0100518f 65                               0x65 'e'
                           .rsrc:01005190 73                               0x73 's'
                           .rsrc:01005191 74                               0x74 't'
                           .rsrc:01005192 56                               0x56 'V'
                           .rsrc:01005193 65                               0x65 'e'
                           .rsrc:01005194 72                               0x72 'r'
                           .rsrc:01005195 73                               0x73 's'
                           .rsrc:01005196 69                               0x69 'i'
                           .rsrc:01005197 6f                               0x6f 'o'
                           .rsrc:01005198 6e                               0x6e 'n'
                           .rsrc:01005199 3d                               0x3d '='
                           .rsrc:0100519a 22                               0x22 '"'
                           .rsrc:0100519b 31                               0x31 '1'
                           .rsrc:0100519c 2e                               0x2e '.'
                           .rsrc:0100519d 30                               0x30 '0'
                           .rsrc:0100519e 22                               0x22 '"'
                           .rsrc:0100519f 3e                               0x3e '>'
                           .rsrc:010051a0 0d                               0x0d ''
                           .rsrc:010051a1 0a                               0x0a '
'
                           .rsrc:010051a2 3c                               0x3c '<'
                           .rsrc:010051a3 61                               0x61 'a'
                           .rsrc:010051a4 73                               0x73 's'
                           .rsrc:010051a5 73                               0x73 's'
                           .rsrc:010051a6 65                               0x65 'e'
                           .rsrc:010051a7 6d                               0x6d 'm'
                           .rsrc:010051a8 62                               0x62 'b'
                           .rsrc:010051a9 6c                               0x6c 'l'
                           .rsrc:010051aa 79                               0x79 'y'
                           .rsrc:010051ab 49                               0x49 'I'
                           .rsrc:010051ac 64                               0x64 'd'
                           .rsrc:010051ad 65                               0x65 'e'
                           .rsrc:010051ae 6e                               0x6e 'n'
                           .rsrc:010051af 74                               0x74 't'
                           .rsrc:010051b0 69                               0x69 'i'
                           .rsrc:010051b1 74                               0x74 't'
                           .rsrc:010051b2 79                               0x79 'y'
                           .rsrc:010051b3 0d                               0x0d ''
                           .rsrc:010051b4 0a                               0x0a '
'
                           .rsrc:010051b5 20                               0x20 ' '
                           .rsrc:010051b6 20                               0x20 ' '
                           .rsrc:010051b7 20                               0x20 ' '
                           .rsrc:010051b8 20                               0x20 ' '
                           .rsrc:010051b9 76                               0x76 'v'
                           .rsrc:010051ba 65                               0x65 'e'
                           .rsrc:010051bb 72                               0x72 'r'
                           .rsrc:010051bc 73                               0x73 's'
                           .rsrc:010051bd 69                               0x69 'i'
                           .rsrc:010051be 6f                               0x6f 'o'
                           .rsrc:010051bf 6e                               0x6e 'n'
                           .rsrc:010051c0 3d                               0x3d '='
                           .rsrc:010051c1 22                               0x22 '"'
                           .rsrc:010051c2 35                               0x35 '5'
                           .rsrc:010051c3 2e                               0x2e '.'
                           .rsrc:010051c4 31                               0x31 '1'
                           .rsrc:010051c5 2e                               0x2e '.'
                           .rsrc:010051c6 30                               0x30 '0'
                           .rsrc:010051c7 2e                               0x2e '.'
                           .rsrc:010051c8 30                               0x30 '0'
                           .rsrc:010051c9 22                               0x22 '"'
                           .rsrc:010051ca 0d                               0x0d ''
                           .rsrc:010051cb 0a                               0x0a '
'
                           .rsrc:010051cc 20                               0x20 ' '
                           .rsrc:010051cd 20                               0x20 ' '
                           .rsrc:010051ce 20                               0x20 ' '
                           .rsrc:010051cf 20                               0x20 ' '
                           .rsrc:010051d0 70                               0x70 'p'
                           .rsrc:010051d1 72                               0x72 'r'
                           .rsrc:010051d2 6f                               0x6f 'o'
                           .rsrc:010051d3 63                               0x63 'c'
                           .rsrc:010051d4 65                               0x65 'e'
                           .rsrc:010051d5 73                               0x73 's'
                           .rsrc:010051d6 73                               0x73 's'
                           .rsrc:010051d7 6f                               0x6f 'o'
                           .rsrc:010051d8 72                               0x72 'r'
                           .rsrc:010051d9 41                               0x41 'A'
                           .rsrc:010051da 72                               0x72 'r'
                           .rsrc:010051db 63                               0x63 'c'
                           .rsrc:010051dc 68                               0x68 'h'
                           .rsrc:010051dd 69                               0x69 'i'
                           .rsrc:010051de 74                               0x74 't'
                           .rsrc:010051df 65                               0x65 'e'
                           .rsrc:010051e0 63                               0x63 'c'
                           .rsrc:010051e1 74                               0x74 't'
                           .rsrc:010051e2 75                               0x75 'u'
                           .rsrc:010051e3 72                               0x72 'r'
                           .rsrc:010051e4 65                               0x65 'e'
                           .rsrc:010051e5 3d                               0x3d '='
                           .rsrc:010051e6 22                               0x22 '"'
                           .rsrc:010051e7 78                               0x78 'x'
                           .rsrc:010051e8 38                               0x38 '8'
                           .rsrc:010051e9 36                               0x36 '6'
                           .rsrc:010051ea 22                               0x22 '"'
                           .rsrc:010051eb 0d                               0x0d ''
                           .rsrc:010051ec 0a                               0x0a '
'
                           .rsrc:010051ed 20                               0x20 ' '
                           .rsrc:010051ee 20                               0x20 ' '
                           .rsrc:010051ef 20                               0x20 ' '
                           .rsrc:010051f0 20                               0x20 ' '
                           .rsrc:010051f1 6e                               0x6e 'n'
                           .rsrc:010051f2 61                               0x61 'a'
                           .rsrc:010051f3 6d                               0x6d 'm'
                           .rsrc:010051f4 65                               0x65 'e'
                           .rsrc:010051f5 3d                               0x3d '='
                           .rsrc:010051f6 22                               0x22 '"'
                           .rsrc:010051f7 4d                               0x4d 'M'
                           .rsrc:010051f8 69                               0x69 'i'
                           .rsrc:010051f9 63                               0x63 'c'
                           .rsrc:010051fa 72                               0x72 'r'
                           .rsrc:010051fb 6f                               0x6f 'o'
                           .rsrc:010051fc 73                               0x73 's'
                           .rsrc:010051fd 6f                               0x6f 'o'
                           .rsrc:010051fe 66                               0x66 'f'
                           .rsrc:010051ff 74                               0x74 't'
                           .rsrc:01005200 2e                               0x2e '.'
                           .rsrc:01005201 57                               0x57 'W'
                           .rsrc:01005202 69                               0x69 'i'
                           .rsrc:01005203 6e                               0x6e 'n'
                           .rsrc:01005204 64                               0x64 'd'
                           .rsrc:01005205 6f                               0x6f 'o'
                           .rsrc:01005206 77                               0x77 'w'
                           .rsrc:01005207 73                               0x73 's'
                           .rsrc:01005208 2e                               0x2e '.'
                           .rsrc:01005209 46                               0x46 'F'
                           .rsrc:0100520a 69                               0x69 'i'
                           .rsrc:0100520b 6c                               0x6c 'l'
                           .rsrc:0100520c 65                               0x65 'e'
                           .rsrc:0100520d 73                               0x73 's'
                           .rsrc:0100520e 79                               0x79 'y'
                           .rsrc:0100520f 73                               0x73 's'
                           .rsrc:01005210 74                               0x74 't'
                           .rsrc:01005211 65                               0x65 'e'
                           .rsrc:01005212 6d                               0x6d 'm'
                           .rsrc:01005213 2e                               0x2e '.'
                           .rsrc:01005214 4c                               0x4c 'L'
                           .rsrc:01005215 61                               0x61 'a'
                           .rsrc:01005216 62                               0x62 'b'
                           .rsrc:01005217 65                               0x65 'e'
                           .rsrc:01005218 6c                               0x6c 'l'
                           .rsrc:01005219 22                               0x22 '"'
                           .rsrc:0100521a 0d                               0x0d ''
                           .rsrc:0100521b 0a                               0x0a '
'
                           .rsrc:0100521c 20                               0x20 ' '
                           .rsrc:0100521d 20                               0x20 ' '
                           .rsrc:0100521e 20                               0x20 ' '
                           .rsrc:0100521f 20                               0x20 ' '
                           .rsrc:01005220 74                               0x74 't'
                           .rsrc:01005221 79                               0x79 'y'
                           .rsrc:01005222 70                               0x70 'p'
                           .rsrc:01005223 65                               0x65 'e'
                           .rsrc:01005224 3d                               0x3d '='
                           .rsrc:01005225 22                               0x22 '"'
                           .rsrc:01005226 77                               0x77 'w'
                           .rsrc:01005227 69                               0x69 'i'
                           .rsrc:01005228 6e                               0x6e 'n'
                           .rsrc:01005229 33                               0x33 '3'
                           .rsrc:0100522a 32                               0x32 '2'
                           .rsrc:0100522b 22                               0x22 '"'
                           .rsrc:0100522c 0d                               0x0d ''
                           .rsrc:0100522d 0a                               0x0a '
'
                           .rsrc:0100522e 2f                               0x2f '/'
                           .rsrc:0100522f 3e                               0x3e '>'
                           .rsrc:01005230 0d                               0x0d ''
                           .rsrc:01005231 0a                               0x0a '
'
                           .rsrc:01005232 3c                               0x3c '<'
                           .rsrc:01005233 64                               0x64 'd'
                           .rsrc:01005234 65                               0x65 'e'
                           .rsrc:01005235 73                               0x73 's'
                           .rsrc:01005236 63                               0x63 'c'
                           .rsrc:01005237 72                               0x72 'r'
                           .rsrc:01005238 69                               0x69 'i'
                           .rsrc:01005239 70                               0x70 'p'
                           .rsrc:0100523a 74                               0x74 't'
                           .rsrc:0100523b 69                               0x69 'i'
                           .rsrc:0100523c 6f                               0x6f 'o'
                           .rsrc:0100523d 6e                               0x6e 'n'
                           .rsrc:0100523e 3e                               0x3e '>'
                           .rsrc:0100523f 44                               0x44 'D'
                           .rsrc:01005240 69                               0x69 'i'
                           .rsrc:01005241 73                               0x73 's'
                           .rsrc:01005242 6b                               0x6b 'k'
                           .rsrc:01005243 20                               0x20 ' '
                           .rsrc:01005244 4c                               0x4c 'L'
                           .rsrc:01005245 61                               0x61 'a'
                           .rsrc:01005246 62                               0x62 'b'
                           .rsrc:01005247 65                               0x65 'e'
                           .rsrc:01005248 6c                               0x6c 'l'
                           .rsrc:01005249 20                               0x20 ' '
                           .rsrc:0100524a 55                               0x55 'U'
                           .rsrc:0100524b 74                               0x74 't'
                           .rsrc:0100524c 69                               0x69 'i'
                           .rsrc:0100524d 6c                               0x6c 'l'
                           .rsrc:0100524e 69                               0x69 'i'
                           .rsrc:0100524f 74                               0x74 't'
                           .rsrc:01005250 79                               0x79 'y'
                           .rsrc:01005251 3c                               0x3c '<'
                           .rsrc:01005252 2f                               0x2f '/'
                           .rsrc:01005253 64                               0x64 'd'
                           .rsrc:01005254 65                               0x65 'e'
                           .rsrc:01005255 73                               0x73 's'
                           .rsrc:01005256 63                               0x63 'c'
                           .rsrc:01005257 72                               0x72 'r'
                           .rsrc:01005258 69                               0x69 'i'
                           .rsrc:01005259 70                               0x70 'p'
                           .rsrc:0100525a 74                               0x74 't'
                           .rsrc:0100525b 69                               0x69 'i'
                           .rsrc:0100525c 6f                               0x6f 'o'
                           .rsrc:0100525d 6e                               0x6e 'n'
                           .rsrc:0100525e 3e                               0x3e '>'
                           .rsrc:0100525f 0d                               0x0d ''
                           .rsrc:01005260 0a                               0x0a '
'
                           .rsrc:01005261 0d                               0x0d ''
                           .rsrc:01005262 0a                               0x0a '
'
                           .rsrc:01005263 3c                               0x3c '<'
                           .rsrc:01005264 74                               0x74 't'
                           .rsrc:01005265 72                               0x72 'r'
                           .rsrc:01005266 75                               0x75 'u'
                           .rsrc:01005267 73                               0x73 's'
                           .rsrc:01005268 74                               0x74 't'
                           .rsrc:01005269 49                               0x49 'I'
                           .rsrc:0100526a 6e                               0x6e 'n'
                           .rsrc:0100526b 66                               0x66 'f'
                           .rsrc:0100526c 6f                               0x6f 'o'
                           .rsrc:0100526d 20                               0x20 ' '
                           .rsrc:0100526e 78                               0x78 'x'
                           .rsrc:0100526f 6d                               0x6d 'm'
                           .rsrc:01005270 6c                               0x6c 'l'
                           .rsrc:01005271 6e                               0x6e 'n'
                           .rsrc:01005272 73                               0x73 's'
                           .rsrc:01005273 3d                               0x3d '='
                           .rsrc:01005274 22                               0x22 '"'
                           .rsrc:01005275 75                               0x75 'u'
                           .rsrc:01005276 72                               0x72 'r'
                           .rsrc:01005277 6e                               0x6e 'n'
                           .rsrc:01005278 3a                               0x3a ':'
                           .rsrc:01005279 73                               0x73 's'
                           .rsrc:0100527a 63                               0x63 'c'
                           .rsrc:0100527b 68                               0x68 'h'
                           .rsrc:0100527c 65                               0x65 'e'
                           .rsrc:0100527d 6d                               0x6d 'm'
                           .rsrc:0100527e 61                               0x61 'a'
                           .rsrc:0100527f 73                               0x73 's'
                           .rsrc:01005280 2d                               0x2d '-'
                           .rsrc:01005281 6d                               0x6d 'm'
                           .rsrc:01005282 69                               0x69 'i'
                           .rsrc:01005283 63                               0x63 'c'
                           .rsrc:01005284 72                               0x72 'r'
                           .rsrc:01005285 6f                               0x6f 'o'
                           .rsrc:01005286 73                               0x73 's'
                           .rsrc:01005287 6f                               0x6f 'o'
                           .rsrc:01005288 66                               0x66 'f'
                           .rsrc:01005289 74                               0x74 't'
                           .rsrc:0100528a 2d                               0x2d '-'
                           .rsrc:0100528b 63                               0x63 'c'
                           .rsrc:0100528c 6f                               0x6f 'o'
                           .rsrc:0100528d 6d                               0x6d 'm'
                           .rsrc:0100528e 3a                               0x3a ':'
                           .rsrc:0100528f 61                               0x61 'a'
                           .rsrc:01005290 73                               0x73 's'
                           .rsrc:01005291 6d                               0x6d 'm'
                           .rsrc:01005292 2e                               0x2e '.'
                           .rsrc:01005293 76                               0x76 'v'
                           .rsrc:01005294 33                               0x33 '3'
                           .rsrc:01005295 22                               0x22 '"'
                           .rsrc:01005296 3e                               0x3e '>'
                           .rsrc:01005297 0d                               0x0d ''
                           .rsrc:01005298 0a                               0x0a '
'
                           .rsrc:01005299 20                               0x20 ' '
                           .rsrc:0100529a 20                               0x20 ' '
                           .rsrc:0100529b 20                               0x20 ' '
                           .rsrc:0100529c 20                               0x20 ' '
                           .rsrc:0100529d 3c                               0x3c '<'
                           .rsrc:0100529e 73                               0x73 's'
                           .rsrc:0100529f 65                               0x65 'e'
                           .rsrc:010052a0 63                               0x63 'c'
                           .rsrc:010052a1 75                               0x75 'u'
                           .rsrc:010052a2 72                               0x72 'r'
                           .rsrc:010052a3 69                               0x69 'i'
                           .rsrc:010052a4 74                               0x74 't'
                           .rsrc:010052a5 79                               0x79 'y'
                           .rsrc:010052a6 3e                               0x3e '>'
                           .rsrc:010052a7 0d                               0x0d ''
                           .rsrc:010052a8 0a                               0x0a '
'
                           .rsrc:010052a9 20                               0x20 ' '
                           .rsrc:010052aa 20                               0x20 ' '
                           .rsrc:010052ab 20                               0x20 ' '
                           .rsrc:010052ac 20                               0x20 ' '
                           .rsrc:010052ad 20                               0x20 ' '
                           .rsrc:010052ae 20                               0x20 ' '
                           .rsrc:010052af 20                               0x20 ' '
                           .rsrc:010052b0 20                               0x20 ' '
                           .rsrc:010052b1 3c                               0x3c '<'
                           .rsrc:010052b2 72                               0x72 'r'
                           .rsrc:010052b3 65                               0x65 'e'
                           .rsrc:010052b4 71                               0x71 'q'
                           .rsrc:010052b5 75                               0x75 'u'
                           .rsrc:010052b6 65                               0x65 'e'
                           .rsrc:010052b7 73                               0x73 's'
                           .rsrc:010052b8 74                               0x74 't'
                           .rsrc:010052b9 65                               0x65 'e'
                           .rsrc:010052ba 64                               0x64 'd'
                           .rsrc:010052bb 50                               0x50 'P'
                           .rsrc:010052bc 72                               0x72 'r'
                           .rsrc:010052bd 69                               0x69 'i'
                           .rsrc:010052be 76                               0x76 'v'
                           .rsrc:010052bf 69                               0x69 'i'
                           .rsrc:010052c0 6c                               0x6c 'l'
                           .rsrc:010052c1 65                               0x65 'e'
                           .rsrc:010052c2 67                               0x67 'g'
                           .rsrc:010052c3 65                               0x65 'e'
                           .rsrc:010052c4 73                               0x73 's'
                           .rsrc:010052c5 3e                               0x3e '>'
                           .rsrc:010052c6 0d                               0x0d ''
                           .rsrc:010052c7 0a                               0x0a '
'
                           .rsrc:010052c8 20                               0x20 ' '
                           .rsrc:010052c9 20                               0x20 ' '
                           .rsrc:010052ca 20                               0x20 ' '
                           .rsrc:010052cb 20                               0x20 ' '
                           .rsrc:010052cc 20                               0x20 ' '
                           .rsrc:010052cd 20                               0x20 ' '
                           .rsrc:010052ce 20                               0x20 ' '
                           .rsrc:010052cf 20                               0x20 ' '
                           .rsrc:010052d0 20                               0x20 ' '
                           .rsrc:010052d1 20                               0x20 ' '
                           .rsrc:010052d2 20                               0x20 ' '
                           .rsrc:010052d3 20                               0x20 ' '
                           .rsrc:010052d4 3c                               0x3c '<'
                           .rsrc:010052d5 72                               0x72 'r'
                           .rsrc:010052d6 65                               0x65 'e'
                           .rsrc:010052d7 71                               0x71 'q'
                           .rsrc:010052d8 75                               0x75 'u'
                           .rsrc:010052d9 65                               0x65 'e'
                           .rsrc:010052da 73                               0x73 's'
                           .rsrc:010052db 74                               0x74 't'
                           .rsrc:010052dc 65                               0x65 'e'
                           .rsrc:010052dd 64                               0x64 'd'
                           .rsrc:010052de 45                               0x45 'E'
                           .rsrc:010052df 78                               0x78 'x'
                           .rsrc:010052e0 65                               0x65 'e'
                           .rsrc:010052e1 63                               0x63 'c'
                           .rsrc:010052e2 75                               0x75 'u'
                           .rsrc:010052e3 74                               0x74 't'
                           .rsrc:010052e4 69                               0x69 'i'
                           .rsrc:010052e5 6f                               0x6f 'o'
                           .rsrc:010052e6 6e                               0x6e 'n'
                           .rsrc:010052e7 4c                               0x4c 'L'
                           .rsrc:010052e8 65                               0x65 'e'
                           .rsrc:010052e9 76                               0x76 'v'
                           .rsrc:010052ea 65                               0x65 'e'
                           .rsrc:010052eb 6c                               0x6c 'l'
                           .rsrc:010052ec 0d                               0x0d ''
                           .rsrc:010052ed 0a                               0x0a '
'
                           .rsrc:010052ee 20                               0x20 ' '
                           .rsrc:010052ef 20                               0x20 ' '
                           .rsrc:010052f0 20                               0x20 ' '
                           .rsrc:010052f1 20                               0x20 ' '
                           .rsrc:010052f2 20                               0x20 ' '
                           .rsrc:010052f3 20                               0x20 ' '
                           .rsrc:010052f4 20                               0x20 ' '
                           .rsrc:010052f5 20                               0x20 ' '
                           .rsrc:010052f6 20                               0x20 ' '
                           .rsrc:010052f7 20                               0x20 ' '
                           .rsrc:010052f8 20                               0x20 ' '
                           .rsrc:010052f9 20                               0x20 ' '
                           .rsrc:010052fa 20                               0x20 ' '
                           .rsrc:010052fb 20                               0x20 ' '
                           .rsrc:010052fc 20                               0x20 ' '
                           .rsrc:010052fd 20                               0x20 ' '
                           .rsrc:010052fe 6c                               0x6c 'l'
                           .rsrc:010052ff 65                               0x65 'e'
                           .rsrc:01005300 76                               0x76 'v'
                           .rsrc:01005301 65                               0x65 'e'
                           .rsrc:01005302 6c                               0x6c 'l'
                           .rsrc:01005303 3d                               0x3d '='
                           .rsrc:01005304 22                               0x22 '"'
                           .rsrc:01005305 61                               0x61 'a'
                           .rsrc:01005306 73                               0x73 's'
                           .rsrc:01005307 49                               0x49 'I'
                           .rsrc:01005308 6e                               0x6e 'n'
                           .rsrc:01005309 76                               0x76 'v'
                           .rsrc:0100530a 6f                               0x6f 'o'
                           .rsrc:0100530b 6b                               0x6b 'k'
                           .rsrc:0100530c 65                               0x65 'e'
                           .rsrc:0100530d 72                               0x72 'r'
                           .rsrc:0100530e 22                               0x22 '"'
                           .rsrc:0100530f 0d                               0x0d ''
                           .rsrc:01005310 0a                               0x0a '
'
                           .rsrc:01005311 20                               0x20 ' '
                           .rsrc:01005312 20                               0x20 ' '
                           .rsrc:01005313 20                               0x20 ' '
                           .rsrc:01005314 20                               0x20 ' '
                           .rsrc:01005315 20                               0x20 ' '
                           .rsrc:01005316 20                               0x20 ' '
                           .rsrc:01005317 20                               0x20 ' '
                           .rsrc:01005318 20                               0x20 ' '
                           .rsrc:01005319 20                               0x20 ' '
                           .rsrc:0100531a 20                               0x20 ' '
                           .rsrc:0100531b 20                               0x20 ' '
                           .rsrc:0100531c 20                               0x20 ' '
                           .rsrc:0100531d 20                               0x20 ' '
                           .rsrc:0100531e 20                               0x20 ' '
                           .rsrc:0100531f 20                               0x20 ' '
                           .rsrc:01005320 20                               0x20 ' '
                           .rsrc:01005321 75                               0x75 'u'
                           .rsrc:01005322 69                               0x69 'i'
                           .rsrc:01005323 41                               0x41 'A'
                           .rsrc:01005324 63                               0x63 'c'
                           .rsrc:01005325 63                               0x63 'c'
                           .rsrc:01005326 65                               0x65 'e'
                           .rsrc:01005327 73                               0x73 's'
                           .rsrc:01005328 73                               0x73 's'
                           .rsrc:01005329 3d                               0x3d '='
                           .rsrc:0100532a 22                               0x22 '"'
                           .rsrc:0100532b 66                               0x66 'f'
                           .rsrc:0100532c 61                               0x61 'a'
                           .rsrc:0100532d 6c                               0x6c 'l'
                           .rsrc:0100532e 73                               0x73 's'
                           .rsrc:0100532f 65                               0x65 'e'
                           .rsrc:01005330 22                               0x22 '"'
                           .rsrc:01005331 0d                               0x0d ''
                           .rsrc:01005332 0a                               0x0a '
'
                           .rsrc:01005333 20                               0x20 ' '
                           .rsrc:01005334 20                               0x20 ' '
                           .rsrc:01005335 20                               0x20 ' '
                           .rsrc:01005336 20                               0x20 ' '
                           .rsrc:01005337 20                               0x20 ' '
                           .rsrc:01005338 20                               0x20 ' '
                           .rsrc:01005339 20                               0x20 ' '
                           .rsrc:0100533a 20                               0x20 ' '
                           .rsrc:0100533b 20                               0x20 ' '
                           .rsrc:0100533c 20                               0x20 ' '
                           .rsrc:0100533d 20                               0x20 ' '
                           .rsrc:0100533e 20                               0x20 ' '
                           .rsrc:0100533f 2f                               0x2f '/'
                           .rsrc:01005340 3e                               0x3e '>'
                           .rsrc:01005341 0d                               0x0d ''
                           .rsrc:01005342 0a                               0x0a '
'
                           .rsrc:01005343 20                               0x20 ' '
                           .rsrc:01005344 20                               0x20 ' '
                           .rsrc:01005345 20                               0x20 ' '
                           .rsrc:01005346 20                               0x20 ' '
                           .rsrc:01005347 20                               0x20 ' '
                           .rsrc:01005348 20                               0x20 ' '
                           .rsrc:01005349 20                               0x20 ' '
                           .rsrc:0100534a 20                               0x20 ' '
                           .rsrc:0100534b 3c                               0x3c '<'
                           .rsrc:0100534c 2f                               0x2f '/'
                           .rsrc:0100534d 72                               0x72 'r'
                           .rsrc:0100534e 65                               0x65 'e'
                           .rsrc:0100534f 71                               0x71 'q'
                           .rsrc:01005350 75                               0x75 'u'
                           .rsrc:01005351 65                               0x65 'e'
                           .rsrc:01005352 73                               0x73 's'
                           .rsrc:01005353 74                               0x74 't'
                           .rsrc:01005354 65                               0x65 'e'
                           .rsrc:01005355 64                               0x64 'd'
                           .rsrc:01005356 50                               0x50 'P'
                           .rsrc:01005357 72                               0x72 'r'
                           .rsrc:01005358 69                               0x69 'i'
                           .rsrc:01005359 76                               0x76 'v'
                           .rsrc:0100535a 69                               0x69 'i'
                           .rsrc:0100535b 6c                               0x6c 'l'
                           .rsrc:0100535c 65                               0x65 'e'
                           .rsrc:0100535d 67                               0x67 'g'
                           .rsrc:0100535e 65                               0x65 'e'
                           .rsrc:0100535f 73                               0x73 's'
                           .rsrc:01005360 3e                               0x3e '>'
                           .rsrc:01005361 0d                               0x0d ''
                           .rsrc:01005362 0a                               0x0a '
'
                           .rsrc:01005363 20                               0x20 ' '
                           .rsrc:01005364 20                               0x20 ' '
                           .rsrc:01005365 20                               0x20 ' '
                           .rsrc:01005366 20                               0x20 ' '
                           .rsrc:01005367 3c                               0x3c '<'
                           .rsrc:01005368 2f                               0x2f '/'
                           .rsrc:01005369 73                               0x73 's'
                           .rsrc:0100536a 65                               0x65 'e'
                           .rsrc:0100536b 63                               0x63 'c'
                           .rsrc:0100536c 75                               0x75 'u'
                           .rsrc:0100536d 72                               0x72 'r'
                           .rsrc:0100536e 69                               0x69 'i'
                           .rsrc:0100536f 74                               0x74 't'
                           .rsrc:01005370 79                               0x79 'y'
                           .rsrc:01005371 3e                               0x3e '>'
                           .rsrc:01005372 0d                               0x0d ''
                           .rsrc:01005373 0a                               0x0a '
'
                           .rsrc:01005374 3c                               0x3c '<'
                           .rsrc:01005375 2f                               0x2f '/'
                           .rsrc:01005376 74                               0x74 't'
                           .rsrc:01005377 72                               0x72 'r'
                           .rsrc:01005378 75                               0x75 'u'
                           .rsrc:01005379 73                               0x73 's'
                           .rsrc:0100537a 74                               0x74 't'
                           .rsrc:0100537b 49                               0x49 'I'
                           .rsrc:0100537c 6e                               0x6e 'n'
                           .rsrc:0100537d 66                               0x66 'f'
                           .rsrc:0100537e 6f                               0x6f 'o'
                           .rsrc:0100537f 3e                               0x3e '>'
                           .rsrc:01005380 0d                               0x0d ''
                           .rsrc:01005381 0a                               0x0a '
'
                           .rsrc:01005382 3c                               0x3c '<'
                           .rsrc:01005383 2f                               0x2f '/'
                           .rsrc:01005384 61                               0x61 'a'
                           .rsrc:01005385 73                               0x73 's'
                           .rsrc:01005386 73                               0x73 's'
                           .rsrc:01005387 65                               0x65 'e'
                           .rsrc:01005388 6d                               0x6d 'm'
                           .rsrc:01005389 62                               0x62 'b'
                           .rsrc:0100538a 6c                               0x6c 'l'
                           .rsrc:0100538b 79                               0x79 'y'
                           .rsrc:0100538c 3e                               0x3e '>'
                           .rsrc:0100538d 0d                               0x0d ''
                           .rsrc:0100538e 0a                               0x0a '
'
                           .rsrc:0100538f 0d                               0x0d ''
                           .rsrc:01005390 0a                               0x0a '
'
                           .rsrc:01005391 00                               0x00 
                           .rsrc:01005392 00                               0x00 
                           .rsrc:01005393 00                               0x00 
                           .rsrc:01005394 00                               0x00 
                           .rsrc:01005395 00                               0x00 
                           .rsrc:01005396 00                               0x00 
                           .rsrc:01005397 00                               0x00 
                           .rsrc:01005398 7c                               0x7c '|'
                           .rsrc:01005399 03                               0x03 
                           .rsrc:0100539a 34                               0x34 '4'
                           .rsrc:0100539b 00                               0x00 
                           .rsrc:0100539c 00                               0x00 
                           .rsrc:0100539d 00                               0x00 
                           .rsrc:0100539e 56                               0x56 'V'
                           .rsrc:0100539f 00                               0x00 
                           .rsrc:010053a0 53                               0x53 'S'
                           .rsrc:010053a1 00                               0x00 
                           .rsrc:010053a2 5f                               0x5f '_'
                           .rsrc:010053a3 00                               0x00 
                           .rsrc:010053a4 56                               0x56 'V'
                           .rsrc:010053a5 00                               0x00 
                           .rsrc:010053a6 45                               0x45 'E'
                           .rsrc:010053a7 00                               0x00 
                           .rsrc:010053a8 52                               0x52 'R'
                           .rsrc:010053a9 00                               0x00 
                           .rsrc:010053aa 53                               0x53 'S'
                           .rsrc:010053ab 00                               0x00 
                           .rsrc:010053ac 49                               0x49 'I'
                           .rsrc:010053ad 00                               0x00 
                           .rsrc:010053ae 4f                               0x4f 'O'
                           .rsrc:010053af 00                               0x00 
                           .rsrc:010053b0 4e                               0x4e 'N'
                           .rsrc:010053b1 00                               0x00 
                           .rsrc:010053b2 5f                               0x5f '_'
                           .rsrc:010053b3 00                               0x00 
                           .rsrc:010053b4 49                               0x49 'I'
                           .rsrc:010053b5 00                               0x00 
                           .rsrc:010053b6 4e                               0x4e 'N'
                           .rsrc:010053b7 00                               0x00 
                           .rsrc:010053b8 46                               0x46 'F'
                           .rsrc:010053b9 00                               0x00 
                           .rsrc:010053ba 4f                               0x4f 'O'
                           .rsrc:010053bb 00                               0x00 
                           .rsrc:010053bc 00                               0x00 
                           .rsrc:010053bd 00                               0x00 
                           .rsrc:010053be 00                               0x00 
                           .rsrc:010053bf 00                               0x00 
                           .rsrc:010053c0 bd                               0xbd 
                           .rsrc:010053c1 04                               0x04 
                           .rsrc:010053c2 ef                               0xef 
                           .rsrc:010053c3 fe                               0xfe 
                           .rsrc:010053c4 00                               0x00 
                           .rsrc:010053c5 00                               0x00 
                           .rsrc:010053c6 01                               0x01 
                           .rsrc:010053c7 00                               0x00 
                           .rsrc:010053c8 01                               0x01 
                           .rsrc:010053c9 00                               0x00 
                           .rsrc:010053ca 06                               0x06 
                           .rsrc:010053cb 00                               0x00 
                           .rsrc:010053cc 01                               0x01 
                           .rsrc:010053cd 40                               0x40 '@'
                           .rsrc:010053ce b0                               0xb0 
                           .rsrc:010053cf 1d                               0x1d 
                           .rsrc:010053d0 01                               0x01 
                           .rsrc:010053d1 00                               0x00 
                           .rsrc:010053d2 06                               0x06 
                           .rsrc:010053d3 00                               0x00 
                           .rsrc:010053d4 01                               0x01 
                           .rsrc:010053d5 40                               0x40 '@'
                           .rsrc:010053d6 b0                               0xb0 
                           .rsrc:010053d7 1d                               0x1d 
                           .rsrc:010053d8 3f                               0x3f '?'
                           .rsrc:010053d9 00                               0x00 
                           .rsrc:010053da 00                               0x00 
                           .rsrc:010053db 00                               0x00 
                           .rsrc:010053dc 00                               0x00 
                           .rsrc:010053dd 00                               0x00 
                           .rsrc:010053de 00                               0x00 
                           .rsrc:010053df 00                               0x00 
                           .rsrc:010053e0 04                               0x04 
                           .rsrc:010053e1 00                               0x00 
                           .rsrc:010053e2 04                               0x04 
                           .rsrc:010053e3 00                               0x00 
                           .rsrc:010053e4 01                               0x01 
                           .rsrc:010053e5 00                               0x00 
                           .rsrc:010053e6 00                               0x00 
                           .rsrc:010053e7 00                               0x00 
                           .rsrc:010053e8 00                               0x00 
                           .rsrc:010053e9 00                               0x00 
                           .rsrc:010053ea 00                               0x00 
                           .rsrc:010053eb 00                               0x00 
                           .rsrc:010053ec 00                               0x00 
                           .rsrc:010053ed 00                               0x00 
                           .rsrc:010053ee 00                               0x00 
                           .rsrc:010053ef 00                               0x00 
                           .rsrc:010053f0 00                               0x00 
                           .rsrc:010053f1 00                               0x00 
                           .rsrc:010053f2 00                               0x00 
                           .rsrc:010053f3 00                               0x00 
                           .rsrc:010053f4 da                               0xda 
                           .rsrc:010053f5 02                               0x02 
                           .rsrc:010053f6 00                               0x00 
                           .rsrc:010053f7 00                               0x00 
                           .rsrc:010053f8 01                               0x01 
                           .rsrc:010053f9 00                               0x00 
                           .rsrc:010053fa 53                               0x53 'S'
                           .rsrc:010053fb 00                               0x00 
                           .rsrc:010053fc 74                               0x74 't'
                           .rsrc:010053fd 00                               0x00 
                           .rsrc:010053fe 72                               0x72 'r'
                           .rsrc:010053ff 00                               0x00 
                           .rsrc:01005400 69                               0x69 'i'
                           .rsrc:01005401 00                               0x00 
                           .rsrc:01005402 6e                               0x6e 'n'
                           .rsrc:01005403 00                               0x00 
                           .rsrc:01005404 67                               0x67 'g'
                           .rsrc:01005405 00                               0x00 
                           .rsrc:01005406 46                               0x46 'F'
                           .rsrc:01005407 00                               0x00 
                           .rsrc:01005408 69                               0x69 'i'
                           .rsrc:01005409 00                               0x00 
                           .rsrc:0100540a 6c                               0x6c 'l'
                           .rsrc:0100540b 00                               0x00 
                           .rsrc:0100540c 65                               0x65 'e'
                           .rsrc:0100540d 00                               0x00 
                           .rsrc:0100540e 49                               0x49 'I'
                           .rsrc:0100540f 00                               0x00 
                           .rsrc:01005410 6e                               0x6e 'n'
                           .rsrc:01005411 00                               0x00 
                           .rsrc:01005412 66                               0x66 'f'
                           .rsrc:01005413 00                               0x00 
                           .rsrc:01005414 6f                               0x6f 'o'
                           .rsrc:01005415 00                               0x00 
                           .rsrc:01005416 00                               0x00 
                           .rsrc:01005417 00                               0x00 
                           .rsrc:01005418 b6                               0xb6 
                           .rsrc:01005419 02                               0x02 
                           .rsrc:0100541a 00                               0x00 
                           .rsrc:0100541b 00                               0x00 
                           .rsrc:0100541c 01                               0x01 
                           .rsrc:0100541d 00                               0x00 
                           .rsrc:0100541e 30                               0x30 '0'
                           .rsrc:0100541f 00                               0x00 
                           .rsrc:01005420 34                               0x34 '4'
                           .rsrc:01005421 00                               0x00 
                           .rsrc:01005422 30                               0x30 '0'
                           .rsrc:01005423 00                               0x00 
                           .rsrc:01005424 39                               0x39 '9'
                           .rsrc:01005425 00                               0x00 
                           .rsrc:01005426 30                               0x30 '0'
                           .rsrc:01005427 00                               0x00 
                           .rsrc:01005428 34                               0x34 '4'
                           .rsrc:01005429 00                               0x00 
                           .rsrc:0100542a 42                               0x42 'B'
                           .rsrc:0100542b 00                               0x00 
                           .rsrc:0100542c 30                               0x30 '0'
                           .rsrc:0100542d 00                               0x00 
                           .rsrc:0100542e 00                               0x00 
                           .rsrc:0100542f 00                               0x00 
                           .rsrc:01005430 4c                               0x4c 'L'
                           .rsrc:01005431 00                               0x00 
                           .rsrc:01005432 16                               0x16 
                           .rsrc:01005433 00                               0x00 
                           .rsrc:01005434 01                               0x01 
                           .rsrc:01005435 00                               0x00 
                           .rsrc:01005436 43                               0x43 'C'
                           .rsrc:01005437 00                               0x00 
                           .rsrc:01005438 6f                               0x6f 'o'
                           .rsrc:01005439 00                               0x00 
                           .rsrc:0100543a 6d                               0x6d 'm'
                           .rsrc:0100543b 00                               0x00 
                           .rsrc:0100543c 70                               0x70 'p'
                           .rsrc:0100543d 00                               0x00 
                           .rsrc:0100543e 61                               0x61 'a'
                           .rsrc:0100543f 00                               0x00 
                           .rsrc:01005440 6e                               0x6e 'n'
                           .rsrc:01005441 00                               0x00 
                           .rsrc:01005442 79                               0x79 'y'
                           .rsrc:01005443 00                               0x00 
                           .rsrc:01005444 4e                               0x4e 'N'
                           .rsrc:01005445 00                               0x00 
                           .rsrc:01005446 61                               0x61 'a'
                           .rsrc:01005447 00                               0x00 
                           .rsrc:01005448 6d                               0x6d 'm'
                           .rsrc:01005449 00                               0x00 
                           .rsrc:0100544a 65                               0x65 'e'
                           .rsrc:0100544b 00                               0x00 
                           .rsrc:0100544c 00                               0x00 
                           .rsrc:0100544d 00                               0x00 
                           .rsrc:0100544e 00                               0x00 
                           .rsrc:0100544f 00                               0x00 
                           .rsrc:01005450 4d                               0x4d 'M'
                           .rsrc:01005451 00                               0x00 
                           .rsrc:01005452 69                               0x69 'i'
                           .rsrc:01005453 00                               0x00 
                           .rsrc:01005454 63                               0x63 'c'
                           .rsrc:01005455 00                               0x00 
                           .rsrc:01005456 72                               0x72 'r'
                           .rsrc:01005457 00                               0x00 
                           .rsrc:01005458 6f                               0x6f 'o'
                           .rsrc:01005459 00                               0x00 
                           .rsrc:0100545a 73                               0x73 's'
                           .rsrc:0100545b 00                               0x00 
                           .rsrc:0100545c 6f                               0x6f 'o'
                           .rsrc:0100545d 00                               0x00 
                           .rsrc:0100545e 66                               0x66 'f'
                           .rsrc:0100545f 00                               0x00 
                           .rsrc:01005460 74                               0x74 't'
                           .rsrc:01005461 00                               0x00 
                           .rsrc:01005462 20                               0x20 ' '
                           .rsrc:01005463 00                               0x00 
                           .rsrc:01005464 43                               0x43 'C'
                           .rsrc:01005465 00                               0x00 
                           .rsrc:01005466 6f                               0x6f 'o'
                           .rsrc:01005467 00                               0x00 
                           .rsrc:01005468 72                               0x72 'r'
                           .rsrc:01005469 00                               0x00 
                           .rsrc:0100546a 70                               0x70 'p'
                           .rsrc:0100546b 00                               0x00 
                           .rsrc:0100546c 6f                               0x6f 'o'
                           .rsrc:0100546d 00                               0x00 
                           .rsrc:0100546e 72                               0x72 'r'
                           .rsrc:0100546f 00                               0x00 
                           .rsrc:01005470 61                               0x61 'a'
                           .rsrc:01005471 00                               0x00 
                           .rsrc:01005472 74                               0x74 't'
                           .rsrc:01005473 00                               0x00 
                           .rsrc:01005474 69                               0x69 'i'
                           .rsrc:01005475 00                               0x00 
                           .rsrc:01005476 6f                               0x6f 'o'
                           .rsrc:01005477 00                               0x00 
                           .rsrc:01005478 6e                               0x6e 'n'
                           .rsrc:01005479 00                               0x00 
                           .rsrc:0100547a 00                               0x00 
                           .rsrc:0100547b 00                               0x00 
                           .rsrc:0100547c 4e                               0x4e 'N'
                           .rsrc:0100547d 00                               0x00 
                           .rsrc:0100547e 13                               0x13 
                           .rsrc:0100547f 00                               0x00 
                           .rsrc:01005480 01                               0x01 
                           .rsrc:01005481 00                               0x00 
                           .rsrc:01005482 46                               0x46 'F'
                           .rsrc:01005483 00                               0x00 
                           .rsrc:01005484 69                               0x69 'i'
                           .rsrc:01005485 00                               0x00 
                           .rsrc:01005486 6c                               0x6c 'l'
                           .rsrc:01005487 00                               0x00 
                           .rsrc:01005488 65                               0x65 'e'
                           .rsrc:01005489 00                               0x00 
                           .rsrc:0100548a 44                               0x44 'D'
                           .rsrc:0100548b 00                               0x00 
                           .rsrc:0100548c 65                               0x65 'e'
                           .rsrc:0100548d 00                               0x00 
                           .rsrc:0100548e 73                               0x73 's'
                           .rsrc:0100548f 00                               0x00 
                           .rsrc:01005490 63                               0x63 'c'
                           .rsrc:01005491 00                               0x00 
                           .rsrc:01005492 72                               0x72 'r'
                           .rsrc:01005493 00                               0x00 
                           .rsrc:01005494 69                               0x69 'i'
                           .rsrc:01005495 00                               0x00 
                           .rsrc:01005496 70                               0x70 'p'
                           .rsrc:01005497 00                               0x00 
                           .rsrc:01005498 74                               0x74 't'
                           .rsrc:01005499 00                               0x00 
                           .rsrc:0100549a 69                               0x69 'i'
                           .rsrc:0100549b 00                               0x00 
                           .rsrc:0100549c 6f                               0x6f 'o'
                           .rsrc:0100549d 00                               0x00 
                           .rsrc:0100549e 6e                               0x6e 'n'
                           .rsrc:0100549f 00                               0x00 
                           .rsrc:010054a0 00                               0x00 
                           .rsrc:010054a1 00                               0x00 
                           .rsrc:010054a2 00                               0x00 
                           .rsrc:010054a3 00                               0x00 
                           .rsrc:010054a4 44                               0x44 'D'
                           .rsrc:010054a5 00                               0x00 
                           .rsrc:010054a6 69                               0x69 'i'
                           .rsrc:010054a7 00                               0x00 
                           .rsrc:010054a8 73                               0x73 's'
                           .rsrc:010054a9 00                               0x00 
                           .rsrc:010054aa 6b                               0x6b 'k'
                           .rsrc:010054ab 00                               0x00 
                           .rsrc:010054ac 20                               0x20 ' '
                           .rsrc:010054ad 00                               0x00 
                           .rsrc:010054ae 4c                               0x4c 'L'
                           .rsrc:010054af 00                               0x00 
                           .rsrc:010054b0 61                               0x61 'a'
                           .rsrc:010054b1 00                               0x00 
                           .rsrc:010054b2 62                               0x62 'b'
                           .rsrc:010054b3 00                               0x00 
                           .rsrc:010054b4 65                               0x65 'e'
                           .rsrc:010054b5 00                               0x00 
                           .rsrc:010054b6 6c                               0x6c 'l'
                           .rsrc:010054b7 00                               0x00 
                           .rsrc:010054b8 20                               0x20 ' '
                           .rsrc:010054b9 00                               0x00 
                           .rsrc:010054ba 55                               0x55 'U'
                           .rsrc:010054bb 00                               0x00 
                           .rsrc:010054bc 74                               0x74 't'
                           .rsrc:010054bd 00                               0x00 
                           .rsrc:010054be 69                               0x69 'i'
                           .rsrc:010054bf 00                               0x00 
                           .rsrc:010054c0 6c                               0x6c 'l'
                           .rsrc:010054c1 00                               0x00 
                           .rsrc:010054c2 69                               0x69 'i'
                           .rsrc:010054c3 00                               0x00 
                           .rsrc:010054c4 74                               0x74 't'
                           .rsrc:010054c5 00                               0x00 
                           .rsrc:010054c6 79                               0x79 'y'
                           .rsrc:010054c7 00                               0x00 
                           .rsrc:010054c8 00                               0x00 
                           .rsrc:010054c9 00                               0x00 
                           .rsrc:010054ca 00                               0x00 
                           .rsrc:010054cb 00                               0x00 
                           .rsrc:010054cc 6c                               0x6c 'l'
                           .rsrc:010054cd 00                               0x00 
                           .rsrc:010054ce 26                               0x26 '&'
                           .rsrc:010054cf 00                               0x00 
                           .rsrc:010054d0 01                               0x01 
                           .rsrc:010054d1 00                               0x00 
                           .rsrc:010054d2 46                               0x46 'F'
                           .rsrc:010054d3 00                               0x00 
                           .rsrc:010054d4 69                               0x69 'i'
                           .rsrc:010054d5 00                               0x00 
                           .rsrc:010054d6 6c                               0x6c 'l'
                           .rsrc:010054d7 00                               0x00 
                           .rsrc:010054d8 65                               0x65 'e'
                           .rsrc:010054d9 00                               0x00 
                           .rsrc:010054da 56                               0x56 'V'
                           .rsrc:010054db 00                               0x00 
                           .rsrc:010054dc 65                               0x65 'e'
                           .rsrc:010054dd 00                               0x00 
                           .rsrc:010054de 72                               0x72 'r'
                           .rsrc:010054df 00                               0x00 
                           .rsrc:010054e0 73                               0x73 's'
                           .rsrc:010054e1 00                               0x00 
                           .rsrc:010054e2 69                               0x69 'i'
                           .rsrc:010054e3 00                               0x00 
                           .rsrc:010054e4 6f                               0x6f 'o'
                           .rsrc:010054e5 00                               0x00 
                           .rsrc:010054e6 6e                               0x6e 'n'
                           .rsrc:010054e7 00                               0x00 
                           .rsrc:010054e8 00                               0x00 
                           .rsrc:010054e9 00                               0x00 
                           .rsrc:010054ea 00                               0x00 
                           .rsrc:010054eb 00                               0x00 
                           .rsrc:010054ec 36                               0x36 '6'
                           .rsrc:010054ed 00                               0x00 
                           .rsrc:010054ee 2e                               0x2e '.'
                           .rsrc:010054ef 00                               0x00 
                           .rsrc:010054f0 31                               0x31 '1'
                           .rsrc:010054f1 00                               0x00 
                           .rsrc:010054f2 2e                               0x2e '.'
                           .rsrc:010054f3 00                               0x00 
                           .rsrc:010054f4 37                               0x37 '7'
                           .rsrc:010054f5 00                               0x00 
                           .rsrc:010054f6 36                               0x36 '6'
                           .rsrc:010054f7 00                               0x00 
                           .rsrc:010054f8 30                               0x30 '0'
                           .rsrc:010054f9 00                               0x00 
                           .rsrc:010054fa 30                               0x30 '0'
                           .rsrc:010054fb 00                               0x00 
                           .rsrc:010054fc 2e                               0x2e '.'
                           .rsrc:010054fd 00                               0x00 
                           .rsrc:010054fe 31                               0x31 '1'
                           .rsrc:010054ff 00                               0x00 
                           .rsrc:01005500 36                               0x36 '6'
                           .rsrc:01005501 00                               0x00 
                           .rsrc:01005502 33                               0x33 '3'
                           .rsrc:01005503 00                               0x00 
                           .rsrc:01005504 38                               0x38 '8'
                           .rsrc:01005505 00                               0x00 
                           .rsrc:01005506 35                               0x35 '5'
                           .rsrc:01005507 00                               0x00 
                           .rsrc:01005508 20                               0x20 ' '
                           .rsrc:01005509 00                               0x00 
                           .rsrc:0100550a 28                               0x28 '('
                           .rsrc:0100550b 00                               0x00 
                           .rsrc:0100550c 77                               0x77 'w'
                           .rsrc:0100550d 00                               0x00 
                           .rsrc:0100550e 69                               0x69 'i'
                           .rsrc:0100550f 00                               0x00 
                           .rsrc:01005510 6e                               0x6e 'n'
                           .rsrc:01005511 00                               0x00 
                           .rsrc:01005512 37                               0x37 '7'
                           .rsrc:01005513 00                               0x00 
                           .rsrc:01005514 5f                               0x5f '_'
                           .rsrc:01005515 00                               0x00 
                           .rsrc:01005516 72                               0x72 'r'
                           .rsrc:01005517 00                               0x00 
                           .rsrc:01005518 74                               0x74 't'
                           .rsrc:01005519 00                               0x00 
                           .rsrc:0100551a 6d                               0x6d 'm'
                           .rsrc:0100551b 00                               0x00 
                           .rsrc:0100551c 2e                               0x2e '.'
                           .rsrc:0100551d 00                               0x00 
                           .rsrc:0100551e 30                               0x30 '0'
                           .rsrc:0100551f 00                               0x00 
                           .rsrc:01005520 39                               0x39 '9'
                           .rsrc:01005521 00                               0x00 
                           .rsrc:01005522 30                               0x30 '0'
                           .rsrc:01005523 00                               0x00 
                           .rsrc:01005524 37                               0x37 '7'
                           .rsrc:01005525 00                               0x00 
                           .rsrc:01005526 31                               0x31 '1'
                           .rsrc:01005527 00                               0x00 
                           .rsrc:01005528 33                               0x33 '3'
                           .rsrc:01005529 00                               0x00 
                           .rsrc:0100552a 2d                               0x2d '-'
                           .rsrc:0100552b 00                               0x00 
                           .rsrc:0100552c 31                               0x31 '1'
                           .rsrc:0100552d 00                               0x00 
                           .rsrc:0100552e 32                               0x32 '2'
                           .rsrc:0100552f 00                               0x00 
                           .rsrc:01005530 35                               0x35 '5'
                           .rsrc:01005531 00                               0x00 
                           .rsrc:01005532 35                               0x35 '5'
                           .rsrc:01005533 00                               0x00 
                           .rsrc:01005534 29                               0x29 ')'
                           .rsrc:01005535 00                               0x00 
                           .rsrc:01005536 00                               0x00 
                           .rsrc:01005537 00                               0x00 
                           .rsrc:01005538 2c                               0x2c ','
                           .rsrc:01005539 00                               0x00 
                           .rsrc:0100553a 06                               0x06 
                           .rsrc:0100553b 00                               0x00 
                           .rsrc:0100553c 01                               0x01 
                           .rsrc:0100553d 00                               0x00 
                           .rsrc:0100553e 49                               0x49 'I'
                           .rsrc:0100553f 00                               0x00 
                           .rsrc:01005540 6e                               0x6e 'n'
                           .rsrc:01005541 00                               0x00 
                           .rsrc:01005542 74                               0x74 't'
                           .rsrc:01005543 00                               0x00 
                           .rsrc:01005544 65                               0x65 'e'
                           .rsrc:01005545 00                               0x00 
                           .rsrc:01005546 72                               0x72 'r'
                           .rsrc:01005547 00                               0x00 
                           .rsrc:01005548 6e                               0x6e 'n'
                           .rsrc:01005549 00                               0x00 
                           .rsrc:0100554a 61                               0x61 'a'
                           .rsrc:0100554b 00                               0x00 
                           .rsrc:0100554c 6c                               0x6c 'l'
                           .rsrc:0100554d 00                               0x00 
                           .rsrc:0100554e 4e                               0x4e 'N'
                           .rsrc:0100554f 00                               0x00 
                           .rsrc:01005550 61                               0x61 'a'
                           .rsrc:01005551 00                               0x00 
                           .rsrc:01005552 6d                               0x6d 'm'
                           .rsrc:01005553 00                               0x00 
                           .rsrc:01005554 65                               0x65 'e'
                           .rsrc:01005555 00                               0x00 
                           .rsrc:01005556 00                               0x00 
                           .rsrc:01005557 00                               0x00 
                           .rsrc:01005558 4c                               0x4c 'L'
                           .rsrc:01005559 00                               0x00 
                           .rsrc:0100555a 61                               0x61 'a'
                           .rsrc:0100555b 00                               0x00 
                           .rsrc:0100555c 62                               0x62 'b'
                           .rsrc:0100555d 00                               0x00 
                           .rsrc:0100555e 65                               0x65 'e'
                           .rsrc:0100555f 00                               0x00 
                           .rsrc:01005560 6c                               0x6c 'l'
                           .rsrc:01005561 00                               0x00 
                           .rsrc:01005562 00                               0x00 
                           .rsrc:01005563 00                               0x00 
                           .rsrc:01005564 80                               0x80 
                           .rsrc:01005565 00                               0x00 
                           .rsrc:01005566 2e                               0x2e '.'
                           .rsrc:01005567 00                               0x00 
                           .rsrc:01005568 01                               0x01 
                           .rsrc:01005569 00                               0x00 
                           .rsrc:0100556a 4c                               0x4c 'L'
                           .rsrc:0100556b 00                               0x00 
                           .rsrc:0100556c 65                               0x65 'e'
                           .rsrc:0100556d 00                               0x00 
                           .rsrc:0100556e 67                               0x67 'g'
                           .rsrc:0100556f 00                               0x00 
                           .rsrc:01005570 61                               0x61 'a'
                           .rsrc:01005571 00                               0x00 
                           .rsrc:01005572 6c                               0x6c 'l'
                           .rsrc:01005573 00                               0x00 
                           .rsrc:01005574 43                               0x43 'C'
                           .rsrc:01005575 00                               0x00 
                           .rsrc:01005576 6f                               0x6f 'o'
                           .rsrc:01005577 00                               0x00 
                           .rsrc:01005578 70                               0x70 'p'
                           .rsrc:01005579 00                               0x00 
                           .rsrc:0100557a 79                               0x79 'y'
                           .rsrc:0100557b 00                               0x00 
                           .rsrc:0100557c 72                               0x72 'r'
                           .rsrc:0100557d 00                               0x00 
                           .rsrc:0100557e 69                               0x69 'i'
                           .rsrc:0100557f 00                               0x00 
                           .rsrc:01005580 67                               0x67 'g'
                           .rsrc:01005581 00                               0x00 
                           .rsrc:01005582 68                               0x68 'h'
                           .rsrc:01005583 00                               0x00 
                           .rsrc:01005584 74                               0x74 't'
                           .rsrc:01005585 00                               0x00 
                           .rsrc:01005586 00                               0x00 
                           .rsrc:01005587 00                               0x00 
                           .rsrc:01005588 a9                               0xa9 
                           .rsrc:01005589 00                               0x00 
                           .rsrc:0100558a 20                               0x20 ' '
                           .rsrc:0100558b 00                               0x00 
                           .rsrc:0100558c 4d                               0x4d 'M'
                           .rsrc:0100558d 00                               0x00 
                           .rsrc:0100558e 69                               0x69 'i'
                           .rsrc:0100558f 00                               0x00 
                           .rsrc:01005590 63                               0x63 'c'
                           .rsrc:01005591 00                               0x00 
                           .rsrc:01005592 72                               0x72 'r'
                           .rsrc:01005593 00                               0x00 
                           .rsrc:01005594 6f                               0x6f 'o'
                           .rsrc:01005595 00                               0x00 
                           .rsrc:01005596 73                               0x73 's'
                           .rsrc:01005597 00                               0x00 
                           .rsrc:01005598 6f                               0x6f 'o'
                           .rsrc:01005599 00                               0x00 
                           .rsrc:0100559a 66                               0x66 'f'
                           .rsrc:0100559b 00                               0x00 
                           .rsrc:0100559c 74                               0x74 't'
                           .rsrc:0100559d 00                               0x00 
                           .rsrc:0100559e 20                               0x20 ' '
                           .rsrc:0100559f 00                               0x00 
                           .rsrc:010055a0 43                               0x43 'C'
                           .rsrc:010055a1 00                               0x00 
                           .rsrc:010055a2 6f                               0x6f 'o'
                           .rsrc:010055a3 00                               0x00 
                           .rsrc:010055a4 72                               0x72 'r'
                           .rsrc:010055a5 00                               0x00 
                           .rsrc:010055a6 70                               0x70 'p'
                           .rsrc:010055a7 00                               0x00 
                           .rsrc:010055a8 6f                               0x6f 'o'
                           .rsrc:010055a9 00                               0x00 
                           .rsrc:010055aa 72                               0x72 'r'
                           .rsrc:010055ab 00                               0x00 
                           .rsrc:010055ac 61                               0x61 'a'
                           .rsrc:010055ad 00                               0x00 
                           .rsrc:010055ae 74                               0x74 't'
                           .rsrc:010055af 00                               0x00 
                           .rsrc:010055b0 69                               0x69 'i'
                           .rsrc:010055b1 00                               0x00 
                           .rsrc:010055b2 6f                               0x6f 'o'
                           .rsrc:010055b3 00                               0x00 
                           .rsrc:010055b4 6e                               0x6e 'n'
                           .rsrc:010055b5 00                               0x00 
                           .rsrc:010055b6 2e                               0x2e '.'
                           .rsrc:010055b7 00                               0x00 
                           .rsrc:010055b8 20                               0x20 ' '
                           .rsrc:010055b9 00                               0x00 
                           .rsrc:010055ba 41                               0x41 'A'
                           .rsrc:010055bb 00                               0x00 
                           .rsrc:010055bc 6c                               0x6c 'l'
                           .rsrc:010055bd 00                               0x00 
                           .rsrc:010055be 6c                               0x6c 'l'
                           .rsrc:010055bf 00                               0x00 
                           .rsrc:010055c0 20                               0x20 ' '
                           .rsrc:010055c1 00                               0x00 
                           .rsrc:010055c2 72                               0x72 'r'
                           .rsrc:010055c3 00                               0x00 
                           .rsrc:010055c4 69                               0x69 'i'
                           .rsrc:010055c5 00                               0x00 
                           .rsrc:010055c6 67                               0x67 'g'
                           .rsrc:010055c7 00                               0x00 
                           .rsrc:010055c8 68                               0x68 'h'
                           .rsrc:010055c9 00                               0x00 
                           .rsrc:010055ca 74                               0x74 't'
                           .rsrc:010055cb 00                               0x00 
                           .rsrc:010055cc 73                               0x73 's'
                           .rsrc:010055cd 00                               0x00 
                           .rsrc:010055ce 20                               0x20 ' '
                           .rsrc:010055cf 00                               0x00 
                           .rsrc:010055d0 72                               0x72 'r'
                           .rsrc:010055d1 00                               0x00 
                           .rsrc:010055d2 65                               0x65 'e'
                           .rsrc:010055d3 00                               0x00 
                           .rsrc:010055d4 73                               0x73 's'
                           .rsrc:010055d5 00                               0x00 
                           .rsrc:010055d6 65                               0x65 'e'
                           .rsrc:010055d7 00                               0x00 
                           .rsrc:010055d8 72                               0x72 'r'
                           .rsrc:010055d9 00                               0x00 
                           .rsrc:010055da 76                               0x76 'v'
                           .rsrc:010055db 00                               0x00 
                           .rsrc:010055dc 65                               0x65 'e'
                           .rsrc:010055dd 00                               0x00 
                           .rsrc:010055de 64                               0x64 'd'
                           .rsrc:010055df 00                               0x00 
                           .rsrc:010055e0 2e                               0x2e '.'
                           .rsrc:010055e1 00                               0x00 
                           .rsrc:010055e2 00                               0x00 
                           .rsrc:010055e3 00                               0x00 
                           .rsrc:010055e4 3c                               0x3c '<'
                           .rsrc:010055e5 00                               0x00 
                           .rsrc:010055e6 0a                               0x0a '
'
                           .rsrc:010055e7 00                               0x00 
                           .rsrc:010055e8 01                               0x01 
                           .rsrc:010055e9 00                               0x00 
                           .rsrc:010055ea 4f                               0x4f 'O'
                           .rsrc:010055eb 00                               0x00 
                           .rsrc:010055ec 72                               0x72 'r'
                           .rsrc:010055ed 00                               0x00 
                           .rsrc:010055ee 69                               0x69 'i'
                           .rsrc:010055ef 00                               0x00 
                           .rsrc:010055f0 67                               0x67 'g'
                           .rsrc:010055f1 00                               0x00 
                           .rsrc:010055f2 69                               0x69 'i'
                           .rsrc:010055f3 00                               0x00 
                           .rsrc:010055f4 6e                               0x6e 'n'
                           .rsrc:010055f5 00                               0x00 
                           .rsrc:010055f6 61                               0x61 'a'
                           .rsrc:010055f7 00                               0x00 
                           .rsrc:010055f8 6c                               0x6c 'l'
                           .rsrc:010055f9 00                               0x00 
                           .rsrc:010055fa 46                               0x46 'F'
                           .rsrc:010055fb 00                               0x00 
                           .rsrc:010055fc 69                               0x69 'i'
                           .rsrc:010055fd 00                               0x00 
                           .rsrc:010055fe 6c                               0x6c 'l'
                           .rsrc:010055ff 00                               0x00 
                           .rsrc:01005600 65                               0x65 'e'
                           .rsrc:01005601 00                               0x00 
                           .rsrc:01005602 6e                               0x6e 'n'
                           .rsrc:01005603 00                               0x00 
                           .rsrc:01005604 61                               0x61 'a'
                           .rsrc:01005605 00                               0x00 
                           .rsrc:01005606 6d                               0x6d 'm'
                           .rsrc:01005607 00                               0x00 
                           .rsrc:01005608 65                               0x65 'e'
                           .rsrc:01005609 00                               0x00 
                           .rsrc:0100560a 00                               0x00 
                           .rsrc:0100560b 00                               0x00 
                           .rsrc:0100560c 4c                               0x4c 'L'
                           .rsrc:0100560d 00                               0x00 
                           .rsrc:0100560e 61                               0x61 'a'
                           .rsrc:0100560f 00                               0x00 
                           .rsrc:01005610 62                               0x62 'b'
                           .rsrc:01005611 00                               0x00 
                           .rsrc:01005612 65                               0x65 'e'
                           .rsrc:01005613 00                               0x00 
                           .rsrc:01005614 6c                               0x6c 'l'
                           .rsrc:01005615 00                               0x00 
                           .rsrc:01005616 2e                               0x2e '.'
                           .rsrc:01005617 00                               0x00 
                           .rsrc:01005618 45                               0x45 'E'
                           .rsrc:01005619 00                               0x00 
                           .rsrc:0100561a 78                               0x78 'x'
                           .rsrc:0100561b 00                               0x00 
                           .rsrc:0100561c 65                               0x65 'e'
                           .rsrc:0100561d 00                               0x00 
                           .rsrc:0100561e 00                               0x00 
                           .rsrc:0100561f 00                               0x00 
                           .rsrc:01005620 6a                               0x6a 'j'
                           .rsrc:01005621 00                               0x00 
                           .rsrc:01005622 25                               0x25 '%'
                           .rsrc:01005623 00                               0x00 
                           .rsrc:01005624 01                               0x01 
                           .rsrc:01005625 00                               0x00 
                           .rsrc:01005626 50                               0x50 'P'
                           .rsrc:01005627 00                               0x00 
                           .rsrc:01005628 72                               0x72 'r'
                           .rsrc:01005629 00                               0x00 
                           .rsrc:0100562a 6f                               0x6f 'o'
                           .rsrc:0100562b 00                               0x00 
                           .rsrc:0100562c 64                               0x64 'd'
                           .rsrc:0100562d 00                               0x00 
                           .rsrc:0100562e 75                               0x75 'u'
                           .rsrc:0100562f 00                               0x00 
                           .rsrc:01005630 63                               0x63 'c'
                           .rsrc:01005631 00                               0x00 
                           .rsrc:01005632 74                               0x74 't'
                           .rsrc:01005633 00                               0x00 
                           .rsrc:01005634 4e                               0x4e 'N'
                           .rsrc:01005635 00                               0x00 
                           .rsrc:01005636 61                               0x61 'a'
                           .rsrc:01005637 00                               0x00 
                           .rsrc:01005638 6d                               0x6d 'm'
                           .rsrc:01005639 00                               0x00 
                           .rsrc:0100563a 65                               0x65 'e'
                           .rsrc:0100563b 00                               0x00 
                           .rsrc:0100563c 00                               0x00 
                           .rsrc:0100563d 00                               0x00 
                           .rsrc:0100563e 00                               0x00 
                           .rsrc:0100563f 00                               0x00 
                           .rsrc:01005640 4d                               0x4d 'M'
                           .rsrc:01005641 00                               0x00 
                           .rsrc:01005642 69                               0x69 'i'
                           .rsrc:01005643 00                               0x00 
                           .rsrc:01005644 63                               0x63 'c'
                           .rsrc:01005645 00                               0x00 
                           .rsrc:01005646 72                               0x72 'r'
                           .rsrc:01005647 00                               0x00 
                           .rsrc:01005648 6f                               0x6f 'o'
                           .rsrc:01005649 00                               0x00 
                           .rsrc:0100564a 73                               0x73 's'
                           .rsrc:0100564b 00                               0x00 
                           .rsrc:0100564c 6f                               0x6f 'o'
                           .rsrc:0100564d 00                               0x00 
                           .rsrc:0100564e 66                               0x66 'f'
                           .rsrc:0100564f 00                               0x00 
                           .rsrc:01005650 74                               0x74 't'
                           .rsrc:01005651 00                               0x00 
                           .rsrc:01005652 ae                               0xae 
                           .rsrc:01005653 00                               0x00 
                           .rsrc:01005654 20                               0x20 ' '
                           .rsrc:01005655 00                               0x00 
                           .rsrc:01005656 57                               0x57 'W'
                           .rsrc:01005657 00                               0x00 
                           .rsrc:01005658 69                               0x69 'i'
                           .rsrc:01005659 00                               0x00 
                           .rsrc:0100565a 6e                               0x6e 'n'
                           .rsrc:0100565b 00                               0x00 
                           .rsrc:0100565c 64                               0x64 'd'
                           .rsrc:0100565d 00                               0x00 
                           .rsrc:0100565e 6f                               0x6f 'o'
                           .rsrc:0100565f 00                               0x00 
                           .rsrc:01005660 77                               0x77 'w'
                           .rsrc:01005661 00                               0x00 
                           .rsrc:01005662 73                               0x73 's'
                           .rsrc:01005663 00                               0x00 
                           .rsrc:01005664 ae                               0xae 
                           .rsrc:01005665 00                               0x00 
                           .rsrc:01005666 20                               0x20 ' '
                           .rsrc:01005667 00                               0x00 
                           .rsrc:01005668 4f                               0x4f 'O'
                           .rsrc:01005669 00                               0x00 
                           .rsrc:0100566a 70                               0x70 'p'
                           .rsrc:0100566b 00                               0x00 
                           .rsrc:0100566c 65                               0x65 'e'
                           .rsrc:0100566d 00                               0x00 
                           .rsrc:0100566e 72                               0x72 'r'
                           .rsrc:0100566f 00                               0x00 
                           .rsrc:01005670 61                               0x61 'a'
                           .rsrc:01005671 00                               0x00 
                           .rsrc:01005672 74                               0x74 't'
                           .rsrc:01005673 00                               0x00 
                           .rsrc:01005674 69                               0x69 'i'
                           .rsrc:01005675 00                               0x00 
                           .rsrc:01005676 6e                               0x6e 'n'
                           .rsrc:01005677 00                               0x00 
                           .rsrc:01005678 67                               0x67 'g'
                           .rsrc:01005679 00                               0x00 
                           .rsrc:0100567a 20                               0x20 ' '
                           .rsrc:0100567b 00                               0x00 
                           .rsrc:0100567c 53                               0x53 'S'
                           .rsrc:0100567d 00                               0x00 
                           .rsrc:0100567e 79                               0x79 'y'
                           .rsrc:0100567f 00                               0x00 
                           .rsrc:01005680 73                               0x73 's'
                           .rsrc:01005681 00                               0x00 
                           .rsrc:01005682 74                               0x74 't'
                           .rsrc:01005683 00                               0x00 
                           .rsrc:01005684 65                               0x65 'e'
                           .rsrc:01005685 00                               0x00 
                           .rsrc:01005686 6d                               0x6d 'm'
                           .rsrc:01005687 00                               0x00 
                           .rsrc:01005688 00                               0x00 
                           .rsrc:01005689 00                               0x00 
                           .rsrc:0100568a 00                               0x00 
                           .rsrc:0100568b 00                               0x00 
                           .rsrc:0100568c 42                               0x42 'B'
                           .rsrc:0100568d 00                               0x00 
                           .rsrc:0100568e 0f                               0x0f 
                           .rsrc:0100568f 00                               0x00 
                           .rsrc:01005690 01                               0x01 
                           .rsrc:01005691 00                               0x00 
                           .rsrc:01005692 50                               0x50 'P'
                           .rsrc:01005693 00                               0x00 
                           .rsrc:01005694 72                               0x72 'r'
                           .rsrc:01005695 00                               0x00 
                           .rsrc:01005696 6f                               0x6f 'o'
                           .rsrc:01005697 00                               0x00 
                           .rsrc:01005698 64                               0x64 'd'
                           .rsrc:01005699 00                               0x00 
                           .rsrc:0100569a 75                               0x75 'u'
                           .rsrc:0100569b 00                               0x00 
                           .rsrc:0100569c 63                               0x63 'c'
                           .rsrc:0100569d 00                               0x00 
                           .rsrc:0100569e 74                               0x74 't'
                           .rsrc:0100569f 00                               0x00 
                           .rsrc:010056a0 56                               0x56 'V'
                           .rsrc:010056a1 00                               0x00 
                           .rsrc:010056a2 65                               0x65 'e'
                           .rsrc:010056a3 00                               0x00 
                           .rsrc:010056a4 72                               0x72 'r'
                           .rsrc:010056a5 00                               0x00 
                           .rsrc:010056a6 73                               0x73 's'
                           .rsrc:010056a7 00                               0x00 
                           .rsrc:010056a8 69                               0x69 'i'
                           .rsrc:010056a9 00                               0x00 
                           .rsrc:010056aa 6f                               0x6f 'o'
                           .rsrc:010056ab 00                               0x00 
                           .rsrc:010056ac 6e                               0x6e 'n'
                           .rsrc:010056ad 00                               0x00 
                           .rsrc:010056ae 00                               0x00 
                           .rsrc:010056af 00                               0x00 
                           .rsrc:010056b0 36                               0x36 '6'
                           .rsrc:010056b1 00                               0x00 
                           .rsrc:010056b2 2e                               0x2e '.'
                           .rsrc:010056b3 00                               0x00 
                           .rsrc:010056b4 31                               0x31 '1'
                           .rsrc:010056b5 00                               0x00 
                           .rsrc:010056b6 2e                               0x2e '.'
                           .rsrc:010056b7 00                               0x00 
                           .rsrc:010056b8 37                               0x37 '7'
                           .rsrc:010056b9 00                               0x00 
                           .rsrc:010056ba 36                               0x36 '6'
                           .rsrc:010056bb 00                               0x00 
                           .rsrc:010056bc 30                               0x30 '0'
                           .rsrc:010056bd 00                               0x00 
                           .rsrc:010056be 30                               0x30 '0'
                           .rsrc:010056bf 00                               0x00 
                           .rsrc:010056c0 2e                               0x2e '.'
                           .rsrc:010056c1 00                               0x00 
                           .rsrc:010056c2 31                               0x31 '1'
                           .rsrc:010056c3 00                               0x00 
                           .rsrc:010056c4 36                               0x36 '6'
                           .rsrc:010056c5 00                               0x00 
                           .rsrc:010056c6 33                               0x33 '3'
                           .rsrc:010056c7 00                               0x00 
                           .rsrc:010056c8 38                               0x38 '8'
                           .rsrc:010056c9 00                               0x00 
                           .rsrc:010056ca 35                               0x35 '5'
                           .rsrc:010056cb 00                               0x00 
                           .rsrc:010056cc 00                               0x00 
                           .rsrc:010056cd 00                               0x00 
                           .rsrc:010056ce 00                               0x00 
                           .rsrc:010056cf 00                               0x00 
                           .rsrc:010056d0 44                               0x44 'D'
                           .rsrc:010056d1 00                               0x00 
                           .rsrc:010056d2 00                               0x00 
                           .rsrc:010056d3 00                               0x00 
                           .rsrc:010056d4 01                               0x01 
                           .rsrc:010056d5 00                               0x00 
                           .rsrc:010056d6 56                               0x56 'V'
                           .rsrc:010056d7 00                               0x00 
                           .rsrc:010056d8 61                               0x61 'a'
                           .rsrc:010056d9 00                               0x00 
                           .rsrc:010056da 72                               0x72 'r'
                           .rsrc:010056db 00                               0x00 
                           .rsrc:010056dc 46                               0x46 'F'
                           .rsrc:010056dd 00                               0x00 
                           .rsrc:010056de 69                               0x69 'i'
                           .rsrc:010056df 00                               0x00 
                           .rsrc:010056e0 6c                               0x6c 'l'
                           .rsrc:010056e1 00                               0x00 
                           .rsrc:010056e2 65                               0x65 'e'
                           .rsrc:010056e3 00                               0x00 
                           .rsrc:010056e4 49                               0x49 'I'
                           .rsrc:010056e5 00                               0x00 
                           .rsrc:010056e6 6e                               0x6e 'n'
                           .rsrc:010056e7 00                               0x00 
                           .rsrc:010056e8 66                               0x66 'f'
                           .rsrc:010056e9 00                               0x00 
                           .rsrc:010056ea 6f                               0x6f 'o'
                           .rsrc:010056eb 00                               0x00 
                           .rsrc:010056ec 00                               0x00 
                           .rsrc:010056ed 00                               0x00 
                           .rsrc:010056ee 00                               0x00 
                           .rsrc:010056ef 00                               0x00 
                           .rsrc:010056f0 24                               0x24 '$'
                           .rsrc:010056f1 00                               0x00 
                           .rsrc:010056f2 04                               0x04 
                           .rsrc:010056f3 00                               0x00 
                           .rsrc:010056f4 00                               0x00 
                           .rsrc:010056f5 00                               0x00 
                           .rsrc:010056f6 54                               0x54 'T'
                           .rsrc:010056f7 00                               0x00 
                           .rsrc:010056f8 72                               0x72 'r'
                           .rsrc:010056f9 00                               0x00 
                           .rsrc:010056fa 61                               0x61 'a'
                           .rsrc:010056fb 00                               0x00 
                           .rsrc:010056fc 6e                               0x6e 'n'
                           .rsrc:010056fd 00                               0x00 
                           .rsrc:010056fe 73                               0x73 's'
                           .rsrc:010056ff 00                               0x00 
                           .rsrc:01005700 6c                               0x6c 'l'
                           .rsrc:01005701 00                               0x00 
                           .rsrc:01005702 61                               0x61 'a'
                           .rsrc:01005703 00                               0x00 
                           .rsrc:01005704 74                               0x74 't'
                           .rsrc:01005705 00                               0x00 
                           .rsrc:01005706 69                               0x69 'i'
                           .rsrc:01005707 00                               0x00 
                           .rsrc:01005708 6f                               0x6f 'o'
                           .rsrc:01005709 00                               0x00 
                           .rsrc:0100570a 6e                               0x6e 'n'
                           .rsrc:0100570b 00                               0x00 
                           .rsrc:0100570c 00                               0x00 
                           .rsrc:0100570d 00                               0x00 
                           .rsrc:0100570e 00                               0x00 
                           .rsrc:0100570f 00                               0x00 
                           .rsrc:01005710 09                               0x09 '	'
                           .rsrc:01005711 04                               0x04 
                           .rsrc:01005712 b0                               0xb0 
                           .rsrc:01005713 04                               0x04 
                           .rsrc:01005714 00                               0x00 
                           .rsrc:01005715 00                               0x00 
                           .rsrc:01005716 00                               0x00 
                           .rsrc:01005717 00                               0x00 
                           .rsrc:01005718 cd                               0xcd 
                           .rsrc:01005719 fe                               0xfe 
                           .rsrc:0100571a cd                               0xcd 
                           .rsrc:0100571b fe                               0xfe 
                           .rsrc:0100571c c8                               0xc8 
                           .rsrc:0100571d 00                               0x00 
                           .rsrc:0100571e 00                               0x00 
                           .rsrc:0100571f 00                               0x00 
                           .rsrc:01005720 00                               0x00 
                           .rsrc:01005721 00                               0x00 
                           .rsrc:01005722 01                               0x01 
                           .rsrc:01005723 00                               0x00 
                           .rsrc:01005724 00                               0x00 
                           .rsrc:01005725 00                               0x00 
                           .rsrc:01005726 00                               0x00 
                           .rsrc:01005727 00                               0x00 
                           .rsrc:01005728 11                               0x11 
                           .rsrc:01005729 00                               0x00 
                           .rsrc:0100572a 00                               0x00 
                           .rsrc:0100572b 00                               0x00 
                           .rsrc:0100572c 00                               0x00 
                           .rsrc:0100572d 00                               0x00 
                           .rsrc:0100572e 00                               0x00 
                           .rsrc:0100572f 00                               0x00 
                           .rsrc:01005730 02                               0x02 
                           .rsrc:01005731 00                               0x00 
                           .rsrc:01005732 00                               0x00 
                           .rsrc:01005733 00                               0x00 
                           .rsrc:01005734 f2                               0xf2 
                           .rsrc:01005735 02                               0x02 
                           .rsrc:01005736 90                               0x90 
                           .rsrc:01005737 ac                               0xac 
                           .rsrc:01005738 60                               0x60 '`'
                           .rsrc:01005739 e4                               0xe4 
                           .rsrc:0100573a d3                               0xd3 
                           .rsrc:0100573b aa                               0xaa 
                           .rsrc:0100573c 58                               0x58 'X'
                           .rsrc:0100573d eb                               0xeb 
                           .rsrc:0100573e b1                               0xb1 
                           .rsrc:0100573f f3                               0xf3 
                           .rsrc:01005740 66                               0x66 'f'
                           .rsrc:01005741 89                               0x89 
                           .rsrc:01005742 2e                               0x2e '.'
                           .rsrc:01005743 76                               0x76 'v'
                           .rsrc:01005744 0b                               0x0b ''
                           .rsrc:01005745 67                               0x67 'g'
                           .rsrc:01005746 44                               0x44 'D'
                           .rsrc:01005747 f0                               0xf0 
                           .rsrc:01005748 ad                               0xad 
                           .rsrc:01005749 76                               0x76 'v'
                           .rsrc:0100574a aa                               0xaa 
                           .rsrc:0100574b ac                               0xac 
                           .rsrc:0100574c f6                               0xf6 
                           .rsrc:0100574d 0e                               0x0e 
                           .rsrc:0100574e 22                               0x22 '"'
                           .rsrc:0100574f d7                               0xd7 
                           .rsrc:01005750 f9                               0xf9 
                           .rsrc:01005751 df                               0xdf 
                           .rsrc:01005752 29                               0x29 ')'
                           .rsrc:01005753 6b                               0x6b 'k'
                           .rsrc:01005754 00                               0x00 
                           .rsrc:01005755 00                               0x00 
                           .rsrc:01005756 00                               0x00 
                           .rsrc:01005757 00                               0x00 
                           .rsrc:01005758 00                               0x00 
                           .rsrc:01005759 00                               0x00 
                           .rsrc:0100575a 00                               0x00 
                           .rsrc:0100575b 00                               0x00 
                           .rsrc:0100575c 00                               0x00 
                           .rsrc:0100575d 00                               0x00 
                           .rsrc:0100575e 00                               0x00 
                           .rsrc:0100575f 00                               0x00 
                           .rsrc:01005760 00                               0x00 
                           .rsrc:01005761 00                               0x00 
                           .rsrc:01005762 00                               0x00 
                           .rsrc:01005763 00                               0x00 
                           .rsrc:01005764 00                               0x00 
                           .rsrc:01005765 00                               0x00 
                           .rsrc:01005766 00                               0x00 
                           .rsrc:01005767 00                               0x00 
                           .rsrc:01005768 00                               0x00 
                           .rsrc:01005769 00                               0x00 
                           .rsrc:0100576a 00                               0x00 
                           .rsrc:0100576b 00                               0x00 
                           .rsrc:0100576c 88                               0x88 
                           .rsrc:0100576d 00                               0x00 
                           .rsrc:0100576e 00                               0x00 
                           .rsrc:0100576f 00                               0x00 
                           .rsrc:01005770 0e                               0x0e 
                           .rsrc:01005771 00                               0x00 
                           .rsrc:01005772 00                               0x00 
                           .rsrc:01005773 00                               0x00 
                           .rsrc:01005774 98                               0x98 
                           .rsrc:01005775 00                               0x00 
                           .rsrc:01005776 00                               0x00 
                           .rsrc:01005777 00                               0x00 
                           .rsrc:01005778 08                               0x08 
                           .rsrc:01005779 00                               0x00 
                           .rsrc:0100577a 00                               0x00 
                           .rsrc:0100577b 00                               0x00 
                           .rsrc:0100577c a0                               0xa0 
                           .rsrc:0100577d 00                               0x00 
                           .rsrc:0100577e 00                               0x00 
                           .rsrc:0100577f 00                               0x00 
                           .rsrc:01005780 0e                               0x0e 
                           .rsrc:01005781 00                               0x00 
                           .rsrc:01005782 00                               0x00 
                           .rsrc:01005783 00                               0x00 
                           .rsrc:01005784 b0                               0xb0 
                           .rsrc:01005785 00                               0x00 
                           .rsrc:01005786 00                               0x00 
                           .rsrc:01005787 00                               0x00 
                           .rsrc:01005788 04                               0x04 
                           .rsrc:01005789 00                               0x00 
                           .rsrc:0100578a 00                               0x00 
                           .rsrc:0100578b 00                               0x00 
                           .rsrc:0100578c 00                               0x00 
                           .rsrc:0100578d 00                               0x00 
                           .rsrc:0100578e 00                               0x00 
                           .rsrc:0100578f 00                               0x00 
                           .rsrc:01005790 00                               0x00 
                           .rsrc:01005791 00                               0x00 
                           .rsrc:01005792 00                               0x00 
                           .rsrc:01005793 00                               0x00 
                           .rsrc:01005794 b8                               0xb8 
                           .rsrc:01005795 00                               0x00 
                           .rsrc:01005796 00                               0x00 
                           .rsrc:01005797 00                               0x00 
                           .rsrc:01005798 0c                               0x0c ''
                           .rsrc:01005799 00                               0x00 
                           .rsrc:0100579a 00                               0x00 
                           .rsrc:0100579b 00                               0x00 
                           .rsrc:0100579c 00                               0x00 
                           .rsrc:0100579d 00                               0x00 
                           .rsrc:0100579e 00                               0x00 
                           .rsrc:0100579f 00                               0x00 
                           .rsrc:010057a0 4d                               0x4d 'M'
                           .rsrc:010057a1 00                               0x00 
                           .rsrc:010057a2 55                               0x55 'U'
                           .rsrc:010057a3 00                               0x00 
                           .rsrc:010057a4 49                               0x49 'I'
                           .rsrc:010057a5 00                               0x00 
                           .rsrc:010057a6 00                               0x00 
                           .rsrc:010057a7 00                               0x00 
                           .rsrc:010057a8 00                               0x00 
                           .rsrc:010057a9 00                               0x00 
                           .rsrc:010057aa 00                               0x00 
                           .rsrc:010057ab 00                               0x00 
                           .rsrc:010057ac 00                               0x00 
                           .rsrc:010057ad 00                               0x00 
                           .rsrc:010057ae 00                               0x00 
                           .rsrc:010057af 00                               0x00 
                           .rsrc:010057b0 10                               0x10 
                           .rsrc:010057b1 00                               0x00 
                           .rsrc:010057b2 00                               0x00 
                           .rsrc:010057b3 00                               0x00 
                           .rsrc:010057b4 18                               0x18 
                           .rsrc:010057b5 00                               0x00 
                           .rsrc:010057b6 00                               0x00 
                           .rsrc:010057b7 00                               0x00 
                           .rsrc:010057b8 4d                               0x4d 'M'
                           .rsrc:010057b9 00                               0x00 
                           .rsrc:010057ba 55                               0x55 'U'
                           .rsrc:010057bb 00                               0x00 
                           .rsrc:010057bc 49                               0x49 'I'
                           .rsrc:010057bd 00                               0x00 
                           .rsrc:010057be 00                               0x00 
                           .rsrc:010057bf 00                               0x00 
                           .rsrc:010057c0 00                               0x00 
                           .rsrc:010057c1 00                               0x00 
                           .rsrc:010057c2 00                               0x00 
                           .rsrc:010057c3 00                               0x00 
                           .rsrc:010057c4 00                               0x00 
                           .rsrc:010057c5 00                               0x00 
                           .rsrc:010057c6 00                               0x00 
                           .rsrc:010057c7 00                               0x00 
                           .rsrc:010057c8 10                               0x10 
                           .rsrc:010057c9 00                               0x00 
                           .rsrc:010057ca 00                               0x00 
                           .rsrc:010057cb 00                               0x00 
                           .rsrc:010057cc 00                               0x00 
                           .rsrc:010057cd 00                               0x00 
                           .rsrc:010057ce 00                               0x00 
                           .rsrc:010057cf 00                               0x00 
                           .rsrc:010057d0 65                               0x65 'e'
                           .rsrc:010057d1 00                               0x00 
                           .rsrc:010057d2 6e                               0x6e 'n'
                           .rsrc:010057d3 00                               0x00 
                           .rsrc:010057d4 2d                               0x2d '-'
                           .rsrc:010057d5 00                               0x00 
                           .rsrc:010057d6 55                               0x55 'U'
                           .rsrc:010057d7 00                               0x00 
                           .rsrc:010057d8 53                               0x53 'S'
                           .rsrc:010057d9 00                               0x00 
                           .rsrc:010057da 00                               0x00 
                           .rsrc:010057db 00                               0x00 
                           .rsrc:010057dc 00                               0x00 
                           .rsrc:010057dd 00                               0x00 
                           .rsrc:010057de 00                               0x00 
                           .rsrc:010057df 00                               0x00 
                          .reloc:01006000 00                               0x00 
                          .reloc:01006001 10                               0x10 
                          .reloc:01006002 00                               0x00 
                          .reloc:01006003 00                               0x00 
                          .reloc:01006004 fc                               0xfc 
                          .reloc:01006005 00                               0x00 
                          .reloc:01006006 00                               0x00 
                          .reloc:01006007 00                               0x00 
                          .reloc:01006008 5c                               0x5c '\'
                          .reloc:01006009 31                               0x31 '1'
                          .reloc:0100600a 68                               0x68 'h'
                          .reloc:0100600b 31                               0x31 '1'
                          .reloc:0100600c 6c                               0x6c 'l'
                          .reloc:0100600d 31                               0x31 '1'
                          .reloc:0100600e d4                               0xd4 
                          .reloc:0100600f 31                               0x31 '1'
                          .reloc:01006010 d8                               0xd8 
                          .reloc:01006011 31                               0x31 '1'
                          .reloc:01006012 1c                               0x1c 
                          .reloc:01006013 32                               0x32 '2'
                          .reloc:01006014 20                               0x20 ' '
                          .reloc:01006015 32                               0x32 '2'
                          .reloc:01006016 83                               0x83 
                          .reloc:01006017 32                               0x32 '2'
                          .reloc:01006018 ab                               0xab 
                          .reloc:01006019 32                               0x32 '2'
                          .reloc:0100601a b0                               0xb0 
                          .reloc:0100601b 32                               0x32 '2'
                          .reloc:0100601c e9                               0xe9 
                          .reloc:0100601d 32                               0x32 '2'
                          .reloc:0100601e f6                               0xf6 
                          .reloc:0100601f 32                               0x32 '2'
                          .reloc:01006020 0c                               0x0c ''
                          .reloc:01006021 33                               0x33 '3'
                          .reloc:01006022 22                               0x22 '"'
                          .reloc:01006023 33                               0x33 '3'
                          .reloc:01006024 3b                               0x3b ';'
                          .reloc:01006025 33                               0x33 '3'
                          .reloc:01006026 84                               0x84 
                          .reloc:01006027 33                               0x33 '3'
                          .reloc:01006028 a4                               0xa4 
                          .reloc:01006029 33                               0x33 '3'
                          .reloc:0100602a bb                               0xbb 
                          .reloc:0100602b 33                               0x33 '3'
                          .reloc:0100602c ca                               0xca 
                          .reloc:0100602d 33                               0x33 '3'
                          .reloc:0100602e d3                               0xd3 
                          .reloc:0100602f 33                               0x33 '3'
                          .reloc:01006030 e8                               0xe8 
                          .reloc:01006031 33                               0x33 '3'
                          .reloc:01006032 fe                               0xfe 
                          .reloc:01006033 33                               0x33 '3'
                          .reloc:01006034 4a                               0x4a 'J'
                          .reloc:01006035 34                               0x34 '4'
                          .reloc:01006036 50                               0x50 'P'
                          .reloc:01006037 34                               0x34 '4'
                          .reloc:01006038 6a                               0x6a 'j'
                          .reloc:01006039 34                               0x34 '4'
                          .reloc:0100603a 90                               0x90 
                          .reloc:0100603b 34                               0x34 '4'
                          .reloc:0100603c b3                               0xb3 
                          .reloc:0100603d 34                               0x34 '4'
                          .reloc:0100603e 00                               0x00 
                          .reloc:0100603f 35                               0x35 '5'
                          .reloc:01006040 07                               0x07 
                          .reloc:01006041 35                               0x35 '5'
                          .reloc:01006042 0f                               0x0f 
                          .reloc:01006043 35                               0x35 '5'
                          .reloc:01006044 65                               0x65 'e'
                          .reloc:01006045 35                               0x35 '5'
                          .reloc:01006046 72                               0x72 'r'
                          .reloc:01006047 35                               0x35 '5'
                          .reloc:01006048 7a                               0x7a 'z'
                          .reloc:01006049 35                               0x35 '5'
                          .reloc:0100604a a1                               0xa1 
                          .reloc:0100604b 35                               0x35 '5'
                          .reloc:0100604c ad                               0xad 
                          .reloc:0100604d 35                               0x35 '5'
                          .reloc:0100604e f8                               0xf8 
                          .reloc:0100604f 35                               0x35 '5'
                          .reloc:01006050 07                               0x07 
                          .reloc:01006051 36                               0x36 '6'
                          .reloc:01006052 23                               0x23 '#'
                          .reloc:01006053 36                               0x36 '6'
                          .reloc:01006054 28                               0x28 '('
                          .reloc:01006055 36                               0x36 '6'
                          .reloc:01006056 69                               0x69 'i'
                          .reloc:01006057 36                               0x36 '6'
                          .reloc:01006058 76                               0x76 'v'
                          .reloc:01006059 36                               0x36 '6'
                          .reloc:0100605a 89                               0x89 
                          .reloc:0100605b 36                               0x36 '6'
                          .reloc:0100605c a0                               0xa0 
                          .reloc:0100605d 36                               0x36 '6'
                          .reloc:0100605e b8                               0xb8 
                          .reloc:0100605f 36                               0x36 '6'
                          .reloc:01006060 c7                               0xc7 
                          .reloc:01006061 36                               0x36 '6'
                          .reloc:01006062 d3                               0xd3 
                          .reloc:01006063 36                               0x36 '6'
                          .reloc:01006064 e7                               0xe7 
                          .reloc:01006065 36                               0x36 '6'
                          .reloc:01006066 00                               0x00 
                          .reloc:01006067 37                               0x37 '7'
                          .reloc:01006068 16                               0x16 
                          .reloc:01006069 37                               0x37 '7'
                          .reloc:0100606a 2c                               0x2c ','
                          .reloc:0100606b 37                               0x37 '7'
                          .reloc:0100606c 55                               0x55 'U'
                          .reloc:0100606d 37                               0x37 '7'
                          .reloc:0100606e 80                               0x80 
                          .reloc:0100606f 37                               0x37 '7'
                          .reloc:01006070 9d                               0x9d 
                          .reloc:01006071 37                               0x37 '7'
                          .reloc:01006072 dd                               0xdd 
                          .reloc:01006073 37                               0x37 '7'
                          .reloc:01006074 e4                               0xe4 
                          .reloc:01006075 37                               0x37 '7'
                          .reloc:01006076 f2                               0xf2 
                          .reloc:01006077 37                               0x37 '7'
                          .reloc:01006078 17                               0x17 
                          .reloc:01006079 38                               0x38 '8'
                          .reloc:0100607a 38                               0x38 '8'
                          .reloc:0100607b 38                               0x38 '8'
                          .reloc:0100607c 74                               0x74 't'
                          .reloc:0100607d 38                               0x38 '8'
                          .reloc:0100607e 12                               0x12 
                          .reloc:0100607f 39                               0x39 '9'
                          .reloc:01006080 19                               0x19 
                          .reloc:01006081 39                               0x39 '9'
                          .reloc:01006082 27                               0x27 '''
                          .reloc:01006083 39                               0x39 '9'
                          .reloc:01006084 45                               0x45 'E'
                          .reloc:01006085 39                               0x39 '9'
                          .reloc:01006086 4e                               0x4e 'N'
                          .reloc:01006087 39                               0x39 '9'
                          .reloc:01006088 61                               0x61 'a'
                          .reloc:01006089 39                               0x39 '9'
                          .reloc:0100608a 7e                               0x7e '~'
                          .reloc:0100608b 39                               0x39 '9'
                          .reloc:0100608c 92                               0x92 
                          .reloc:0100608d 39                               0x39 '9'
                          .reloc:0100608e 9e                               0x9e 
                          .reloc:0100608f 39                               0x39 '9'
                          .reloc:01006090 a4                               0xa4 
                          .reloc:01006091 39                               0x39 '9'
                          .reloc:01006092 c0                               0xc0 
                          .reloc:01006093 39                               0x39 '9'
                          .reloc:01006094 cc                               0xcc 
                          .reloc:01006095 39                               0x39 '9'
                          .reloc:01006096 d2                               0xd2 
                          .reloc:01006097 39                               0x39 '9'
                          .reloc:01006098 e8                               0xe8 
                          .reloc:01006099 39                               0x39 '9'
                          .reloc:0100609a fe                               0xfe 
                          .reloc:0100609b 39                               0x39 '9'
                          .reloc:0100609c 2b                               0x2b '+'
                          .reloc:0100609d 3a                               0x3a ':'
                          .reloc:0100609e 31                               0x31 '1'
                          .reloc:0100609f 3a                               0x3a ':'
                          .reloc:010060a0 38                               0x38 '8'
                          .reloc:010060a1 3a                               0x3a ':'
                          .reloc:010060a2 3f                               0x3f '?'
                          .reloc:010060a3 3a                               0x3a ':'
                          .reloc:010060a4 4c                               0x4c 'L'
                          .reloc:010060a5 3a                               0x3a ':'
                          .reloc:010060a6 5a                               0x5a 'Z'
                          .reloc:010060a7 3a                               0x3a ':'
                          .reloc:010060a8 95                               0x95 
                          .reloc:010060a9 3a                               0x3a ':'
                          .reloc:010060aa aa                               0xaa 
                          .reloc:010060ab 3a                               0x3a ':'
                          .reloc:010060ac b7                               0xb7 
                          .reloc:010060ad 3a                               0x3a ':'
                          .reloc:010060ae c4                               0xc4 
                          .reloc:010060af 3a                               0x3a ':'
                          .reloc:010060b0 d0                               0xd0 
                          .reloc:010060b1 3a                               0x3a ':'
                          .reloc:010060b2 de                               0xde 
                          .reloc:010060b3 3a                               0x3a ':'
                          .reloc:010060b4 e3                               0xe3 
                          .reloc:010060b5 3a                               0x3a ':'
                          .reloc:010060b6 f8                               0xf8 
                          .reloc:010060b7 3a                               0x3a ':'
                          .reloc:010060b8 14                               0x14 
                          .reloc:010060b9 3b                               0x3b ';'
                          .reloc:010060ba 22                               0x22 '"'
                          .reloc:010060bb 3b                               0x3b ';'
                          .reloc:010060bc 91                               0x91 
                          .reloc:010060bd 3b                               0x3b ';'
                          .reloc:010060be ad                               0xad 
                          .reloc:010060bf 3b                               0x3b ';'
                          .reloc:010060c0 b9                               0xb9 
                          .reloc:010060c1 3b                               0x3b ';'
                          .reloc:010060c2 c5                               0xc5 
                          .reloc:010060c3 3b                               0x3b ';'
                          .reloc:010060c4 cc                               0xcc 
                          .reloc:010060c5 3b                               0x3b ';'
                          .reloc:010060c6 d8                               0xd8 
                          .reloc:010060c7 3b                               0x3b ';'
                          .reloc:010060c8 ee                               0xee 
                          .reloc:010060c9 3b                               0x3b ';'
                          .reloc:010060ca 3b                               0x3b ';'
                          .reloc:010060cb 3c                               0x3c '<'
                          .reloc:010060cc 41                               0x41 'A'
                          .reloc:010060cd 3c                               0x3c '<'
                          .reloc:010060ce 5d                               0x5d ']'
                          .reloc:010060cf 3c                               0x3c '<'
                          .reloc:010060d0 69                               0x69 'i'
                          .reloc:010060d1 3c                               0x3c '<'
                          .reloc:010060d2 97                               0x97 
                          .reloc:010060d3 3c                               0x3c '<'
                          .reloc:010060d4 a5                               0xa5 
                          .reloc:010060d5 3c                               0x3c '<'
                          .reloc:010060d6 b3                               0xb3 
                          .reloc:010060d7 3c                               0x3c '<'
                          .reloc:010060d8 ed                               0xed 
                          .reloc:010060d9 3c                               0x3c '<'
                          .reloc:010060da 35                               0x35 '5'
                          .reloc:010060db 3d                               0x3d '='
                          .reloc:010060dc 5d                               0x5d ']'
                          .reloc:010060dd 3d                               0x3d '='
                          .reloc:010060de 69                               0x69 'i'
                          .reloc:010060df 3d                               0x3d '='
                          .reloc:010060e0 87                               0x87 
                          .reloc:010060e1 3d                               0x3d '='
                          .reloc:010060e2 b0                               0xb0 
                          .reloc:010060e3 3d                               0x3d '='
                          .reloc:010060e4 ee                               0xee 
                          .reloc:010060e5 3d                               0x3d '='
                          .reloc:010060e6 2b                               0x2b '+'
                          .reloc:010060e7 3e                               0x3e '>'
                          .reloc:010060e8 a2                               0xa2 
                          .reloc:010060e9 3e                               0x3e '>'
                          .reloc:010060ea e8                               0xe8 
                          .reloc:010060eb 3e                               0x3e '>'
                          .reloc:010060ec fe                               0xfe 
                          .reloc:010060ed 3e                               0x3e '>'
                          .reloc:010060ee 3b                               0x3b ';'
                          .reloc:010060ef 3f                               0x3f '?'
                          .reloc:010060f0 99                               0x99 
                          .reloc:010060f1 3f                               0x3f '?'
                          .reloc:010060f2 cb                               0xcb 
                          .reloc:010060f3 3f                               0x3f '?'
                          .reloc:010060f4 d6                               0xd6 
                          .reloc:010060f5 3f                               0x3f '?'
                          .reloc:010060f6 dd                               0xdd 
                          .reloc:010060f7 3f                               0x3f '?'
                          .reloc:010060f8 f0                               0xf0 
                          .reloc:010060f9 3f                               0x3f '?'
                          .reloc:010060fa 00                               0x00 
                          .reloc:010060fb 00                               0x00 
                          .reloc:010060fc 00                               0x00 
                          .reloc:010060fd 20                               0x20 ' '
                          .reloc:010060fe 00                               0x00 
                          .reloc:010060ff 00                               0x00 
                          .reloc:01006100 0c                               0x0c ''
                          .reloc:01006101 01                               0x01 
                          .reloc:01006102 00                               0x00 
                          .reloc:01006103 00                               0x00 
                          .reloc:01006104 a5                               0xa5 
                          .reloc:01006105 30                               0x30 '0'
                          .reloc:01006106 b0                               0xb0 
                          .reloc:01006107 30                               0x30 '0'
                          .reloc:01006108 b7                               0xb7 
                          .reloc:01006109 30                               0x30 '0'
                          .reloc:0100610a c6                               0xc6 
                          .reloc:0100610b 30                               0x30 '0'
                          .reloc:0100610c ee                               0xee 
                          .reloc:0100610d 30                               0x30 '0'
                          .reloc:0100610e 0b                               0x0b ''
                          .reloc:0100610f 31                               0x31 '1'
                          .reloc:01006110 58                               0x58 'X'
                          .reloc:01006111 31                               0x31 '1'
                          .reloc:01006112 5e                               0x5e '^'
                          .reloc:01006113 31                               0x31 '1'
                          .reloc:01006114 7a                               0x7a 'z'
                          .reloc:01006115 31                               0x31 '1'
                          .reloc:01006116 86                               0x86 
                          .reloc:01006117 31                               0x31 '1'
                          .reloc:01006118 ab                               0xab 
                          .reloc:01006119 31                               0x31 '1'
                          .reloc:0100611a c1                               0xc1 
                          .reloc:0100611b 31                               0x31 '1'
                          .reloc:0100611c 0e                               0x0e 
                          .reloc:0100611d 32                               0x32 '2'
                          .reloc:0100611e 14                               0x14 
                          .reloc:0100611f 32                               0x32 '2'
                          .reloc:01006120 30                               0x30 '0'
                          .reloc:01006121 32                               0x32 '2'
                          .reloc:01006122 3c                               0x3c '<'
                          .reloc:01006123 32                               0x32 '2'
                          .reloc:01006124 81                               0x81 
                          .reloc:01006125 32                               0x32 '2'
                          .reloc:01006126 86                               0x86 
                          .reloc:01006127 32                               0x32 '2'
                          .reloc:01006128 8c                               0x8c 
                          .reloc:01006129 32                               0x32 '2'
                          .reloc:0100612a 91                               0x91 
                          .reloc:0100612b 32                               0x32 '2'
                          .reloc:0100612c 96                               0x96 
                          .reloc:0100612d 32                               0x32 '2'
                          .reloc:0100612e 9b                               0x9b 
                          .reloc:0100612f 32                               0x32 '2'
                          .reloc:01006130 a0                               0xa0 
                          .reloc:01006131 32                               0x32 '2'
                          .reloc:01006132 a6                               0xa6 
                          .reloc:01006133 32                               0x32 '2'
                          .reloc:01006134 ae                               0xae 
                          .reloc:01006135 32                               0x32 '2'
                          .reloc:01006136 bb                               0xbb 
                          .reloc:01006137 32                               0x32 '2'
                          .reloc:01006138 d6                               0xd6 
                          .reloc:01006139 32                               0x32 '2'
                          .reloc:0100613a df                               0xdf 
                          .reloc:0100613b 32                               0x32 '2'
                          .reloc:0100613c fa                               0xfa 
                          .reloc:0100613d 32                               0x32 '2'
                          .reloc:0100613e 04                               0x04 
                          .reloc:0100613f 33                               0x33 '3'
                          .reloc:01006140 17                               0x17 
                          .reloc:01006141 33                               0x33 '3'
                          .reloc:01006142 21                               0x21 '!'
                          .reloc:01006143 33                               0x33 '3'
                          .reloc:01006144 26                               0x26 '&'
                          .reloc:01006145 33                               0x33 '3'
                          .reloc:01006146 2b                               0x2b '+'
                          .reloc:01006147 33                               0x33 '3'
                          .reloc:01006148 4d                               0x4d 'M'
                          .reloc:01006149 33                               0x33 '3'
                          .reloc:0100614a 52                               0x52 'R'
                          .reloc:0100614b 33                               0x33 '3'
                          .reloc:0100614c 5b                               0x5b '['
                          .reloc:0100614d 33                               0x33 '3'
                          .reloc:0100614e 60                               0x60 '`'
                          .reloc:0100614f 33                               0x33 '3'
                          .reloc:01006150 6d                               0x6d 'm'
                          .reloc:01006151 33                               0x33 '3'
                          .reloc:01006152 7e                               0x7e '~'
                          .reloc:01006153 33                               0x33 '3'
                          .reloc:01006154 84                               0x84 
                          .reloc:01006155 33                               0x33 '3'
                          .reloc:01006156 8b                               0x8b 
                          .reloc:01006157 33                               0x33 '3'
                          .reloc:01006158 9f                               0x9f 
                          .reloc:01006159 33                               0x33 '3'
                          .reloc:0100615a a5                               0xa5 
                          .reloc:0100615b 33                               0x33 '3'
                          .reloc:0100615c ab                               0xab 
                          .reloc:0100615d 33                               0x33 '3'
                          .reloc:0100615e b1                               0xb1 
                          .reloc:0100615f 33                               0x33 '3'
                          .reloc:01006160 be                               0xbe 
                          .reloc:01006161 33                               0x33 '3'
                          .reloc:01006162 c4                               0xc4 
                          .reloc:01006163 33                               0x33 '3'
                          .reloc:01006164 cd                               0xcd 
                          .reloc:01006165 33                               0x33 '3'
                          .reloc:01006166 ec                               0xec 
                          .reloc:01006167 33                               0x33 '3'
                          .reloc:01006168 f4                               0xf4 
                          .reloc:01006169 33                               0x33 '3'
                          .reloc:0100616a fd                               0xfd 
                          .reloc:0100616b 33                               0x33 '3'
                          .reloc:0100616c 03                               0x03 
                          .reloc:0100616d 34                               0x34 '4'
                          .reloc:0100616e 0b                               0x0b ''
                          .reloc:0100616f 34                               0x34 '4'
                          .reloc:01006170 17                               0x17 
                          .reloc:01006171 34                               0x34 '4'
                          .reloc:01006172 2e                               0x2e '.'
                          .reloc:01006173 34                               0x34 '4'
                          .reloc:01006174 39                               0x39 '9'
                          .reloc:01006175 34                               0x34 '4'
                          .reloc:01006176 3f                               0x3f '?'
                          .reloc:01006177 34                               0x34 '4'
                          .reloc:01006178 88                               0x88 
                          .reloc:01006179 34                               0x34 '4'
                          .reloc:0100617a 94                               0x94 
                          .reloc:0100617b 34                               0x34 '4'
                          .reloc:0100617c 9a                               0x9a 
                          .reloc:0100617d 34                               0x34 '4'
                          .reloc:0100617e a1                               0xa1 
                          .reloc:0100617f 34                               0x34 '4'
                          .reloc:01006180 aa                               0xaa 
                          .reloc:01006181 34                               0x34 '4'
                          .reloc:01006182 b0                               0xb0 
                          .reloc:01006183 34                               0x34 '4'
                          .reloc:01006184 b8                               0xb8 
                          .reloc:01006185 34                               0x34 '4'
                          .reloc:01006186 be                               0xbe 
                          .reloc:01006187 34                               0x34 '4'
                          .reloc:01006188 cb                               0xcb 
                          .reloc:01006189 34                               0x34 '4'
                          .reloc:0100618a d3                               0xd3 
                          .reloc:0100618b 34                               0x34 '4'
                          .reloc:0100618c d9                               0xd9 
                          .reloc:0100618d 34                               0x34 '4'
                          .reloc:0100618e fc                               0xfc 
                          .reloc:0100618f 34                               0x34 '4'
                          .reloc:01006190 48                               0x48 'H'
                          .reloc:01006191 35                               0x35 '5'
                          .reloc:01006192 58                               0x58 'X'
                          .reloc:01006193 35                               0x35 '5'
                          .reloc:01006194 5e                               0x5e '^'
                          .reloc:01006195 35                               0x35 '5'
                          .reloc:01006196 6c                               0x6c 'l'
                          .reloc:01006197 35                               0x35 '5'
                          .reloc:01006198 0c                               0x0c ''
                          .reloc:01006199 36                               0x36 '6'
                          .reloc:0100619a 1a                               0x1a 
                          .reloc:0100619b 36                               0x36 '6'
                          .reloc:0100619c 7c                               0x7c '|'
                          .reloc:0100619d 36                               0x36 '6'
                          .reloc:0100619e 88                               0x88 
                          .reloc:0100619f 36                               0x36 '6'
                          .reloc:010061a0 95                               0x95 
                          .reloc:010061a1 36                               0x36 '6'
                          .reloc:010061a2 b2                               0xb2 
                          .reloc:010061a3 36                               0x36 '6'
                          .reloc:010061a4 04                               0x04 
                          .reloc:010061a5 37                               0x37 '7'
                          .reloc:010061a6 09                               0x09 '	'
                          .reloc:010061a7 37                               0x37 '7'
                          .reloc:010061a8 28                               0x28 '('
                          .reloc:010061a9 37                               0x37 '7'
                          .reloc:010061aa 3f                               0x3f '?'
                          .reloc:010061ab 37                               0x37 '7'
                          .reloc:010061ac ab                               0xab 
                          .reloc:010061ad 37                               0x37 '7'
                          .reloc:010061ae ea                               0xea 
                          .reloc:010061af 37                               0x37 '7'
                          .reloc:010061b0 0d                               0x0d ''
                          .reloc:010061b1 38                               0x38 '8'
                          .reloc:010061b2 1a                               0x1a 
                          .reloc:010061b3 38                               0x38 '8'
                          .reloc:010061b4 26                               0x26 '&'
                          .reloc:010061b5 38                               0x38 '8'
                          .reloc:010061b6 2e                               0x2e '.'
                          .reloc:010061b7 38                               0x38 '8'
                          .reloc:010061b8 36                               0x36 '6'
                          .reloc:010061b9 38                               0x38 '8'
                          .reloc:010061ba 42                               0x42 'B'
                          .reloc:010061bb 38                               0x38 '8'
                          .reloc:010061bc 54                               0x54 'T'
                          .reloc:010061bd 38                               0x38 '8'
                          .reloc:010061be 61                               0x61 'a'
                          .reloc:010061bf 38                               0x38 '8'
                          .reloc:010061c0 69                               0x69 'i'
                          .reloc:010061c1 38                               0x38 '8'
                          .reloc:010061c2 83                               0x83 
                          .reloc:010061c3 38                               0x38 '8'
                          .reloc:010061c4 89                               0x89 
                          .reloc:010061c5 38                               0x38 '8'
                          .reloc:010061c6 8f                               0x8f 
                          .reloc:010061c7 38                               0x38 '8'
                          .reloc:010061c8 95                               0x95 
                          .reloc:010061c9 38                               0x38 '8'
                          .reloc:010061ca 9b                               0x9b 
                          .reloc:010061cb 38                               0x38 '8'
                          .reloc:010061cc a1                               0xa1 
                          .reloc:010061cd 38                               0x38 '8'
                          .reloc:010061ce a8                               0xa8 
                          .reloc:010061cf 38                               0x38 '8'
                          .reloc:010061d0 af                               0xaf 
                          .reloc:010061d1 38                               0x38 '8'
                          .reloc:010061d2 b6                               0xb6 
                          .reloc:010061d3 38                               0x38 '8'
                          .reloc:010061d4 bd                               0xbd 
                          .reloc:010061d5 38                               0x38 '8'
                          .reloc:010061d6 c4                               0xc4 
                          .reloc:010061d7 38                               0x38 '8'
                          .reloc:010061d8 cb                               0xcb 
                          .reloc:010061d9 38                               0x38 '8'
                          .reloc:010061da d2                               0xd2 
                          .reloc:010061db 38                               0x38 '8'
                          .reloc:010061dc da                               0xda 
                          .reloc:010061dd 38                               0x38 '8'
                          .reloc:010061de e2                               0xe2 
                          .reloc:010061df 38                               0x38 '8'
                          .reloc:010061e0 ea                               0xea 
                          .reloc:010061e1 38                               0x38 '8'
                          .reloc:010061e2 f6                               0xf6 
                          .reloc:010061e3 38                               0x38 '8'
                          .reloc:010061e4 ff                               0xff 
                          .reloc:010061e5 38                               0x38 '8'
                          .reloc:010061e6 04                               0x04 
                          .reloc:010061e7 39                               0x39 '9'
                          .reloc:010061e8 0a                               0x0a '
'
                          .reloc:010061e9 39                               0x39 '9'
                          .reloc:010061ea 14                               0x14 
                          .reloc:010061eb 39                               0x39 '9'
                          .reloc:010061ec 1d                               0x1d 
                          .reloc:010061ed 39                               0x39 '9'
                          .reloc:010061ee 28                               0x28 '('
                          .reloc:010061ef 39                               0x39 '9'
                          .reloc:010061f0 36                               0x36 '6'
                          .reloc:010061f1 39                               0x39 '9'
                          .reloc:010061f2 3b                               0x3b ';'
                          .reloc:010061f3 39                               0x39 '9'
                          .reloc:010061f4 41                               0x41 'A'
                          .reloc:010061f5 39                               0x39 '9'
                          .reloc:010061f6 4c                               0x4c 'L'
                          .reloc:010061f7 39                               0x39 '9'
                          .reloc:010061f8 53                               0x53 'S'
                          .reloc:010061f9 39                               0x39 '9'
                          .reloc:010061fa 60                               0x60 '`'
                          .reloc:010061fb 39                               0x39 '9'
                          .reloc:010061fc 7c                               0x7c '|'
                          .reloc:010061fd 39                               0x39 '9'
                          .reloc:010061fe 80                               0x80 
                          .reloc:010061ff 39                               0x39 '9'
                          .reloc:01006200 9c                               0x9c 
                          .reloc:01006201 39                               0x39 '9'
                          .reloc:01006202 a0                               0xa0 
                          .reloc:01006203 39                               0x39 '9'
                          .reloc:01006204 bc                               0xbc 
                          .reloc:01006205 39                               0x39 '9'
                          .reloc:01006206 c0                               0xc0 
                          .reloc:01006207 39                               0x39 '9'
                          .reloc:01006208 00                               0x00 
                          .reloc:01006209 00                               0x00 
                          .reloc:0100620a 00                               0x00 
                          .reloc:0100620b 00                               0x00 
                          .reloc:0100620c 00                               0x00 
                          .reloc:0100620d 00                               0x00 
                          .reloc:0100620e 00                               0x00 
                          .reloc:0100620f 00                               0x00 
                          .reloc:01006210 00                               0x00 
                          .reloc:01006211 00                               0x00 
                          .reloc:01006212 00                               0x00 
                          .reloc:01006213 00                               0x00 
                          .reloc:01006214 00                               0x00 
                          .reloc:01006215 00                               0x00 
                          .reloc:01006216 00                               0x00 
                          .reloc:01006217 00                               0x00 
                          .reloc:01006218 00                               0x00 
                          .reloc:01006219 00                               0x00 
                          .reloc:0100621a 00                               0x00 
                          .reloc:0100621b 00                               0x00 
                          .reloc:0100621c 00                               0x00 
                          .reloc:0100621d 00                               0x00 
                          .reloc:0100621e 00                               0x00 
                          .reloc:0100621f 00                               0x00 
                          .reloc:01006220 00                               0x00 
                          .reloc:01006221 00                               0x00 
                          .reloc:01006222 00                               0x00 
                          .reloc:01006223 00                               0x00 
                          .reloc:01006224 00                               0x00 
                          .reloc:01006225 00                               0x00 
                          .reloc:01006226 00                               0x00 
                          .reloc:01006227 00                               0x00 
                          .reloc:01006228 00                               0x00 
                          .reloc:01006229 00                               0x00 
                          .reloc:0100622a 00                               0x00 
                          .reloc:0100622b 00                               0x00 
                          .reloc:0100622c 00                               0x00 
                          .reloc:0100622d 00                               0x00 
                          .reloc:0100622e 00                               0x00 
                          .reloc:0100622f 00                               0x00 
                          .reloc:01006230 00                               0x00 
                          .reloc:01006231 00                               0x00 
                          .reloc:01006232 00                               0x00 
                          .reloc:01006233 00                               0x00 
                          .reloc:01006234 00                               0x00 
                          .reloc:01006235 00                               0x00 
                          .reloc:01006236 00                               0x00 
                          .reloc:01006237 00                               0x00 
                          .reloc:01006238 00                               0x00 
                          .reloc:01006239 00                               0x00 
                          .reloc:0100623a 00                               0x00 
                          .reloc:0100623b 00                               0x00 
                          .reloc:0100623c 00                               0x00 
                          .reloc:0100623d 00                               0x00 
                          .reloc:0100623e 00                               0x00 
                          .reloc:0100623f 00                               0x00 
                          .reloc:01006240 00                               0x00 
                          .reloc:01006241 00                               0x00 
                          .reloc:01006242 00                               0x00 
                          .reloc:01006243 00                               0x00 
                          .reloc:01006244 00                               0x00 
                          .reloc:01006245 00                               0x00 
                          .reloc:01006246 00                               0x00 
                          .reloc:01006247 00                               0x00 
                          .reloc:01006248 00                               0x00 
                          .reloc:01006249 00                               0x00 
                          .reloc:0100624a 00                               0x00 
                          .reloc:0100624b 00                               0x00 
                          .reloc:0100624c 00                               0x00 
                          .reloc:0100624d 00                               0x00 
                          .reloc:0100624e 00                               0x00 
                          .reloc:0100624f 00                               0x00 
                          .reloc:01006250 00                               0x00 
                          .reloc:01006251 00                               0x00 
                          .reloc:01006252 00                               0x00 
                          .reloc:01006253 00                               0x00 
                          .reloc:01006254 00                               0x00 
                          .reloc:01006255 00                               0x00 
                          .reloc:01006256 00                               0x00 
                          .reloc:01006257 00                               0x00 
                          .reloc:01006258 00                               0x00 
                          .reloc:01006259 00                               0x00 
                          .reloc:0100625a 00                               0x00 
                          .reloc:0100625b 00                               0x00 
                          .reloc:0100625c 00                               0x00 
                          .reloc:0100625d 00                               0x00 
                          .reloc:0100625e 00                               0x00 
                          .reloc:0100625f 00                               0x00 
                          .reloc:01006260 00                               0x00 
                          .reloc:01006261 00                               0x00 
                          .reloc:01006262 00                               0x00 
                          .reloc:01006263 00                               0x00 
                          .reloc:01006264 00                               0x00 
                          .reloc:01006265 00                               0x00 
                          .reloc:01006266 00                               0x00 
                          .reloc:01006267 00                               0x00 
                          .reloc:01006268 00                               0x00 
                          .reloc:01006269 00                               0x00 
                          .reloc:0100626a 00                               0x00 
                          .reloc:0100626b 00                               0x00 
                          .reloc:0100626c 00                               0x00 
                          .reloc:0100626d 00                               0x00 
                          .reloc:0100626e 00                               0x00 
                          .reloc:0100626f 00                               0x00 
                          .reloc:01006270 00                               0x00 
                          .reloc:01006271 00                               0x00 
                          .reloc:01006272 00                               0x00 
                          .reloc:01006273 00                               0x00 
                          .reloc:01006274 00                               0x00 
                          .reloc:01006275 00                               0x00 
                          .reloc:01006276 00                               0x00 
                          .reloc:01006277 00                               0x00 
                          .reloc:01006278 00                               0x00 
                          .reloc:01006279 00                               0x00 
                          .reloc:0100627a 00                               0x00 
                          .reloc:0100627b 00                               0x00 
                          .reloc:0100627c 00                               0x00 
                          .reloc:0100627d 00                               0x00 
                          .reloc:0100627e 00                               0x00 
                          .reloc:0100627f 00                               0x00 
                          .reloc:01006280 00                               0x00 
                          .reloc:01006281 00                               0x00 
                          .reloc:01006282 00                               0x00 
                          .reloc:01006283 00                               0x00 
                          .reloc:01006284 00                               0x00 
                          .reloc:01006285 00                               0x00 
                          .reloc:01006286 00                               0x00 
                          .reloc:01006287 00                               0x00 
                          .reloc:01006288 00                               0x00 
                          .reloc:01006289 00                               0x00 
                          .reloc:0100628a 00                               0x00 
                          .reloc:0100628b 00                               0x00 
                          .reloc:0100628c 00                               0x00 
                          .reloc:0100628d 00                               0x00 
                          .reloc:0100628e 00                               0x00 
                          .reloc:0100628f 00                               0x00 
                          .reloc:01006290 00                               0x00 
                          .reloc:01006291 00                               0x00 
                          .reloc:01006292 00                               0x00 
                          .reloc:01006293 00                               0x00 
                          .reloc:01006294 00                               0x00 
                          .reloc:01006295 00                               0x00 
                          .reloc:01006296 00                               0x00 
                          .reloc:01006297 00                               0x00 
                          .reloc:01006298 00                               0x00 
                          .reloc:01006299 00                               0x00 
                          .reloc:0100629a 00                               0x00 
                          .reloc:0100629b 00                               0x00 
                          .reloc:0100629c 00                               0x00 
                          .reloc:0100629d 00                               0x00 
                          .reloc:0100629e 00                               0x00 
                          .reloc:0100629f 00                               0x00 
                          .reloc:010062a0 00                               0x00 
                          .reloc:010062a1 00                               0x00 
                          .reloc:010062a2 00                               0x00 
                          .reloc:010062a3 00                               0x00 
                          .reloc:010062a4 00                               0x00 
                          .reloc:010062a5 00                               0x00 
                          .reloc:010062a6 00                               0x00 
                          .reloc:010062a7 00                               0x00 
                          .reloc:010062a8 00                               0x00 
                          .reloc:010062a9 00                               0x00 
                          .reloc:010062aa 00                               0x00 
                          .reloc:010062ab 00                               0x00 
                          .reloc:010062ac 00                               0x00 
                          .reloc:010062ad 00                               0x00 
                          .reloc:010062ae 00                               0x00 
                          .reloc:010062af 00                               0x00 
                          .reloc:010062b0 00                               0x00 
                          .reloc:010062b1 00                               0x00 
                          .reloc:010062b2 00                               0x00 
                          .reloc:010062b3 00                               0x00 
                          .reloc:010062b4 00                               0x00 
                          .reloc:010062b5 00                               0x00 
                          .reloc:010062b6 00                               0x00 
                          .reloc:010062b7 00                               0x00 
                          .reloc:010062b8 00                               0x00 
                          .reloc:010062b9 00                               0x00 
                          .reloc:010062ba 00                               0x00 
                          .reloc:010062bb 00                               0x00 
                          .reloc:010062bc 00                               0x00 
                          .reloc:010062bd 00                               0x00 
                          .reloc:010062be 00                               0x00 
                          .reloc:010062bf 00                               0x00 
                          .reloc:010062c0 00                               0x00 
                          .reloc:010062c1 00                               0x00 
                          .reloc:010062c2 00                               0x00 
                          .reloc:010062c3 00                               0x00 
                          .reloc:010062c4 00                               0x00 
                          .reloc:010062c5 00                               0x00 
                          .reloc:010062c6 00                               0x00 
                          .reloc:010062c7 00                               0x00 
                          .reloc:010062c8 00                               0x00 
                          .reloc:010062c9 00                               0x00 
                          .reloc:010062ca 00                               0x00 
                          .reloc:010062cb 00                               0x00 
                          .reloc:010062cc 00                               0x00 
                          .reloc:010062cd 00                               0x00 
                          .reloc:010062ce 00                               0x00 
                          .reloc:010062cf 00                               0x00 
                          .reloc:010062d0 00                               0x00 
                          .reloc:010062d1 00                               0x00 
                          .reloc:010062d2 00                               0x00 
                          .reloc:010062d3 00                               0x00 
                          .reloc:010062d4 00                               0x00 
                          .reloc:010062d5 00                               0x00 
                          .reloc:010062d6 00                               0x00 
                          .reloc:010062d7 00                               0x00 
                          .reloc:010062d8 00                               0x00 
                          .reloc:010062d9 00                               0x00 
                          .reloc:010062da 00                               0x00 
                          .reloc:010062db 00                               0x00 
                          .reloc:010062dc 00                               0x00 
                          .reloc:010062dd 00                               0x00 
                          .reloc:010062de 00                               0x00 
                          .reloc:010062df 00                               0x00 
                          .reloc:010062e0 00                               0x00 
                          .reloc:010062e1 00                               0x00 
                          .reloc:010062e2 00                               0x00 
                          .reloc:010062e3 00                               0x00 
                          .reloc:010062e4 00                               0x00 
                          .reloc:010062e5 00                               0x00 
                          .reloc:010062e6 00                               0x00 
                          .reloc:010062e7 00                               0x00 
                          .reloc:010062e8 00                               0x00 
                          .reloc:010062e9 00                               0x00 
                          .reloc:010062ea 00                               0x00 
                          .reloc:010062eb 00                               0x00 
                          .reloc:010062ec 00                               0x00 
                          .reloc:010062ed 00                               0x00 
