                           .text:01001000 25 bc c7 77 0d                   and    $0xd77c7bc,%eax
                           .text:01001005 bc c7 77 d4 be                   mov    $0xbed477c7,%esp
                           .text:0100100a c7                               (bad)  
                           .text:0100100b 77 00                            ja     0x0100100d
                           .text:0100100d 00 00                            add    %al,(%eax)
                           .text:0100100f 00 51 eb                         add    %dl,-0x15(%ecx)
                           .text:01001012 c9                               leave  
                           .text:01001013 40                               inc    %eax
                           .text:01001014 9f                               lahf   
                           .text:01001015 59                               pop    %ecx
                           .text:01001016 c9                               leave  
                           .text:01001017 40                               inc    %eax
                           .text:01001018 90                               nop
                           .text:01001019 02 ca                            add    %dl,%cl
                           .text:0100101b 40                               inc    %eax
                           .text:0100101c 1d 56 c9 40 fd                   sbb    $0xfd40c956,%eax
                           .text:01001021 fd                               std    
                           .text:01001022 c9                               leave  
                           .text:01001023 40                               inc    %eax
                           .text:01001024 44                               inc    %esp
                           .text:01001025 5a                               pop    %edx
                           .text:01001026 c9                               leave  
                           .text:01001027 40                               inc    %eax
                           .text:01001028 ac                               lods   %ds:(%esi),%al
                           .text:01001029 cf                               iret   
                           .text:0100102a c9                               leave  
                           .text:0100102b 40                               inc    %eax
                           .text:0100102c 00 00                            add    %al,(%eax)
                           .text:0100102e 00 00                            add    %al,(%eax)
                           .text:01001030 3c f2                            cmp    $0xf2,%al
                           .text:01001032 e2 77                            loop   0x010010ab
                           .text:01001034 42                               inc    %edx
                           .text:01001035 35 e2 77 35 2b                   xor    $0x2b3577e2,%eax
                           .text:0100103a e4 77                            in     $0x77,%al
                           .text:0100103c 0c 06                            or     $0x6,%al
                           .text:0100103e e3 77                            jecxz  0x010010b7
                           .text:01001040 9b                               fwait
                           .text:01001041 50                               push   %eax
                           .text:01001042 e2 77                            loop   0x010010bb
                           .text:01001044 44                               inc    %esp
                           .text:01001045 fe                               (bad)  
                           .text:01001046 e2 77                            loop   0x010010bf
                           .text:01001048 23 0d e3 77 12 f2                and    0xf21277e3,%ecx
                           .text:0100104e e2 77                            loop   0x010010c7
                           .text:01001050 76 ef                            jbe    0x01001041
                           .text:01001052 e2 77                            loop   0x010010cb
                           .text:01001054 a7                               cmpsl  %es:(%edi),%ds:(%esi)
                           .text:01001055 f2 e2 77                         repnz loop 0x010010cf
                           .text:01001058 d7                               xlat   %ds:(%ebx)
                           .text:01001059 28 e3                            sub    %ah,%bl
                           .text:0100105b 77 42                            ja     0x0100109f
                           .text:0100105d 31 e3                            xor    %esp,%ebx
                           .text:0100105f 77 5e                            ja     0x010010bf
                           .text:01001061 f2 e2 77                         repnz loop 0x010010db
                           .text:01001064 7c 05                            jl     0x0100106b
                           .text:01001066 e3 77                            jecxz  0x010010df
                           .text:01001068 66 ef                            out    %ax,(%dx)
                           .text:0100106a e2 77                            loop   0x010010e3
                           .text:0100106c 5e                               pop    %esi
                           .text:0100106d 36 e3 77                         ss jecxz 0x010010e7
                           .text:01001070 94                               xchg   %eax,%esp
                           .text:01001071 05 e3 77 76 f1                   add    $0xf17677e3,%eax
                           .text:01001076 e2 77                            loop   0x010010ef
                           .text:01001078 1a c4                            sbb    %ah,%al
                           .text:0100107a e3 77                            jecxz  0x010010f3
                           .text:0100107c 18 2e                            sbb    %ch,(%esi)
                           .text:0100107e e3 77                            jecxz  0x010010f7
                           .text:01001080 00 00                            add    %al,(%eax)
                           .text:01001082 00 00                            add    %al,(%eax)
                           .text:01001084 b0 60                            mov    $0x60,%al
                           .text:01001086 d1                               (bad)  
                           .text:01001087 77 00                            ja     0x01001089
                           .text:01001089 00 00                            add    %al,(%eax)
                           .text:0100108b 00 87 63 ac 41 c1                add    %al,-0x3ebe539d(%edi)
                           .text:01001091 66 ad                            lods   %ds:(%esi),%ax
                           .text:01001093 41                               inc    %ecx
                           .text:01001094 8c 9f ac 41 61 36                mov    %ds,0x366141ac(%edi)
                           .text:0100109a ac                               lods   %ds:(%esi),%al
                           .text:0100109b 41                               inc    %ecx
                           .text:0100109c fb                               sti    
                           .text:0100109d c0 ac 41 4c e5 ac 41 37          shrb   $0x37,0x41ace54c(%ecx,%eax,2)
                           .text:010010a5 67 ac                            lods   %ds:(%si),%al
                           .text:010010a7 41                               inc    %ecx
                           .text:010010a8 00 00                            add    %al,(%eax)
                           .text:010010aa 00 00                            add    %al,(%eax)
                           .text:010010ac c3                               ret    
                           .text:010010ad 27                               daa    
                           .text:010010ae f6 6f ad                         imulb  -0x53(%edi)
                           .text:010010b1 77 fe                            ja     0x010010b1
                           .text:010010b3 6f                               outsl  %ds:(%esi),(%dx)
                           .text:010010b4 ef                               out    %eax,(%dx)
                           .text:010010b5 b2 fb                            mov    $0xfb,%dl
                           .text:010010b7 6f                               outsl  %ds:(%esi),(%dx)
                           .text:010010b8 51                               push   %ecx
                           .text:010010b9 c1                               (bad)  
                           .text:010010ba f5                               cmc    
                           .text:010010bb 6f                               outsl  %ds:(%esi),(%dx)
                           .text:010010bc 75 dc                            jne    0x0100109a
                           .text:010010be f7 6f c0                         imull  -0x40(%edi)
                           .text:010010c1 b2 fb                            mov    $0xfb,%dl
                           .text:010010c3 6f                               outsl  %ds:(%esi),(%dx)
                           .text:010010c4 ce                               into   
                           .text:010010c5 27                               daa    
                           .text:010010c6 f6 6f c0                         imulb  -0x40(%edi)
                           .text:010010c9 2b f6                            sub    %esi,%esi
                           .text:010010cb 6f                               outsl  %ds:(%esi),(%dx)
                           .text:010010cc 90                               nop
                           .text:010010cd 97                               xchg   %eax,%edi
                           .text:010010ce f5                               cmc    
                           .text:010010cf 6f                               outsl  %ds:(%esi),(%dx)
                           .text:010010d0 95                               xchg   %eax,%ebp
                           .text:010010d1 c3                               ret    
                           .text:010010d2 f5                               cmc    
                           .text:010010d3 6f                               outsl  %ds:(%esi),(%dx)
                           .text:010010d4 aa                               stos   %al,%es:(%edi)
                           .text:010010d5 36 f6 6f 2e                      imulb  %ss:0x2e(%edi)
                           .text:010010d9 01 f6                            add    %esi,%esi
                           .text:010010db 6f                               outsl  %ds:(%esi),(%dx)
                           .text:010010dc 04 28                            add    $0x28,%al
                           .text:010010de f6 6f 10                         imulb  0x10(%edi)
                           .text:010010e1 99                               cltd   
                           .text:010010e2 f5                               cmc    
                           .text:010010e3 6f                               outsl  %ds:(%esi),(%dx)
                           .text:010010e4 cf                               iret   
                           .text:010010e5 61                               popa   
                           .text:010010e6 fa                               cli    
                           .text:010010e7 6f                               outsl  %ds:(%esi),(%dx)
                           .text:010010e8 27                               daa    
                           .text:010010e9 3e f7 6f e1                      imull  %ds:-0x1f(%edi)
                           .text:010010ed e1 f5                            loope  0x010010e4
                           .text:010010ef 6f                               outsl  %ds:(%esi),(%dx)
                           .text:010010f0 d4 37                            aam    $0x37
                           .text:010010f2 f6 6f 78                         imulb  0x78(%edi)
                           .text:010010f5 40                               inc    %eax
                           .text:010010f6 f6 6f 73                         imulb  0x73(%edi)
                           .text:010010f9 cc                               int3   
                           .text:010010fa f6 6f 00                         imulb  0x0(%edi)
                           .text:010010fd 00 00                            add    %al,(%eax)
                           .text:010010ff 00 83 4a ed 77 00                add    %al,0x77ed4a(%ebx)
                           .text:01001105 00 00                            add    %al,(%eax)
                           .text:01001107 00 00                            add    %al,(%eax)
                           .text:01001109 00 00                            add    %al,(%eax)
                           .text:0100110b 00 3c 28                         add    %bh,(%eax,%ebp,1)
                           .text:0100110e 00 01                            add    %al,(%ecx)
                           .text:01001110 00 00                            add    %al,(%eax)
                           .text:01001112 00 00                            add    %al,(%eax)
                           .text:01001114 00 00                            add    %al,(%eax)
                           .text:01001116 00 00                            add    %al,(%eax)
                           .text:01001118 e2 29                            loop   0x01001143
                           .text:0100111a 00 01                            add    %al,(%ecx)
                           .text:0100111c 29 2b                            sub    %ebp,(%ebx)
                           .text:0100111e 00 01                            add    %al,(%ecx)
                           .text:01001120 00 00                            add    %al,(%eax)
                           .text:01001122 00 00                            add    %al,(%eax)
                           .text:01001124 00 00                            add    %al,(%eax)
                           .text:01001126 00 00                            add    %al,(%eax)
                           .text:01001128 00 00                            add    %al,(%eax)
                           .text:0100112a 00 00                            add    %al,(%eax)
                           .text:0100112c 00 00                            add    %al,(%eax)
                           .text:0100112e 00 00                            add    %al,(%eax)
                           .text:01001130 00 00                            add    %al,(%eax)
                           .text:01001132 00 00                            add    %al,(%eax)
                           .text:01001134 64 c9                            fs leave 
                           .text:01001136 5b                               pop    %ebx
                           .text:01001137 4a                               dec    %edx
                           .text:01001138 00 00                            add    %al,(%eax)
                           .text:0100113a 00 00                            add    %al,(%eax)
                           .text:0100113c 02 00                            add    (%eax),%al
                           .text:0100113e 00 00                            add    %al,(%eax)
                           .text:01001140 21 00                            and    %eax,(%eax)
                           .text:01001142 00 00                            add    %al,(%eax)
                           .text:01001144 f0 11 00                         lock adc %eax,(%eax)
                           .text:01001147 00 f0                            add    %dh,%al
                           .text:01001149 05 00 00 00 00                   add    $0x0,%eax
                           .text:0100114e 00 00                            add    %al,(%eax)
                           .text:01001150 44                               inc    %esp
                           .text:01001151 65 66 61                         gs popaw 
                           .text:01001154 75 6c                            jne    0x010011c2
                           .text:01001156 74 54                            je     0x010011ac
                           .text:01001158 54                               push   %esp
                           .text:01001159 4c                               dec    %esp
                           .text:0100115a 00 00                            add    %al,(%eax)
                           .text:0100115c 53                               push   %ebx
                           .text:0100115d 59                               pop    %ecx
                           .text:0100115e 53                               push   %ebx
                           .text:0100115f 54                               push   %esp
                           .text:01001160 45                               inc    %ebp
                           .text:01001161 4d                               dec    %ebp
                           .text:01001162 5c                               pop    %esp
                           .text:01001163 43                               inc    %ebx
                           .text:01001164 75 72                            jne    0x010011d8
                           .text:01001166 72 65                            jb     0x010011cd
                           .text:01001168 6e                               outsb  %ds:(%esi),(%dx)
                           .text:01001169 74 43                            je     0x010011ae
                           .text:0100116b 6f                               outsl  %ds:(%esi),(%dx)
                           .text:0100116c 6e                               outsb  %ds:(%esi),(%dx)
                           .text:0100116d 74 72                            je     0x010011e1
                           .text:0100116f 6f                               outsl  %ds:(%esi),(%dx)
                           .text:01001170 6c                               insb   (%dx),%es:(%edi)
                           .text:01001171 53                               push   %ebx
                           .text:01001172 65 74 5c                         gs je  0x010011d1
                           .text:01001175 53                               push   %ebx
                           .text:01001176 65 72 76                         gs jb  0x010011ef
                           .text:01001179 69 63 65 73 5c 54 63             imul   $0x63545c73,0x65(%ebx),%esp
                           .text:01001180 70 69                            jo     0x010011eb
                           .text:01001182 70 5c                            jo     0x010011e0
                           .text:01001184 50                               push   %eax
                           .text:01001185 61                               popa   
                           .text:01001186 72 61                            jb     0x010011e9
                           .text:01001188 6d                               insl   (%dx),%es:(%edi)
                           .text:01001189 65 74 65                         gs je  0x010011f1
                           .text:0100118c 72 73                            jb     0x01001201
                           .text:0100118e 00 00                            add    %al,(%eax)
                           .text:01001190 49                               dec    %ecx
                           .text:01001191 50                               push   %eax
                           .text:01001192 76 36                            jbe    0x010011ca
                           .text:01001194 00 00                            add    %al,(%eax)
                           .text:01001196 00 00                            add    %al,(%eax)
                           .text:01001198 49                               dec    %ecx
                           .text:01001199 50                               push   %eax
                           .text:0100119a 76 34                            jbe    0x010011d0
                           .text:0100119c 00 00                            add    %al,(%eax)
                           .text:0100119e 00 00                            add    %al,(%eax)
                           .text:010011a0 08 51 00                         or     %dl,0x0(%ecx)
                           .text:010011a3 01 58 51                         add    %ebx,0x51(%eax)
                           .text:010011a6 00 01                            add    %al,(%ecx)
                           .text:010011a8 48                               dec    %eax
                           .text:010011a9 00 00                            add    %al,(%eax)
                           .text:010011ab 00 00                            add    %al,(%eax)
                           .text:010011ad 00 00                            add    %al,(%eax)
                           .text:010011af 00 00                            add    %al,(%eax)
                           .text:010011b1 00 00                            add    %al,(%eax)
                           .text:010011b3 00 00                            add    %al,(%eax)
                           .text:010011b5 00 00                            add    %al,(%eax)
                           .text:010011b7 00 00                            add    %al,(%eax)
                           .text:010011b9 00 00                            add    %al,(%eax)
                           .text:010011bb 00 00                            add    %al,(%eax)
                           .text:010011bd 00 00                            add    %al,(%eax)
                           .text:010011bf 00 00                            add    %al,(%eax)
                           .text:010011c1 00 00                            add    %al,(%eax)
                           .text:010011c3 00 00                            add    %al,(%eax)
                           .text:010011c5 00 00                            add    %al,(%eax)
                           .text:010011c7 00 00                            add    %al,(%eax)
                           .text:010011c9 00 00                            add    %al,(%eax)
                           .text:010011cb 00 00                            add    %al,(%eax)
                           .text:010011cd 00 00                            add    %al,(%eax)
                           .text:010011cf 00 00                            add    %al,(%eax)
                           .text:010011d1 00 00                            add    %al,(%eax)
                           .text:010011d3 00 00                            add    %al,(%eax)
                           .text:010011d5 00 00                            add    %al,(%eax)
                           .text:010011d7 00 00                            add    %al,(%eax)
                           .text:010011d9 00 00                            add    %al,(%eax)
                           .text:010011db 00 00                            add    %al,(%eax)
                           .text:010011dd 00 00                            add    %al,(%eax)
                           .text:010011df 00 00                            add    %al,(%eax)
                           .text:010011e1 00 00                            add    %al,(%eax)
                           .text:010011e3 00 a4 40 00 01 20 12             add    %ah,0x12200100(%eax,%eax,2)
                           .text:010011ea 00 01                            add    %al,(%ecx)
                           .text:010011ec 01 00                            add    %eax,(%eax)
                           .text:010011ee 00 00                            add    %al,(%eax)
                           .text:010011f0 52                               push   %edx
                           .text:010011f1 53                               push   %ebx
                           .text:010011f2 44                               inc    %esp
                           .text:010011f3 53                               push   %ebx
                           .text:010011f4 74 d2                            je     0x010011c8
                           .text:010011f6 3f                               aas    
                           .text:010011f7 87 1d 84 ad 45 85                xchg   %ebx,0x8545ad84
                           .text:010011fd 7f cd                            jg     0x010011cc
                           .text:010011ff 41                               inc    %ecx
                           .text:01001200 44                               inc    %esp
                           .text:01001201 f0 ed                            lock in (%dx),%eax
                           .text:01001203 a0 01 00 00 00                   mov    0x1,%al
                           .text:01001208 70 69                            jo     0x01001273
                           .text:0100120a 6e                               outsb  %ds:(%esi),(%dx)
                           .text:0100120b 67 2e 70 64                      addr16 jo,pn 0x01001273
                           .text:0100120f 62 00                            bound  %eax,(%eax)
                           .text:01001211 00 00                            add    %al,(%eax)
                           .text:01001213 00 00                            add    %al,(%eax)
                           .text:01001215 00 00                            add    %al,(%eax)
                           .text:01001217 00 00                            add    %al,(%eax)
                           .text:01001219 00 00                            add    %al,(%eax)
                           .text:0100121b 00 00                            add    %al,(%eax)
                           .text:0100121d 00 00                            add    %al,(%eax)
                           .text:0100121f 00 c2                            add    %al,%dl
                           .text:01001221 2c 00                            sub    $0x0,%al
                           .text:01001223 00 00                            add    %al,(%eax)
                           .text:01001225 00 00                            add    %al,(%eax)
                           .text:01001227 00 00                            add    %al,(%eax)
                           .text:01001229 00 00                            add    %al,(%eax)
                           .text:0100122b 00 00                            add    %al,(%eax)
                           .text:0100122d 00 00                            add    %al,(%eax)
                           .text:0100122f 00 00                            add    %al,(%eax)
                           .text:01001231 00 00                            add    %al,(%eax)
                           .text:01001233 00 00                            add    %al,(%eax)
                           .text:01001235 8b ff                            mov    %edi,%edi
                           .text:01001237 55                               push   %ebp
                           .text:01001238 8b ec                            mov    %esp,%ebp
                           .text:0100123a 8b 45 08                         mov    0x8(%ebp),%eax
                           .text:0100123d 33 c9                            xor    %ecx,%ecx
                           .text:0100123f 66 39 08                         cmp    %cx,(%eax)
                           .text:01001242 75 27                            jne    0x0100126b
                           .text:01001244 66 39 48 02                      cmp    %cx,0x2(%eax)
                           .text:01001248 75 21                            jne    0x0100126b
                           .text:0100124a 66 39 48 04                      cmp    %cx,0x4(%eax)
                           .text:0100124e 75 1b                            jne    0x0100126b
                           .text:01001250 66 39 48 06                      cmp    %cx,0x6(%eax)
                           .text:01001254 75 15                            jne    0x0100126b
                           .text:01001256 66 39 48 08                      cmp    %cx,0x8(%eax)
                           .text:0100125a 75 0f                            jne    0x0100126b
                           .text:0100125c ba ff ff 00 00                   mov    $0xffff,%edx
                           .text:01001261 66 39 50 0a                      cmp    %dx,0xa(%eax)
                           .text:01001265 75 04                            jne    0x0100126b
                           .text:01001267 b0 01                            mov    $0x1,%al
                           .text:01001269 eb 02                            jmp    0x0100126d
                           .text:0100126b 32 c0                            xor    %al,%al
                           .text:0100126d 5d                               pop    %ebp
                           .text:0100126e c2 04 00                         ret    $0x4
                           .text:01001271 cc                               int3   
                           .text:01001272 cc                               int3   
                           .text:01001273 cc                               int3   
                           .text:01001274 cc                               int3   
                           .text:01001275 cc                               int3   
                           .text:01001276 8b ff                            mov    %edi,%edi
                           .text:01001278 55                               push   %ebp
                           .text:01001279 8b ec                            mov    %esp,%ebp
                           .text:0100127b 51                               push   %ecx
                           .text:0100127c 56                               push   %esi
                           .text:0100127d 8d 45 fc                         lea    -0x4(%ebp),%eax
                           .text:01001280 50                               push   %eax
                           .text:01001281 be c0 40 00 01                   mov    $0x10040c0,%esi
                           .text:01001286 56                               push   %esi
                           .text:01001287 ff 75 08                         pushl  0x8(%ebp)
                           .text:0100128a c7 45 fc ff 07 00 00             movl   $0x7ff,-0x4(%ebp)
                           .text:01001291 e8 56 1d 00 00                   call   0x01002fec
                           .text:01001296 85 c0                            test   %eax,%eax
                           .text:01001298 8b c6                            mov    %esi,%eax
                           .text:0100129a 74 05                            je     0x010012a1
                           .text:0100129c b8 4c 11 00 01                   mov    $0x100114c,%eax
                           .text:010012a1 5e                               pop    %esi
                           .text:010012a2 c9                               leave  
                           .text:010012a3 c2 04 00                         ret    $0x4
                           .text:010012a6 cc                               int3   
                           .text:010012a7 cc                               int3   
                           .text:010012a8 cc                               int3   
                           .text:010012a9 cc                               int3   
                           .text:010012aa cc                               int3   
                           .text:010012ab 68 10 27 00 00                   push   $0x2710
                           .text:010012b0 6a 01                            push   $0x1
                           .text:010012b2 e8 82 1c 00 00                   call   0x01002f39
                           .text:010012b7 59                               pop    %ecx
                           .text:010012b8 59                               pop    %ecx
                           .text:010012b9 c3                               ret    
                           .text:010012ba cc                               int3   
                           .text:010012bb cc                               int3   
                           .text:010012bc cc                               int3   
                           .text:010012bd cc                               int3   
                           .text:010012be cc                               int3   
                           .text:010012bf 8b ff                            mov    %edi,%edi
                           .text:010012c1 55                               push   %ebp
                           .text:010012c2 8b ec                            mov    %esp,%ebp
                           .text:010012c4 56                               push   %esi
                           .text:010012c5 57                               push   %edi
                           .text:010012c6 8b 7d 0c                         mov    0xc(%ebp),%edi
                           .text:010012c9 8b 77 18                         mov    0x18(%edi),%esi
                           .text:010012cc 66 83 3e 17                      cmpw   $0x17,(%esi)
                           .text:010012d0 75 35                            jne    0x01001307
                           .text:010012d2 83 7d 08 00                      cmpl   $0x0,0x8(%ebp)
                           .text:010012d6 75 2f                            jne    0x01001307
                           .text:010012d8 8d 46 08                         lea    0x8(%esi),%eax
                           .text:010012db 50                               push   %eax
                           .text:010012dc e8 54 ff ff ff                   call   0x01001235
                           .text:010012e1 84 c0                            test   %al,%al
                           .text:010012e3 74 22                            je     0x01001307
                           .text:010012e5 8b 45 10                         mov    0x10(%ebp),%eax
                           .text:010012e8 6a 02                            push   $0x2
                           .text:010012ea 59                               pop    %ecx
                           .text:010012eb 66 89 08                         mov    %cx,(%eax)
                           .text:010012ee 8b 4e 14                         mov    0x14(%esi),%ecx
                           .text:010012f1 89 48 04                         mov    %ecx,0x4(%eax)
                           .text:010012f4 66 8b 4e 02                      mov    0x2(%esi),%cx
                           .text:010012f8 66 89 48 02                      mov    %cx,0x2(%eax)
                           .text:010012fc 8b 45 14                         mov    0x14(%ebp),%eax
                           .text:010012ff c7 00 10 00 00 00                movl   $0x10,(%eax)
                           .text:01001305 eb 19                            jmp    0x01001320
                           .text:01001307 8b 47 10                         mov    0x10(%edi),%eax
                           .text:0100130a 8b 4d 14                         mov    0x14(%ebp),%ecx
                           .text:0100130d 89 01                            mov    %eax,(%ecx)
                           .text:0100130f ff 77 10                         pushl  0x10(%edi)
                           .text:01001312 ff 77 18                         pushl  0x18(%edi)
                           .text:01001315 ff 75 10                         pushl  0x10(%ebp)
                           .text:01001318 e8 99 17 00 00                   call   0x01002ab6
                           .text:0100131d 83 c4 0c                         add    $0xc,%esp
                           .text:01001320 5f                               pop    %edi
                           .text:01001321 5e                               pop    %esi
                           .text:01001322 5d                               pop    %ebp
                           .text:01001323 c2 10 00                         ret    $0x10
                           .text:01001326 cc                               int3   
                           .text:01001327 cc                               int3   
                           .text:01001328 cc                               int3   
                           .text:01001329 cc                               int3   
                           .text:0100132a cc                               int3   
                           .text:0100132b 8b ff                            mov    %edi,%edi
                           .text:0100132d 55                               push   %ebp
                           .text:0100132e 8b ec                            mov    %esp,%ebp
                           .text:01001330 8b 45 0c                         mov    0xc(%ebp),%eax
                           .text:01001333 8d 48 ff                         lea    -0x1(%eax),%ecx
                           .text:01001336 8b 45 10                         mov    0x10(%ebp),%eax
                           .text:01001339 3b c1                            cmp    %ecx,%eax
                           .text:0100133b 8b 4d 08                         mov    0x8(%ebp),%ecx
                           .text:0100133e 75 1a                            jne    0x0100135a
                           .text:01001340 ff 34 81                         pushl  (%ecx,%eax,4)
                           .text:01001343 68 11 27 00 00                   push   $0x2711
                           .text:01001348 6a 01                            push   $0x1
                           .text:0100134a e8 ea 1b 00 00                   call   0x01002f39
                           .text:0100134f 83 c4 0c                         add    $0xc,%esp
                           .text:01001352 6a 01                            push   $0x1
                           .text:01001354 ff 15 d4 10 00 01                call   *0x10010d4
                           .text:0100135a 56                               push   %esi
                           .text:0100135b 8d 34 81                         lea    (%ecx,%eax,4),%esi
                           .text:0100135e 6a 00                            push   $0x0
                           .text:01001360 8d 45 08                         lea    0x8(%ebp),%eax
                           .text:01001363 50                               push   %eax
                           .text:01001364 ff 76 04                         pushl  0x4(%esi)
                           .text:01001367 ff 15 d8 10 00 01                call   *0x10010d8
                           .text:0100136d 83 c4 0c                         add    $0xc,%esp
                           .text:01001370 3b 45 14                         cmp    0x14(%ebp),%eax
                           .text:01001373 72 0a                            jb     0x0100137f
                           .text:01001375 3b 45 18                         cmp    0x18(%ebp),%eax
                           .text:01001378 77 05                            ja     0x0100137f
                           .text:0100137a 5e                               pop    %esi
                           .text:0100137b 5d                               pop    %ebp
                           .text:0100137c c2 14 00                         ret    $0x14
                           .text:0100137f ff 75 18                         pushl  0x18(%ebp)
                           .text:01001382 ff 75 14                         pushl  0x14(%ebp)
                           .text:01001385 ff 36                            pushl  (%esi)
                           .text:01001387 68 12 27 00 00                   push   $0x2712
                           .text:0100138c 6a 01                            push   $0x1
                           .text:0100138e e8 a6 1b 00 00                   call   0x01002f39
                           .text:01001393 83 c4 14                         add    $0x14,%esp
                           .text:01001396 eb ba                            jmp    0x01001352
                           .text:01001398 cc                               int3   
                           .text:01001399 cc                               int3   
                           .text:0100139a cc                               int3   
                           .text:0100139b cc                               int3   
                           .text:0100139c cc                               int3   
                           .text:0100139d 8b ff                            mov    %edi,%edi
                           .text:0100139f 55                               push   %ebp
                           .text:010013a0 8b ec                            mov    %esp,%ebp
                           .text:010013a2 83 ec 1c                         sub    $0x1c,%esp
                           .text:010013a5 8b 45 08                         mov    0x8(%ebp),%eax
                           .text:010013a8 0f b6 50 17                      movzbl 0x17(%eax),%edx
                           .text:010013ac 56                               push   %esi
                           .text:010013ad 8b 70 18                         mov    0x18(%eax),%esi
                           .text:010013b0 03 d6                            add    %esi,%edx
                           .text:010013b2 c6 45 ff 00                      movb   $0x0,-0x1(%ebp)
                           .text:010013b6 89 55 e4                         mov    %edx,-0x1c(%ebp)
                           .text:010013b9 3b f2                            cmp    %edx,%esi
                           .text:010013bb 0f 83 3f 03 00 00                jae    0x01001700
                           .text:010013c1 53                               push   %ebx
                           .text:010013c2 57                               push   %edi
                           .text:010013c3 80 7d ff 00                      cmpb   $0x0,-0x1(%ebp)
                           .text:010013c7 0f 85 31 03 00 00                jne    0x010016fe
                           .text:010013cd 0f b6 0e                         movzbl (%esi),%ecx
                           .text:010013d0 b8 82 00 00 00                   mov    $0x82,%eax
                           .text:010013d5 3b c8                            cmp    %eax,%ecx
                           .text:010013d7 0f 8f b3 01 00 00                jg     0x01001590
                           .text:010013dd 0f 84 a5 01 00 00                je     0x01001588
                           .text:010013e3 83 e9 00                         sub    $0x0,%ecx
                           .text:010013e6 0f 84 93 01 00 00                je     0x0100157f
                           .text:010013ec 49                               dec    %ecx
                           .text:010013ed 0f 84 86 01 00 00                je     0x01001579
                           .text:010013f3 83 e9 06                         sub    $0x6,%ecx
                           .text:010013f6 0f 84 be 01 00 00                je     0x010015ba
                           .text:010013fc 83 e9 3d                         sub    $0x3d,%ecx
                           .text:010013ff 0f 85 9b 01 00 00                jne    0x010015a0
                           .text:01001405 8d 46 04                         lea    0x4(%esi),%eax
                           .text:01001408 3b c2                            cmp    %edx,%eax
                           .text:0100140a 76 0a                            jbe    0x01001416
                           .text:0100140c 68 46 27 00 00                   push   $0x2746
                           .text:01001411 e9 d0 02 00 00                   jmp    0x010016e6
                           .text:01001416 8a 4e 02                         mov    0x2(%esi),%cl
                           .text:01001419 8a 5e 01                         mov    0x1(%esi),%bl
                           .text:0100141c 88 4d fe                         mov    %cl,-0x2(%ebp)
                           .text:0100141f 80 f9 05                         cmp    $0x5,%cl
                           .text:01001422 73 16                            jae    0x0100143a
                           .text:01001424 68 46 27 00 00                   push   $0x2746
                           .text:01001429 6a 01                            push   $0x1
                           .text:0100142b e8 09 1b 00 00                   call   0x01002f39
                           .text:01001430 0f b6 c3                         movzbl %bl,%eax
                           .text:01001433 03 f0                            add    %eax,%esi
                           .text:01001435 e9 b7 02 00 00                   jmp    0x010016f1
                           .text:0100143a 8a 46 03                         mov    0x3(%esi),%al
                           .text:0100143d 24 01                            and    $0x1,%al
                           .text:0100143f 88 45 fd                         mov    %al,-0x3(%ebp)
                           .text:01001442 0f b6 c3                         movzbl %bl,%eax
                           .text:01001445 0f b6 c9                         movzbl %cl,%ecx
                           .text:01001448 89 45 ec                         mov    %eax,-0x14(%ebp)
                           .text:0100144b 40                               inc    %eax
                           .text:0100144c 3b c8                            cmp    %eax,%ecx
                           .text:0100144e 7e 05                            jle    0x01001455
                           .text:01001450 fe c3                            inc    %bl
                           .text:01001452 88 5d fe                         mov    %bl,-0x2(%ebp)
                           .text:01001455 83 65 f8 00                      andl   $0x0,-0x8(%ebp)
                           .text:01001459 33 db                            xor    %ebx,%ebx
                           .text:0100145b 68 45 27 00 00                   push   $0x2745
                           .text:01001460 43                               inc    %ebx
                           .text:01001461 53                               push   %ebx
                           .text:01001462 c6 45 0b 05                      movb   $0x5,0xb(%ebp)
                           .text:01001466 e8 ce 1a 00 00                   call   0x01002f39
                           .text:0100146b 0f b6 7d fe                      movzbl -0x2(%ebp),%edi
                           .text:0100146f 83 ff 08                         cmp    $0x8,%edi
                           .text:01001472 59                               pop    %ecx
                           .text:01001473 59                               pop    %ecx
                           .text:01001474 0f 8e ec 00 00 00                jle    0x01001566
                           .text:0100147a 83 7d f8 00                      cmpl   $0x0,-0x8(%ebp)
                           .text:0100147e 74 2f                            je     0x010014af
                           .text:01001480 68 42 27 00 00                   push   $0x2742
                           .text:01001485 53                               push   %ebx
                           .text:01001486 e8 ae 1a 00 00                   call   0x01002f39
                           .text:0100148b 59                               pop    %ecx
                           .text:0100148c 59                               pop    %ecx
                           .text:0100148d 39 5d f8                         cmp    %ebx,-0x8(%ebp)
                           .text:01001490 75 1d                            jne    0x010014af
                           .text:01001492 68 3f 27 00 00                   push   $0x273f
                           .text:01001497 53                               push   %ebx
                           .text:01001498 e8 9c 1a 00 00                   call   0x01002f39
                           .text:0100149d 68 4e 27 00 00                   push   $0x274e
                           .text:010014a2 53                               push   %ebx
                           .text:010014a3 e8 91 1a 00 00                   call   0x01002f39
                           .text:010014a8 83 c4 10                         add    $0x10,%esp
                           .text:010014ab 83 65 f8 00                      andl   $0x0,-0x8(%ebp)
                           .text:010014af ff 45 f8                         incl   -0x8(%ebp)
                           .text:010014b2 80 7d fd 00                      cmpb   $0x0,-0x3(%ebp)
                           .text:010014b6 74 66                            je     0x0100151e
                           .text:010014b8 0f b6 45 0b                      movzbl 0xb(%ebp),%eax
                           .text:010014bc 8d 48 08                         lea    0x8(%eax),%ecx
                           .text:010014bf 3b cf                            cmp    %edi,%ecx
                           .text:010014c1 0f 8f 9f 00 00 00                jg     0x01001566
                           .text:010014c7 80 7d 0c 00                      cmpb   $0x0,0xc(%ebp)
                           .text:010014cb 8b 44 30 ff                      mov    -0x1(%eax,%esi,1),%eax
                           .text:010014cf 89 45 f4                         mov    %eax,-0xc(%ebp)
                           .text:010014d2 74 30                            je     0x01001504
                           .text:010014d4 6a 02                            push   $0x2
                           .text:010014d6 6a 04                            push   $0x4
                           .text:010014d8 8d 45 f4                         lea    -0xc(%ebp),%eax
                           .text:010014db 50                               push   %eax
                           .text:010014dc ff 15 90 10 00 01                call   *0x1001090
                           .text:010014e2 ff 75 f4                         pushl  -0xc(%ebp)
                           .text:010014e5 8b f8                            mov    %eax,%edi
                           .text:010014e7 ff 15 94 10 00 01                call   *0x1001094
                           .text:010014ed 50                               push   %eax
                           .text:010014ee 85 ff                            test   %edi,%edi
                           .text:010014f0 74 1a                            je     0x0100150c
                           .text:010014f2 ff 37                            pushl  (%edi)
                           .text:010014f4 68 4d 27 00 00                   push   $0x274d
                           .text:010014f9 53                               push   %ebx
                           .text:010014fa e8 3a 1a 00 00                   call   0x01002f39
                           .text:010014ff 83 c4 10                         add    $0x10,%esp
                           .text:01001502 eb 16                            jmp    0x0100151a
                           .text:01001504 50                               push   %eax
                           .text:01001505 ff 15 94 10 00 01                call   *0x1001094
                           .text:0100150b 50                               push   %eax
                           .text:0100150c 68 43 27 00 00                   push   $0x2743
                           .text:01001511 53                               push   %ebx
                           .text:01001512 e8 22 1a 00 00                   call   0x01002f39
                           .text:01001517 83 c4 0c                         add    $0xc,%esp
                           .text:0100151a 80 45 0b 04                      addb   $0x4,0xb(%ebp)
                           .text:0100151e 0f b6 45 0b                      movzbl 0xb(%ebp),%eax
                           .text:01001522 8b 44 30 ff                      mov    -0x1(%eax,%esi,1),%eax
                           .text:01001526 8b c8                            mov    %eax,%ecx
                           .text:01001528 c1 e9 08                         shr    $0x8,%ecx
                           .text:0100152b 8b d0                            mov    %eax,%edx
                           .text:0100152d c1 e2 08                         shl    $0x8,%edx
                           .text:01001530 33 ca                            xor    %edx,%ecx
                           .text:01001532 81 e1 ff 00 ff 00                and    $0xff00ff,%ecx
                           .text:01001538 c1 e0 08                         shl    $0x8,%eax
                           .text:0100153b 33 c8                            xor    %eax,%ecx
                           .text:0100153d c1 c1 10                         rol    $0x10,%ecx
                           .text:01001540 51                               push   %ecx
                           .text:01001541 68 44 27 00 00                   push   $0x2744
                           .text:01001546 53                               push   %ebx
                           .text:01001547 e8 ed 19 00 00                   call   0x01002f39
                           .text:0100154c 80 45 0b 04                      addb   $0x4,0xb(%ebp)
                           .text:01001550 0f b6 45 0b                      movzbl 0xb(%ebp),%eax
                           .text:01001554 0f b6 7d fe                      movzbl -0x2(%ebp),%edi
                           .text:01001558 83 c0 03                         add    $0x3,%eax
                           .text:0100155b 83 c4 0c                         add    $0xc,%esp
                           .text:0100155e 3b c7                            cmp    %edi,%eax
                           .text:01001560 0f 8c 14 ff ff ff                jl     0x0100147a
                           .text:01001566 68 3f 27 00 00                   push   $0x273f
                           .text:0100156b 53                               push   %ebx
                           .text:0100156c e8 c8 19 00 00                   call   0x01002f39
                           .text:01001571 03 75 ec                         add    -0x14(%ebp),%esi
                           .text:01001574 e9 78 01 00 00                   jmp    0x010016f1
                           .text:01001579 46                               inc    %esi
                           .text:0100157a e9 74 01 00 00                   jmp    0x010016f3
                           .text:0100157f c6 45 ff 01                      movb   $0x1,-0x1(%ebp)
                           .text:01001583 e9 6b 01 00 00                   jmp    0x010016f3
                           .text:01001588 83 c6 0b                         add    $0xb,%esi
                           .text:0100158b e9 63 01 00 00                   jmp    0x010016f3
                           .text:01001590 81 e9 83 00 00 00                sub    $0x83,%ecx
                           .text:01001596 74 22                            je     0x010015ba
                           .text:01001598 83 e9 05                         sub    $0x5,%ecx
                           .text:0100159b 74 15                            je     0x010015b2
                           .text:0100159d 49                               dec    %ecx
                           .text:0100159e 74 1a                            je     0x010015ba
                           .text:010015a0 8d 46 02                         lea    0x2(%esi),%eax
                           .text:010015a3 3b c2                            cmp    %edx,%eax
                           .text:010015a5 77 d8                            ja     0x0100157f
                           .text:010015a7 0f b6 46 01                      movzbl 0x1(%esi),%eax
                           .text:010015ab 03 f0                            add    %eax,%esi
                           .text:010015ad e9 41 01 00 00                   jmp    0x010016f3
                           .text:010015b2 83 c6 04                         add    $0x4,%esi
                           .text:010015b5 e9 39 01 00 00                   jmp    0x010016f3
                           .text:010015ba 8d 46 03                         lea    0x3(%esi),%eax
                           .text:010015bd 3b c2                            cmp    %edx,%eax
                           .text:010015bf 0f 87 1c 01 00 00                ja     0x010016e1
                           .text:010015c5 8a 46 01                         mov    0x1(%esi),%al
                           .text:010015c8 0f b6 c8                         movzbl %al,%ecx
                           .text:010015cb 8d 3c 31                         lea    (%ecx,%esi,1),%edi
                           .text:010015ce 89 7d e8                         mov    %edi,-0x18(%ebp)
                           .text:010015d1 3b fa                            cmp    %edx,%edi
                           .text:010015d3 0f 87 08 01 00 00                ja     0x010016e1
                           .text:010015d9 3c 03                            cmp    $0x3,%al
                           .text:010015db 0f 82 00 01 00 00                jb     0x010016e1
                           .text:010015e1 8a 5e 02                         mov    0x2(%esi),%bl
                           .text:010015e4 80 fb 04                         cmp    $0x4,%bl
                           .text:010015e7 73 13                            jae    0x010015fc
                           .text:010015e9 68 3e 27 00 00                   push   $0x273e
                           .text:010015ee 6a 01                            push   $0x1
                           .text:010015f0 e8 44 19 00 00                   call   0x01002f39
                           .text:010015f5 8b f7                            mov    %edi,%esi
                           .text:010015f7 e9 f5 00 00 00                   jmp    0x010016f1
                           .text:010015fc 0f b6 d3                         movzbl %bl,%edx
                           .text:010015ff 41                               inc    %ecx
                           .text:01001600 3b d1                            cmp    %ecx,%edx
                           .text:01001602 7e 04                            jle    0x01001608
                           .text:01001604 fe c0                            inc    %al
                           .text:01001606 8a d8                            mov    %al,%bl
                           .text:01001608 83 65 f8 00                      andl   $0x0,-0x8(%ebp)
                           .text:0100160c 33 ff                            xor    %edi,%edi
                           .text:0100160e 68 40 27 00 00                   push   $0x2740
                           .text:01001613 47                               inc    %edi
                           .text:01001614 57                               push   %edi
                           .text:01001615 c6 45 0b 04                      movb   $0x4,0xb(%ebp)
                           .text:01001619 e8 1b 19 00 00                   call   0x01002f39
                           .text:0100161e 0f b6 c3                         movzbl %bl,%eax
                           .text:01001621 83 f8 07                         cmp    $0x7,%eax
                           .text:01001624 59                               pop    %ecx
                           .text:01001625 59                               pop    %ecx
                           .text:01001626 89 45 ec                         mov    %eax,-0x14(%ebp)
                           .text:01001629 0f 8e a2 00 00 00                jle    0x010016d1
                           .text:0100162f 6a 04                            push   $0x4
                           .text:01001631 5b                               pop    %ebx
                           .text:01001632 83 7d f8 00                      cmpl   $0x0,-0x8(%ebp)
                           .text:01001636 74 2f                            je     0x01001667
                           .text:01001638 68 42 27 00 00                   push   $0x2742
                           .text:0100163d 57                               push   %edi
                           .text:0100163e e8 f6 18 00 00                   call   0x01002f39
                           .text:01001643 59                               pop    %ecx
                           .text:01001644 59                               pop    %ecx
                           .text:01001645 39 7d f8                         cmp    %edi,-0x8(%ebp)
                           .text:01001648 75 1d                            jne    0x01001667
                           .text:0100164a 68 3f 27 00 00                   push   $0x273f
                           .text:0100164f 57                               push   %edi
                           .text:01001650 e8 e4 18 00 00                   call   0x01002f39
                           .text:01001655 68 49 27 00 00                   push   $0x2749
                           .text:0100165a 57                               push   %edi
                           .text:0100165b e8 d9 18 00 00                   call   0x01002f39
                           .text:01001660 83 c4 10                         add    $0x10,%esp
                           .text:01001663 83 65 f8 00                      andl   $0x0,-0x8(%ebp)
                           .text:01001667 ff 45 f8                         incl   -0x8(%ebp)
                           .text:0100166a 80 7d 0c 00                      cmpb   $0x0,0xc(%ebp)
                           .text:0100166e 8b 5c 33 ff                      mov    -0x1(%ebx,%esi,1),%ebx
                           .text:01001672 89 5d f0                         mov    %ebx,-0x10(%ebp)
                           .text:01001675 74 30                            je     0x010016a7
                           .text:01001677 6a 02                            push   $0x2
                           .text:01001679 6a 04                            push   $0x4
                           .text:0100167b 8d 45 f0                         lea    -0x10(%ebp),%eax
                           .text:0100167e 50                               push   %eax
                           .text:0100167f ff 15 90 10 00 01                call   *0x1001090
                           .text:01001685 ff 75 f0                         pushl  -0x10(%ebp)
                           .text:01001688 8b d8                            mov    %eax,%ebx
                           .text:0100168a ff 15 94 10 00 01                call   *0x1001094
                           .text:01001690 50                               push   %eax
                           .text:01001691 85 db                            test   %ebx,%ebx
                           .text:01001693 74 1a                            je     0x010016af
                           .text:01001695 ff 33                            pushl  (%ebx)
                           .text:01001697 68 4c 27 00 00                   push   $0x274c
                           .text:0100169c 57                               push   %edi
                           .text:0100169d e8 97 18 00 00                   call   0x01002f39
                           .text:010016a2 83 c4 10                         add    $0x10,%esp
                           .text:010016a5 eb 16                            jmp    0x010016bd
                           .text:010016a7 53                               push   %ebx
                           .text:010016a8 ff 15 94 10 00 01                call   *0x1001094
                           .text:010016ae 50                               push   %eax
                           .text:010016af 68 41 27 00 00                   push   $0x2741
                           .text:010016b4 57                               push   %edi
                           .text:010016b5 e8 7f 18 00 00                   call   0x01002f39
                           .text:010016ba 83 c4 0c                         add    $0xc,%esp
                           .text:010016bd 80 45 0b 04                      addb   $0x4,0xb(%ebp)
                           .text:010016c1 0f b6 5d 0b                      movzbl 0xb(%ebp),%ebx
                           .text:010016c5 8d 43 03                         lea    0x3(%ebx),%eax
                           .text:010016c8 3b 45 ec                         cmp    -0x14(%ebp),%eax
                           .text:010016cb 0f 8c 61 ff ff ff                jl     0x01001632
                           .text:010016d1 68 3f 27 00 00                   push   $0x273f
                           .text:010016d6 57                               push   %edi
                           .text:010016d7 e8 5d 18 00 00                   call   0x01002f39
                           .text:010016dc 8b 75 e8                         mov    -0x18(%ebp),%esi
                           .text:010016df eb 10                            jmp    0x010016f1
                           .text:010016e1 68 3e 27 00 00                   push   $0x273e
                           .text:010016e6 6a 01                            push   $0x1
                           .text:010016e8 e8 4c 18 00 00                   call   0x01002f39
                           .text:010016ed c6 45 ff 01                      movb   $0x1,-0x1(%ebp)
                           .text:010016f1 59                               pop    %ecx
                           .text:010016f2 59                               pop    %ecx
                           .text:010016f3 8b 55 e4                         mov    -0x1c(%ebp),%edx
                           .text:010016f6 3b f2                            cmp    %edx,%esi
                           .text:010016f8 0f 82 c5 fc ff ff                jb     0x010013c3
                           .text:010016fe 5f                               pop    %edi
                           .text:010016ff 5b                               pop    %ebx
                           .text:01001700 5e                               pop    %esi
                           .text:01001701 c9                               leave  
                           .text:01001702 c2 08 00                         ret    $0x8
                           .text:01001705 cc                               int3   
                           .text:01001706 cc                               int3   
                           .text:01001707 cc                               int3   
                           .text:01001708 cc                               int3   
                           .text:01001709 cc                               int3   
                           .text:0100170a 8b ff                            mov    %edi,%edi
                           .text:0100170c 55                               push   %ebp
                           .text:0100170d 8b ec                            mov    %esp,%ebp
                           .text:0100170f 83 ec 48                         sub    $0x48,%esp
                           .text:01001712 a1 a4 40 00 01                   mov    0x10040a4,%eax
                           .text:01001717 33 c5                            xor    %ebp,%eax
                           .text:01001719 89 45 fc                         mov    %eax,-0x4(%ebp)
                           .text:0100171c 83 3d c0 50 00 01 00             cmpl   $0x0,0x10050c0
                           .text:01001723 0f 86 90 00 00 00                jbe    0x010017b9
                           .text:01001729 83 3d a0 40 00 01 ff             cmpl   $0xffffffff,0x10040a0
                           .text:01001730 75 07                            jne    0x01001739
                           .text:01001732 83 25 a0 40 00 01 00             andl   $0x0,0x10040a0
                           .text:01001739 56                               push   %esi
                           .text:0100173a 57                               push   %edi
                           .text:0100173b 6a 02                            push   $0x2
                           .text:0100173d 6a 00                            push   $0x0
                           .text:0100173f 6a 00                            push   $0x0
                           .text:01001741 6a 41                            push   $0x41
                           .text:01001743 8d 45 b8                         lea    -0x48(%ebp),%eax
                           .text:01001746 50                               push   %eax
                           .text:01001747 ff 35 88 56 00 01                pushl  0x1005688
                           .text:0100174d 68 e0 55 00 01                   push   $0x10055e0
                           .text:01001752 ff 15 a0 10 00 01                call   *0x10010a0
                           .text:01001758 8b 0d c0 50 00 01                mov    0x10050c0,%ecx
                           .text:0100175e 8b 35 c4 50 00 01                mov    0x10050c4,%esi
                           .text:01001764 8b f9                            mov    %ecx,%edi
                           .text:01001766 2b fe                            sub    %esi,%edi
                           .text:01001768 8b c7                            mov    %edi,%eax
                           .text:0100176a 6b c0 64                         imul   $0x64,%eax,%eax
                           .text:0100176d 33 d2                            xor    %edx,%edx
                           .text:0100176f f7 f1                            div    %ecx
                           .text:01001771 50                               push   %eax
                           .text:01001772 57                               push   %edi
                           .text:01001773 56                               push   %esi
                           .text:01001774 51                               push   %ecx
                           .text:01001775 8d 45 b8                         lea    -0x48(%ebp),%eax
                           .text:01001778 50                               push   %eax
                           .text:01001779 68 4f 27 00 00                   push   $0x274f
                           .text:0100177e 6a 01                            push   $0x1
                           .text:01001780 e8 b4 17 00 00                   call   0x01002f39
                           .text:01001785 8b 0d c8 50 00 01                mov    0x10050c8,%ecx
                           .text:0100178b 83 c4 1c                         add    $0x1c,%esp
                           .text:0100178e 5f                               pop    %edi
                           .text:0100178f 5e                               pop    %esi
                           .text:01001790 85 c9                            test   %ecx,%ecx
                           .text:01001792 76 25                            jbe    0x010017b9
                           .text:01001794 a1 d0 50 00 01                   mov    0x10050d0,%eax
                           .text:01001799 33 d2                            xor    %edx,%edx
                           .text:0100179b f7 f1                            div    %ecx
                           .text:0100179d 50                               push   %eax
                           .text:0100179e ff 35 cc 50 00 01                pushl  0x10050cc
                           .text:010017a4 ff 35 a0 40 00 01                pushl  0x10040a0
                           .text:010017aa 68 53 27 00 00                   push   $0x2753
                           .text:010017af 6a 01                            push   $0x1
                           .text:010017b1 e8 83 17 00 00                   call   0x01002f39
                           .text:010017b6 83 c4 14                         add    $0x14,%esp
                           .text:010017b9 8b 4d fc                         mov    -0x4(%ebp),%ecx
                           .text:010017bc 33 cd                            xor    %ebp,%ecx
                           .text:010017be e8 fe 12 00 00                   call   0x01002ac1
                           .text:010017c3 c9                               leave  
                           .text:010017c4 c3                               ret    
                           .text:010017c5 cc                               int3   
                           .text:010017c6 cc                               int3   
                           .text:010017c7 cc                               int3   
                           .text:010017c8 cc                               int3   
                           .text:010017c9 cc                               int3   
                           .text:010017ca 8b ff                            mov    %edi,%edi
                           .text:010017cc 55                               push   %ebp
                           .text:010017cd 8b ec                            mov    %esp,%ebp
                           .text:010017cf e8 36 ff ff ff                   call   0x0100170a
                           .text:010017d4 8b 45 08                         mov    0x8(%ebp),%eax
                           .text:010017d7 83 e8 00                         sub    $0x0,%eax
                           .text:010017da 74 16                            je     0x010017f2
                           .text:010017dc 48                               dec    %eax
                           .text:010017dd 75 21                            jne    0x01001800
                           .text:010017df 68 50 27 00 00                   push   $0x2750
                           .text:010017e4 6a 01                            push   $0x1
                           .text:010017e6 e8 4e 17 00 00                   call   0x01002f39
                           .text:010017eb 59                               pop    %ecx
                           .text:010017ec 33 c0                            xor    %eax,%eax
                           .text:010017ee 59                               pop    %ecx
                           .text:010017ef 40                               inc    %eax
                           .text:010017f0 eb 10                            jmp    0x01001802
                           .text:010017f2 68 51 27 00 00                   push   $0x2751
                           .text:010017f7 6a 01                            push   $0x1
                           .text:010017f9 e8 3b 17 00 00                   call   0x01002f39
                           .text:010017fe 59                               pop    %ecx
                           .text:010017ff 59                               pop    %ecx
                           .text:01001800 33 c0                            xor    %eax,%eax
                           .text:01001802 5d                               pop    %ebp
                           .text:01001803 c2 04 00                         ret    $0x4
                           .text:01001806 cc                               int3   
                           .text:01001807 cc                               int3   
                           .text:01001808 cc                               int3   
                           .text:01001809 cc                               int3   
                           .text:0100180a cc                               int3   
                           .text:0100180b 8b ff                            mov    %edi,%edi
                           .text:0100180d 55                               push   %ebp
                           .text:0100180e 8b ec                            mov    %esp,%ebp
                           .text:01001810 83 ec 10                         sub    $0x10,%esp
                           .text:01001813 53                               push   %ebx
                           .text:01001814 56                               push   %esi
                           .text:01001815 8d 45 fc                         lea    -0x4(%ebp),%eax
                           .text:01001818 50                               push   %eax
                           .text:01001819 6a 01                            push   $0x1
                           .text:0100181b 33 f6                            xor    %esi,%esi
                           .text:0100181d 56                               push   %esi
                           .text:0100181e 68 5c 11 00 01                   push   $0x100115c
                           .text:01001823 68 02 00 00 80                   push   $0x80000002
                           .text:01001828 89 75 fc                         mov    %esi,-0x4(%ebp)
                           .text:0100182b 89 75 f8                         mov    %esi,-0x8(%ebp)
                           .text:0100182e c7 45 f4 04 00 00 00             movl   $0x4,-0xc(%ebp)
                           .text:01001835 ff 15 04 10 00 01                call   *0x1001004
                           .text:0100183b 85 c0                            test   %eax,%eax
                           .text:0100183d 75 1b                            jne    0x0100185a
                           .text:0100183f 8d 45 f4                         lea    -0xc(%ebp),%eax
                           .text:01001842 50                               push   %eax
                           .text:01001843 8d 45 f8                         lea    -0x8(%ebp),%eax
                           .text:01001846 50                               push   %eax
                           .text:01001847 8d 45 f0                         lea    -0x10(%ebp),%eax
                           .text:0100184a 50                               push   %eax
                           .text:0100184b 56                               push   %esi
                           .text:0100184c 68 50 11 00 01                   push   $0x1001150
                           .text:01001851 ff 75 fc                         pushl  -0x4(%ebp)
                           .text:01001854 ff 15 00 10 00 01                call   *0x1001000
                           .text:0100185a 8b 5d f8                         mov    -0x8(%ebp),%ebx
                           .text:0100185d 3b de                            cmp    %esi,%ebx
                           .text:0100185f 75 02                            jne    0x01001863
                           .text:01001861 b3 80                            mov    $0x80,%bl
                           .text:01001863 39 75 fc                         cmp    %esi,-0x4(%ebp)
                           .text:01001866 74 09                            je     0x01001871
                           .text:01001868 ff 75 fc                         pushl  -0x4(%ebp)
                           .text:0100186b ff 15 08 10 00 01                call   *0x1001008
                           .text:01001871 5e                               pop    %esi
                           .text:01001872 8a c3                            mov    %bl,%al
                           .text:01001874 5b                               pop    %ebx
                           .text:01001875 c9                               leave  
                           .text:01001876 c3                               ret    
                           .text:01001877 cc                               int3   
                           .text:01001878 cc                               int3   
                           .text:01001879 cc                               int3   
                           .text:0100187a cc                               int3   
                           .text:0100187b cc                               int3   
                           .text:0100187c 8b ff                            mov    %edi,%edi
                           .text:0100187e 55                               push   %ebp
                           .text:0100187f 8b ec                            mov    %esp,%ebp
                           .text:01001881 83 ec 20                         sub    $0x20,%esp
                           .text:01001884 57                               push   %edi
                           .text:01001885 6a 08                            push   $0x8
                           .text:01001887 59                               pop    %ecx
                           .text:01001888 33 c0                            xor    %eax,%eax
                           .text:0100188a 8d 7d e0                         lea    -0x20(%ebp),%edi
                           .text:0100188d f3 ab                            rep stos %eax,%es:(%edi)
                           .text:0100188f 8b 45 08                         mov    0x8(%ebp),%eax
                           .text:01001892 89 45 e4                         mov    %eax,-0x1c(%ebp)
                           .text:01001895 8d 45 08                         lea    0x8(%ebp),%eax
                           .text:01001898 50                               push   %eax
                           .text:01001899 8d 45 e0                         lea    -0x20(%ebp),%eax
                           .text:0100189c 50                               push   %eax
                           .text:0100189d 6a 00                            push   $0x0
                           .text:0100189f ff 75 0c                         pushl  0xc(%ebp)
                           .text:010018a2 c7 45 e0 01 00 00 00             movl   $0x1,-0x20(%ebp)
                           .text:010018a9 ff 15 a4 10 00 01                call   *0x10010a4
                           .text:010018af 5f                               pop    %edi
                           .text:010018b0 85 c0                            test   %eax,%eax
                           .text:010018b2 74 04                            je     0x010018b8
                           .text:010018b4 33 c0                            xor    %eax,%eax
                           .text:010018b6 eb 17                            jmp    0x010018cf
                           .text:010018b8 8b 45 08                         mov    0x8(%ebp),%eax
                           .text:010018bb ff 70 10                         pushl  0x10(%eax)
                           .text:010018be ff 70 18                         pushl  0x18(%eax)
                           .text:010018c1 ff 75 10                         pushl  0x10(%ebp)
                           .text:010018c4 e8 ed 11 00 00                   call   0x01002ab6
                           .text:010018c9 33 c0                            xor    %eax,%eax
                           .text:010018cb 83 c4 0c                         add    $0xc,%esp
                           .text:010018ce 40                               inc    %eax
                           .text:010018cf c9                               leave  
                           .text:010018d0 c2 0c 00                         ret    $0xc
                           .text:010018d3 cc                               int3   
                           .text:010018d4 cc                               int3   
                           .text:010018d5 cc                               int3   
                           .text:010018d6 cc                               int3   
                           .text:010018d7 cc                               int3   
                           .text:010018d8 8b ff                            mov    %edi,%edi
                           .text:010018da 55                               push   %ebp
                           .text:010018db 8b ec                            mov    %esp,%ebp
                           .text:010018dd 8b 4d 08                         mov    0x8(%ebp),%ecx
                           .text:010018e0 8b 01                            mov    (%ecx),%eax
                           .text:010018e2 8b 55 0c                         mov    0xc(%ebp),%edx
                           .text:010018e5 85 c0                            test   %eax,%eax
                           .text:010018e7 74 2a                            je     0x01001913
                           .text:010018e9 3b c2                            cmp    %edx,%eax
                           .text:010018eb 74 26                            je     0x01001913
                           .text:010018ed b8 98 11 00 01                   mov    $0x1001198,%eax
                           .text:010018f2 83 fa 02                         cmp    $0x2,%edx
                           .text:010018f5 74 05                            je     0x010018fc
                           .text:010018f7 b8 90 11 00 01                   mov    $0x1001190,%eax
                           .text:010018fc 50                               push   %eax
                           .text:010018fd ff 75 10                         pushl  0x10(%ebp)
                           .text:01001900 68 55 27 00 00                   push   $0x2755
                           .text:01001905 6a 01                            push   $0x1
                           .text:01001907 e8 2d 16 00 00                   call   0x01002f39
                           .text:0100190c 83 c4 10                         add    $0x10,%esp
                           .text:0100190f 32 c0                            xor    %al,%al
                           .text:01001911 eb 04                            jmp    0x01001917
                           .text:01001913 89 11                            mov    %edx,(%ecx)
                           .text:01001915 b0 01                            mov    $0x1,%al
                           .text:01001917 5d                               pop    %ebp
                           .text:01001918 c2 0c 00                         ret    $0xc
                           .text:0100191b cc                               int3   
                           .text:0100191c cc                               int3   
                           .text:0100191d cc                               int3   
                           .text:0100191e cc                               int3   
                           .text:0100191f cc                               int3   
                           .text:01001920 8b ff                            mov    %edi,%edi
                           .text:01001922 55                               push   %ebp
                           .text:01001923 8b ec                            mov    %esp,%ebp
                           .text:01001925 8b 4d 0c                         mov    0xc(%ebp),%ecx
                           .text:01001928 33 c0                            xor    %eax,%eax
                           .text:0100192a 85 c9                            test   %ecx,%ecx
                           .text:0100192c 74 08                            je     0x01001936
                           .text:0100192e 81 f9 ff ff ff 7f                cmp    $0x7fffffff,%ecx
                           .text:01001934 76 05                            jbe    0x0100193b
                           .text:01001936 b8 57 00 07 80                   mov    $0x80070057,%eax
                           .text:0100193b 85 c0                            test   %eax,%eax
                           .text:0100193d 7c 40                            jl     0x0100197f
                           .text:0100193f 8b 45 08                         mov    0x8(%ebp),%eax
                           .text:01001942 53                               push   %ebx
                           .text:01001943 33 db                            xor    %ebx,%ebx
                           .text:01001945 56                               push   %esi
                           .text:01001946 8b f1                            mov    %ecx,%esi
                           .text:01001948 85 c9                            test   %ecx,%ecx
                           .text:0100194a 74 26                            je     0x01001972
                           .text:0100194c 8b 55 10                         mov    0x10(%ebp),%edx
                           .text:0100194f 57                               push   %edi
                           .text:01001950 bf fe ff ff 7f                   mov    $0x7ffffffe,%edi
                           .text:01001955 2b f9                            sub    %ecx,%edi
                           .text:01001957 2b d0                            sub    %eax,%edx
                           .text:01001959 8d 0c 37                         lea    (%edi,%esi,1),%ecx
                           .text:0100195c 85 c9                            test   %ecx,%ecx
                           .text:0100195e 74 0d                            je     0x0100196d
                           .text:01001960 8a 0c 02                         mov    (%edx,%eax,1),%cl
                           .text:01001963 84 c9                            test   %cl,%cl
                           .text:01001965 74 06                            je     0x0100196d
                           .text:01001967 88 08                            mov    %cl,(%eax)
                           .text:01001969 40                               inc    %eax
                           .text:0100196a 4e                               dec    %esi
                           .text:0100196b 75 ec                            jne    0x01001959
                           .text:0100196d 5f                               pop    %edi
                           .text:0100196e 85 f6                            test   %esi,%esi
                           .text:01001970 75 06                            jne    0x01001978
                           .text:01001972 48                               dec    %eax
                           .text:01001973 bb 7a 00 07 80                   mov    $0x8007007a,%ebx
                           .text:01001978 c6 00 00                         movb   $0x0,(%eax)
                           .text:0100197b 5e                               pop    %esi
                           .text:0100197c 8b c3                            mov    %ebx,%eax
                           .text:0100197e 5b                               pop    %ebx
                           .text:0100197f 5d                               pop    %ebp
                           .text:01001980 c2 0c 00                         ret    $0xc
                           .text:01001983 cc                               int3   
                           .text:01001984 cc                               int3   
                           .text:01001985 cc                               int3   
                           .text:01001986 cc                               int3   
                           .text:01001987 cc                               int3   
                           .text:01001988 8b ff                            mov    %edi,%edi
                           .text:0100198a 55                               push   %ebp
                           .text:0100198b 8b ec                            mov    %esp,%ebp
                           .text:0100198d 83 ec 20                         sub    $0x20,%esp
                           .text:01001990 8b 45 18                         mov    0x18(%ebp),%eax
                           .text:01001993 53                               push   %ebx
                           .text:01001994 56                               push   %esi
                           .text:01001995 8b 35 a4 10 00 01                mov    0x10010a4,%esi
                           .text:0100199b 57                               push   %edi
                           .text:0100199c 6a 08                            push   $0x8
                           .text:0100199e 59                               pop    %ecx
                           .text:0100199f 33 db                            xor    %ebx,%ebx
                           .text:010019a1 88 18                            mov    %bl,(%eax)
                           .text:010019a3 33 c0                            xor    %eax,%eax
                           .text:010019a5 8d 7d e0                         lea    -0x20(%ebp),%edi
                           .text:010019a8 f3 ab                            rep stos %eax,%es:(%edi)
                           .text:010019aa 8b 7d 08                         mov    0x8(%ebp),%edi
                           .text:010019ad 8d 45 08                         lea    0x8(%ebp),%eax
                           .text:010019b0 50                               push   %eax
                           .text:010019b1 8d 45 e0                         lea    -0x20(%ebp),%eax
                           .text:010019b4 50                               push   %eax
                           .text:010019b5 53                               push   %ebx
                           .text:010019b6 ff 75 0c                         pushl  0xc(%ebp)
                           .text:010019b9 89 7d e4                         mov    %edi,-0x1c(%ebp)
                           .text:010019bc c7 45 e0 04 00 00 00             movl   $0x4,-0x20(%ebp)
                           .text:010019c3 ff d6                            call   *%esi
                           .text:010019c5 85 c0                            test   %eax,%eax
                           .text:010019c7 75 39                            jne    0x01001a02
                           .text:010019c9 8b 75 14                         mov    0x14(%ebp),%esi
                           .text:010019cc 56                               push   %esi
                           .text:010019cd ff 75 10                         pushl  0x10(%ebp)
                           .text:010019d0 ff 75 08                         pushl  0x8(%ebp)
                           .text:010019d3 57                               push   %edi
                           .text:010019d4 e8 e6 f8 ff ff                   call   0x010012bf
                           .text:010019d9 38 5d 20                         cmp    %bl,0x20(%ebp)
                           .text:010019dc 74 15                            je     0x010019f3
                           .text:010019de 6a 04                            push   $0x4
                           .text:010019e0 53                               push   %ebx
                           .text:010019e1 53                               push   %ebx
                           .text:010019e2 ff 75 1c                         pushl  0x1c(%ebp)
                           .text:010019e5 ff 75 18                         pushl  0x18(%ebp)
                           .text:010019e8 ff 36                            pushl  (%esi)
                           .text:010019ea ff 75 10                         pushl  0x10(%ebp)
                           .text:010019ed ff 15 a0 10 00 01                call   *0x10010a0
                           .text:010019f3 b3 01                            mov    $0x1,%bl
                           .text:010019f5 ff 75 08                         pushl  0x8(%ebp)
                           .text:010019f8 ff 15 8c 10 00 01                call   *0x100108c
                           .text:010019fe 8a c3                            mov    %bl,%al
                           .text:01001a00 eb 4b                            jmp    0x01001a4d
                           .text:01001a02 8d 45 08                         lea    0x8(%ebp),%eax
                           .text:01001a05 50                               push   %eax
                           .text:01001a06 8d 45 e0                         lea    -0x20(%ebp),%eax
                           .text:01001a09 50                               push   %eax
                           .text:01001a0a 53                               push   %ebx
                           .text:01001a0b ff 75 0c                         pushl  0xc(%ebp)
                           .text:01001a0e c7 45 e0 02 00 00 00             movl   $0x2,-0x20(%ebp)
                           .text:01001a15 ff d6                            call   *%esi
                           .text:01001a17 85 c0                            test   %eax,%eax
                           .text:01001a19 75 30                            jne    0x01001a4b
                           .text:01001a1b ff 75 14                         pushl  0x14(%ebp)
                           .text:01001a1e 8b 75 08                         mov    0x8(%ebp),%esi
                           .text:01001a21 ff 75 10                         pushl  0x10(%ebp)
                           .text:01001a24 56                               push   %esi
                           .text:01001a25 57                               push   %edi
                           .text:01001a26 e8 94 f8 ff ff                   call   0x010012bf
                           .text:01001a2b 39 5e 14                         cmp    %ebx,0x14(%esi)
                           .text:01001a2e 74 05                            je     0x01001a35
                           .text:01001a30 8b 76 14                         mov    0x14(%esi),%esi
                           .text:01001a33 eb 03                            jmp    0x01001a38
                           .text:01001a35 8b 75 0c                         mov    0xc(%ebp),%esi
                           .text:01001a38 56                               push   %esi
                           .text:01001a39 ff 75 1c                         pushl  0x1c(%ebp)
                           .text:01001a3c ff 75 18                         pushl  0x18(%ebp)
                           .text:01001a3f e8 dc fe ff ff                   call   0x01001920
                           .text:01001a44 85 c0                            test   %eax,%eax
                           .text:01001a46 0f 9d c3                         setge  %bl
                           .text:01001a49 eb aa                            jmp    0x010019f5
                           .text:01001a4b 32 c0                            xor    %al,%al
                           .text:01001a4d 5f                               pop    %edi
                           .text:01001a4e 5e                               pop    %esi
                           .text:01001a4f 5b                               pop    %ebx
                           .text:01001a50 c9                               leave  
                           .text:01001a51 c2 1c 00                         ret    $0x1c
                           .text:01001a54 cc                               int3   
                           .text:01001a55 cc                               int3   
                           .text:01001a56 cc                               int3   
                           .text:01001a57 cc                               int3   
                           .text:01001a58 cc                               int3   
                           .text:01001a59 8b ff                            mov    %edi,%edi
                           .text:01001a5b 55                               push   %ebp
                           .text:01001a5c 8b ec                            mov    %esp,%ebp
                           .text:01001a5e 81 ec 20 05 00 00                sub    $0x520,%esp
                           .text:01001a64 a1 a4 40 00 01                   mov    0x10040a4,%eax
                           .text:01001a69 33 c5                            xor    %ebp,%eax
                           .text:01001a6b 89 45 fc                         mov    %eax,-0x4(%ebp)
                           .text:01001a6e 53                               push   %ebx
                           .text:01001a6f 8b 5d 0c                         mov    0xc(%ebp),%ebx
                           .text:01001a72 56                               push   %esi
                           .text:01001a73 33 f6                            xor    %esi,%esi
                           .text:01001a75 57                               push   %edi
                           .text:01001a76 56                               push   %esi
                           .text:01001a77 89 9d 14 fb ff ff                mov    %ebx,-0x4ec(%ebp)
                           .text:01001a7d 89 b5 e0 fa ff ff                mov    %esi,-0x520(%ebp)
                           .text:01001a83 89 b5 04 fb ff ff                mov    %esi,-0x4fc(%ebp)
                           .text:01001a89 89 b5 ec fa ff ff                mov    %esi,-0x514(%ebp)
                           .text:01001a8f c6 85 00 fb ff ff 00             movb   $0x0,-0x500(%ebp)
                           .text:01001a96 c7 85 f8 fa ff ff 04 00 00 00    movl   $0x4,-0x508(%ebp)
                           .text:01001aa0 89 b5 20 fb ff ff                mov    %esi,-0x4e0(%ebp)
                           .text:01001aa6 89 b5 2c fb ff ff                mov    %esi,-0x4d4(%ebp)
                           .text:01001aac c6 85 27 fb ff ff 00             movb   $0x0,-0x4d9(%ebp)
                           .text:01001ab3 c6 85 33 fb ff ff 00             movb   $0x0,-0x4cd(%ebp)
                           .text:01001aba c7 85 f4 fa ff ff a0 0f 00 00    movl   $0xfa0,-0x50c(%ebp)
                           .text:01001ac4 89 b5 18 fb ff ff                mov    %esi,-0x4e8(%ebp)
                           .text:01001aca 89 b5 0c fb ff ff                mov    %esi,-0x4f4(%ebp)
                           .text:01001ad0 c7 85 08 fb ff ff 20 00 00 00    movl   $0x20,-0x4f8(%ebp)
                           .text:01001ada 89 b5 10 fb ff ff                mov    %esi,-0x4f0(%ebp)
                           .text:01001ae0 c7 85 fc fa ff ff 01 00 00 00    movl   $0x1,-0x504(%ebp)
                           .text:01001aea ff 15 7c 10 00 01                call   *0x100107c
                           .text:01001af0 56                               push   %esi
                           .text:01001af1 56                               push   %esi
                           .text:01001af2 6a 01                            push   $0x1
                           .text:01001af4 56                               push   %esi
                           .text:01001af5 ff 15 78 10 00 01                call   *0x1001078
                           .text:01001afb 68 40 54 00 01                   push   $0x1005440
                           .text:01001b00 6a 02                            push   $0x2
                           .text:01001b02 ff 15 9c 10 00 01                call   *0x100109c
                           .text:01001b08 3b c6                            cmp    %esi,%eax
                           .text:01001b0a 74 1e                            je     0x01001b2a
                           .text:01001b0c 50                               push   %eax
                           .text:01001b0d e8 64 f7 ff ff                   call   0x01001276
                           .text:01001b12 50                               push   %eax
                           .text:01001b13 68 4a 27 00 00                   push   $0x274a
                           .text:01001b18 6a 01                            push   $0x1
                           .text:01001b1a e8 1a 14 00 00                   call   0x01002f39
                           .text:01001b1f 83 c4 0c                         add    $0xc,%esp
                           .text:01001b22 6a 01                            push   $0x1
                           .text:01001b24 ff 15 d4 10 00 01                call   *0x10010d4
                           .text:01001b2a 68 80 00 00 00                   push   $0x80
                           .text:01001b2f 8d 85 34 fb ff ff                lea    -0x4cc(%ebp),%eax
                           .text:01001b35 56                               push   %esi
                           .text:01001b36 50                               push   %eax
                           .text:01001b37 e8 9a 0f 00 00                   call   0x01002ad6
                           .text:01001b3c 68 01 04 00 00                   push   $0x401
                           .text:01001b41 8d 85 b4 fb ff ff                lea    -0x44c(%ebp),%eax
                           .text:01001b47 56                               push   %esi
                           .text:01001b48 50                               push   %eax
                           .text:01001b49 e8 88 0f 00 00                   call   0x01002ad6
                           .text:01001b4e 6a 41                            push   $0x41
                           .text:01001b50 8d 45 b8                         lea    -0x48(%ebp),%eax
                           .text:01001b53 56                               push   %esi
                           .text:01001b54 50                               push   %eax
                           .text:01001b55 e8 7c 0f 00 00                   call   0x01002ad6
                           .text:01001b5a 83 c4 24                         add    $0x24,%esp
                           .text:01001b5d e8 a9 fc ff ff                   call   0x0100180b
                           .text:01001b62 83 7d 08 02                      cmpl   $0x2,0x8(%ebp)
                           .text:01001b66 88 85 1f fb ff ff                mov    %al,-0x4e1(%ebp)
                           .text:01001b6c 7d 0a                            jge    0x01001b78
                           .text:01001b6e e8 38 f7 ff ff                   call   0x010012ab
                           .text:01001b73 e9 85 0c 00 00                   jmp    0x010027fd
                           .text:01001b78 33 ff                            xor    %edi,%edi
                           .text:01001b7a 47                               inc    %edi
                           .text:01001b7b 39 7d 08                         cmp    %edi,0x8(%ebp)
                           .text:01001b7e 0f 86 8c 00 00 00                jbe    0x01001c10
                           .text:01001b84 8b 0c bb                         mov    (%ebx,%edi,4),%ecx
                           .text:01001b87 89 8d 28 fb ff ff                mov    %ecx,-0x4d8(%ebp)
                           .text:01001b8d 8a 01                            mov    (%ecx),%al
                           .text:01001b8f 3c 2d                            cmp    $0x2d,%al
                           .text:01001b91 74 04                            je     0x01001b97
                           .text:01001b93 3c 2f                            cmp    $0x2f,%al
                           .text:01001b95 75 4e                            jne    0x01001be5
                           .text:01001b97 0f be 41 01                      movsbl 0x1(%ecx),%eax
                           .text:01001b9b 83 f8 66                         cmp    $0x66,%eax
                           .text:01001b9e 7f 15                            jg     0x01001bb5
                           .text:01001ba0 74 2c                            je     0x01001bce
                           .text:01001ba2 83 e8 34                         sub    $0x34,%eax
                           .text:01001ba5 74 27                            je     0x01001bce
                           .text:01001ba7 48                               dec    %eax
                           .text:01001ba8 48                               dec    %eax
                           .text:01001ba9 74 05                            je     0x01001bb0
                           .text:01001bab 83 e8 1c                         sub    $0x1c,%eax
                           .text:01001bae 75 35                            jne    0x01001be5
                           .text:01001bb0 51                               push   %ecx
                           .text:01001bb1 6a 17                            push   $0x17
                           .text:01001bb3 eb 1c                            jmp    0x01001bd1
                           .text:01001bb5 83 f8 6a                         cmp    $0x6a,%eax
                           .text:01001bb8 7c 2b                            jl     0x01001be5
                           .text:01001bba 83 f8 6b                         cmp    $0x6b,%eax
                           .text:01001bbd 7e 0f                            jle    0x01001bce
                           .text:01001bbf 83 f8 71                         cmp    $0x71,%eax
                           .text:01001bc2 7e 21                            jle    0x01001be5
                           .text:01001bc4 83 f8 73                         cmp    $0x73,%eax
                           .text:01001bc7 7e 05                            jle    0x01001bce
                           .text:01001bc9 83 f8 76                         cmp    $0x76,%eax
                           .text:01001bcc 75 17                            jne    0x01001be5
                           .text:01001bce 51                               push   %ecx
                           .text:01001bcf 6a 02                            push   $0x2
                           .text:01001bd1 8d 85 10 fb ff ff                lea    -0x4f0(%ebp),%eax
                           .text:01001bd7 50                               push   %eax
                           .text:01001bd8 e8 fb fc ff ff                   call   0x010018d8
                           .text:01001bdd 84 c0                            test   %al,%al
                           .text:01001bdf 0f 84 18 0c 00 00                je     0x010027fd
                           .text:01001be5 47                               inc    %edi
                           .text:01001be6 3b 7d 08                         cmp    0x8(%ebp),%edi
                           .text:01001be9 72 99                            jb     0x01001b84
                           .text:01001beb 83 bd 10 fb ff ff 02             cmpl   $0x2,-0x4f0(%ebp)
                           .text:01001bf2 75 1c                            jne    0x01001c10
                           .text:01001bf4 e8 d0 13 00 00                   call   0x01002fc9
                           .text:01001bf9 84 c0                            test   %al,%al
                           .text:01001bfb 75 13                            jne    0x01001c10
                           .text:01001bfd 68 5c 27 00 00                   push   $0x275c
                           .text:01001c02 6a 01                            push   $0x1
                           .text:01001c04 e8 30 13 00 00                   call   0x01002f39
                           .text:01001c09 59                               pop    %ecx
                           .text:01001c0a 59                               pop    %ecx
                           .text:01001c0b e9 12 ff ff ff                   jmp    0x01001b22
                           .text:01001c10 8b 55 08                         mov    0x8(%ebp),%edx
                           .text:01001c13 33 ff                            xor    %edi,%edi
                           .text:01001c15 47                               inc    %edi
                           .text:01001c16 3b d7                            cmp    %edi,%edx
                           .text:01001c18 0f 86 3f 05 00 00                jbe    0x0100215d
                           .text:01001c1e 8b 0c bb                         mov    (%ebx,%edi,4),%ecx
                           .text:01001c21 89 8d 28 fb ff ff                mov    %ecx,-0x4d8(%ebp)
                           .text:01001c27 8a 01                            mov    (%ecx),%al
                           .text:01001c29 3c 2d                            cmp    $0x2d,%al
                           .text:01001c2b 74 6d                            je     0x01001c9a
                           .text:01001c2d 3c 2f                            cmp    $0x2f,%al
                           .text:01001c2f 74 69                            je     0x01001c9a
                           .text:01001c31 83 bd ec fa ff ff 00             cmpl   $0x0,-0x514(%ebp)
                           .text:01001c38 0f 85 a0 04 00 00                jne    0x010020de
                           .text:01001c3e ff b5 00 fb ff ff                pushl  -0x500(%ebp)
                           .text:01001c44 8d 85 b4 fb ff ff                lea    -0x44c(%ebp),%eax
                           .text:01001c4a 68 01 04 00 00                   push   $0x401
                           .text:01001c4f 50                               push   %eax
                           .text:01001c50 68 88 56 00 01                   push   $0x1005688
                           .text:01001c55 68 e0 55 00 01                   push   $0x10055e0
                           .text:01001c5a 51                               push   %ecx
                           .text:01001c5b ff b5 10 fb ff ff                pushl  -0x4f0(%ebp)
                           .text:01001c61 e8 22 fd ff ff                   call   0x01001988
                           .text:01001c66 84 c0                            test   %al,%al
                           .text:01001c68 0f 84 85 04 00 00                je     0x010020f3
                           .text:01001c6e 66 83 3d e0 55 00 01 02          cmpw   $0x2,0x10055e0
                           .text:01001c76 75 0d                            jne    0x01001c85
                           .text:01001c78 83 3d e4 55 00 01 ff             cmpl   $0xffffffff,0x10055e4
                           .text:01001c7f 0f 84 6e 04 00 00                je     0x010020f3
                           .text:01001c85 c7 85 ec fa ff ff 01 00 00 00    movl   $0x1,-0x514(%ebp)
                           .text:01001c8f 89 bd 04 fb ff ff                mov    %edi,-0x4fc(%ebp)
                           .text:01001c95 e9 36 04 00 00                   jmp    0x010020d0
                           .text:01001c9a 0f be 41 01                      movsbl 0x1(%ecx),%eax
                           .text:01001c9e 83 f8 6a                         cmp    $0x6a,%eax
                           .text:01001ca1 0f 8f bc 01 00 00                jg     0x01001e63
                           .text:01001ca7 0f 84 af 00 00 00                je     0x01001d5c
                           .text:01001cad 83 f8 53                         cmp    $0x53,%eax
                           .text:01001cb0 7f 63                            jg     0x01001d15
                           .text:01001cb2 74 2f                            je     0x01001ce3
                           .text:01001cb4 83 e8 34                         sub    $0x34,%eax
                           .text:01001cb7 0f 84 13 04 00 00                je     0x010020d0
                           .text:01001cbd 48                               dec    %eax
                           .text:01001cbe 48                               dec    %eax
                           .text:01001cbf 0f 84 0b 04 00 00                je     0x010020d0
                           .text:01001cc5 83 e8 09                         sub    $0x9,%eax
                           .text:01001cc8 0f 84 32 04 00 00                je     0x01002100
                           .text:01001cce 83 e8 13                         sub    $0x13,%eax
                           .text:01001cd1 0f 85 68 04 00 00                jne    0x0100213f
                           .text:01001cd7 80 8d 33 fb ff ff 01             orb    $0x1,-0x4cd(%ebp)
                           .text:01001cde e9 ed 03 00 00                   jmp    0x010020d0
                           .text:01001ce3 4a                               dec    %edx
                           .text:01001ce4 3b fa                            cmp    %edx,%edi
                           .text:01001ce6 0f 84 20 04 00 00                je     0x0100210c
                           .text:01001cec 8d 85 34 fb ff ff                lea    -0x4cc(%ebp),%eax
                           .text:01001cf2 50                               push   %eax
                           .text:01001cf3 47                               inc    %edi
                           .text:01001cf4 ff 34 bb                         pushl  (%ebx,%edi,4)
                           .text:01001cf7 ff b5 10 fb ff ff                pushl  -0x4f0(%ebp)
                           .text:01001cfd e8 7a fb ff ff                   call   0x0100187c
                           .text:01001d02 85 c0                            test   %eax,%eax
                           .text:01001d04 0f 84 0a 04 00 00                je     0x01002114
                           .text:01001d0a 89 bd e0 fa ff ff                mov    %edi,-0x520(%ebp)
                           .text:01001d10 e9 bb 03 00 00                   jmp    0x010020d0
                           .text:01001d15 83 f8 61                         cmp    $0x61,%eax
                           .text:01001d18 74 36                            je     0x01001d50
                           .text:01001d1a 83 f8 66                         cmp    $0x66,%eax
                           .text:01001d1d 74 25                            je     0x01001d44
                           .text:01001d1f 83 f8 69                         cmp    $0x69,%eax
                           .text:01001d22 0f 85 17 04 00 00                jne    0x0100213f
                           .text:01001d28 68 ff 00 00 00                   push   $0xff
                           .text:01001d2d 6a 01                            push   $0x1
                           .text:01001d2f 57                               push   %edi
                           .text:01001d30 ff 75 08                         pushl  0x8(%ebp)
                           .text:01001d33 53                               push   %ebx
                           .text:01001d34 e8 f2 f5 ff ff                   call   0x0100132b
                           .text:01001d39 88 85 1f fb ff ff                mov    %al,-0x4e1(%ebp)
                           .text:01001d3f e9 d0 01 00 00                   jmp    0x01001f14
                           .text:01001d44 80 8d 33 fb ff ff 02             orb    $0x2,-0x4cd(%ebp)
                           .text:01001d4b e9 80 03 00 00                   jmp    0x010020d0
                           .text:01001d50 c6 85 00 fb ff ff 01             movb   $0x1,-0x500(%ebp)
                           .text:01001d57 e9 74 03 00 00                   jmp    0x010020d0
                           .text:01001d5c 83 bd 18 fb ff ff 00             cmpl   $0x0,-0x4e8(%ebp)
                           .text:01001d63 0f 85 b5 03 00 00                jne    0x0100211e
                           .text:01001d69 8d 46 03                         lea    0x3(%esi),%eax
                           .text:01001d6c 83 f8 28                         cmp    $0x28,%eax
                           .text:01001d6f 0f 8f bc 03 00 00                jg     0x01002131
                           .text:01001d75 83 85 2c fb ff ff 03             addl   $0x3,-0x4d4(%ebp)
                           .text:01001d7c c7 85 20 fb ff ff 60 56 00 01    movl   $0x1005660,-0x4e0(%ebp)
                           .text:01001d86 c6 86 60 56 00 01 83             movb   $0x83,0x1005660(%esi)
                           .text:01001d8d c6 86 61 56 00 01 03             movb   $0x3,0x1005661(%esi)
                           .text:01001d94 c6 86 62 56 00 01 04             movb   $0x4,0x1005662(%esi)
                           .text:01001d9b 8d 42 fe                         lea    -0x2(%edx),%eax
                           .text:01001d9e e9 a0 00 00 00                   jmp    0x01001e43
                           .text:01001da3 8b 44 bb 04                      mov    0x4(%ebx,%edi,4),%eax
                           .text:01001da7 80 38 2d                         cmpb   $0x2d,(%eax)
                           .text:01001daa 0f 84 9b 00 00 00                je     0x01001e4b
                           .text:01001db0 8d 46 03                         lea    0x3(%esi),%eax
                           .text:01001db3 83 f8 24                         cmp    $0x24,%eax
                           .text:01001db6 0f 8f 75 03 00 00                jg     0x01002131
                           .text:01001dbc 47                               inc    %edi
                           .text:01001dbd 8b 04 bb                         mov    (%ebx,%edi,4),%eax
                           .text:01001dc0 89 85 28 fb ff ff                mov    %eax,-0x4d8(%ebp)
                           .text:01001dc6 8d 8d f0 fa ff ff                lea    -0x510(%ebp),%ecx
                           .text:01001dcc 51                               push   %ecx
                           .text:01001dcd 8d 8d 28 fb ff ff                lea    -0x4d8(%ebp),%ecx
                           .text:01001dd3 51                               push   %ecx
                           .text:01001dd4 6a 01                            push   $0x1
                           .text:01001dd6 50                               push   %eax
                           .text:01001dd7 ff 15 00 11 00 01                call   *0x1001100
                           .text:01001ddd 85 c0                            test   %eax,%eax
                           .text:01001ddf 0f 8c 53 03 00 00                jl     0x01002138
                           .text:01001de5 8b 95 f0 fa ff ff                mov    -0x510(%ebp),%edx
                           .text:01001deb 83 85 2c fb ff ff 04             addl   $0x4,-0x4d4(%ebp)
                           .text:01001df2 8d 86 61 56 00 01                lea    0x1005661(%esi),%eax
                           .text:01001df8 0f b6 08                         movzbl (%eax),%ecx
                           .text:01001dfb 89 94 31 60 56 00 01             mov    %edx,0x1005660(%ecx,%esi,1)
                           .text:01001e02 80 00 04                         addb   $0x4,(%eax)
                           .text:01001e05 8b 85 28 fb ff ff                mov    -0x4d8(%ebp),%eax
                           .text:01001e0b 8a 00                            mov    (%eax),%al
                           .text:01001e0d 84 c0                            test   %al,%al
                           .text:01001e0f 74 2c                            je     0x01001e3d
                           .text:01001e11 0f b6 c0                         movzbl %al,%eax
                           .text:01001e14 50                               push   %eax
                           .text:01001e15 ff 15 d0 10 00 01                call   *0x10010d0
                           .text:01001e1b 59                               pop    %ecx
                           .text:01001e1c 85 c0                            test   %eax,%eax
                           .text:01001e1e 74 12                            je     0x01001e32
                           .text:01001e20 ff 85 28 fb ff ff                incl   -0x4d8(%ebp)
                           .text:01001e26 8b 85 28 fb ff ff                mov    -0x4d8(%ebp),%eax
                           .text:01001e2c 8a 00                            mov    (%eax),%al
                           .text:01001e2e 84 c0                            test   %al,%al
                           .text:01001e30 75 df                            jne    0x01001e11
                           .text:01001e32 8b 85 28 fb ff ff                mov    -0x4d8(%ebp),%eax
                           .text:01001e38 80 38 00                         cmpb   $0x0,(%eax)
                           .text:01001e3b 75 89                            jne    0x01001dc6
                           .text:01001e3d 8b 45 08                         mov    0x8(%ebp),%eax
                           .text:01001e40 83 c0 fe                         add    $0xfffffffe,%eax
                           .text:01001e43 3b f8                            cmp    %eax,%edi
                           .text:01001e45 0f 82 58 ff ff ff                jb     0x01001da3
                           .text:01001e4b 0f b6 86 61 56 00 01             movzbl 0x1005661(%esi),%eax
                           .text:01001e52 03 f0                            add    %eax,%esi
                           .text:01001e54 c7 85 18 fb ff ff 01 00 00 00    movl   $0x1,-0x4e8(%ebp)
                           .text:01001e5e e9 6d 02 00 00                   jmp    0x010020d0
                           .text:01001e63 83 f8 73                         cmp    $0x73,%eax
                           .text:01001e66 0f 8f 19 02 00 00                jg     0x01002085
                           .text:01001e6c 0f 84 be 01 00 00                je     0x01002030
                           .text:01001e72 83 e8 6b                         sub    $0x6b,%eax
                           .text:01001e75 0f 84 9f 00 00 00                je     0x01001f1a
                           .text:01001e7b 48                               dec    %eax
                           .text:01001e7c 74 7f                            je     0x01001efd
                           .text:01001e7e 48                               dec    %eax
                           .text:01001e7f 48                               dec    %eax
                           .text:01001e80 74 65                            je     0x01001ee7
                           .text:01001e82 83 e8 04                         sub    $0x4,%eax
                           .text:01001e85 0f 85 b4 02 00 00                jne    0x0100213f
                           .text:01001e8b 8d 46 03                         lea    0x3(%esi),%eax
                           .text:01001e8e 83 f8 28                         cmp    $0x28,%eax
                           .text:01001e91 0f 8f 9a 02 00 00                jg     0x01002131
                           .text:01001e97 6a 09                            push   $0x9
                           .text:01001e99 6a 01                            push   $0x1
                           .text:01001e9b 8b c7                            mov    %edi,%eax
                           .text:01001e9d 50                               push   %eax
                           .text:01001e9e ff 75 08                         pushl  0x8(%ebp)
                           .text:01001ea1 c7 85 20 fb ff ff 60 56 00 01    movl   $0x1005660,-0x4e0(%ebp)
                           .text:01001eab 53                               push   %ebx
                           .text:01001eac c6 86 60 56 00 01 07             movb   $0x7,0x1005660(%esi)
                           .text:01001eb3 c6 86 62 56 00 01 04             movb   $0x4,0x1005662(%esi)
                           .text:01001eba 47                               inc    %edi
                           .text:01001ebb e8 6b f4 ff ff                   call   0x0100132b
                           .text:01001ec0 c0 e0 02                         shl    $0x2,%al
                           .text:01001ec3 04 03                            add    $0x3,%al
                           .text:01001ec5 0f b6 c8                         movzbl %al,%ecx
                           .text:01001ec8 8d 14 31                         lea    (%ecx,%esi,1),%edx
                           .text:01001ecb 83 fa 28                         cmp    $0x28,%edx
                           .text:01001ece 0f 8f 5d 02 00 00                jg     0x01002131
                           .text:01001ed4 01 8d 2c fb ff ff                add    %ecx,-0x4d4(%ebp)
                           .text:01001eda 88 86 61 56 00 01                mov    %al,0x1005661(%esi)
                           .text:01001ee0 8b f2                            mov    %edx,%esi
                           .text:01001ee2 e9 e9 01 00 00                   jmp    0x010020d0
                           .text:01001ee7 6a ff                            push   $0xffffffff
                           .text:01001ee9 6a 01                            push   $0x1
                           .text:01001eeb 57                               push   %edi
                           .text:01001eec ff 75 08                         pushl  0x8(%ebp)
                           .text:01001eef 53                               push   %ebx
                           .text:01001ef0 e8 36 f4 ff ff                   call   0x0100132b
                           .text:01001ef5 89 85 f8 fa ff ff                mov    %eax,-0x508(%ebp)
                           .text:01001efb eb 17                            jmp    0x01001f14
                           .text:01001efd 68 dc ff 00 00                   push   $0xffdc
                           .text:01001f02 6a 00                            push   $0x0
                           .text:01001f04 57                               push   %edi
                           .text:01001f05 ff 75 08                         pushl  0x8(%ebp)
                           .text:01001f08 53                               push   %ebx
                           .text:01001f09 e8 1d f4 ff ff                   call   0x0100132b
                           .text:01001f0e 89 85 08 fb ff ff                mov    %eax,-0x4f8(%ebp)
                           .text:01001f14 47                               inc    %edi
                           .text:01001f15 e9 b6 01 00 00                   jmp    0x010020d0
                           .text:01001f1a 83 bd 18 fb ff ff 00             cmpl   $0x0,-0x4e8(%ebp)
                           .text:01001f21 0f 85 f7 01 00 00                jne    0x0100211e
                           .text:01001f27 8d 46 03                         lea    0x3(%esi),%eax
                           .text:01001f2a 83 f8 28                         cmp    $0x28,%eax
                           .text:01001f2d 0f 8f fe 01 00 00                jg     0x01002131
                           .text:01001f33 8b 5d 08                         mov    0x8(%ebp),%ebx
                           .text:01001f36 83 85 2c fb ff ff 03             addl   $0x3,-0x4d4(%ebp)
                           .text:01001f3d c7 85 20 fb ff ff 60 56 00 01    movl   $0x1005660,-0x4e0(%ebp)
                           .text:01001f47 c6 86 60 56 00 01 89             movb   $0x89,0x1005660(%esi)
                           .text:01001f4e c6 86 61 56 00 01 03             movb   $0x3,0x1005661(%esi)
                           .text:01001f55 c6 86 62 56 00 01 04             movb   $0x4,0x1005662(%esi)
                           .text:01001f5c 83 c3 fe                         add    $0xfffffffe,%ebx
                           .text:01001f5f e9 a6 00 00 00                   jmp    0x0100200a
                           .text:01001f64 8b 85 14 fb ff ff                mov    -0x4ec(%ebp),%eax
                           .text:01001f6a 8b 44 b8 04                      mov    0x4(%eax,%edi,4),%eax
                           .text:01001f6e 80 38 2d                         cmpb   $0x2d,(%eax)
                           .text:01001f71 0f 84 9b 00 00 00                je     0x01002012
                           .text:01001f77 8d 46 03                         lea    0x3(%esi),%eax
                           .text:01001f7a 83 f8 24                         cmp    $0x24,%eax
                           .text:01001f7d 0f 8f ae 01 00 00                jg     0x01002131
                           .text:01001f83 8b 85 14 fb ff ff                mov    -0x4ec(%ebp),%eax
                           .text:01001f89 47                               inc    %edi
                           .text:01001f8a 8b 04 b8                         mov    (%eax,%edi,4),%eax
                           .text:01001f8d 89 85 28 fb ff ff                mov    %eax,-0x4d8(%ebp)
                           .text:01001f93 8d 8d f0 fa ff ff                lea    -0x510(%ebp),%ecx
                           .text:01001f99 51                               push   %ecx
                           .text:01001f9a 8d 8d 28 fb ff ff                lea    -0x4d8(%ebp),%ecx
                           .text:01001fa0 51                               push   %ecx
                           .text:01001fa1 6a 01                            push   $0x1
                           .text:01001fa3 50                               push   %eax
                           .text:01001fa4 ff 15 00 11 00 01                call   *0x1001100
                           .text:01001faa 85 c0                            test   %eax,%eax
                           .text:01001fac 0f 8c 86 01 00 00                jl     0x01002138
                           .text:01001fb2 8b 95 f0 fa ff ff                mov    -0x510(%ebp),%edx
                           .text:01001fb8 83 85 2c fb ff ff 04             addl   $0x4,-0x4d4(%ebp)
                           .text:01001fbf 8d 86 61 56 00 01                lea    0x1005661(%esi),%eax
                           .text:01001fc5 0f b6 08                         movzbl (%eax),%ecx
                           .text:01001fc8 89 94 31 60 56 00 01             mov    %edx,0x1005660(%ecx,%esi,1)
                           .text:01001fcf 80 00 04                         addb   $0x4,(%eax)
                           .text:01001fd2 8b 85 28 fb ff ff                mov    -0x4d8(%ebp),%eax
                           .text:01001fd8 8a 00                            mov    (%eax),%al
                           .text:01001fda 84 c0                            test   %al,%al
                           .text:01001fdc 74 2c                            je     0x0100200a
                           .text:01001fde 0f b6 c0                         movzbl %al,%eax
                           .text:01001fe1 50                               push   %eax
                           .text:01001fe2 ff 15 d0 10 00 01                call   *0x10010d0
                           .text:01001fe8 59                               pop    %ecx
                           .text:01001fe9 85 c0                            test   %eax,%eax
                           .text:01001feb 74 12                            je     0x01001fff
                           .text:01001fed ff 85 28 fb ff ff                incl   -0x4d8(%ebp)
                           .text:01001ff3 8b 85 28 fb ff ff                mov    -0x4d8(%ebp),%eax
                           .text:01001ff9 8a 00                            mov    (%eax),%al
                           .text:01001ffb 84 c0                            test   %al,%al
                           .text:01001ffd 75 df                            jne    0x01001fde
                           .text:01001fff 8b 85 28 fb ff ff                mov    -0x4d8(%ebp),%eax
                           .text:01002005 80 38 00                         cmpb   $0x0,(%eax)
                           .text:01002008 75 89                            jne    0x01001f93
                           .text:0100200a 3b fb                            cmp    %ebx,%edi
                           .text:0100200c 0f 82 52 ff ff ff                jb     0x01001f64
                           .text:01002012 0f b6 86 61 56 00 01             movzbl 0x1005661(%esi),%eax
                           .text:01002019 8b 9d 14 fb ff ff                mov    -0x4ec(%ebp),%ebx
                           .text:0100201f 03 f0                            add    %eax,%esi
                           .text:01002021 c7 85 18 fb ff ff 01 00 00 00    movl   $0x1,-0x4e8(%ebp)
                           .text:0100202b e9 a0 00 00 00                   jmp    0x010020d0
                           .text:01002030 8d 46 04                         lea    0x4(%esi),%eax
                           .text:01002033 83 f8 28                         cmp    $0x28,%eax
                           .text:01002036 0f 8f f5 00 00 00                jg     0x01002131
                           .text:0100203c 6a 04                            push   $0x4
                           .text:0100203e 6a 01                            push   $0x1
                           .text:01002040 8b c7                            mov    %edi,%eax
                           .text:01002042 50                               push   %eax
                           .text:01002043 ff 75 08                         pushl  0x8(%ebp)
                           .text:01002046 c7 85 20 fb ff ff 60 56 00 01    movl   $0x1005660,-0x4e0(%ebp)
                           .text:01002050 53                               push   %ebx
                           .text:01002051 c6 86 60 56 00 01 44             movb   $0x44,0x1005660(%esi)
                           .text:01002058 c6 86 62 56 00 01 05             movb   $0x5,0x1005662(%esi)
                           .text:0100205f 47                               inc    %edi
                           .text:01002060 e8 c6 f2 ff ff                   call   0x0100132b
                           .text:01002065 c0 e0 03                         shl    $0x3,%al
                           .text:01002068 04 04                            add    $0x4,%al
                           .text:0100206a 0f b6 c8                         movzbl %al,%ecx
                           .text:0100206d 8d 14 31                         lea    (%ecx,%esi,1),%edx
                           .text:01002070 83 fa 28                         cmp    $0x28,%edx
                           .text:01002073 0f 8f b8 00 00 00                jg     0x01002131
                           .text:01002079 c6 86 63 56 00 01 01             movb   $0x1,0x1005663(%esi)
                           .text:01002080 e9 4f fe ff ff                   jmp    0x01001ed4
                           .text:01002085 83 e8 74                         sub    $0x74,%eax
                           .text:01002088 74 3f                            je     0x010020c9
                           .text:0100208a 48                               dec    %eax
                           .text:0100208b 48                               dec    %eax
                           .text:0100208c 74 1f                            je     0x010020ad
                           .text:0100208e 48                               dec    %eax
                           .text:0100208f 0f 85 aa 00 00 00                jne    0x0100213f
                           .text:01002095 6a ff                            push   $0xffffffff
                           .text:01002097 50                               push   %eax
                           .text:01002098 57                               push   %edi
                           .text:01002099 ff 75 08                         pushl  0x8(%ebp)
                           .text:0100209c 53                               push   %ebx
                           .text:0100209d e8 89 f2 ff ff                   call   0x0100132b
                           .text:010020a2 89 85 f4 fa ff ff                mov    %eax,-0x50c(%ebp)
                           .text:010020a8 e9 67 fe ff ff                   jmp    0x01001f14
                           .text:010020ad 68 ff 00 00 00                   push   $0xff
                           .text:010020b2 6a 00                            push   $0x0
                           .text:010020b4 57                               push   %edi
                           .text:010020b5 ff 75 08                         pushl  0x8(%ebp)
                           .text:010020b8 53                               push   %ebx
                           .text:010020b9 e8 6d f2 ff ff                   call   0x0100132b
                           .text:010020be 88 85 27 fb ff ff                mov    %al,-0x4d9(%ebp)
                           .text:010020c4 e9 4b fe ff ff                   jmp    0x01001f14
                           .text:010020c9 83 8d f8 fa ff ff ff             orl    $0xffffffff,-0x508(%ebp)
                           .text:010020d0 47                               inc    %edi
                           .text:010020d1 3b 7d 08                         cmp    0x8(%ebp),%edi
                           .text:010020d4 73 7e                            jae    0x01002154
                           .text:010020d6 8b 55 08                         mov    0x8(%ebp),%edx
                           .text:010020d9 e9 40 fb ff ff                   jmp    0x01001c1e
                           .text:010020de 51                               push   %ecx
                           .text:010020df 68 1c 27 00 00                   push   $0x271c
                           .text:010020e4 6a 01                            push   $0x1
                           .text:010020e6 e8 4e 0e 00 00                   call   0x01002f39
                           .text:010020eb 83 c4 0c                         add    $0xc,%esp
                           .text:010020ee e9 0a 07 00 00                   jmp    0x010027fd
                           .text:010020f3 ff b5 28 fb ff ff                pushl  -0x4d8(%ebp)
                           .text:010020f9 68 1d 27 00 00                   push   $0x271d
                           .text:010020fe eb e4                            jmp    0x010020e4
                           .text:01002100 e8 a6 f1 ff ff                   call   0x010012ab
                           .text:01002105 6a 00                            push   $0x0
                           .text:01002107 e9 18 fa ff ff                   jmp    0x01001b24
                           .text:0100210c 51                               push   %ecx
                           .text:0100210d 68 11 27 00 00                   push   $0x2711
                           .text:01002112 eb d0                            jmp    0x010020e4
                           .text:01002114 ff 34 bb                         pushl  (%ebx,%edi,4)
                           .text:01002117 68 54 27 00 00                   push   $0x2754
                           .text:0100211c eb c6                            jmp    0x010020e4
                           .text:0100211e 68 3d 27 00 00                   push   $0x273d
                           .text:01002123 6a 01                            push   $0x1
                           .text:01002125 e8 0f 0e 00 00                   call   0x01002f39
                           .text:0100212a 59                               pop    %ecx
                           .text:0100212b 59                               pop    %ecx
                           .text:0100212c e9 cc 06 00 00                   jmp    0x010027fd
                           .text:01002131 68 47 27 00 00                   push   $0x2747
                           .text:01002136 eb eb                            jmp    0x01002123
                           .text:01002138 68 14 27 00 00                   push   $0x2714
                           .text:0100213d eb e4                            jmp    0x01002123
                           .text:0100213f 51                               push   %ecx
                           .text:01002140 68 1b 27 00 00                   push   $0x271b
                           .text:01002145 6a 01                            push   $0x1
                           .text:01002147 e8 ed 0d 00 00                   call   0x01002f39
                           .text:0100214c 83 c4 0c                         add    $0xc,%esp
                           .text:0100214f e9 1a fa ff ff                   jmp    0x01001b6e
                           .text:01002154 83 bd ec fa ff ff 00             cmpl   $0x0,-0x514(%ebp)
                           .text:0100215b 75 07                            jne    0x01002164
                           .text:0100215d 68 1e 27 00 00                   push   $0x271e
                           .text:01002162 eb bf                            jmp    0x01002123
                           .text:01002164 83 bd 10 fb ff ff 00             cmpl   $0x0,-0x4f0(%ebp)
                           .text:0100216b 75 76                            jne    0x010021e3
                           .text:0100216d 66 8b 85 34 fb ff ff             mov    -0x4cc(%ebp),%ax
                           .text:01002174 66 85 c0                         test   %ax,%ax
                           .text:01002177 74 6a                            je     0x010021e3
                           .text:01002179 66 3b 05 e0 55 00 01             cmp    0x10055e0,%ax
                           .text:01002180 74 61                            je     0x010021e3
                           .text:01002182 8d 85 34 fb ff ff                lea    -0x4cc(%ebp),%eax
                           .text:01002188 50                               push   %eax
                           .text:01002189 8b 85 e0 fa ff ff                mov    -0x520(%ebp),%eax
                           .text:0100218f ff 34 83                         pushl  (%ebx,%eax,4)
                           .text:01002192 0f b7 05 e0 55 00 01             movzwl 0x10055e0,%eax
                           .text:01002199 50                               push   %eax
                           .text:0100219a e8 dd f6 ff ff                   call   0x0100187c
                           .text:0100219f 85 c0                            test   %eax,%eax
                           .text:010021a1 75 40                            jne    0x010021e3
                           .text:010021a3 ff b5 00 fb ff ff                pushl  -0x500(%ebp)
                           .text:010021a9 8d 85 b4 fb ff ff                lea    -0x44c(%ebp),%eax
                           .text:010021af 68 01 04 00 00                   push   $0x401
                           .text:010021b4 50                               push   %eax
                           .text:010021b5 8b 85 04 fb ff ff                mov    -0x4fc(%ebp),%eax
                           .text:010021bb 68 88 56 00 01                   push   $0x1005688
                           .text:010021c0 68 e0 55 00 01                   push   $0x10055e0
                           .text:010021c5 ff 34 83                         pushl  (%ebx,%eax,4)
                           .text:010021c8 0f b7 85 34 fb ff ff             movzwl -0x4cc(%ebp),%eax
                           .text:010021cf 50                               push   %eax
                           .text:010021d0 e8 b3 f7 ff ff                   call   0x01001988
                           .text:010021d5 84 c0                            test   %al,%al
                           .text:010021d7 75 0a                            jne    0x010021e3
                           .text:010021d9 68 5b 27 00 00                   push   $0x275b
                           .text:010021de e9 40 ff ff ff                   jmp    0x01002123
                           .text:010021e3 0f b7 05 e0 55 00 01             movzwl 0x10055e0,%eax
                           .text:010021ea 89 85 10 fb ff ff                mov    %eax,-0x4f0(%ebp)
                           .text:010021f0 83 f8 02                         cmp    $0x2,%eax
                           .text:010021f3 75 07                            jne    0x010021fc
                           .text:010021f5 e8 2e 0e 00 00                   call   0x01003028
                           .text:010021fa eb 05                            jmp    0x01002201
                           .text:010021fc e8 1b 0e 00 00                   call   0x0100301c
                           .text:01002201 89 85 18 fb ff ff                mov    %eax,-0x4e8(%ebp)
                           .text:01002207 83 f8 ff                         cmp    $0xffffffff,%eax
                           .text:0100220a 75 17                            jne    0x01002223
                           .text:0100220c ff 15 74 10 00 01                call   *0x1001074
                           .text:01002212 50                               push   %eax
                           .text:01002213 e8 5e f0 ff ff                   call   0x01001276
                           .text:01002218 50                               push   %eax
                           .text:01002219 68 1f 27 00 00                   push   $0x271f
                           .text:0100221e e9 c1 fe ff ff                   jmp    0x010020e4
                           .text:01002223 8b 9d 08 fb ff ff                mov    -0x4f8(%ebp),%ebx
                           .text:01002229 8b 35 70 10 00 01                mov    0x1001070,%esi
                           .text:0100222f 53                               push   %ebx
                           .text:01002230 33 ff                            xor    %edi,%edi
                           .text:01002232 57                               push   %edi
                           .text:01002233 ff d6                            call   *%esi
                           .text:01002235 89 85 14 fb ff ff                mov    %eax,-0x4ec(%ebp)
                           .text:0100223b 3b c7                            cmp    %edi,%eax
                           .text:0100223d 75 13                            jne    0x01002252
                           .text:0100223f 68 48 27 00 00                   push   $0x2748
                           .text:01002244 6a 01                            push   $0x1
                           .text:01002246 e8 ee 0c 00 00                   call   0x01002f39
                           .text:0100224b 59                               pop    %ecx
                           .text:0100224c 59                               pop    %ecx
                           .text:0100224d e9 7a 05 00 00                   jmp    0x010027cc
                           .text:01002252 6a 20                            push   $0x20
                           .text:01002254 58                               pop    %eax
                           .text:01002255 3b c3                            cmp    %ebx,%eax
                           .text:01002257 1b c0                            sbb    %eax,%eax
                           .text:01002259 25 43 e0 00 00                   and    $0xe043,%eax
                           .text:0100225e 05 f8 1f 00 00                   add    $0x1ff8,%eax
                           .text:01002263 50                               push   %eax
                           .text:01002264 57                               push   %edi
                           .text:01002265 89 85 04 fb ff ff                mov    %eax,-0x4fc(%ebp)
                           .text:0100226b ff d6                            call   *%esi
                           .text:0100226d 89 85 0c fb ff ff                mov    %eax,-0x4f4(%ebp)
                           .text:01002273 3b c7                            cmp    %edi,%eax
                           .text:01002275 74 c8                            je     0x0100223f
                           .text:01002277 33 c9                            xor    %ecx,%ecx
                           .text:01002279 3b df                            cmp    %edi,%ebx
                           .text:0100227b 76 1a                            jbe    0x01002297
                           .text:0100227d 33 d2                            xor    %edx,%edx
                           .text:0100227f 6a 17                            push   $0x17
                           .text:01002281 8b c1                            mov    %ecx,%eax
                           .text:01002283 5e                               pop    %esi
                           .text:01002284 f7 f6                            div    %esi
                           .text:01002286 8b 85 14 fb ff ff                mov    -0x4ec(%ebp),%eax
                           .text:0100228c 80 c2 61                         add    $0x61,%dl
                           .text:0100228f 88 14 01                         mov    %dl,(%ecx,%eax,1)
                           .text:01002292 41                               inc    %ecx
                           .text:01002293 3b cb                            cmp    %ebx,%ecx
                           .text:01002295 72 e6                            jb     0x0100227d
                           .text:01002297 8b 85 20 fb ff ff                mov    -0x4e0(%ebp),%eax
                           .text:0100229d 8b 35 a0 10 00 01                mov    0x10010a0,%esi
                           .text:010022a3 89 85 e8 fa ff ff                mov    %eax,-0x518(%ebp)
                           .text:010022a9 8a 85 2c fb ff ff                mov    -0x4d4(%ebp),%al
                           .text:010022af 88 85 e7 fa ff ff                mov    %al,-0x519(%ebp)
                           .text:010022b5 8a 85 1f fb ff ff                mov    -0x4e1(%ebp),%al
                           .text:010022bb 6a 02                            push   $0x2
                           .text:010022bd 88 85 e4 fa ff ff                mov    %al,-0x51c(%ebp)
                           .text:010022c3 8a 85 27 fb ff ff                mov    -0x4d9(%ebp),%al
                           .text:010022c9 57                               push   %edi
                           .text:010022ca 88 85 e5 fa ff ff                mov    %al,-0x51b(%ebp)
                           .text:010022d0 8a 85 33 fb ff ff                mov    -0x4cd(%ebp),%al
                           .text:010022d6 57                               push   %edi
                           .text:010022d7 6a 41                            push   $0x41
                           .text:010022d9 88 85 e6 fa ff ff                mov    %al,-0x51a(%ebp)
                           .text:010022df 8d 45 b8                         lea    -0x48(%ebp),%eax
                           .text:010022e2 50                               push   %eax
                           .text:010022e3 ff 35 88 56 00 01                pushl  0x1005688
                           .text:010022e9 68 e0 55 00 01                   push   $0x10055e0
                           .text:010022ee ff d6                            call   *%esi
                           .text:010022f0 85 c0                            test   %eax,%eax
                           .text:010022f2 74 0f                            je     0x01002303
                           .text:010022f4 6a 41                            push   $0x41
                           .text:010022f6 8d 45 b8                         lea    -0x48(%ebp),%eax
                           .text:010022f9 57                               push   %edi
                           .text:010022fa 50                               push   %eax
                           .text:010022fb e8 d6 07 00 00                   call   0x01002ad6
                           .text:01002300 83 c4 0c                         add    $0xc,%esp
                           .text:01002303 80 bd b4 fb ff ff 00             cmpb   $0x0,-0x44c(%ebp)
                           .text:0100230a 8d 45 b8                         lea    -0x48(%ebp),%eax
                           .text:0100230d 50                               push   %eax
                           .text:0100230e 74 18                            je     0x01002328
                           .text:01002310 8d 85 b4 fb ff ff                lea    -0x44c(%ebp),%eax
                           .text:01002316 50                               push   %eax
                           .text:01002317 68 20 27 00 00                   push   $0x2720
                           .text:0100231c 6a 01                            push   $0x1
                           .text:0100231e e8 16 0c 00 00                   call   0x01002f39
                           .text:01002323 83 c4 10                         add    $0x10,%esp
                           .text:01002326 eb 0f                            jmp    0x01002337
                           .text:01002328 68 4b 27 00 00                   push   $0x274b
                           .text:0100232d 6a 01                            push   $0x1
                           .text:0100232f e8 05 0c 00 00                   call   0x01002f39
                           .text:01002334 83 c4 0c                         add    $0xc,%esp
                           .text:01002337 66 83 bd 34 fb ff ff 17          cmpw   $0x17,-0x4cc(%ebp)
                           .text:0100233f 74 0a                            je     0x0100234b
                           .text:01002341 66 83 bd 34 fb ff ff 02          cmpw   $0x2,-0x4cc(%ebp)
                           .text:01002349 75 4e                            jne    0x01002399
                           .text:0100234b 33 c0                            xor    %eax,%eax
                           .text:0100234d 66 83 bd 34 fb ff ff 02          cmpw   $0x2,-0x4cc(%ebp)
                           .text:01002355 6a 02                            push   $0x2
                           .text:01002357 0f 95 c0                         setne  %al
                           .text:0100235a 57                               push   %edi
                           .text:0100235b 57                               push   %edi
                           .text:0100235c 6a 41                            push   $0x41
                           .text:0100235e 8d 4d b8                         lea    -0x48(%ebp),%ecx
                           .text:01002361 51                               push   %ecx
                           .text:01002362 48                               dec    %eax
                           .text:01002363 83 e0 f4                         and    $0xfffffff4,%eax
                           .text:01002366 83 c0 1c                         add    $0x1c,%eax
                           .text:01002369 50                               push   %eax
                           .text:0100236a 8d 85 34 fb ff ff                lea    -0x4cc(%ebp),%eax
                           .text:01002370 50                               push   %eax
                           .text:01002371 ff d6                            call   *%esi
                           .text:01002373 85 c0                            test   %eax,%eax
                           .text:01002375 74 0f                            je     0x01002386
                           .text:01002377 6a 41                            push   $0x41
                           .text:01002379 8d 45 b8                         lea    -0x48(%ebp),%eax
                           .text:0100237c 57                               push   %edi
                           .text:0100237d 50                               push   %eax
                           .text:0100237e e8 53 07 00 00                   call   0x01002ad6
                           .text:01002383 83 c4 0c                         add    $0xc,%esp
                           .text:01002386 8d 45 b8                         lea    -0x48(%ebp),%eax
                           .text:01002389 50                               push   %eax
                           .text:0100238a 68 59 27 00 00                   push   $0x2759
                           .text:0100238f 6a 01                            push   $0x1
                           .text:01002391 e8 a3 0b 00 00                   call   0x01002f39
                           .text:01002396 83 c4 0c                         add    $0xc,%esp
                           .text:01002399 53                               push   %ebx
                           .text:0100239a 68 5a 27 00 00                   push   $0x275a
                           .text:0100239f 6a 01                            push   $0x1
                           .text:010023a1 e8 93 0b 00 00                   call   0x01002f39
                           .text:010023a6 83 c4 0c                         add    $0xc,%esp
                           .text:010023a9 6a 01                            push   $0x1
                           .text:010023ab 68 ca 17 00 01                   push   $0x10017ca
                           .text:010023b0 ff 15 6c 10 00 01                call   *0x100106c
                           .text:010023b6 8b 85 f8 fa ff ff                mov    -0x508(%ebp),%eax
                           .text:010023bc 89 bd 20 fb ff ff                mov    %edi,-0x4e0(%ebp)
                           .text:010023c2 3b c7                            cmp    %edi,%eax
                           .text:010023c4 0f 86 ec 03 00 00                jbe    0x010027b6
                           .text:010023ca 48                               dec    %eax
                           .text:010023cb 89 85 2c fb ff ff                mov    %eax,-0x4d4(%ebp)
                           .text:010023d1 8b f7                            mov    %edi,%esi
                           .text:010023d3 eb 06                            jmp    0x010023db
                           .text:010023d5 8b 9d 08 fb ff ff                mov    -0x4f8(%ebp),%ebx
                           .text:010023db 83 bd 10 fb ff ff 02             cmpl   $0x2,-0x4f0(%ebp)
                           .text:010023e2 ff b5 f4 fa ff ff                pushl  -0x50c(%ebp)
                           .text:010023e8 8d 85 e4 fa ff ff                lea    -0x51c(%ebp),%eax
                           .text:010023ee ff b5 04 fb ff ff                pushl  -0x4fc(%ebp)
                           .text:010023f4 ff b5 0c fb ff ff                pushl  -0x4f4(%ebp)
                           .text:010023fa 50                               push   %eax
                           .text:010023fb 53                               push   %ebx
                           .text:010023fc ff b5 14 fb ff ff                pushl  -0x4ec(%ebp)
                           .text:01002402 0f 85 1c 02 00 00                jne    0x01002624
                           .text:01002408 ff 35 e4 55 00 01                pushl  0x10055e4
                           .text:0100240e 33 c0                            xor    %eax,%eax
                           .text:01002410 66 83 bd 34 fb ff ff 02          cmpw   $0x2,-0x4cc(%ebp)
                           .text:01002418 0f 95 c0                         setne  %al
                           .text:0100241b 48                               dec    %eax
                           .text:0100241c 23 85 38 fb ff ff                and    -0x4c8(%ebp),%eax
                           .text:01002422 50                               push   %eax
                           .text:01002423 57                               push   %edi
                           .text:01002424 57                               push   %edi
                           .text:01002425 57                               push   %edi
                           .text:01002426 ff b5 18 fb ff ff                pushl  -0x4e8(%ebp)
                           .text:0100242c e8 df 0b 00 00                   call   0x01003010
                           .text:01002431 ff 05 c0 50 00 01                incl   0x10050c0
                           .text:01002437 3b c7                            cmp    %edi,%eax
                           .text:01002439 75 69                            jne    0x010024a4
                           .text:0100243b ff 15 74 10 00 01                call   *0x1001074
                           .text:01002441 3d f8 2a 00 00                   cmp    $0x2af8,%eax
                           .text:01002446 73 18                            jae    0x01002460
                           .text:01002448 50                               push   %eax
                           .text:01002449 e8 28 ee ff ff                   call   0x01001276
                           .text:0100244e 50                               push   %eax
                           .text:0100244f 68 22 27 00 00                   push   $0x2722
                           .text:01002454 6a 01                            push   $0x1
                           .text:01002456 e8 de 0a 00 00                   call   0x01002f39
                           .text:0100245b 83 c4 0c                         add    $0xc,%esp
                           .text:0100245e eb 2e                            jmp    0x0100248e
                           .text:01002460 8b 0d 00 40 00 01                mov    0x1004000,%ecx
                           .text:01002466 33 d2                            xor    %edx,%edx
                           .text:01002468 eb 10                            jmp    0x0100247a
                           .text:0100246a 81 f9 2a 2b 00 00                cmp    $0x2b2a,%ecx
                           .text:01002470 74 0c                            je     0x0100247e
                           .text:01002472 8b 0c d5 08 40 00 01             mov    0x1004008(,%edx,8),%ecx
                           .text:01002479 42                               inc    %edx
                           .text:0100247a 3b c8                            cmp    %eax,%ecx
                           .text:0100247c 75 ec                            jne    0x0100246a
                           .text:0100247e ff 34 d5 04 40 00 01             pushl  0x1004004(,%edx,8)
                           .text:01002485 6a 01                            push   $0x1
                           .text:01002487 e8 ad 0a 00 00                   call   0x01002f39
                           .text:0100248c 59                               pop    %ecx
                           .text:0100248d 59                               pop    %ecx
                           .text:0100248e 3b b5 2c fb ff ff                cmp    -0x4d4(%ebp),%esi
                           .text:01002494 0f 83 01 03 00 00                jae    0x0100279b
                           .text:0100249a 68 e8 03 00 00                   push   $0x3e8
                           .text:0100249f e9 f1 02 00 00                   jmp    0x01002795
                           .text:010024a4 8b b5 0c fb ff ff                mov    -0x4f4(%ebp),%esi
                           .text:010024aa ff 36                            pushl  (%esi)
                           .text:010024ac 48                               dec    %eax
                           .text:010024ad 89 85 fc fa ff ff                mov    %eax,-0x504(%ebp)
                           .text:010024b3 ff 15 94 10 00 01                call   *0x1001094
                           .text:010024b9 50                               push   %eax
                           .text:010024ba 33 ff                            xor    %edi,%edi
                           .text:010024bc 68 23 27 00 00                   push   $0x2723
                           .text:010024c1 47                               inc    %edi
                           .text:010024c2 57                               push   %edi
                           .text:010024c3 e8 71 0a 00 00                   call   0x01002f39
                           .text:010024c8 8b 46 04                         mov    0x4(%esi),%eax
                           .text:010024cb 83 c4 0c                         add    $0xc,%esp
                           .text:010024ce 85 c0                            test   %eax,%eax
                           .text:010024d0 0f 85 ec 00 00 00                jne    0x010025c2
                           .text:010024d6 ff 05 c8 50 00 01                incl   0x10050c8
                           .text:010024dc 0f b7 46 0c                      movzwl 0xc(%esi),%eax
                           .text:010024e0 50                               push   %eax
                           .text:010024e1 68 3c 27 00 00                   push   $0x273c
                           .text:010024e6 57                               push   %edi
                           .text:010024e7 e8 4d 0a 00 00                   call   0x01002f39
                           .text:010024ec 0f b7 46 0c                      movzwl 0xc(%esi),%eax
                           .text:010024f0 83 c4 0c                         add    $0xc,%esp
                           .text:010024f3 3b 85 08 fb ff ff                cmp    -0x4f8(%ebp),%eax
                           .text:010024f9 74 0e                            je     0x01002509
                           .text:010024fb ff b5 08 fb ff ff                pushl  -0x4f8(%ebp)
                           .text:01002501 68 24 27 00 00                   push   $0x2724
                           .text:01002506 57                               push   %edi
                           .text:01002507 eb 32                            jmp    0x0100253b
                           .text:01002509 8b bd 14 fb ff ff                mov    -0x4ec(%ebp),%edi
                           .text:0100250f 33 c9                            xor    %ecx,%ecx
                           .text:01002511 39 8d 08 fb ff ff                cmp    %ecx,-0x4f8(%ebp)
                           .text:01002517 76 2a                            jbe    0x01002543
                           .text:01002519 8b 46 10                         mov    0x10(%esi),%eax
                           .text:0100251c 2b c7                            sub    %edi,%eax
                           .text:0100251e 8a 17                            mov    (%edi),%dl
                           .text:01002520 8a 1c 38                         mov    (%eax,%edi,1),%bl
                           .text:01002523 47                               inc    %edi
                           .text:01002524 3a d3                            cmp    %bl,%dl
                           .text:01002526 75 0b                            jne    0x01002533
                           .text:01002528 41                               inc    %ecx
                           .text:01002529 3b 8d 08 fb ff ff                cmp    -0x4f8(%ebp),%ecx
                           .text:0100252f 72 ed                            jb     0x0100251e
                           .text:01002531 eb 10                            jmp    0x01002543
                           .text:01002533 51                               push   %ecx
                           .text:01002534 68 25 27 00 00                   push   $0x2725
                           .text:01002539 6a 01                            push   $0x1
                           .text:0100253b e8 f9 09 00 00                   call   0x01002f39
                           .text:01002540 83 c4 0c                         add    $0xc,%esp
                           .text:01002543 8b 46 08                         mov    0x8(%esi),%eax
                           .text:01002546 85 c0                            test   %eax,%eax
                           .text:01002548 74 3b                            je     0x01002585
                           .text:0100254a 50                               push   %eax
                           .text:0100254b 68 26 27 00 00                   push   $0x2726
                           .text:01002550 6a 01                            push   $0x1
                           .text:01002552 e8 e2 09 00 00                   call   0x01002f39
                           .text:01002557 8b 46 08                         mov    0x8(%esi),%eax
                           .text:0100255a 01 05 d0 50 00 01                add    %eax,0x10050d0
                           .text:01002560 8b 46 08                         mov    0x8(%esi),%eax
                           .text:01002563 83 c4 0c                         add    $0xc,%esp
                           .text:01002566 3b 05 a0 40 00 01                cmp    0x10040a0,%eax
                           .text:0100256c 73 05                            jae    0x01002573
                           .text:0100256e a3 a0 40 00 01                   mov    %eax,0x10040a0
                           .text:01002573 8b 46 08                         mov    0x8(%esi),%eax
                           .text:01002576 3b 05 cc 50 00 01                cmp    0x10050cc,%eax
                           .text:0100257c 76 1c                            jbe    0x0100259a
                           .text:0100257e a3 cc 50 00 01                   mov    %eax,0x10050cc
                           .text:01002583 eb 15                            jmp    0x0100259a
                           .text:01002585 68 27 27 00 00                   push   $0x2727
                           .text:0100258a 6a 01                            push   $0x1
                           .text:0100258c e8 a8 09 00 00                   call   0x01002f39
                           .text:01002591 83 25 a0 40 00 01 00             andl   $0x0,0x10040a0
                           .text:01002598 59                               pop    %ecx
                           .text:01002599 59                               pop    %ecx
                           .text:0100259a 0f b6 46 14                      movzbl 0x14(%esi),%eax
                           .text:0100259e 50                               push   %eax
                           .text:0100259f 68 28 27 00 00                   push   $0x2728
                           .text:010025a4 6a 01                            push   $0x1
                           .text:010025a6 e8 8e 09 00 00                   call   0x01002f39
                           .text:010025ab 83 c4 0c                         add    $0xc,%esp
                           .text:010025ae 80 7e 17 00                      cmpb   $0x0,0x17(%esi)
                           .text:010025b2 74 3c                            je     0x010025f0
                           .text:010025b4 ff b5 00 fb ff ff                pushl  -0x500(%ebp)
                           .text:010025ba 56                               push   %esi
                           .text:010025bb e8 dd ed ff ff                   call   0x0100139d
                           .text:010025c0 eb 2e                            jmp    0x010025f0
                           .text:010025c2 8b 0d 00 40 00 01                mov    0x1004000,%ecx
                           .text:010025c8 33 d2                            xor    %edx,%edx
                           .text:010025ca bb 2a 2b 00 00                   mov    $0x2b2a,%ebx
                           .text:010025cf eb 0c                            jmp    0x010025dd
                           .text:010025d1 3b c8                            cmp    %eax,%ecx
                           .text:010025d3 74 0c                            je     0x010025e1
                           .text:010025d5 8b 0c d5 08 40 00 01             mov    0x1004008(,%edx,8),%ecx
                           .text:010025dc 42                               inc    %edx
                           .text:010025dd 3b cb                            cmp    %ebx,%ecx
                           .text:010025df 75 f0                            jne    0x010025d1
                           .text:010025e1 ff 34 d5 04 40 00 01             pushl  0x1004004(,%edx,8)
                           .text:010025e8 57                               push   %edi
                           .text:010025e9 e8 4b 09 00 00                   call   0x01002f39
                           .text:010025ee 59                               pop    %ecx
                           .text:010025ef 59                               pop    %ecx
                           .text:010025f0 8b 85 fc fa ff ff                mov    -0x504(%ebp),%eax
                           .text:010025f6 ff 05 c4 50 00 01                incl   0x10050c4
                           .text:010025fc 83 c6 1c                         add    $0x1c,%esi
                           .text:010025ff 85 c0                            test   %eax,%eax
                           .text:01002601 0f 85 a3 fe ff ff                jne    0x010024aa
                           .text:01002607 8b 85 2c fb ff ff                mov    -0x4d4(%ebp),%eax
                           .text:0100260d 39 85 20 fb ff ff                cmp    %eax,-0x4e0(%ebp)
                           .text:01002613 0f 83 82 01 00 00                jae    0x0100279b
                           .text:01002619 83 ee 1c                         sub    $0x1c,%esi
                           .text:0100261c 8b 76 08                         mov    0x8(%esi),%esi
                           .text:0100261f e9 61 01 00 00                   jmp    0x01002785
                           .text:01002624 68 e0 55 00 01                   push   $0x10055e0
                           .text:01002629 8d 85 34 fb ff ff                lea    -0x4cc(%ebp),%eax
                           .text:0100262f 50                               push   %eax
                           .text:01002630 57                               push   %edi
                           .text:01002631 57                               push   %edi
                           .text:01002632 57                               push   %edi
                           .text:01002633 ff b5 18 fb ff ff                pushl  -0x4e8(%ebp)
                           .text:01002639 e8 c6 09 00 00                   call   0x01003004
                           .text:0100263e ff 05 c0 50 00 01                incl   0x10050c0
                           .text:01002644 8b d8                            mov    %eax,%ebx
                           .text:01002646 3b df                            cmp    %edi,%ebx
                           .text:01002648 75 38                            jne    0x01002682
                           .text:0100264a ff 15 74 10 00 01                call   *0x1001074
                           .text:01002650 3d f8 2a 00 00                   cmp    $0x2af8,%eax
                           .text:01002655 0f 82 ed fd ff ff                jb     0x01002448
                           .text:0100265b 8b 0d 00 40 00 01                mov    0x1004000,%ecx
                           .text:01002661 33 d2                            xor    %edx,%edx
                           .text:01002663 eb 14                            jmp    0x01002679
                           .text:01002665 81 f9 2a 2b 00 00                cmp    $0x2b2a,%ecx
                           .text:0100266b 0f 84 0d fe ff ff                je     0x0100247e
                           .text:01002671 8b 0c d5 08 40 00 01             mov    0x1004008(,%edx,8),%ecx
                           .text:01002678 42                               inc    %edx
                           .text:01002679 3b c8                            cmp    %eax,%ecx
                           .text:0100267b 75 e8                            jne    0x01002665
                           .text:0100267d e9 fc fd ff ff                   jmp    0x0100247e
                           .text:01002682 8b b5 0c fb ff ff                mov    -0x4f4(%ebp),%esi
                           .text:01002688 6a 02                            push   $0x2
                           .text:0100268a 57                               push   %edi
                           .text:0100268b 57                               push   %edi
                           .text:0100268c 6a 41                            push   $0x41
                           .text:0100268e 8d 45 b8                         lea    -0x48(%ebp),%eax
                           .text:01002691 50                               push   %eax
                           .text:01002692 ff 35 88 56 00 01                pushl  0x1005688
                           .text:01002698 4b                               dec    %ebx
                           .text:01002699 68 e0 55 00 01                   push   $0x10055e0
                           .text:0100269e ff 15 a0 10 00 01                call   *0x10010a0
                           .text:010026a4 85 c0                            test   %eax,%eax
                           .text:010026a6 74 0f                            je     0x010026b7
                           .text:010026a8 6a 41                            push   $0x41
                           .text:010026aa 8d 45 b8                         lea    -0x48(%ebp),%eax
                           .text:010026ad 57                               push   %edi
                           .text:010026ae 50                               push   %eax
                           .text:010026af e8 22 04 00 00                   call   0x01002ad6
                           .text:010026b4 83 c4 0c                         add    $0xc,%esp
                           .text:010026b7 8d 45 b8                         lea    -0x48(%ebp),%eax
                           .text:010026ba 50                               push   %eax
                           .text:010026bb 68 23 27 00 00                   push   $0x2723
                           .text:010026c0 6a 01                            push   $0x1
                           .text:010026c2 e8 72 08 00 00                   call   0x01002f39
                           .text:010026c7 8b 56 1c                         mov    0x1c(%esi),%edx
                           .text:010026ca 83 c4 0c                         add    $0xc,%esp
                           .text:010026cd 3b d7                            cmp    %edi,%edx
                           .text:010026cf 75 63                            jne    0x01002734
                           .text:010026d1 ff 05 c8 50 00 01                incl   0x10050c8
                           .text:010026d7 8b 46 20                         mov    0x20(%esi),%eax
                           .text:010026da 3b c7                            cmp    %edi,%eax
                           .text:010026dc 74 3b                            je     0x01002719
                           .text:010026de 50                               push   %eax
                           .text:010026df 68 26 27 00 00                   push   $0x2726
                           .text:010026e4 6a 01                            push   $0x1
                           .text:010026e6 e8 4e 08 00 00                   call   0x01002f39
                           .text:010026eb 8b 46 20                         mov    0x20(%esi),%eax
                           .text:010026ee 01 05 d0 50 00 01                add    %eax,0x10050d0
                           .text:010026f4 8b 46 20                         mov    0x20(%esi),%eax
                           .text:010026f7 83 c4 0c                         add    $0xc,%esp
                           .text:010026fa 3b 05 a0 40 00 01                cmp    0x10040a0,%eax
                           .text:01002700 73 05                            jae    0x01002707
                           .text:01002702 a3 a0 40 00 01                   mov    %eax,0x10040a0
                           .text:01002707 8b 46 20                         mov    0x20(%esi),%eax
                           .text:0100270a 3b 05 cc 50 00 01                cmp    0x10050cc,%eax
                           .text:01002710 76 1b                            jbe    0x0100272d
                           .text:01002712 a3 cc 50 00 01                   mov    %eax,0x10050cc
                           .text:01002717 eb 14                            jmp    0x0100272d
                           .text:01002719 68 27 27 00 00                   push   $0x2727
                           .text:0100271e 6a 01                            push   $0x1
                           .text:01002720 e8 14 08 00 00                   call   0x01002f39
                           .text:01002725 59                               pop    %ecx
                           .text:01002726 59                               pop    %ecx
                           .text:01002727 89 3d a0 40 00 01                mov    %edi,0x10040a0
                           .text:0100272d 68 3f 27 00 00                   push   $0x273f
                           .text:01002732 eb 23                            jmp    0x01002757
                           .text:01002734 a1 00 40 00 01                   mov    0x1004000,%eax
                           .text:01002739 33 c9                            xor    %ecx,%ecx
                           .text:0100273b eb 0c                            jmp    0x01002749
                           .text:0100273d 3b c2                            cmp    %edx,%eax
                           .text:0100273f 74 0f                            je     0x01002750
                           .text:01002741 8b 04 cd 08 40 00 01             mov    0x1004008(,%ecx,8),%eax
                           .text:01002748 41                               inc    %ecx
                           .text:01002749 3d 2a 2b 00 00                   cmp    $0x2b2a,%eax
                           .text:0100274e 75 ed                            jne    0x0100273d
                           .text:01002750 ff 34 cd 04 40 00 01             pushl  0x1004004(,%ecx,8)
                           .text:01002757 6a 01                            push   $0x1
                           .text:01002759 e8 db 07 00 00                   call   0x01002f39
                           .text:0100275e ff 05 c4 50 00 01                incl   0x10050c4
                           .text:01002764 59                               pop    %ecx
                           .text:01002765 83 c6 24                         add    $0x24,%esi
                           .text:01002768 59                               pop    %ecx
                           .text:01002769 3b df                            cmp    %edi,%ebx
                           .text:0100276b 0f 85 17 ff ff ff                jne    0x01002688
                           .text:01002771 8b 85 2c fb ff ff                mov    -0x4d4(%ebp),%eax
                           .text:01002777 39 85 20 fb ff ff                cmp    %eax,-0x4e0(%ebp)
                           .text:0100277d 73 1c                            jae    0x0100279b
                           .text:0100277f 83 ee 24                         sub    $0x24,%esi
                           .text:01002782 8b 76 20                         mov    0x20(%esi),%esi
                           .text:01002785 81 fe e8 03 00 00                cmp    $0x3e8,%esi
                           .text:0100278b 73 0e                            jae    0x0100279b
                           .text:0100278d b8 e8 03 00 00                   mov    $0x3e8,%eax
                           .text:01002792 2b c6                            sub    %esi,%eax
                           .text:01002794 50                               push   %eax
                           .text:01002795 ff 15 68 10 00 01                call   *0x1001068
                           .text:0100279b 8b b5 20 fb ff ff                mov    -0x4e0(%ebp),%esi
                           .text:010027a1 46                               inc    %esi
                           .text:010027a2 33 ff                            xor    %edi,%edi
                           .text:010027a4 89 b5 20 fb ff ff                mov    %esi,-0x4e0(%ebp)
                           .text:010027aa 3b b5 f8 fa ff ff                cmp    -0x508(%ebp),%esi
                           .text:010027b0 0f 82 1f fc ff ff                jb     0x010023d5
                           .text:010027b6 33 c0                            xor    %eax,%eax
                           .text:010027b8 39 3d c4 50 00 01                cmp    %edi,0x10050c4
                           .text:010027be 0f 94 c0                         sete   %al
                           .text:010027c1 89 85 fc fa ff ff                mov    %eax,-0x504(%ebp)
                           .text:010027c7 e8 3e ef ff ff                   call   0x0100170a
                           .text:010027cc ff b5 18 fb ff ff                pushl  -0x4e8(%ebp)
                           .text:010027d2 e8 21 08 00 00                   call   0x01002ff8
                           .text:010027d7 8b 35 64 10 00 01                mov    0x1001064,%esi
                           .text:010027dd 39 bd 14 fb ff ff                cmp    %edi,-0x4ec(%ebp)
                           .text:010027e3 74 08                            je     0x010027ed
                           .text:010027e5 ff b5 14 fb ff ff                pushl  -0x4ec(%ebp)
                           .text:010027eb ff d6                            call   *%esi
                           .text:010027ed 39 bd 0c fb ff ff                cmp    %edi,-0x4f4(%ebp)
                           .text:010027f3 74 08                            je     0x010027fd
                           .text:010027f5 ff b5 0c fb ff ff                pushl  -0x4f4(%ebp)
                           .text:010027fb ff d6                            call   *%esi
                           .text:010027fd ff 15 98 10 00 01                call   *0x1001098
                           .text:01002803 ff b5 fc fa ff ff                pushl  -0x504(%ebp)
                           .text:01002809 e9 16 f3 ff ff                   jmp    0x01001b24
                           .text:0100280e cc                               int3   
                           .text:0100280f cc                               int3   
                           .text:01002810 cc                               int3   
                           .text:01002811 cc                               int3   
                           .text:01002812 cc                               int3   
                           .text:01002813 8b ff                            mov    %edi,%edi
                           .text:01002815 55                               push   %ebp
                           .text:01002816 8b ec                            mov    %esp,%ebp
                           .text:01002818 56                               push   %esi
                           .text:01002819 8b 75 08                         mov    0x8(%ebp),%esi
                           .text:0100281c 33 c0                            xor    %eax,%eax
                           .text:0100281e eb 0f                            jmp    0x0100282f
                           .text:01002820 85 c0                            test   %eax,%eax
                           .text:01002822 75 10                            jne    0x01002834
                           .text:01002824 8b 0e                            mov    (%esi),%ecx
                           .text:01002826 85 c9                            test   %ecx,%ecx
                           .text:01002828 74 02                            je     0x0100282c
                           .text:0100282a ff d1                            call   *%ecx
                           .text:0100282c 83 c6 04                         add    $0x4,%esi
                           .text:0100282f 3b 75 0c                         cmp    0xc(%ebp),%esi
                           .text:01002832 72 ec                            jb     0x01002820
                           .text:01002834 5e                               pop    %esi
                           .text:01002835 5d                               pop    %ebp
                           .text:01002836 c3                               ret    
                           .text:01002837 cc                               int3   
                           .text:01002838 cc                               int3   
                           .text:01002839 cc                               int3   
                           .text:0100283a cc                               int3   
                           .text:0100283b cc                               int3   
                           .text:0100283c a1 f8 50 00 01                   mov    0x10050f8,%eax
                           .text:01002841 68 e8 50 00 01                   push   $0x10050e8
                           .text:01002846 ff 35 f4 50 00 01                pushl  0x10050f4
                           .text:0100284c a3 e8 50 00 01                   mov    %eax,0x10050e8
                           .text:01002851 68 d8 50 00 01                   push   $0x10050d8
                           .text:01002856 68 dc 50 00 01                   push   $0x10050dc
                           .text:0100285b 68 d4 50 00 01                   push   $0x10050d4
                           .text:01002860 ff 15 c8 10 00 01                call   *0x10010c8
                           .text:01002866 83 c4 14                         add    $0x14,%esp
                           .text:01002869 a3 e4 50 00 01                   mov    %eax,0x10050e4
                           .text:0100286e c3                               ret    
                           .text:0100286f cc                               int3   
                           .text:01002870 cc                               int3   
                           .text:01002871 cc                               int3   
                           .text:01002872 cc                               int3   
                           .text:01002873 cc                               int3   
                           .text:01002874 6a 10                            push   $0x10
                           .text:01002876 68 58 30 00 01                   push   $0x1003058
                           .text:0100287b e8 e4 03 00 00                   call   0x01002c64
                           .text:01002880 33 db                            xor    %ebx,%ebx
                           .text:01002882 89 5d fc                         mov    %ebx,-0x4(%ebp)
                           .text:01002885 64 a1 18 00 00 00                mov    %fs:0x18,%eax
                           .text:0100288b 8b 70 04                         mov    0x4(%eax),%esi
                           .text:0100288e 89 5d e4                         mov    %ebx,-0x1c(%ebp)
                           .text:01002891 bf 98 56 00 01                   mov    $0x1005698,%edi
                           .text:01002896 53                               push   %ebx
                           .text:01002897 56                               push   %esi
                           .text:01002898 57                               push   %edi
                           .text:01002899 ff 15 30 10 00 01                call   *0x1001030
                           .text:0100289f 3b c3                            cmp    %ebx,%eax
                           .text:010028a1 74 19                            je     0x010028bc
                           .text:010028a3 3b c6                            cmp    %esi,%eax
                           .text:010028a5 75 08                            jne    0x010028af
                           .text:010028a7 33 f6                            xor    %esi,%esi
                           .text:010028a9 46                               inc    %esi
                           .text:010028aa 89 75 e4                         mov    %esi,-0x1c(%ebp)
                           .text:010028ad eb 10                            jmp    0x010028bf
                           .text:010028af 68 e8 03 00 00                   push   $0x3e8
                           .text:010028b4 ff 15 68 10 00 01                call   *0x1001068
                           .text:010028ba eb da                            jmp    0x01002896
                           .text:010028bc 33 f6                            xor    %esi,%esi
                           .text:010028be 46                               inc    %esi
                           .text:010028bf a1 94 56 00 01                   mov    0x1005694,%eax
                           .text:010028c4 3b c6                            cmp    %esi,%eax
                           .text:010028c6 75 0a                            jne    0x010028d2
                           .text:010028c8 6a 1f                            push   $0x1f
                           .text:010028ca e8 87 03 00 00                   call   0x01002c56
                           .text:010028cf 59                               pop    %ecx
                           .text:010028d0 eb 3b                            jmp    0x0100290d
                           .text:010028d2 a1 94 56 00 01                   mov    0x1005694,%eax
                           .text:010028d7 85 c0                            test   %eax,%eax
                           .text:010028d9 75 2c                            jne    0x01002907
                           .text:010028db 89 35 94 56 00 01                mov    %esi,0x1005694
                           .text:010028e1 68 20 11 00 01                   push   $0x1001120
                           .text:010028e6 68 14 11 00 01                   push   $0x1001114
                           .text:010028eb e8 23 ff ff ff                   call   0x01002813
                           .text:010028f0 59                               pop    %ecx
                           .text:010028f1 59                               pop    %ecx
                           .text:010028f2 85 c0                            test   %eax,%eax
                           .text:010028f4 74 17                            je     0x0100290d
                           .text:010028f6 c7 45 fc fe ff ff ff             movl   $0xfffffffe,-0x4(%ebp)
                           .text:010028fd b8 ff 00 00 00                   mov    $0xff,%eax
                           .text:01002902 e9 d0 00 00 00                   jmp    0x010029d7
                           .text:01002907 89 35 f0 50 00 01                mov    %esi,0x10050f0
                           .text:0100290d a1 94 56 00 01                   mov    0x1005694,%eax
                           .text:01002912 3b c6                            cmp    %esi,%eax
                           .text:01002914 75 1b                            jne    0x01002931
                           .text:01002916 68 10 11 00 01                   push   $0x1001110
                           .text:0100291b 68 08 11 00 01                   push   $0x1001108
                           .text:01002920 e8 25 03 00 00                   call   0x01002c4a
                           .text:01002925 59                               pop    %ecx
                           .text:01002926 59                               pop    %ecx
                           .text:01002927 c7 05 94 56 00 01 02 00 00 00    movl   $0x2,0x1005694
                           .text:01002931 39 5d e4                         cmp    %ebx,-0x1c(%ebp)
                           .text:01002934 75 08                            jne    0x0100293e
                           .text:01002936 53                               push   %ebx
                           .text:01002937 57                               push   %edi
                           .text:01002938 ff 15 60 10 00 01                call   *0x1001060
                           .text:0100293e 39 1d 9c 56 00 01                cmp    %ebx,0x100569c
                           .text:01002944 74 19                            je     0x0100295f
                           .text:01002946 68 9c 56 00 01                   push   $0x100569c
                           .text:0100294b e8 89 02 00 00                   call   0x01002bd9
                           .text:01002950 59                               pop    %ecx
                           .text:01002951 85 c0                            test   %eax,%eax
                           .text:01002953 74 0a                            je     0x0100295f
                           .text:01002955 53                               push   %ebx
                           .text:01002956 6a 02                            push   $0x2
                           .text:01002958 53                               push   %ebx
                           .text:01002959 ff 15 9c 56 00 01                call   *0x100569c
                           .text:0100295f ff 35 d8 50 00 01                pushl  0x10050d8
                           .text:01002965 ff 35 dc 50 00 01                pushl  0x10050dc
                           .text:0100296b ff 35 d4 50 00 01                pushl  0x10050d4
                           .text:01002971 e8 e3 f0 ff ff                   call   0x01001a59
                           .text:01002976 83 c4 0c                         add    $0xc,%esp
                           .text:01002979 a3 ec 50 00 01                   mov    %eax,0x10050ec
                           .text:0100297e 39 1d e0 50 00 01                cmp    %ebx,0x10050e0
                           .text:01002984 75 37                            jne    0x010029bd
                           .text:01002986 50                               push   %eax
                           .text:01002987 ff 15 d4 10 00 01                call   *0x10010d4
                           .text:0100298d 8b 45 ec                         mov    -0x14(%ebp),%eax
                           .text:01002990 8b 08                            mov    (%eax),%ecx
                           .text:01002992 8b 09                            mov    (%ecx),%ecx
                           .text:01002994 89 4d e0                         mov    %ecx,-0x20(%ebp)
                           .text:01002997 50                               push   %eax
                           .text:01002998 51                               push   %ecx
                           .text:01002999 e8 9e 01 00 00                   call   0x01002b3c
                           .text:0100299e 59                               pop    %ecx
                           .text:0100299f 59                               pop    %ecx
                           .text:010029a0 c3                               ret    
                           .text:010029a1 8b 65 e8                         mov    -0x18(%ebp),%esp
                           .text:010029a4 8b 45 e0                         mov    -0x20(%ebp),%eax
                           .text:010029a7 a3 ec 50 00 01                   mov    %eax,0x10050ec
                           .text:010029ac 33 db                            xor    %ebx,%ebx
                           .text:010029ae 39 1d e0 50 00 01                cmp    %ebx,0x10050e0
                           .text:010029b4 75 07                            jne    0x010029bd
                           .text:010029b6 50                               push   %eax
                           .text:010029b7 ff 15 c0 10 00 01                call   *0x10010c0
                           .text:010029bd 39 1d f0 50 00 01                cmp    %ebx,0x10050f0
                           .text:010029c3 75 06                            jne    0x010029cb
                           .text:010029c5 ff 15 f0 10 00 01                call   *0x10010f0
                           .text:010029cb c7 45 fc fe ff ff ff             movl   $0xfffffffe,-0x4(%ebp)
                           .text:010029d2 a1 ec 50 00 01                   mov    0x10050ec,%eax
                           .text:010029d7 e8 cd 02 00 00                   call   0x01002ca9
                           .text:010029dc c3                               ret    
                           .text:010029dd cc                               int3   
                           .text:010029de cc                               int3   
                           .text:010029df cc                               int3   
                           .text:010029e0 cc                               int3   
                           .text:010029e1 cc                               int3   
                           .text:010029e2 b8 4d 5a 00 00                   mov    $0x5a4d,%eax
                           .text:010029e7 66 39 05 00 00 00 01             cmp    %ax,0x1000000
                           .text:010029ee 74 04                            je     0x010029f4
                           .text:010029f0 33 c0                            xor    %eax,%eax
                           .text:010029f2 eb 4d                            jmp    0x01002a41
                           .text:010029f4 a1 3c 00 00 01                   mov    0x100003c,%eax
                           .text:010029f9 8d 80 00 00 00 01                lea    0x1000000(%eax),%eax
                           .text:010029ff 81 38 50 45 00 00                cmpl   $0x4550,(%eax)
                           .text:01002a05 75 e9                            jne    0x010029f0
                           .text:01002a07 0f b7 48 18                      movzwl 0x18(%eax),%ecx
                           .text:01002a0b 81 f9 0b 01 00 00                cmp    $0x10b,%ecx
                           .text:01002a11 74 1b                            je     0x01002a2e
                           .text:01002a13 81 f9 0b 02 00 00                cmp    $0x20b,%ecx
                           .text:01002a19 75 d5                            jne    0x010029f0
                           .text:01002a1b 83 b8 84 00 00 00 0e             cmpl   $0xe,0x84(%eax)
                           .text:01002a22 76 cc                            jbe    0x010029f0
                           .text:01002a24 33 c9                            xor    %ecx,%ecx
                           .text:01002a26 39 88 f8 00 00 00                cmp    %ecx,0xf8(%eax)
                           .text:01002a2c eb 0e                            jmp    0x01002a3c
                           .text:01002a2e 83 78 74 0e                      cmpl   $0xe,0x74(%eax)
                           .text:01002a32 76 bc                            jbe    0x010029f0
                           .text:01002a34 33 c9                            xor    %ecx,%ecx
                           .text:01002a36 39 88 e8 00 00 00                cmp    %ecx,0xe8(%eax)
                           .text:01002a3c 0f 95 c1                         setne  %cl
                           .text:01002a3f 8b c1                            mov    %ecx,%eax
                           .text:01002a41 6a 01                            push   $0x1
                           .text:01002a43 a3 e0 50 00 01                   mov    %eax,0x10050e0
                           .text:01002a48 e8 25 03 00 00                   call   0x01002d72
                           .text:01002a4d 50                               push   %eax
                           .text:01002a4e ff 15 dc 10 00 01                call   *0x10010dc
                           .text:01002a54 83 0d 8c 56 00 01 ff             orl    $0xffffffff,0x100568c
                           .text:01002a5b 83 0d 90 56 00 01 ff             orl    $0xffffffff,0x1005690
                           .text:01002a62 59                               pop    %ecx
                           .text:01002a63 59                               pop    %ecx
                           .text:01002a64 ff 15 c4 10 00 01                call   *0x10010c4
                           .text:01002a6a 8b 0d 00 51 00 01                mov    0x1005100,%ecx
                           .text:01002a70 89 08                            mov    %ecx,(%eax)
                           .text:01002a72 ff 15 ac 10 00 01                call   *0x10010ac
                           .text:01002a78 8b 0d fc 50 00 01                mov    0x10050fc,%ecx
                           .text:01002a7e 89 08                            mov    %ecx,(%eax)
                           .text:01002a80 e8 7f 02 00 00                   call   0x01002d04
                           .text:01002a85 83 3d b4 40 00 01 00             cmpl   $0x0,0x10040b4
                           .text:01002a8c 75 0c                            jne    0x01002a9a
                           .text:01002a8e 68 04 2d 00 01                   push   $0x1002d04
                           .text:01002a93 ff 15 b0 10 00 01                call   *0x10010b0
                           .text:01002a99 59                               pop    %ecx
                           .text:01002a9a e8 4d 02 00 00                   call   0x01002cec
                           .text:01002a9f 33 c0                            xor    %eax,%eax
                           .text:01002aa1 c3                               ret    
                           .text:01002aa2 cc                               int3   
                           .text:01002aa3 cc                               int3   
                           .text:01002aa4 cc                               int3   
                           .text:01002aa5 cc                               int3   
                           .text:01002aa6 cc                               int3   
                           .text:01002aa7 e8 05 03 00 00                   call   0x01002db1
                           .text:01002aac e9 c3 fd ff ff                   jmp    0x01002874
                           .text:01002ab1 cc                               int3   
                           .text:01002ab2 cc                               int3   
                           .text:01002ab3 cc                               int3   
                           .text:01002ab4 cc                               int3   
                           .text:01002ab5 cc                               int3   
                           .text:01002ab6 ff 25 e0 10 00 01                jmp    *0x10010e0
                           .text:01002abc cc                               int3   
                           .text:01002abd cc                               int3   
                           .text:01002abe cc                               int3   
                           .text:01002abf cc                               int3   
                           .text:01002ac0 cc                               int3   
                           .text:01002ac1 3b 0d a4 40 00 01                cmp    0x10040a4,%ecx
                           .text:01002ac7 75 03                            jne    0x01002acc
                           .text:01002ac9 c2 00 00                         ret    $0x0
                           .text:01002acc e9 76 03 00 00                   jmp    0x01002e47
                           .text:01002ad1 cc                               int3   
                           .text:01002ad2 cc                               int3   
                           .text:01002ad3 cc                               int3   
                           .text:01002ad4 cc                               int3   
                           .text:01002ad5 cc                               int3   
                           .text:01002ad6 ff 25 cc 10 00 01                jmp    *0x10010cc
                           .text:01002adc cc                               int3   
                           .text:01002add cc                               int3   
                           .text:01002ade cc                               int3   
                           .text:01002adf cc                               int3   
                           .text:01002ae0 cc                               int3   
                           .text:01002ae1 8b ff                            mov    %edi,%edi
                           .text:01002ae3 55                               push   %ebp
                           .text:01002ae4 8b ec                            mov    %esp,%ebp
                           .text:01002ae6 8b 45 08                         mov    0x8(%ebp),%eax
                           .text:01002ae9 8b 00                            mov    (%eax),%eax
                           .text:01002aeb 81 38 63 73 6d e0                cmpl   $0xe06d7363,(%eax)
                           .text:01002af1 75 2b                            jne    0x01002b1e
                           .text:01002af3 83 78 10 03                      cmpl   $0x3,0x10(%eax)
                           .text:01002af7 75 25                            jne    0x01002b1e
                           .text:01002af9 8b 40 14                         mov    0x14(%eax),%eax
                           .text:01002afc 3d 20 05 93 19                   cmp    $0x19930520,%eax
                           .text:01002b01 74 15                            je     0x01002b18
                           .text:01002b03 3d 21 05 93 19                   cmp    $0x19930521,%eax
                           .text:01002b08 74 0e                            je     0x01002b18
                           .text:01002b0a 3d 22 05 93 19                   cmp    $0x19930522,%eax
                           .text:01002b0f 74 07                            je     0x01002b18
                           .text:01002b11 3d 00 40 99 01                   cmp    $0x1994000,%eax
                           .text:01002b16 75 06                            jne    0x01002b1e
                           .text:01002b18 ff 15 e4 10 00 01                call   *0x10010e4
                           .text:01002b1e 33 c0                            xor    %eax,%eax
                           .text:01002b20 5d                               pop    %ebp
                           .text:01002b21 c2 04 00                         ret    $0x4
                           .text:01002b24 cc                               int3   
                           .text:01002b25 cc                               int3   
                           .text:01002b26 cc                               int3   
                           .text:01002b27 cc                               int3   
                           .text:01002b28 cc                               int3   
                           .text:01002b29 68 e1 2a 00 01                   push   $0x1002ae1
                           .text:01002b2e ff 15 5c 10 00 01                call   *0x100105c
                           .text:01002b34 33 c0                            xor    %eax,%eax
                           .text:01002b36 c3                               ret    
                           .text:01002b37 cc                               int3   
                           .text:01002b38 cc                               int3   
                           .text:01002b39 cc                               int3   
                           .text:01002b3a cc                               int3   
                           .text:01002b3b cc                               int3   
                           .text:01002b3c ff 25 bc 10 00 01                jmp    *0x10010bc
                           .text:01002b42 cc                               int3   
                           .text:01002b43 cc                               int3   
                           .text:01002b44 cc                               int3   
                           .text:01002b45 cc                               int3   
                           .text:01002b46 cc                               int3   
                           .text:01002b47 cc                               int3   
                           .text:01002b48 cc                               int3   
                           .text:01002b49 cc                               int3   
                           .text:01002b4a cc                               int3   
                           .text:01002b4b cc                               int3   
                           .text:01002b4c cc                               int3   
                           .text:01002b4d cc                               int3   
                           .text:01002b4e cc                               int3   
                           .text:01002b4f cc                               int3   
                           .text:01002b50 8b ff                            mov    %edi,%edi
                           .text:01002b52 55                               push   %ebp
                           .text:01002b53 8b ec                            mov    %esp,%ebp
                           .text:01002b55 8b 4d 08                         mov    0x8(%ebp),%ecx
                           .text:01002b58 b8 4d 5a 00 00                   mov    $0x5a4d,%eax
                           .text:01002b5d 66 39 01                         cmp    %ax,(%ecx)
                           .text:01002b60 74 04                            je     0x01002b66
                           .text:01002b62 33 c0                            xor    %eax,%eax
                           .text:01002b64 5d                               pop    %ebp
                           .text:01002b65 c3                               ret    
                           .text:01002b66 8b 41 3c                         mov    0x3c(%ecx),%eax
                           .text:01002b69 03 c1                            add    %ecx,%eax
                           .text:01002b6b 81 38 50 45 00 00                cmpl   $0x4550,(%eax)
                           .text:01002b71 75 ef                            jne    0x01002b62
                           .text:01002b73 33 d2                            xor    %edx,%edx
                           .text:01002b75 b9 0b 01 00 00                   mov    $0x10b,%ecx
                           .text:01002b7a 66 39 48 18                      cmp    %cx,0x18(%eax)
                           .text:01002b7e 0f 94 c2                         sete   %dl
                           .text:01002b81 8b c2                            mov    %edx,%eax
                           .text:01002b83 5d                               pop    %ebp
                           .text:01002b84 c3                               ret    
                           .text:01002b85 cc                               int3   
                           .text:01002b86 cc                               int3   
                           .text:01002b87 cc                               int3   
                           .text:01002b88 cc                               int3   
                           .text:01002b89 cc                               int3   
                           .text:01002b8a cc                               int3   
                           .text:01002b8b cc                               int3   
                           .text:01002b8c cc                               int3   
                           .text:01002b8d cc                               int3   
                           .text:01002b8e cc                               int3   
                           .text:01002b8f cc                               int3   
                           .text:01002b90 8b ff                            mov    %edi,%edi
                           .text:01002b92 55                               push   %ebp
                           .text:01002b93 8b ec                            mov    %esp,%ebp
                           .text:01002b95 8b 45 08                         mov    0x8(%ebp),%eax
                           .text:01002b98 8b 48 3c                         mov    0x3c(%eax),%ecx
                           .text:01002b9b 03 c8                            add    %eax,%ecx
                           .text:01002b9d 0f b7 41 14                      movzwl 0x14(%ecx),%eax
                           .text:01002ba1 53                               push   %ebx
                           .text:01002ba2 56                               push   %esi
                           .text:01002ba3 0f b7 71 06                      movzwl 0x6(%ecx),%esi
                           .text:01002ba7 33 d2                            xor    %edx,%edx
                           .text:01002ba9 57                               push   %edi
                           .text:01002baa 8d 44 08 18                      lea    0x18(%eax,%ecx,1),%eax
                           .text:01002bae 85 f6                            test   %esi,%esi
                           .text:01002bb0 76 1b                            jbe    0x01002bcd
                           .text:01002bb2 8b 7d 0c                         mov    0xc(%ebp),%edi
                           .text:01002bb5 8b 48 0c                         mov    0xc(%eax),%ecx
                           .text:01002bb8 3b f9                            cmp    %ecx,%edi
                           .text:01002bba 72 09                            jb     0x01002bc5
                           .text:01002bbc 8b 58 08                         mov    0x8(%eax),%ebx
                           .text:01002bbf 03 d9                            add    %ecx,%ebx
                           .text:01002bc1 3b fb                            cmp    %ebx,%edi
                           .text:01002bc3 72 0a                            jb     0x01002bcf
                           .text:01002bc5 42                               inc    %edx
                           .text:01002bc6 83 c0 28                         add    $0x28,%eax
                           .text:01002bc9 3b d6                            cmp    %esi,%edx
                           .text:01002bcb 72 e8                            jb     0x01002bb5
                           .text:01002bcd 33 c0                            xor    %eax,%eax
                           .text:01002bcf 5f                               pop    %edi
                           .text:01002bd0 5e                               pop    %esi
                           .text:01002bd1 5b                               pop    %ebx
                           .text:01002bd2 5d                               pop    %ebp
                           .text:01002bd3 c3                               ret    
                           .text:01002bd4 cc                               int3   
                           .text:01002bd5 cc                               int3   
                           .text:01002bd6 cc                               int3   
                           .text:01002bd7 cc                               int3   
                           .text:01002bd8 cc                               int3   
                           .text:01002bd9 6a 08                            push   $0x8
                           .text:01002bdb 68 78 30 00 01                   push   $0x1003078
                           .text:01002be0 e8 7f 00 00 00                   call   0x01002c64
                           .text:01002be5 83 65 fc 00                      andl   $0x0,-0x4(%ebp)
                           .text:01002be9 be 00 00 00 01                   mov    $0x1000000,%esi
                           .text:01002bee 56                               push   %esi
                           .text:01002bef e8 5c ff ff ff                   call   0x01002b50
                           .text:01002bf4 59                               pop    %ecx
                           .text:01002bf5 85 c0                            test   %eax,%eax
                           .text:01002bf7 74 3d                            je     0x01002c36
                           .text:01002bf9 8b 45 08                         mov    0x8(%ebp),%eax
                           .text:01002bfc 2b c6                            sub    %esi,%eax
                           .text:01002bfe 50                               push   %eax
                           .text:01002bff 56                               push   %esi
                           .text:01002c00 e8 8b ff ff ff                   call   0x01002b90
                           .text:01002c05 59                               pop    %ecx
                           .text:01002c06 59                               pop    %ecx
                           .text:01002c07 85 c0                            test   %eax,%eax
                           .text:01002c09 74 2b                            je     0x01002c36
                           .text:01002c0b 8b 40 24                         mov    0x24(%eax),%eax
                           .text:01002c0e c1 e8 1f                         shr    $0x1f,%eax
                           .text:01002c11 f7 d0                            not    %eax
                           .text:01002c13 83 e0 01                         and    $0x1,%eax
                           .text:01002c16 c7 45 fc fe ff ff ff             movl   $0xfffffffe,-0x4(%ebp)
                           .text:01002c1d eb 20                            jmp    0x01002c3f
                           .text:01002c1f 8b 45 ec                         mov    -0x14(%ebp),%eax
                           .text:01002c22 8b 00                            mov    (%eax),%eax
                           .text:01002c24 8b 00                            mov    (%eax),%eax
                           .text:01002c26 33 c9                            xor    %ecx,%ecx
                           .text:01002c28 3d 05 00 00 c0                   cmp    $0xc0000005,%eax
                           .text:01002c2d 0f 94 c1                         sete   %cl
                           .text:01002c30 8b c1                            mov    %ecx,%eax
                           .text:01002c32 c3                               ret    
                           .text:01002c33 8b 65 e8                         mov    -0x18(%ebp),%esp
                           .text:01002c36 c7 45 fc fe ff ff ff             movl   $0xfffffffe,-0x4(%ebp)
                           .text:01002c3d 33 c0                            xor    %eax,%eax
                           .text:01002c3f e8 65 00 00 00                   call   0x01002ca9
                           .text:01002c44 c3                               ret    
                           .text:01002c45 cc                               int3   
                           .text:01002c46 cc                               int3   
                           .text:01002c47 cc                               int3   
                           .text:01002c48 cc                               int3   
                           .text:01002c49 cc                               int3   
                           .text:01002c4a ff 25 b8 10 00 01                jmp    *0x10010b8
                           .text:01002c50 cc                               int3   
                           .text:01002c51 cc                               int3   
                           .text:01002c52 cc                               int3   
                           .text:01002c53 cc                               int3   
                           .text:01002c54 cc                               int3   
                           .text:01002c55 cc                               int3   
                           .text:01002c56 ff 25 b4 10 00 01                jmp    *0x10010b4
                           .text:01002c5c cc                               int3   
                           .text:01002c5d cc                               int3   
                           .text:01002c5e cc                               int3   
                           .text:01002c5f cc                               int3   
                           .text:01002c60 cc                               int3   
                           .text:01002c61 cc                               int3   
                           .text:01002c62 cc                               int3   
                           .text:01002c63 cc                               int3   
                           .text:01002c64 68 c2 2c 00 01                   push   $0x1002cc2
                           .text:01002c69 64 ff 35 00 00 00 00             pushl  %fs:0x0
                           .text:01002c70 8b 44 24 10                      mov    0x10(%esp),%eax
                           .text:01002c74 89 6c 24 10                      mov    %ebp,0x10(%esp)
                           .text:01002c78 8d 6c 24 10                      lea    0x10(%esp),%ebp
                           .text:01002c7c 2b e0                            sub    %eax,%esp
                           .text:01002c7e 53                               push   %ebx
                           .text:01002c7f 56                               push   %esi
                           .text:01002c80 57                               push   %edi
                           .text:01002c81 a1 a4 40 00 01                   mov    0x10040a4,%eax
                           .text:01002c86 31 45 fc                         xor    %eax,-0x4(%ebp)
                           .text:01002c89 33 c5                            xor    %ebp,%eax
                           .text:01002c8b 50                               push   %eax
                           .text:01002c8c 89 65 e8                         mov    %esp,-0x18(%ebp)
                           .text:01002c8f ff 75 f8                         pushl  -0x8(%ebp)
                           .text:01002c92 8b 45 fc                         mov    -0x4(%ebp),%eax
                           .text:01002c95 c7 45 fc fe ff ff ff             movl   $0xfffffffe,-0x4(%ebp)
                           .text:01002c9c 89 45 f8                         mov    %eax,-0x8(%ebp)
                           .text:01002c9f 8d 45 f0                         lea    -0x10(%ebp),%eax
                           .text:01002ca2 64 a3 00 00 00 00                mov    %eax,%fs:0x0
                           .text:01002ca8 c3                               ret    
                           .text:01002ca9 8b 4d f0                         mov    -0x10(%ebp),%ecx
                           .text:01002cac 64 89 0d 00 00 00 00             mov    %ecx,%fs:0x0
                           .text:01002cb3 59                               pop    %ecx
                           .text:01002cb4 5f                               pop    %edi
                           .text:01002cb5 5f                               pop    %edi
                           .text:01002cb6 5e                               pop    %esi
                           .text:01002cb7 5b                               pop    %ebx
                           .text:01002cb8 8b e5                            mov    %ebp,%esp
                           .text:01002cba 5d                               pop    %ebp
                           .text:01002cbb 51                               push   %ecx
                           .text:01002cbc c3                               ret    
                           .text:01002cbd cc                               int3   
                           .text:01002cbe cc                               int3   
                           .text:01002cbf cc                               int3   
                           .text:01002cc0 cc                               int3   
                           .text:01002cc1 cc                               int3   
                           .text:01002cc2 8b ff                            mov    %edi,%edi
                           .text:01002cc4 55                               push   %ebp
                           .text:01002cc5 8b ec                            mov    %esp,%ebp
                           .text:01002cc7 ff 75 14                         pushl  0x14(%ebp)
                           .text:01002cca ff 75 10                         pushl  0x10(%ebp)
                           .text:01002ccd ff 75 0c                         pushl  0xc(%ebp)
                           .text:01002cd0 ff 75 08                         pushl  0x8(%ebp)
                           .text:01002cd3 68 c1 2a 00 01                   push   $0x1002ac1
                           .text:01002cd8 68 a4 40 00 01                   push   $0x10040a4
                           .text:01002cdd e8 4c 02 00 00                   call   0x01002f2e
                           .text:01002ce2 83 c4 18                         add    $0x18,%esp
                           .text:01002ce5 5d                               pop    %ebp
                           .text:01002ce6 c3                               ret    
                           .text:01002ce7 cc                               int3   
                           .text:01002ce8 cc                               int3   
                           .text:01002ce9 cc                               int3   
                           .text:01002cea cc                               int3   
                           .text:01002ceb cc                               int3   
                           .text:01002cec 68 00 00 03 00                   push   $0x30000
                           .text:01002cf1 68 00 00 01 00                   push   $0x10000
                           .text:01002cf6 ff 15 ec 10 00 01                call   *0x10010ec
                           .text:01002cfc 59                               pop    %ecx
                           .text:01002cfd 59                               pop    %ecx
                           .text:01002cfe c3                               ret    
                           .text:01002cff cc                               int3   
                           .text:01002d00 cc                               int3   
                           .text:01002d01 cc                               int3   
                           .text:01002d02 cc                               int3   
                           .text:01002d03 cc                               int3   
                           .text:01002d04 33 c0                            xor    %eax,%eax
                           .text:01002d06 c3                               ret    
                           .text:01002d07 cc                               int3   
                           .text:01002d08 cc                               int3   
                           .text:01002d09 cc                               int3   
                           .text:01002d0a cc                               int3   
                           .text:01002d0b cc                               int3   
                           .text:01002d0c 6a 0c                            push   $0xc
                           .text:01002d0e 68 98 30 00 01                   push   $0x1003098
                           .text:01002d13 e8 4c ff ff ff                   call   0x01002c64
                           .text:01002d18 33 c0                            xor    %eax,%eax
                           .text:01002d1a 8b 4d 08                         mov    0x8(%ebp),%ecx
                           .text:01002d1d 85 c9                            test   %ecx,%ecx
                           .text:01002d1f 74 44                            je     0x01002d65
                           .text:01002d21 83 f9 ff                         cmp    $0xffffffff,%ecx
                           .text:01002d24 74 3f                            je     0x01002d65
                           .text:01002d26 21 45 fc                         and    %eax,-0x4(%ebp)
                           .text:01002d29 ba 4d 5a 00 00                   mov    $0x5a4d,%edx
                           .text:01002d2e 66 39 11                         cmp    %dx,(%ecx)
                           .text:01002d31 75 2b                            jne    0x01002d5e
                           .text:01002d33 8b 51 3c                         mov    0x3c(%ecx),%edx
                           .text:01002d36 85 d2                            test   %edx,%edx
                           .text:01002d38 7c 24                            jl     0x01002d5e
                           .text:01002d3a 81 fa 00 00 00 10                cmp    $0x10000000,%edx
                           .text:01002d40 73 1c                            jae    0x01002d5e
                           .text:01002d42 8d 04 0a                         lea    (%edx,%ecx,1),%eax
                           .text:01002d45 89 45 e4                         mov    %eax,-0x1c(%ebp)
                           .text:01002d48 81 38 50 45 00 00                cmpl   $0x4550,(%eax)
                           .text:01002d4e 74 0e                            je     0x01002d5e
                           .text:01002d50 eb 07                            jmp    0x01002d59
                           .text:01002d52 33 c0                            xor    %eax,%eax
                           .text:01002d54 40                               inc    %eax
                           .text:01002d55 c3                               ret    
                           .text:01002d56 8b 65 e8                         mov    -0x18(%ebp),%esp
                           .text:01002d59 33 c0                            xor    %eax,%eax
                           .text:01002d5b 89 45 e4                         mov    %eax,-0x1c(%ebp)
                           .text:01002d5e c7 45 fc fe ff ff ff             movl   $0xfffffffe,-0x4(%ebp)
                           .text:01002d65 e8 3f ff ff ff                   call   0x01002ca9
                           .text:01002d6a c2 04 00                         ret    $0x4
                           .text:01002d6d cc                               int3   
                           .text:01002d6e cc                               int3   
                           .text:01002d6f cc                               int3   
                           .text:01002d70 cc                               int3   
                           .text:01002d71 cc                               int3   
                           .text:01002d72 8b ff                            mov    %edi,%edi
                           .text:01002d74 55                               push   %ebp
                           .text:01002d75 8b ec                            mov    %esp,%ebp
                           .text:01002d77 6a 00                            push   $0x0
                           .text:01002d79 ff 15 58 10 00 01                call   *0x1001058
                           .text:01002d7f 85 c0                            test   %eax,%eax
                           .text:01002d81 74 24                            je     0x01002da7
                           .text:01002d83 50                               push   %eax
                           .text:01002d84 e8 83 ff ff ff                   call   0x01002d0c
                           .text:01002d89 85 c0                            test   %eax,%eax
                           .text:01002d8b 74 1a                            je     0x01002da7
                           .text:01002d8d 0f b7 40 5c                      movzwl 0x5c(%eax),%eax
                           .text:01002d91 66 83 f8 02                      cmp    $0x2,%ax
                           .text:01002d95 75 05                            jne    0x01002d9c
                           .text:01002d97 6a 02                            push   $0x2
                           .text:01002d99 58                               pop    %eax
                           .text:01002d9a 5d                               pop    %ebp
                           .text:01002d9b c3                               ret    
                           .text:01002d9c 66 83 f8 03                      cmp    $0x3,%ax
                           .text:01002da0 75 05                            jne    0x01002da7
                           .text:01002da2 33 c0                            xor    %eax,%eax
                           .text:01002da4 40                               inc    %eax
                           .text:01002da5 5d                               pop    %ebp
                           .text:01002da6 c3                               ret    
                           .text:01002da7 8b 45 08                         mov    0x8(%ebp),%eax
                           .text:01002daa 5d                               pop    %ebp
                           .text:01002dab c3                               ret    
                           .text:01002dac cc                               int3   
                           .text:01002dad cc                               int3   
                           .text:01002dae cc                               int3   
                           .text:01002daf cc                               int3   
                           .text:01002db0 cc                               int3   
                           .text:01002db1 8b ff                            mov    %edi,%edi
                           .text:01002db3 55                               push   %ebp
                           .text:01002db4 8b ec                            mov    %esp,%ebp
                           .text:01002db6 83 ec 10                         sub    $0x10,%esp
                           .text:01002db9 a1 a4 40 00 01                   mov    0x10040a4,%eax
                           .text:01002dbe 83 65 f8 00                      andl   $0x0,-0x8(%ebp)
                           .text:01002dc2 83 65 fc 00                      andl   $0x0,-0x4(%ebp)
                           .text:01002dc6 53                               push   %ebx
                           .text:01002dc7 57                               push   %edi
                           .text:01002dc8 bf 4e e6 40 bb                   mov    $0xbb40e64e,%edi
                           .text:01002dcd bb 00 00 ff ff                   mov    $0xffff0000,%ebx
                           .text:01002dd2 3b c7                            cmp    %edi,%eax
                           .text:01002dd4 74 0d                            je     0x01002de3
                           .text:01002dd6 85 c3                            test   %eax,%ebx
                           .text:01002dd8 74 09                            je     0x01002de3
                           .text:01002dda f7 d0                            not    %eax
                           .text:01002ddc a3 a8 40 00 01                   mov    %eax,0x10040a8
                           .text:01002de1 eb 5b                            jmp    0x01002e3e
                           .text:01002de3 56                               push   %esi
                           .text:01002de4 8d 45 f8                         lea    -0x8(%ebp),%eax
                           .text:01002de7 50                               push   %eax
                           .text:01002de8 ff 15 44 10 00 01                call   *0x1001044
                           .text:01002dee 8b 75 fc                         mov    -0x4(%ebp),%esi
                           .text:01002df1 33 75 f8                         xor    -0x8(%ebp),%esi
                           .text:01002df4 ff 15 48 10 00 01                call   *0x1001048
                           .text:01002dfa 33 f0                            xor    %eax,%esi
                           .text:01002dfc ff 15 4c 10 00 01                call   *0x100104c
                           .text:01002e02 33 f0                            xor    %eax,%esi
                           .text:01002e04 ff 15 50 10 00 01                call   *0x1001050
                           .text:01002e0a 33 f0                            xor    %eax,%esi
                           .text:01002e0c 8d 45 f0                         lea    -0x10(%ebp),%eax
                           .text:01002e0f 50                               push   %eax
                           .text:01002e10 ff 15 54 10 00 01                call   *0x1001054
                           .text:01002e16 8b 45 f4                         mov    -0xc(%ebp),%eax
                           .text:01002e19 33 45 f0                         xor    -0x10(%ebp),%eax
                           .text:01002e1c 33 f0                            xor    %eax,%esi
                           .text:01002e1e 3b f7                            cmp    %edi,%esi
                           .text:01002e20 74 08                            je     0x01002e2a
                           .text:01002e22 85 1d a4 40 00 01                test   %ebx,0x10040a4
                           .text:01002e28 75 05                            jne    0x01002e2f
                           .text:01002e2a be 4f e6 40 bb                   mov    $0xbb40e64f,%esi
                           .text:01002e2f 89 35 a4 40 00 01                mov    %esi,0x10040a4
                           .text:01002e35 f7 d6                            not    %esi
                           .text:01002e37 89 35 a8 40 00 01                mov    %esi,0x10040a8
                           .text:01002e3d 5e                               pop    %esi
                           .text:01002e3e 5f                               pop    %edi
                           .text:01002e3f 5b                               pop    %ebx
                           .text:01002e40 c9                               leave  
                           .text:01002e41 c3                               ret    
                           .text:01002e42 cc                               int3   
                           .text:01002e43 cc                               int3   
                           .text:01002e44 cc                               int3   
                           .text:01002e45 cc                               int3   
                           .text:01002e46 cc                               int3   
                           .text:01002e47 8b ff                            mov    %edi,%edi
                           .text:01002e49 55                               push   %ebp
                           .text:01002e4a 8b ec                            mov    %esp,%ebp
                           .text:01002e4c 81 ec 28 03 00 00                sub    $0x328,%esp
                           .text:01002e52 a3 08 52 00 01                   mov    %eax,0x1005208
                           .text:01002e57 89 0d 04 52 00 01                mov    %ecx,0x1005204
                           .text:01002e5d 89 15 00 52 00 01                mov    %edx,0x1005200
                           .text:01002e63 89 1d fc 51 00 01                mov    %ebx,0x10051fc
                           .text:01002e69 89 35 f8 51 00 01                mov    %esi,0x10051f8
                           .text:01002e6f 89 3d f4 51 00 01                mov    %edi,0x10051f4
                           .text:01002e75 66 8c 15 20 52 00 01             data16 mov %ss,0x1005220
                           .text:01002e7c 66 8c 0d 14 52 00 01             data16 mov %cs,0x1005214
                           .text:01002e83 66 8c 1d f0 51 00 01             data16 mov %ds,0x10051f0
                           .text:01002e8a 66 8c 05 ec 51 00 01             data16 mov %es,0x10051ec
                           .text:01002e91 66 8c 25 e8 51 00 01             data16 mov %fs,0x10051e8
                           .text:01002e98 66 8c 2d e4 51 00 01             data16 mov %gs,0x10051e4
                           .text:01002e9f 9c                               pushf  
                           .text:01002ea0 8f 05 18 52 00 01                popl   0x1005218
                           .text:01002ea6 8b 45 00                         mov    0x0(%ebp),%eax
                           .text:01002ea9 a3 0c 52 00 01                   mov    %eax,0x100520c
                           .text:01002eae 8b 45 04                         mov    0x4(%ebp),%eax
                           .text:01002eb1 a3 10 52 00 01                   mov    %eax,0x1005210
                           .text:01002eb6 8d 45 08                         lea    0x8(%ebp),%eax
                           .text:01002eb9 a3 1c 52 00 01                   mov    %eax,0x100521c
                           .text:01002ebe 8b 85 e0 fc ff ff                mov    -0x320(%ebp),%eax
                           .text:01002ec4 c7 05 58 51 00 01 01 00 01 00    movl   $0x10001,0x1005158
                           .text:01002ece a1 10 52 00 01                   mov    0x1005210,%eax
                           .text:01002ed3 a3 14 51 00 01                   mov    %eax,0x1005114
                           .text:01002ed8 c7 05 08 51 00 01 09 04 00 c0    movl   $0xc0000409,0x1005108
                           .text:01002ee2 c7 05 0c 51 00 01 01 00 00 00    movl   $0x1,0x100510c
                           .text:01002eec a1 a4 40 00 01                   mov    0x10040a4,%eax
                           .text:01002ef1 89 85 d8 fc ff ff                mov    %eax,-0x328(%ebp)
                           .text:01002ef7 a1 a8 40 00 01                   mov    0x10040a8,%eax
                           .text:01002efc 89 85 dc fc ff ff                mov    %eax,-0x324(%ebp)
                           .text:01002f02 6a 00                            push   $0x0
                           .text:01002f04 ff 15 5c 10 00 01                call   *0x100105c
                           .text:01002f0a 68 a0 11 00 01                   push   $0x10011a0
                           .text:01002f0f ff 15 38 10 00 01                call   *0x1001038
                           .text:01002f15 68 09 04 00 c0                   push   $0xc0000409
                           .text:01002f1a ff 15 3c 10 00 01                call   *0x100103c
                           .text:01002f20 50                               push   %eax
                           .text:01002f21 ff 15 40 10 00 01                call   *0x1001040
                           .text:01002f27 c9                               leave  
                           .text:01002f28 c3                               ret    
                           .text:01002f29 cc                               int3   
                           .text:01002f2a cc                               int3   
                           .text:01002f2b cc                               int3   
                           .text:01002f2c cc                               int3   
                           .text:01002f2d cc                               int3   
                           .text:01002f2e ff 25 e8 10 00 01                jmp    *0x10010e8
                           .text:01002f34 cc                               int3   
                           .text:01002f35 cc                               int3   
                           .text:01002f36 cc                               int3   
                           .text:01002f37 cc                               int3   
                           .text:01002f38 cc                               int3   
                           .text:01002f39 8b ff                            mov    %edi,%edi
                           .text:01002f3b 55                               push   %ebp
                           .text:01002f3c 8b ec                            mov    %esp,%ebp
                           .text:01002f3e 51                               push   %ecx
                           .text:01002f3f 51                               push   %ecx
                           .text:01002f40 8d 45 10                         lea    0x10(%ebp),%eax
                           .text:01002f43 89 45 f8                         mov    %eax,-0x8(%ebp)
                           .text:01002f46 8d 45 f8                         lea    -0x8(%ebp),%eax
                           .text:01002f49 50                               push   %eax
                           .text:01002f4a 6a 00                            push   $0x0
                           .text:01002f4c 8d 45 fc                         lea    -0x4(%ebp),%eax
                           .text:01002f4f 50                               push   %eax
                           .text:01002f50 6a 00                            push   $0x0
                           .text:01002f52 ff 75 0c                         pushl  0xc(%ebp)
                           .text:01002f55 ff 35 24 54 00 01                pushl  0x1005424
                           .text:01002f5b 68 00 09 00 00                   push   $0x900
                           .text:01002f60 ff 15 34 10 00 01                call   *0x1001034
                           .text:01002f66 85 c0                            test   %eax,%eax
                           .text:01002f68 75 02                            jne    0x01002f6c
                           .text:01002f6a c9                               leave  
                           .text:01002f6b c3                               ret    
                           .text:01002f6c 8b 45 fc                         mov    -0x4(%ebp),%eax
                           .text:01002f6f 8d 48 01                         lea    0x1(%eax),%ecx
                           .text:01002f72 8a 10                            mov    (%eax),%dl
                           .text:01002f74 40                               inc    %eax
                           .text:01002f75 84 d2                            test   %dl,%dl
                           .text:01002f77 75 f9                            jne    0x01002f72
                           .text:01002f79 56                               push   %esi
                           .text:01002f7a 57                               push   %edi
                           .text:01002f7b 2b c1                            sub    %ecx,%eax
                           .text:01002f7d 8b f0                            mov    %eax,%esi
                           .text:01002f7f 56                               push   %esi
                           .text:01002f80 ff 75 fc                         pushl  -0x4(%ebp)
                           .text:01002f83 ff 75 fc                         pushl  -0x4(%ebp)
                           .text:01002f86 ff 15 84 10 00 01                call   *0x1001084
                           .text:01002f8c 68 00 80 00 00                   push   $0x8000
                           .text:01002f91 ff 75 08                         pushl  0x8(%ebp)
                           .text:01002f94 e8 b3 00 00 00                   call   0x0100304c
                           .text:01002f99 56                               push   %esi
                           .text:01002f9a ff 75 fc                         pushl  -0x4(%ebp)
                           .text:01002f9d 8b f8                            mov    %eax,%edi
                           .text:01002f9f ff 75 08                         pushl  0x8(%ebp)
                           .text:01002fa2 e8 99 00 00 00                   call   0x01003040
                           .text:01002fa7 57                               push   %edi
                           .text:01002fa8 ff 75 08                         pushl  0x8(%ebp)
                           .text:01002fab 8b f0                            mov    %eax,%esi
                           .text:01002fad e8 9a 00 00 00                   call   0x0100304c
                           .text:01002fb2 83 c4 1c                         add    $0x1c,%esp
                           .text:01002fb5 ff 75 fc                         pushl  -0x4(%ebp)
                           .text:01002fb8 ff 15 64 10 00 01                call   *0x1001064
                           .text:01002fbe 5f                               pop    %edi
                           .text:01002fbf 8b c6                            mov    %esi,%eax
                           .text:01002fc1 5e                               pop    %esi
                           .text:01002fc2 c9                               leave  
                           .text:01002fc3 c3                               ret    
                           .text:01002fc4 cc                               int3   
                           .text:01002fc5 cc                               int3   
                           .text:01002fc6 cc                               int3   
                           .text:01002fc7 cc                               int3   
                           .text:01002fc8 cc                               int3   
                           .text:01002fc9 8b ff                            mov    %edi,%edi
                           .text:01002fcb 55                               push   %ebp
                           .text:01002fcc 8b ec                            mov    %esp,%ebp
                           .text:01002fce 51                               push   %ecx
                           .text:01002fcf 33 c0                            xor    %eax,%eax
                           .text:01002fd1 50                               push   %eax
                           .text:01002fd2 8d 4d fc                         lea    -0x4(%ebp),%ecx
                           .text:01002fd5 51                               push   %ecx
                           .text:01002fd6 50                               push   %eax
                           .text:01002fd7 89 45 fc                         mov    %eax,-0x4(%ebp)
                           .text:01002fda e8 55 00 00 00                   call   0x01003034
                           .text:01002fdf 83 f8 7a                         cmp    $0x7a,%eax
                           .text:01002fe2 0f 94 c0                         sete   %al
                           .text:01002fe5 c9                               leave  
                           .text:01002fe6 c3                               ret    
                           .text:01002fe7 cc                               int3   
                           .text:01002fe8 cc                               int3   
                           .text:01002fe9 cc                               int3   
                           .text:01002fea cc                               int3   
                           .text:01002feb cc                               int3   
                           .text:01002fec ff 25 28 10 00 01                jmp    *0x1001028
                           .text:01002ff2 cc                               int3   
                           .text:01002ff3 cc                               int3   
                           .text:01002ff4 cc                               int3   
                           .text:01002ff5 cc                               int3   
                           .text:01002ff6 cc                               int3   
                           .text:01002ff7 cc                               int3   
                           .text:01002ff8 ff 25 24 10 00 01                jmp    *0x1001024
                           .text:01002ffe cc                               int3   
                           .text:01002fff cc                               int3   
                           .text:01003000 cc                               int3   
                           .text:01003001 cc                               int3   
                           .text:01003002 cc                               int3   
                           .text:01003003 cc                               int3   
                           .text:01003004 ff 25 20 10 00 01                jmp    *0x1001020
                           .text:0100300a cc                               int3   
                           .text:0100300b cc                               int3   
                           .text:0100300c cc                               int3   
                           .text:0100300d cc                               int3   
                           .text:0100300e cc                               int3   
                           .text:0100300f cc                               int3   
                           .text:01003010 ff 25 1c 10 00 01                jmp    *0x100101c
                           .text:01003016 cc                               int3   
                           .text:01003017 cc                               int3   
                           .text:01003018 cc                               int3   
                           .text:01003019 cc                               int3   
                           .text:0100301a cc                               int3   
                           .text:0100301b cc                               int3   
                           .text:0100301c ff 25 18 10 00 01                jmp    *0x1001018
                           .text:01003022 cc                               int3   
                           .text:01003023 cc                               int3   
                           .text:01003024 cc                               int3   
                           .text:01003025 cc                               int3   
                           .text:01003026 cc                               int3   
                           .text:01003027 cc                               int3   
                           .text:01003028 ff 25 14 10 00 01                jmp    *0x1001014
                           .text:0100302e cc                               int3   
                           .text:0100302f cc                               int3   
                           .text:01003030 cc                               int3   
                           .text:01003031 cc                               int3   
                           .text:01003032 cc                               int3   
                           .text:01003033 cc                               int3   
                           .text:01003034 ff 25 10 10 00 01                jmp    *0x1001010
                           .text:0100303a cc                               int3   
                           .text:0100303b cc                               int3   
                           .text:0100303c cc                               int3   
                           .text:0100303d cc                               int3   
                           .text:0100303e cc                               int3   
                           .text:0100303f cc                               int3   
                           .text:01003040 ff 25 f4 10 00 01                jmp    *0x10010f4
                           .text:01003046 cc                               int3   
                           .text:01003047 cc                               int3   
                           .text:01003048 cc                               int3   
                           .text:01003049 cc                               int3   
                           .text:0100304a cc                               int3   
                           .text:0100304b cc                               int3   
                           .text:0100304c ff 25 f8 10 00 01                jmp    *0x10010f8
                           .text:01003052 cc                               int3   
                           .text:01003053 cc                               int3   
                           .text:01003054 cc                               int3   
                           .text:01003055 cc                               int3   
                           .text:01003056 cc                               int3   
                           .text:01003057 cc                               int3   
                           .text:01003058 fe                               (bad)  
                           .text:01003059 ff                               (bad)  
                           .text:0100305a ff                               (bad)  
                           .text:0100305b ff 00                            incl   (%eax)
                           .text:0100305d 00 00                            add    %al,(%eax)
                           .text:0100305f 00 d0                            add    %dl,%al
                           .text:01003061 ff                               (bad)  
                           .text:01003062 ff                               (bad)  
                           .text:01003063 ff 00                            incl   (%eax)
                           .text:01003065 00 00                            add    %al,(%eax)
                           .text:01003067 00 fe                            add    %bh,%dh
                           .text:01003069 ff                               (bad)  
                           .text:0100306a ff                               (bad)  
                           .text:0100306b ff 8d 29 00 01 a1                decl   -0x5efeffd7(%ebp)
                           .text:01003071 29 00                            sub    %eax,(%eax)
                           .text:01003073 01 00                            add    %eax,(%eax)
                           .text:01003075 00 00                            add    %al,(%eax)
                           .text:01003077 00 fe                            add    %bh,%dh
                           .text:01003079 ff                               (bad)  
                           .text:0100307a ff                               (bad)  
                           .text:0100307b ff 00                            incl   (%eax)
                           .text:0100307d 00 00                            add    %al,(%eax)
                           .text:0100307f 00 d8                            add    %bl,%al
                           .text:01003081 ff                               (bad)  
                           .text:01003082 ff                               (bad)  
                           .text:01003083 ff 00                            incl   (%eax)
                           .text:01003085 00 00                            add    %al,(%eax)
                           .text:01003087 00 fe                            add    %bh,%dh
                           .text:01003089 ff                               (bad)  
                           .text:0100308a ff                               (bad)  
                           .text:0100308b ff 1f                            lcall  *(%edi)
                           .text:0100308d 2c 00                            sub    $0x0,%al
                           .text:0100308f 01 33                            add    %esi,(%ebx)
                           .text:01003091 2c 00                            sub    $0x0,%al
                           .text:01003093 01 00                            add    %eax,(%eax)
                           .text:01003095 00 00                            add    %al,(%eax)
                           .text:01003097 00 fe                            add    %bh,%dh
                           .text:01003099 ff                               (bad)  
                           .text:0100309a ff                               (bad)  
                           .text:0100309b ff 00                            incl   (%eax)
                           .text:0100309d 00 00                            add    %al,(%eax)
                           .text:0100309f 00 d4                            add    %dl,%ah
                           .text:010030a1 ff                               (bad)  
                           .text:010030a2 ff                               (bad)  
                           .text:010030a3 ff 00                            incl   (%eax)
                           .text:010030a5 00 00                            add    %al,(%eax)
                           .text:010030a7 00 fe                            add    %bh,%dh
                           .text:010030a9 ff                               (bad)  
                           .text:010030aa ff                               (bad)  
                           .text:010030ab ff 52 2d                         call   *0x2d(%edx)
                           .text:010030ae 00 01                            add    %al,(%ecx)
                           .text:010030b0 56                               push   %esi
                           .text:010030b1 2d 00 01 54 31                   sub    $0x31540100,%eax
                           .text:010030b6 00 00                            add    %al,(%eax)
                           .text:010030b8 ff                               (bad)  
                           .text:010030b9 ff                               (bad)  
                           .text:010030ba ff                               (bad)  
                           .text:010030bb ff                               (bad)  
                           .text:010030bc ff                               (bad)  
                           .text:010030bd ff                               (bad)  
                           .text:010030be ff                               (bad)  
                           .text:010030bf ff 8e 32 00 00 00                decl   0x32(%esi)
                           .text:010030c5 10 00                            adc    %al,(%eax)
                           .text:010030c7 00 84 31 00 00 ff ff             add    %al,-0x10000(%ecx,%esi,1)
                           .text:010030ce ff                               (bad)  
                           .text:010030cf ff                               (bad)  
                           .text:010030d0 ff                               (bad)  
                           .text:010030d1 ff                               (bad)  
                           .text:010030d2 ff                               (bad)  
                           .text:010030d3 ff 12                            call   *(%edx)
                           .text:010030d5 33 00                            xor    (%eax),%eax
                           .text:010030d7 00 30                            add    %dh,(%eax)
                           .text:010030d9 10 00                            adc    %al,(%eax)
                           .text:010030db 00 00                            add    %al,(%eax)
                           .text:010030dd 32 00                            xor    (%eax),%al
                           .text:010030df 00 ff                            add    %bh,%bh
                           .text:010030e1 ff                               (bad)  
                           .text:010030e2 ff                               (bad)  
                           .text:010030e3 ff                               (bad)  
                           .text:010030e4 ff                               (bad)  
                           .text:010030e5 ff                               (bad)  
                           .text:010030e6 ff                               (bad)  
                           .text:010030e7 ff                               (bad)  
                           .text:010030e8 de 33                            fidiv  (%ebx)
                           .text:010030ea 00 00                            add    %al,(%eax)
                           .text:010030ec ac                               lods   %ds:(%esi),%al
                           .text:010030ed 10 00                            adc    %al,(%eax)
                           .text:010030ef 00 64 31 00                      add    %ah,0x0(%ecx,%esi,1)
                           .text:010030f3 00 ff                            add    %bh,%bh
                           .text:010030f5 ff                               (bad)  
                           .text:010030f6 ff                               (bad)  
                           .text:010030f7 ff                               (bad)  
                           .text:010030f8 ff                               (bad)  
                           .text:010030f9 ff                               (bad)  
                           .text:010030fa ff                               (bad)  
                           .text:010030fb ff a8 34 00 00 10                ljmp   *0x10000034(%eax)
                           .text:01003101 10 00                            adc    %al,(%eax)
                           .text:01003103 00 d8                            add    %bl,%al
                           .text:01003105 31 00                            xor    %eax,(%eax)
                           .text:01003107 00 ff                            add    %bh,%bh
                           .text:01003109 ff                               (bad)  
                           .text:0100310a ff                               (bad)  
                           .text:0100310b ff                               (bad)  
                           .text:0100310c ff                               (bad)  
                           .text:0100310d ff                               (bad)  
                           .text:0100310e ff                               (bad)  
                           .text:0100310f ff f4                            push   %esp
                           .text:01003111 35 00 00 84 10                   xor    $0x10840000,%eax
                           .text:01003116 00 00                            add    %al,(%eax)
                           .text:01003118 54                               push   %esp
                           .text:01003119 32 00                            xor    (%eax),%al
                           .text:0100311b 00 ff                            add    %bh,%bh
                           .text:0100311d ff                               (bad)  
                           .text:0100311e ff                               (bad)  
                           .text:0100311f ff                               (bad)  
                           .text:01003120 ff                               (bad)  
                           .text:01003121 ff                               (bad)  
                           .text:01003122 ff                               (bad)  
                           .text:01003123 ff 1a                            lcall  *(%edx)
                           .text:01003125 36 00 00                         add    %al,%ss:(%eax)
                           .text:01003128 00 11                            add    %dl,(%ecx)
                           .text:0100312a 00 00                            add    %al,(%eax)
                           .text:0100312c e0 31                            loopne 0x0100315f
                           .text:0100312e 00 00                            add    %al,(%eax)
                           .text:01003130 ff                               (bad)  
                           .text:01003131 ff                               (bad)  
                           .text:01003132 ff                               (bad)  
                           .text:01003133 ff                               (bad)  
                           .text:01003134 ff                               (bad)  
                           .text:01003135 ff                               (bad)  
                           .text:01003136 ff                               (bad)  
                           .text:01003137 ff 50 36                         call   *0x36(%eax)
                           .text:0100313a 00 00                            add    %al,(%eax)
                           .text:0100313c 8c 10                            mov    %ss,(%eax)
                           .text:0100313e 00 00                            add    %al,(%eax)
                           .text:01003140 00 00                            add    %al,(%eax)
                           .text:01003142 00 00                            add    %al,(%eax)
                           .text:01003144 00 00                            add    %al,(%eax)
                           .text:01003146 00 00                            add    %al,(%eax)
                           .text:01003148 00 00                            add    %al,(%eax)
                           .text:0100314a 00 00                            add    %al,(%eax)
                           .text:0100314c 00 00                            add    %al,(%eax)
                           .text:0100314e 00 00                            add    %al,(%eax)
                           .text:01003150 00 00                            add    %al,(%eax)
                           .text:01003152 00 00                            add    %al,(%eax)
                           .text:01003154 6a 32                            push   $0x32
                           .text:01003156 00 00                            add    %al,(%eax)
                           .text:01003158 7e 32                            jle    0x0100318c
                           .text:0100315a 00 00                            add    %al,(%eax)
                           .text:0100315c 5c                               pop    %esp
                           .text:0100315d 32 00                            xor    (%eax),%al
                           .text:0100315f 00 00                            add    %al,(%eax)
                           .text:01003161 00 00                            add    %al,(%eax)
                           .text:01003163 00 94 34 00 00 82 34             add    %dl,0x34820000(%esp,%esi,1)
                           .text:0100316a 00 00                            add    %al,(%eax)
                           .text:0100316c 70 34                            jo     0x010031a2
                           .text:0100316e 00 00                            add    %al,(%eax)
                           .text:01003170 5e                               pop    %esi
                           .text:01003171 34 00                            xor    $0x0,%al
                           .text:01003173 00 4c 34 00                      add    %cl,0x0(%esp,%esi,1)
                           .text:01003177 00 3a                            add    %bh,(%edx)
                           .text:01003179 34 00                            xor    $0x0,%al
                           .text:0100317b 00 26                            add    %ah,(%esi)
                           .text:0100317d 34 00                            xor    $0x0,%al
                           .text:0100317f 00 00                            add    %al,(%eax)
                           .text:01003181 00 00                            add    %al,(%eax)
                           .text:01003183 00 cc                            add    %cl,%ah
                           .text:01003185 34 00                            xor    $0x0,%al
                           .text:01003187 00 d0                            add    %dl,%al
                           .text:01003189 35 00 00 b4 35                   xor    $0x35b40000,%eax
                           .text:0100318e 00 00                            add    %al,(%eax)
                           .text:01003190 a0 35 00 00 8c                   mov    0x8c000035,%al
                           .text:01003195 35 00 00 72 35                   xor    $0x35720000,%eax
                           .text:0100319a 00 00                            add    %al,(%eax)
                           .text:0100319c 5c                               pop    %esp
                           .text:0100319d 35 00 00 46 35                   xor    $0x35460000,%eax
                           .text:010031a2 00 00                            add    %al,(%eax)
                           .text:010031a4 36 35 00 00 1c 35                ss xor $0x351c0000,%eax
                           .text:010031aa 00 00                            add    %al,(%eax)
                           .text:010031ac 08 35 00 00 ea 34                or     %dh,0x34ea0000
                           .text:010031b2 00 00                            add    %al,(%eax)
                           .text:010031b4 b6 34                            mov    $0x34,%dh
                           .text:010031b6 00 00                            add    %al,(%eax)
                           .text:010031b8 9c                               pushf  
                           .text:010031b9 32 00                            xor    (%eax),%al
                           .text:010031bb 00 a8 32 00 00 b0                add    %ch,-0x4fffffce(%eax)
                           .text:010031c1 32 00                            xor    (%eax),%al
                           .text:010031c3 00 c8                            add    %cl,%al
                           .text:010031c5 32 00                            xor    (%eax),%al
                           .text:010031c7 00 d6                            add    %dl,%dh
                           .text:010031c9 32 00                            xor    (%eax),%al
                           .text:010031cb 00 e6                            add    %ah,%dh
                           .text:010031cd 32 00                            xor    (%eax),%al
                           .text:010031cf 00 fc                            add    %bh,%ah
                           .text:010031d1 32 00                            xor    (%eax),%al
                           .text:010031d3 00 00                            add    %al,(%eax)
                           .text:010031d5 00 00                            add    %al,(%eax)
                           .text:010031d7 00 e2                            add    %ah,%dl
                           .text:010031d9 35 00 00 00 00                   xor    $0x0,%eax
                           .text:010031de 00 00                            add    %al,(%eax)
                           .text:010031e0 40                               inc    %eax
                           .text:010031e1 36 00 00                         add    %al,%ss:(%eax)
                           .text:010031e4 33 00                            xor    (%eax),%eax
                           .text:010031e6 00 80 0c 00 00 80                add    %al,-0x7ffffff4(%eax)
                           .text:010031ec 74 00                            je     0x010031ee
                           .text:010031ee 00 80 73 00 00 80                add    %al,-0x7fffff8d(%eax)
                           .text:010031f4 24 36                            and    $0x36,%al
                           .text:010031f6 00 00                            add    %al,(%eax)
                           .text:010031f8 32 36                            xor    (%esi),%dh
                           .text:010031fa 00 00                            add    %al,(%eax)
                           .text:010031fc 00 00                            add    %al,(%eax)
                           .text:010031fe 00 00                            add    %al,(%eax)
                           .text:01003200 ae                               scas   %es:(%edi),%al
                           .text:01003201 33 00                            xor    (%eax),%eax
                           .text:01003203 00 9a 33 00 00 8c                add    %bl,-0x73ffffcd(%edx)
                           .text:01003209 33 00                            xor    (%eax),%eax
                           .text:0100320b 00 80 33 00 00 72                add    %al,0x72000033(%eax)
                           .text:01003211 33 00                            xor    (%eax),%eax
                           .text:01003213 00 6a 33                         add    %ch,0x33(%edx)
                           .text:01003216 00 00                            add    %al,(%eax)
                           .text:01003218 be 33 00 00 50                   mov    $0x50000033,%esi
                           .text:0100321d 33 00                            xor    (%eax),%eax
                           .text:0100321f 00 46 33                         add    %al,0x33(%esi)
                           .text:01003222 00 00                            add    %al,(%eax)
                           .text:01003224 3c 33                            cmp    $0x33,%al
                           .text:01003226 00 00                            add    %al,(%eax)
                           .text:01003228 34 33                            xor    $0x33,%al
                           .text:0100322a 00 00                            add    %al,(%eax)
                           .text:0100322c 2a 33                            sub    (%ebx),%dh
                           .text:0100322e 00 00                            add    %al,(%eax)
                           .text:01003230 cc                               int3   
                           .text:01003231 33 00                            xor    (%eax),%eax
                           .text:01003233 00 20                            add    %ah,(%eax)
                           .text:01003235 33 00                            xor    (%eax),%eax
                           .text:01003237 00 ea                            add    %ch,%dl
                           .text:01003239 33 00                            xor    (%eax),%eax
                           .text:0100323b 00 fe                            add    %bh,%dh
                           .text:0100323d 33 00                            xor    (%eax),%eax
                           .text:0100323f 00 18                            add    %bl,(%eax)
                           .text:01003241 34 00                            xor    $0x0,%al
                           .text:01003243 00 60 33                         add    %ah,0x33(%eax)
                           .text:01003246 00 00                            add    %al,(%eax)
                           .text:01003248 5c                               pop    %esp
                           .text:01003249 36 00 00                         add    %al,%ss:(%eax)
                           .text:0100324c 66 36 00 00                      data16 add %al,%ss:(%eax)
                           .text:01003250 00 00                            add    %al,(%eax)
                           .text:01003252 00 00                            add    %al,(%eax)
                           .text:01003254 00 36                            add    %dh,(%esi)
                           .text:01003256 00 00                            add    %al,(%eax)
                           .text:01003258 00 00                            add    %al,(%eax)
                           .text:0100325a 00 00                            add    %al,(%eax)
                           .text:0100325c 30 02                            xor    %al,(%edx)
                           .text:0100325e 52                               push   %edx
                           .text:0100325f 65 67 43                         gs addr16 inc %ebx
                           .text:01003262 6c                               insb   (%dx),%es:(%edi)
                           .text:01003263 6f                               outsl  %ds:(%esi),(%dx)
                           .text:01003264 73 65                            jae    0x010032cb
                           .text:01003266 4b                               dec    %ebx
                           .text:01003267 65 79 00                         gs jns 0x0100326a
                           .text:0100326a 6d                               insl   (%dx),%es:(%edi)
                           .text:0100326b 02 52 65                         add    0x65(%edx),%dl
                           .text:0100326e 67 51                            addr16 push %ecx
                           .text:01003270 75 65                            jne    0x010032d7
                           .text:01003272 72 79                            jb     0x010032ed
                           .text:01003274 56                               push   %esi
                           .text:01003275 61                               popa   
                           .text:01003276 6c                               insb   (%dx),%es:(%edi)
                           .text:01003277 75 65                            jne    0x010032de
                           .text:01003279 45                               inc    %ebp
                           .text:0100327a 78 41                            js     0x010032bd
                           .text:0100327c 00 00                            add    %al,(%eax)
                           .text:0100327e 60                               pusha  
                           .text:0100327f 02 52 65                         add    0x65(%edx),%dl
                           .text:01003282 67 4f                            addr16 dec %edi
                           .text:01003284 70 65                            jo     0x010032eb
                           .text:01003286 6e                               outsb  %ds:(%esi),(%dx)
                           .text:01003287 4b                               dec    %ebx
                           .text:01003288 65 79 45                         gs jns 0x010032d0
                           .text:0100328b 78 41                            js     0x010032ce
                           .text:0100328d 00 41 44                         add    %al,0x44(%ecx)
                           .text:01003290 56                               push   %esi
                           .text:01003291 41                               inc    %ecx
                           .text:01003292 50                               push   %eax
                           .text:01003293 49                               dec    %ecx
                           .text:01003294 33 32                            xor    (%edx),%esi
                           .text:01003296 2e 64 6c                         cs fs insb (%dx),%es:(%edi)
                           .text:01003299 6c                               insb   (%dx),%es:(%edi)
                           .text:0100329a 00 00                            add    %al,(%eax)
                           .text:0100329c 48                               dec    %eax
                           .text:0100329d 03 4c 6f 63                      add    0x63(%edi,%ebp,2),%ecx
                           .text:010032a1 61                               popa   
                           .text:010032a2 6c                               insb   (%dx),%es:(%edi)
                           .text:010032a3 46                               inc    %esi
                           .text:010032a4 72 65                            jb     0x0100330b
                           .text:010032a6 65 00 b2 04 53 6c 65             add    %dh,%gs:0x656c5304(%edx)
                           .text:010032ad 65 70 00                         gs jo  0x010032b0
                           .text:010032b0 2d 04 53 65 74                   sub    $0x74655304,%eax
                           .text:010032b5 43                               inc    %ebx
                           .text:010032b6 6f                               outsl  %ds:(%esi),(%dx)
                           .text:010032b7 6e                               outsb  %ds:(%esi),(%dx)
                           .text:010032b8 73 6f                            jae    0x01003329
                           .text:010032ba 6c                               insb   (%dx),%es:(%edi)
                           .text:010032bb 65 43                            gs inc %ebx
                           .text:010032bd 74 72                            je     0x01003331
                           .text:010032bf 6c                               insb   (%dx),%es:(%edi)
                           .text:010032c0 48                               dec    %eax
                           .text:010032c1 61                               popa   
                           .text:010032c2 6e                               outsb  %ds:(%esi),(%dx)
                           .text:010032c3 64 6c                            fs insb (%dx),%es:(%edi)
                           .text:010032c5 65 72 00                         gs jb  0x010032c8
                           .text:010032c8 44                               inc    %esp
                           .text:010032c9 03 4c 6f 63                      add    0x63(%edi,%ebp,2),%ecx
                           .text:010032cd 61                               popa   
                           .text:010032ce 6c                               insb   (%dx),%es:(%edi)
                           .text:010032cf 41                               inc    %ecx
                           .text:010032d0 6c                               insb   (%dx),%es:(%edi)
                           .text:010032d1 6c                               insb   (%dx),%es:(%edi)
                           .text:010032d2 6f                               outsl  %ds:(%esi),(%dx)
                           .text:010032d3 63 00                            arpl   %ax,(%eax)
                           .text:010032d5 00 02                            add    %al,(%edx)
                           .text:010032d7 02 47 65                         add    0x65(%edi),%al
                           .text:010032da 74 4c                            je     0x01003328
                           .text:010032dc 61                               popa   
                           .text:010032dd 73 74                            jae    0x01003353
                           .text:010032df 45                               inc    %ebp
                           .text:010032e0 72 72                            jb     0x01003354
                           .text:010032e2 6f                               outsl  %ds:(%esi),(%dx)
                           .text:010032e3 72 00                            jb     0x010032e5
                           .text:010032e5 00 d3                            add    %dl,%bl
                           .text:010032e7 02 48 65                         add    0x65(%eax),%cl
                           .text:010032ea 61                               popa   
                           .text:010032eb 70 53                            jo     0x01003340
                           .text:010032ed 65 74 49                         gs je  0x01003339
                           .text:010032f0 6e                               outsb  %ds:(%esi),(%dx)
                           .text:010032f1 66 6f                            outsw  %ds:(%esi),(%dx)
                           .text:010032f3 72 6d                            jb     0x01003362
                           .text:010032f5 61                               popa   
                           .text:010032f6 74 69                            je     0x01003361
                           .text:010032f8 6f                               outsl  %ds:(%esi),(%dx)
                           .text:010032f9 6e                               outsb  %ds:(%esi),(%dx)
                           .text:010032fa 00 00                            add    %al,(%eax)
                           .text:010032fc 9d                               popf   
                           .text:010032fd 04 53                            add    $0x53,%al
                           .text:010032ff 65 74 54                         gs je  0x01003356
                           .text:01003302 68 72 65 61 64                   push   $0x64616572
                           .text:01003307 55                               push   %ebp
                           .text:01003308 49                               dec    %ecx
                           .text:01003309 4c                               dec    %esp
                           .text:0100330a 61                               popa   
                           .text:0100330b 6e                               outsb  %ds:(%esi),(%dx)
                           .text:0100330c 67 75 61                         addr16 jne 0x01003370
                           .text:0100330f 67 65 00 4b 45                   add    %cl,%gs:0x45(%bp,%di)
                           .text:01003314 52                               push   %edx
                           .text:01003315 4e                               dec    %esi
                           .text:01003316 45                               inc    %ebp
                           .text:01003317 4c                               dec    %esp
                           .text:01003318 33 32                            xor    (%edx),%esi
                           .text:0100331a 2e 64 6c                         cs fs insb (%dx),%es:(%edi)
                           .text:0100331d 6c                               insb   (%dx),%es:(%edi)
                           .text:0100331e 00 00                            add    %al,(%eax)
                           .text:01003320 ea 04 6d 65 6d 63 70             ljmp   $0x7063,$0x6d656d04
                           .text:01003327 79 00                            jns    0x01003329
                           .text:01003329 00 2b                            add    %ch,(%ebx)
                           .text:0100332b 05 73 74 72 74                   add    $0x74727473,%eax
                           .text:01003330 6f                               outsl  %ds:(%esi),(%dx)
                           .text:01003331 75 6c                            jne    0x0100339f
                           .text:01003333 00 8f 04 65 78 69                add    %cl,0x69786504(%edi)
                           .text:01003339 74 00                            je     0x0100333b
                           .text:0100333b 00 c6                            add    %al,%dh
                           .text:0100333d 04 69                            add    $0x69,%al
                           .text:0100333f 73 73                            jae    0x010033b4
                           .text:01003341 70 61                            jo     0x010033a4
                           .text:01003343 63 65 00                         arpl   %sp,0x0(%ebp)
                           .text:01003346 ee                               out    %al,(%dx)
                           .text:01003347 04 6d                            add    $0x6d,%al
                           .text:01003349 65 6d                            gs insl (%dx),%es:(%edi)
                           .text:0100334b 73 65                            jae    0x010033b2
                           .text:0100334d 74 00                            je     0x0100334f
                           .text:0100334f 00 91 00 5f 5f 67                add    %dl,0x675f5f00(%ecx)
                           .text:01003355 65 74 6d                         gs je  0x010033c5
                           .text:01003358 61                               popa   
                           .text:01003359 69 6e 61 72 67 73 00             imul   $0x736772,0x61(%esi),%ebp
                           .text:01003360 14 01                            adc    $0x1,%al
                           .text:01003362 5f                               pop    %edi
                           .text:01003363 63 65 78                         arpl   %sp,0x78(%ebp)
                           .text:01003366 69 74 00 00 62 01 5f 65          imul   $0x655f0162,0x0(%eax,%eax,1),%esi
                           .text:0100336e 78 69                            js     0x010033d9
                           .text:01003370 74 00                            je     0x01003372
                           .text:01003372 6a 00                            push   $0x0
                           .text:01003374 5f                               pop    %edi
                           .text:01003375 58                               pop    %eax
                           .text:01003376 63 70 74                         arpl   %si,0x74(%eax)
                           .text:01003379 46                               inc    %esi
                           .text:0100337a 69 6c 74 65 72 00 d5 01          imul   $0x1d50072,0x65(%esp,%esi,2),%ebp
                           .text:01003382 5f                               pop    %edi
                           .text:01003383 69 6e 69 74 74 65 72             imul   $0x72657474,0x69(%esi),%ebp
                           .text:0100338a 6d                               insl   (%dx),%es:(%edi)
                           .text:0100338b 00 01                            add    %al,(%ecx)
                           .text:0100338d 01 5f 61                         add    %ebx,0x61(%edi)
                           .text:01003390 6d                               insl   (%dx),%es:(%edi)
                           .text:01003391 73 67                            jae    0x010033fa
                           .text:01003393 5f                               pop    %edi
                           .text:01003394 65 78 69                         gs js  0x01003400
                           .text:01003397 74 00                            je     0x01003399
                           .text:01003399 00 d4                            add    %dl,%ah
                           .text:0100339b 00 5f 5f                         add    %bl,0x5f(%edi)
                           .text:0100339e 73 65                            jae    0x01003405
                           .text:010033a0 74 75                            je     0x01003417
                           .text:010033a2 73 65                            jae    0x01003409
                           .text:010033a4 72 6d                            jb     0x01003413
                           .text:010033a6 61                               popa   
                           .text:010033a7 74 68                            je     0x01003411
                           .text:010033a9 65 72 72                         gs jb  0x0100341e
                           .text:010033ac 00 00                            add    %al,(%eax)
                           .text:010033ae b9 00 5f 5f 70                   mov    $0x705f5f00,%ecx
                           .text:010033b3 5f                               pop    %edi
                           .text:010033b4 5f                               pop    %edi
                           .text:010033b5 63 6f 6d                         arpl   %bp,0x6d(%edi)
                           .text:010033b8 6d                               insl   (%dx),%es:(%edi)
                           .text:010033b9 6f                               outsl  %ds:(%esi),(%dx)
                           .text:010033ba 64 65 00 00                      fs add %al,%gs:(%eax)
                           .text:010033be be 00 5f 5f 70                   mov    $0x705f5f00,%esi
                           .text:010033c3 5f                               pop    %edi
                           .text:010033c4 5f                               pop    %edi
                           .text:010033c5 66 6d                            insw   (%dx),%es:(%edi)
                           .text:010033c7 6f                               outsl  %ds:(%esi),(%dx)
                           .text:010033c8 64 65 00 00                      fs add %al,%gs:(%eax)
                           .text:010033cc d2 00                            rolb   %cl,(%eax)
                           .text:010033ce 5f                               pop    %edi
                           .text:010033cf 5f                               pop    %edi
                           .text:010033d0 73 65                            jae    0x01003437
                           .text:010033d2 74 5f                            je     0x01003433
                           .text:010033d4 61                               popa   
                           .text:010033d5 70 70                            jo     0x01003447
                           .text:010033d7 5f                               pop    %edi
                           .text:010033d8 74 79                            je     0x01003453
                           .text:010033da 70 65                            jo     0x01003441
                           .text:010033dc 00 00                            add    %al,(%eax)
                           .text:010033de 6d                               insl   (%dx),%es:(%edi)
                           .text:010033df 73 76                            jae    0x01003457
                           .text:010033e1 63 72 74                         arpl   %si,0x74(%edx)
                           .text:010033e4 2e 64 6c                         cs fs insb (%dx),%es:(%edi)
                           .text:010033e7 6c                               insb   (%dx),%es:(%edi)
                           .text:010033e8 00 00                            add    %al,(%eax)
                           .text:010033ea 37                               aaa    
                           .text:010033eb 00 3f                            add    %bh,(%edi)
                           .text:010033ed 74 65                            je     0x01003454
                           .text:010033ef 72 6d                            jb     0x0100345e
                           .text:010033f1 69 6e 61 74 65 40 40             imul   $0x40406574,0x61(%esi),%ebp
                           .text:010033f8 59                               pop    %ecx
                           .text:010033f9 41                               inc    %ecx
                           .text:010033fa 58                               pop    %eax
                           .text:010033fb 58                               pop    %eax
                           .text:010033fc 5a                               pop    %edx
                           .text:010033fd 00 59 01                         add    %bl,0x1(%ecx)
                           .text:01003400 5f                               pop    %edi
                           .text:01003401 65 78 63                         gs js  0x01003467
                           .text:01003404 65 70 74                         gs jo  0x0100347b
                           .text:01003407 5f                               pop    %edi
                           .text:01003408 68 61 6e 64 6c                   push   $0x6c646e61
                           .text:0100340d 65 72 34                         gs jb  0x01003444
                           .text:01003410 5f                               pop    %edi
                           .text:01003411 63 6f 6d                         arpl   %bp,0x6d(%edi)
                           .text:01003414 6d                               insl   (%dx),%es:(%edi)
                           .text:01003415 6f                               outsl  %ds:(%esi),(%dx)
                           .text:01003416 6e                               outsb  %ds:(%esi),(%dx)
                           .text:01003417 00 27                            add    %ah,(%edi)
                           .text:01003419 01 5f 63                         add    %ebx,0x63(%edi)
                           .text:0100341c 6f                               outsl  %ds:(%esi),(%dx)
                           .text:0100341d 6e                               outsb  %ds:(%esi),(%dx)
                           .text:0100341e 74 72                            je     0x01003492
                           .text:01003420 6f                               outsl  %ds:(%esi),(%dx)
                           .text:01003421 6c                               insb   (%dx),%es:(%edi)
                           .text:01003422 66 70 00                         data16 jo 0x01003425
                           .text:01003425 00 55 00                         add    %dl,0x0(%ebp)
                           .text:01003428 47                               inc    %edi
                           .text:01003429 65 74 49                         gs je  0x01003475
                           .text:0100342c 70 45                            jo     0x01003473
                           .text:0100342e 72 72                            jb     0x010034a2
                           .text:01003430 6f                               outsl  %ds:(%esi),(%dx)
                           .text:01003431 72 53                            jb     0x01003486
                           .text:01003433 74 72                            je     0x010034a7
                           .text:01003435 69 6e 67 00 00 84 00             imul   $0x840000,0x67(%esi),%ebp
                           .text:0100343c 49                               dec    %ecx
                           .text:0100343d 63 6d 70                         arpl   %bp,0x70(%ebp)
                           .text:01003440 43                               inc    %ebx
                           .text:01003441 6c                               insb   (%dx),%es:(%edi)
                           .text:01003442 6f                               outsl  %ds:(%esi),(%dx)
                           .text:01003443 73 65                            jae    0x010034aa
                           .text:01003445 48                               dec    %eax
                           .text:01003446 61                               popa   
                           .text:01003447 6e                               outsb  %ds:(%esi),(%dx)
                           .text:01003448 64 6c                            fs insb (%dx),%es:(%edi)
                           .text:0100344a 65 00 83 00 49 63 6d             add    %al,%gs:0x6d634900(%ebx)
                           .text:01003451 70 36                            jo     0x01003489
                           .text:01003453 53                               push   %ebx
                           .text:01003454 65 6e                            outsb  %gs:(%esi),(%dx)
                           .text:01003456 64 45                            fs inc %ebp
                           .text:01003458 63 68 6f                         arpl   %bp,0x6f(%eax)
                           .text:0100345b 32 00                            xor    (%eax),%al
                           .text:0100345d 00 89 00 49 63 6d                add    %cl,0x6d634900(%ecx)
                           .text:01003463 70 53                            jo     0x010034b8
                           .text:01003465 65 6e                            outsb  %gs:(%esi),(%dx)
                           .text:01003467 64 45                            fs inc %ebp
                           .text:01003469 63 68 6f                         arpl   %bp,0x6f(%eax)
                           .text:0100346c 32 45 78                         xor    0x78(%ebp),%al
                           .text:0100346f 00 81 00 49 63 6d                add    %al,0x6d634900(%ecx)
                           .text:01003475 70 36                            jo     0x010034ad
                           .text:01003477 43                               inc    %ebx
                           .text:01003478 72 65                            jb     0x010034df
                           .text:0100347a 61                               popa   
                           .text:0100347b 74 65                            je     0x010034e2
                           .text:0100347d 46                               inc    %esi
                           .text:0100347e 69 6c 65 00 85 00 49 63          imul   $0x63490085,0x0(%ebp,%eiz,2),%ebp
                           .text:01003486 6d                               insl   (%dx),%es:(%edi)
                           .text:01003487 70 43                            jo     0x010034cc
                           .text:01003489 72 65                            jb     0x010034f0
                           .text:0100348b 61                               popa   
                           .text:0100348c 74 65                            je     0x010034f3
                           .text:0100348e 46                               inc    %esi
                           .text:0100348f 69 6c 65 00 00 57 00 47          imul   $0x47005700,0x0(%ebp,%eiz,2),%ebp
                           .text:01003497 65 74 49                         gs je  0x010034e3
                           .text:0100349a 70 46                            jo     0x010034e2
                           .text:0100349c 6f                               outsl  %ds:(%esi),(%dx)
                           .text:0100349d 72 77                            jb     0x01003516
                           .text:0100349f 61                               popa   
                           .text:010034a0 72 64                            jb     0x01003506
                           .text:010034a2 54                               push   %esp
                           .text:010034a3 61                               popa   
                           .text:010034a4 62 6c 65 00                      bound  %ebp,0x0(%ebp,%eiz,2)
                           .text:010034a8 49                               dec    %ecx
                           .text:010034a9 50                               push   %eax
                           .text:010034aa 48                               dec    %eax
                           .text:010034ab 4c                               dec    %esp
                           .text:010034ac 50                               push   %eax
                           .text:010034ad 41                               inc    %ecx
                           .text:010034ae 50                               push   %eax
                           .text:010034af 49                               dec    %ecx
                           .text:010034b0 2e 44                            cs inc %esp
                           .text:010034b2 4c                               dec    %esp
                           .text:010034b3 4c                               dec    %esp
                           .text:010034b4 00 00                            add    %al,(%eax)
                           .text:010034b6 eb 02                            jmp    0x010034ba
                           .text:010034b8 49                               dec    %ecx
                           .text:010034b9 6e                               outsb  %ds:(%esi),(%dx)
                           .text:010034ba 74 65                            je     0x01003521
                           .text:010034bc 72 6c                            jb     0x0100352a
                           .text:010034be 6f                               outsl  %ds:(%esi),(%dx)
                           .text:010034bf 63 6b 65                         arpl   %bp,0x65(%ebx)
                           .text:010034c2 64 45                            fs inc %ebp
                           .text:010034c4 78 63                            js     0x01003529
                           .text:010034c6 68 61 6e 67 65                   push   $0x65676e61
                           .text:010034cb 00 e8                            add    %ch,%al
                           .text:010034cd 02 49 6e                         add    0x6e(%ecx),%cl
                           .text:010034d0 74 65                            je     0x01003537
                           .text:010034d2 72 6c                            jb     0x01003540
                           .text:010034d4 6f                               outsl  %ds:(%esi),(%dx)
                           .text:010034d5 63 6b 65                         arpl   %bp,0x65(%ebx)
                           .text:010034d8 64 43                            fs inc %ebx
                           .text:010034da 6f                               outsl  %ds:(%esi),(%dx)
                           .text:010034db 6d                               insl   (%dx),%es:(%edi)
                           .text:010034dc 70 61                            jo     0x0100353f
                           .text:010034de 72 65                            jb     0x01003545
                           .text:010034e0 45                               inc    %ebp
                           .text:010034e1 78 63                            js     0x01003546
                           .text:010034e3 68 61 6e 67 65                   push   $0x65676e61
                           .text:010034e8 00 00                            add    %al,(%eax)
                           .text:010034ea a1 04 53 65 74                   mov    0x74655304,%eax
                           .text:010034ef 55                               push   %ebp
                           .text:010034f0 6e                               outsb  %ds:(%esi),(%dx)
                           .text:010034f1 68 61 6e 64 6c                   push   $0x6c646e61
                           .text:010034f6 65 64 45                         gs fs inc %ebp
                           .text:010034f9 78 63                            js     0x0100355e
                           .text:010034fb 65 70 74                         gs jo  0x01003572
                           .text:010034fe 69 6f 6e 46 69 6c 74             imul   $0x746c6946,0x6e(%edi),%ebp
                           .text:01003505 65 72 00                         gs jb  0x01003508
                           .text:01003508 14 02                            adc    $0x2,%al
                           .text:0100350a 47                               inc    %edi
                           .text:0100350b 65 74 4d                         gs je  0x0100355b
                           .text:0100350e 6f                               outsl  %ds:(%esi),(%dx)
                           .text:0100350f 64 75 6c                         fs jne 0x0100357e
                           .text:01003512 65 48                            gs dec %eax
                           .text:01003514 61                               popa   
                           .text:01003515 6e                               outsb  %ds:(%esi),(%dx)
                           .text:01003516 64 6c                            fs insb (%dx),%es:(%edi)
                           .text:01003518 65 41                            gs inc %ecx
                           .text:0100351a 00 00                            add    %al,(%eax)
                           .text:0100351c a4                               movsb  %ds:(%esi),%es:(%edi)
                           .text:0100351d 03 51 75                         add    0x75(%ecx),%edx
                           .text:01003520 65 72 79                         gs jb  0x0100359c
                           .text:01003523 50                               push   %eax
                           .text:01003524 65 72 66                         gs jb  0x0100358d
                           .text:01003527 6f                               outsl  %ds:(%esi),(%dx)
                           .text:01003528 72 6d                            jb     0x01003597
                           .text:0100352a 61                               popa   
                           .text:0100352b 6e                               outsb  %ds:(%esi),(%dx)
                           .text:0100352c 63 65 43                         arpl   %sp,0x43(%ebp)
                           .text:0100352f 6f                               outsl  %ds:(%esi),(%dx)
                           .text:01003530 75 6e                            jne    0x010035a0
                           .text:01003532 74 65                            je     0x01003599
                           .text:01003534 72 00                            jb     0x01003536
                           .text:01003536 92                               xchg   %eax,%edx
                           .text:01003537 02 47 65                         add    0x65(%edi),%al
                           .text:0100353a 74 54                            je     0x01003590
                           .text:0100353c 69 63 6b 43 6f 75 6e             imul   $0x6e756f43,0x6b(%ebx),%esp
                           .text:01003543 74 00                            je     0x01003545
                           .text:01003545 00 c4                            add    %al,%ah
                           .text:01003547 01 47 65                         add    %eax,0x65(%edi)
                           .text:0100354a 74 43                            je     0x0100358f
                           .text:0100354c 75 72                            jne    0x010035c0
                           .text:0100354e 72 65                            jb     0x010035b5
                           .text:01003550 6e                               outsb  %ds:(%esi),(%dx)
                           .text:01003551 74 54                            je     0x010035a7
                           .text:01003553 68 72 65 61 64                   push   $0x64616572
                           .text:01003558 49                               dec    %ecx
                           .text:01003559 64 00 00                         add    %al,%fs:(%eax)
                           .text:0100355c c0 01 47                         rolb   $0x47,(%ecx)
                           .text:0100355f 65 74 43                         gs je  0x010035a5
                           .text:01003562 75 72                            jne    0x010035d6
                           .text:01003564 72 65                            jb     0x010035cb
                           .text:01003566 6e                               outsb  %ds:(%esi),(%dx)
                           .text:01003567 74 50                            je     0x010035b9
                           .text:01003569 72 6f                            jb     0x010035da
                           .text:0100356b 63 65 73                         arpl   %sp,0x73(%ebp)
                           .text:0100356e 73 49                            jae    0x010035b9
                           .text:01003570 64 00 78 02                      add    %bh,%fs:0x2(%eax)
                           .text:01003574 47                               inc    %edi
                           .text:01003575 65 74 53                         gs je  0x010035cb
                           .text:01003578 79 73                            jns    0x010035ed
                           .text:0100357a 74 65                            je     0x010035e1
                           .text:0100357c 6d                               insl   (%dx),%es:(%edi)
                           .text:0100357d 54                               push   %esp
                           .text:0100357e 69 6d 65 41 73 46 69             imul   $0x69467341,0x65(%ebp),%ebp
                           .text:01003585 6c                               insb   (%dx),%es:(%edi)
                           .text:01003586 65 54                            gs push %esp
                           .text:01003588 69 6d 65 00 bc 04 54             imul   $0x5404bc00,0x65(%ebp),%ebp
                           .text:0100358f 65 72 6d                         gs jb  0x010035ff
                           .text:01003592 69 6e 61 74 65 50 72             imul   $0x72506574,0x61(%esi),%ebp
                           .text:01003599 6f                               outsl  %ds:(%esi),(%dx)
                           .text:0100359a 63 65 73                         arpl   %sp,0x73(%ebp)
                           .text:0100359d 73 00                            jae    0x0100359f
                           .text:0100359f 00 bf 01 47 65 74                add    %bh,0x74654701(%edi)
                           .text:010035a5 43                               inc    %ebx
                           .text:010035a6 75 72                            jne    0x0100361a
                           .text:010035a8 72 65                            jb     0x0100360f
                           .text:010035aa 6e                               outsb  %ds:(%esi),(%dx)
                           .text:010035ab 74 50                            je     0x010035fd
                           .text:010035ad 72 6f                            jb     0x0100361e
                           .text:010035af 63 65 73                         arpl   %sp,0x73(%ebp)
                           .text:010035b2 73 00                            jae    0x010035b4
                           .text:010035b4 cf                               iret   
                           .text:010035b5 04 55                            add    $0x55,%al
                           .text:010035b7 6e                               outsb  %ds:(%esi),(%dx)
                           .text:010035b8 68 61 6e 64 6c                   push   $0x6c646e61
                           .text:010035bd 65 64 45                         gs fs inc %ebp
                           .text:010035c0 78 63                            js     0x01003625
                           .text:010035c2 65 70 74                         gs jo  0x01003639
                           .text:010035c5 69 6f 6e 46 69 6c 74             imul   $0x746c6946,0x6e(%edi),%ebp
                           .text:010035cc 65 72 00                         gs jb  0x010035cf
                           .text:010035cf 00 5c 01 46                      add    %bl,0x46(%ecx,%eax,1)
                           .text:010035d3 6f                               outsl  %ds:(%esi),(%dx)
                           .text:010035d4 72 6d                            jb     0x01003643
                           .text:010035d6 61                               popa   
                           .text:010035d7 74 4d                            je     0x01003626
                           .text:010035d9 65 73 73                         gs jae 0x0100364f
                           .text:010035dc 61                               popa   
                           .text:010035dd 67 65 41                         addr16 gs inc %ecx
                           .text:010035e0 00 00                            add    %al,(%eax)
                           .text:010035e2 36 00 43 68                      add    %al,%ss:0x68(%ebx)
                           .text:010035e6 61                               popa   
                           .text:010035e7 72 54                            jb     0x0100363d
                           .text:010035e9 6f                               outsl  %ds:(%esi),(%dx)
                           .text:010035ea 4f                               dec    %edi
                           .text:010035eb 65 6d                            gs insl (%dx),%es:(%edi)
                           .text:010035ed 42                               inc    %edx
                           .text:010035ee 75 66                            jne    0x01003656
                           .text:010035f0 66 41                            inc    %cx
                           .text:010035f2 00 00                            add    %al,(%eax)
                           .text:010035f4 55                               push   %ebp
                           .text:010035f5 53                               push   %ebx
                           .text:010035f6 45                               inc    %ebp
                           .text:010035f7 52                               push   %edx
                           .text:010035f8 33 32                            xor    (%edx),%esi
                           .text:010035fa 2e 64 6c                         cs fs insb (%dx),%es:(%edi)
                           .text:010035fd 6c                               insb   (%dx),%es:(%edi)
                           .text:010035fe 00 00                            add    %al,(%eax)
                           .text:01003600 c5 03                            lds    (%ebx),%eax
                           .text:01003602 52                               push   %edx
                           .text:01003603 74 6c                            je     0x01003671
                           .text:01003605 49                               dec    %ecx
                           .text:01003606 70 76                            jo     0x0100367e
                           .text:01003608 34 53                            xor    $0x53,%al
                           .text:0100360a 74 72                            je     0x0100367e
                           .text:0100360c 69 6e 67 54 6f 41 64             imul   $0x64416f54,0x67(%esi),%ebp
                           .text:01003613 64 72 65                         fs jb  0x0100367b
                           .text:01003616 73 73                            jae    0x0100368b
                           .text:01003618 41                               inc    %ecx
                           .text:01003619 00 6e 74                         add    %ch,0x74(%esi)
                           .text:0100361c 64 6c                            fs insb (%dx),%es:(%edi)
                           .text:0100361e 6c                               insb   (%dx),%es:(%edi)
                           .text:0100361f 2e 64 6c                         cs fs insb (%dx),%es:(%edi)
                           .text:01003622 6c                               insb   (%dx),%es:(%edi)
                           .text:01003623 00 8d 00 67 65 74                add    %cl,0x74656700(%ebp)
                           .text:01003629 6e                               outsb  %ds:(%esi),(%dx)
                           .text:0100362a 61                               popa   
                           .text:0100362b 6d                               insl   (%dx),%es:(%edi)
                           .text:0100362c 65 69 6e 66 6f 00 89 00          imul   $0x89006f,%gs:0x66(%esi),%ebp
                           .text:01003634 67 65 74 61                      addr16 gs je 0x01003699
                           .text:01003638 64 64 72 69                      fs fs jb 0x010036a5
                           .text:0100363c 6e                               outsb  %ds:(%esi),(%dx)
                           .text:0100363d 66 6f                            outsw  %ds:(%esi),(%dx)
                           .text:0100363f 00 88 00 66 72 65                add    %cl,0x65726600(%eax)
                           .text:01003645 65 61                            gs popa 
                           .text:01003647 64 64 72 69                      fs fs jb 0x010036b4
                           .text:0100364b 6e                               outsb  %ds:(%esi),(%dx)
                           .text:0100364c 66 6f                            outsw  %ds:(%esi),(%dx)
                           .text:0100364e 00 00                            add    %al,(%eax)
                           .text:01003650 57                               push   %edi
                           .text:01003651 53                               push   %ebx
                           .text:01003652 32 5f 33                         xor    0x33(%edi),%bl
                           .text:01003655 32 2e                            xor    (%esi),%ch
                           .text:01003657 64 6c                            fs insb (%dx),%es:(%edi)
                           .text:01003659 6c                               insb   (%dx),%es:(%edi)
                           .text:0100365a 00 00                            add    %al,(%eax)
                           .text:0100365c 48                               dec    %eax
                           .text:0100365d 04 5f                            add    $0x5f,%al
                           .text:0100365f 77 72                            ja     0x010036d3
                           .text:01003661 69 74 65 00 00 2c 03 5f          imul   $0x5f032c00,0x0(%ebp,%eiz,2),%esi
                           .text:01003669 73 65                            jae    0x010036d0
                           .text:0100366b 74 6d                            je     0x010036da
                           .text:0100366d 6f                               outsl  %ds:(%esi),(%dx)
                           .text:0100366e 64 65 00 00                      fs add %al,%gs:(%eax)
                           .data:01004000 f9                               0xf9 
                           .data:01004001 2a                               0x2a '*'
                           .data:01004002 00                               0x00 
                           .data:01004003 00                               0x00 
                           .data:01004004 29                               0x29 ')'
                           .data:01004005 27                               0x27 '''
                           .data:01004006 00                               0x00 
                           .data:01004007 00                               0x00 
                           .data:01004008 fa                               0xfa 
                           .data:01004009 2a                               0x2a '*'
                           .data:0100400a 00                               0x00 
                           .data:0100400b 00                               0x00 
                           .data:0100400c 2a                               0x2a '*'
                           .data:0100400d 27                               0x27 '''
                           .data:0100400e 00                               0x00 
                           .data:0100400f 00                               0x00 
                           .data:01004010 fb                               0xfb 
                           .data:01004011 2a                               0x2a '*'
                           .data:01004012 00                               0x00 
                           .data:01004013 00                               0x00 
                           .data:01004014 2b                               0x2b '+'
                           .data:01004015 27                               0x27 '''
                           .data:01004016 00                               0x00 
                           .data:01004017 00                               0x00 
                           .data:01004018 fc                               0xfc 
                           .data:01004019 2a                               0x2a '*'
                           .data:0100401a 00                               0x00 
                           .data:0100401b 00                               0x00 
                           .data:0100401c 2c                               0x2c ','
                           .data:0100401d 27                               0x27 '''
                           .data:0100401e 00                               0x00 
                           .data:0100401f 00                               0x00 
                           .data:01004020 fd                               0xfd 
                           .data:01004021 2a                               0x2a '*'
                           .data:01004022 00                               0x00 
                           .data:01004023 00                               0x00 
                           .data:01004024 2d                               0x2d '-'
                           .data:01004025 27                               0x27 '''
                           .data:01004026 00                               0x00 
                           .data:01004027 00                               0x00 
                           .data:01004028 fe                               0xfe 
                           .data:01004029 2a                               0x2a '*'
                           .data:0100402a 00                               0x00 
                           .data:0100402b 00                               0x00 
                           .data:0100402c 2e                               0x2e '.'
                           .data:0100402d 27                               0x27 '''
                           .data:0100402e 00                               0x00 
                           .data:0100402f 00                               0x00 
                           .data:01004030 ff                               0xff 
                           .data:01004031 2a                               0x2a '*'
                           .data:01004032 00                               0x00 
                           .data:01004033 00                               0x00 
                           .data:01004034 2f                               0x2f '/'
                           .data:01004035 27                               0x27 '''
                           .data:01004036 00                               0x00 
                           .data:01004037 00                               0x00 
                           .data:01004038 00                               0x00 
                           .data:01004039 2b                               0x2b '+'
                           .data:0100403a 00                               0x00 
                           .data:0100403b 00                               0x00 
                           .data:0100403c 30                               0x30 '0'
                           .data:0100403d 27                               0x27 '''
                           .data:0100403e 00                               0x00 
                           .data:0100403f 00                               0x00 
                           .data:01004040 01                               0x01 
                           .data:01004041 2b                               0x2b '+'
                           .data:01004042 00                               0x00 
                           .data:01004043 00                               0x00 
                           .data:01004044 31                               0x31 '1'
                           .data:01004045 27                               0x27 '''
                           .data:01004046 00                               0x00 
                           .data:01004047 00                               0x00 
                           .data:01004048 02                               0x02 
                           .data:01004049 2b                               0x2b '+'
                           .data:0100404a 00                               0x00 
                           .data:0100404b 00                               0x00 
                           .data:0100404c 32                               0x32 '2'
                           .data:0100404d 27                               0x27 '''
                           .data:0100404e 00                               0x00 
                           .data:0100404f 00                               0x00 
                           .data:01004050 03                               0x03 
                           .data:01004051 2b                               0x2b '+'
                           .data:01004052 00                               0x00 
                           .data:01004053 00                               0x00 
                           .data:01004054 33                               0x33 '3'
                           .data:01004055 27                               0x27 '''
                           .data:01004056 00                               0x00 
                           .data:01004057 00                               0x00 
                           .data:01004058 04                               0x04 
                           .data:01004059 2b                               0x2b '+'
                           .data:0100405a 00                               0x00 
                           .data:0100405b 00                               0x00 
                           .data:0100405c 34                               0x34 '4'
                           .data:0100405d 27                               0x27 '''
                           .data:0100405e 00                               0x00 
                           .data:0100405f 00                               0x00 
                           .data:01004060 05                               0x05 
                           .data:01004061 2b                               0x2b '+'
                           .data:01004062 00                               0x00 
                           .data:01004063 00                               0x00 
                           .data:01004064 35                               0x35 '5'
                           .data:01004065 27                               0x27 '''
                           .data:01004066 00                               0x00 
                           .data:01004067 00                               0x00 
                           .data:01004068 06                               0x06 
                           .data:01004069 2b                               0x2b '+'
                           .data:0100406a 00                               0x00 
                           .data:0100406b 00                               0x00 
                           .data:0100406c 36                               0x36 '6'
                           .data:0100406d 27                               0x27 '''
                           .data:0100406e 00                               0x00 
                           .data:0100406f 00                               0x00 
                           .data:01004070 07                               0x07 
                           .data:01004071 2b                               0x2b '+'
                           .data:01004072 00                               0x00 
                           .data:01004073 00                               0x00 
                           .data:01004074 37                               0x37 '7'
                           .data:01004075 27                               0x27 '''
                           .data:01004076 00                               0x00 
                           .data:01004077 00                               0x00 
                           .data:01004078 08                               0x08 
                           .data:01004079 2b                               0x2b '+'
                           .data:0100407a 00                               0x00 
                           .data:0100407b 00                               0x00 
                           .data:0100407c 38                               0x38 '8'
                           .data:0100407d 27                               0x27 '''
                           .data:0100407e 00                               0x00 
                           .data:0100407f 00                               0x00 
                           .data:01004080 09                               0x09 '	'
                           .data:01004081 2b                               0x2b '+'
                           .data:01004082 00                               0x00 
                           .data:01004083 00                               0x00 
                           .data:01004084 39                               0x39 '9'
                           .data:01004085 27                               0x27 '''
                           .data:01004086 00                               0x00 
                           .data:01004087 00                               0x00 
                           .data:01004088 0a                               0x0a '
'
                           .data:01004089 2b                               0x2b '+'
                           .data:0100408a 00                               0x00 
                           .data:0100408b 00                               0x00 
                           .data:0100408c 3a                               0x3a ':'
                           .data:0100408d 27                               0x27 '''
                           .data:0100408e 00                               0x00 
                           .data:0100408f 00                               0x00 
                           .data:01004090 18                               0x18 
                           .data:01004091 2b                               0x2b '+'
                           .data:01004092 00                               0x00 
                           .data:01004093 00                               0x00 
                           .data:01004094 52                               0x52 'R'
                           .data:01004095 27                               0x27 '''
                           .data:01004096 00                               0x00 
                           .data:01004097 00                               0x00 
                           .data:01004098 2a                               0x2a '*'
                           .data:01004099 2b                               0x2b '+'
                           .data:0100409a 00                               0x00 
                           .data:0100409b 00                               0x00 
                           .data:0100409c 3b                               0x3b ';'
                           .data:0100409d 27                               0x27 '''
                           .data:0100409e 00                               0x00 
                           .data:0100409f 00                               0x00 
                           .data:010040a0 ff                               0xff 
                           .data:010040a1 ff                               0xff 
                           .data:010040a2 ff                               0xff 
                           .data:010040a3 ff                               0xff 
                           .data:010040a4 4e                               0x4e 'N'
                           .data:010040a5 e6                               0xe6 
                           .data:010040a6 40                               0x40 '@'
                           .data:010040a7 bb                               0xbb 
                           .data:010040a8 b1                               0xb1 
                           .data:010040a9 19                               0x19 
                           .data:010040aa bf                               0xbf 
                           .data:010040ab 44                               0x44 'D'
                           .data:010040ac ff                               0xff 
                           .data:010040ad ff                               0xff 
                           .data:010040ae ff                               0xff 
                           .data:010040af ff                               0xff 
                           .data:010040b0 ff                               0xff 
                           .data:010040b1 ff                               0xff 
                           .data:010040b2 ff                               0xff 
                           .data:010040b3 ff                               0xff 
                           .data:010040b4 01                               0x01 
                           .data:010040b5 00                               0x00 
                           .data:010040b6 00                               0x00 
                           .data:010040b7 00                               0x00 
                           .data:010040b8 00                               0x00 
                           .data:010040b9 00                               0x00 
                           .data:010040ba 00                               0x00 
                           .data:010040bb 00                               0x00 
                           .data:010040bc 00                               0x00 
                           .data:010040bd 00                               0x00 
                           .data:010040be 00                               0x00 
                           .data:010040bf 00                               0x00 
                           .data:010040c0 00                               0x00 
                           .data:010040c1 00                               0x00 
                           .data:010040c2 00                               0x00 
                           .data:010040c3 00                               0x00 
                           .data:010040c4 00                               0x00 
                           .data:010040c5 00                               0x00 
                           .data:010040c6 00                               0x00 
                           .data:010040c7 00                               0x00 
                           .data:010040c8 00                               0x00 
                           .data:010040c9 00                               0x00 
                           .data:010040ca 00                               0x00 
                           .data:010040cb 00                               0x00 
                           .data:010040cc 00                               0x00 
                           .data:010040cd 00                               0x00 
                           .data:010040ce 00                               0x00 
                           .data:010040cf 00                               0x00 
                           .data:010040d0 00                               0x00 
                           .data:010040d1 00                               0x00 
                           .data:010040d2 00                               0x00 
                           .data:010040d3 00                               0x00 
                           .data:010040d4 00                               0x00 
                           .data:010040d5 00                               0x00 
                           .data:010040d6 00                               0x00 
                           .data:010040d7 00                               0x00 
                           .data:010040d8 00                               0x00 
                           .data:010040d9 00                               0x00 
                           .data:010040da 00                               0x00 
                           .data:010040db 00                               0x00 
                           .data:010040dc 00                               0x00 
                           .data:010040dd 00                               0x00 
                           .data:010040de 00                               0x00 
                           .data:010040df 00                               0x00 
                           .data:010040e0 00                               0x00 
                           .data:010040e1 00                               0x00 
                           .data:010040e2 00                               0x00 
                           .data:010040e3 00                               0x00 
                           .data:010040e4 00                               0x00 
                           .data:010040e5 00                               0x00 
                           .data:010040e6 00                               0x00 
                           .data:010040e7 00                               0x00 
                           .data:010040e8 00                               0x00 
                           .data:010040e9 00                               0x00 
                           .data:010040ea 00                               0x00 
                           .data:010040eb 00                               0x00 
                           .data:010040ec 00                               0x00 
                           .data:010040ed 00                               0x00 
                           .data:010040ee 00                               0x00 
                           .data:010040ef 00                               0x00 
                           .data:010040f0 00                               0x00 
                           .data:010040f1 00                               0x00 
                           .data:010040f2 00                               0x00 
                           .data:010040f3 00                               0x00 
                           .data:010040f4 00                               0x00 
                           .data:010040f5 00                               0x00 
                           .data:010040f6 00                               0x00 
                           .data:010040f7 00                               0x00 
                           .data:010040f8 00                               0x00 
                           .data:010040f9 00                               0x00 
                           .data:010040fa 00                               0x00 
                           .data:010040fb 00                               0x00 
                           .data:010040fc 00                               0x00 
                           .data:010040fd 00                               0x00 
                           .data:010040fe 00                               0x00 
                           .data:010040ff 00                               0x00 
                           .data:01004100 00                               0x00 
                           .data:01004101 00                               0x00 
                           .data:01004102 00                               0x00 
                           .data:01004103 00                               0x00 
                           .data:01004104 00                               0x00 
                           .data:01004105 00                               0x00 
                           .data:01004106 00                               0x00 
                           .data:01004107 00                               0x00 
                           .data:01004108 00                               0x00 
                           .data:01004109 00                               0x00 
                           .data:0100410a 00                               0x00 
                           .data:0100410b 00                               0x00 
                           .data:0100410c 00                               0x00 
                           .data:0100410d 00                               0x00 
                           .data:0100410e 00                               0x00 
                           .data:0100410f 00                               0x00 
                           .data:01004110 00                               0x00 
                           .data:01004111 00                               0x00 
                           .data:01004112 00                               0x00 
                           .data:01004113 00                               0x00 
                           .data:01004114 00                               0x00 
                           .data:01004115 00                               0x00 
                           .data:01004116 00                               0x00 
                           .data:01004117 00                               0x00 
                           .data:01004118 00                               0x00 
                           .data:01004119 00                               0x00 
                           .data:0100411a 00                               0x00 
                           .data:0100411b 00                               0x00 
                           .data:0100411c 00                               0x00 
                           .data:0100411d 00                               0x00 
                           .data:0100411e 00                               0x00 
                           .data:0100411f 00                               0x00 
                           .data:01004120 00                               0x00 
                           .data:01004121 00                               0x00 
                           .data:01004122 00                               0x00 
                           .data:01004123 00                               0x00 
                           .data:01004124 00                               0x00 
                           .data:01004125 00                               0x00 
                           .data:01004126 00                               0x00 
                           .data:01004127 00                               0x00 
                           .data:01004128 00                               0x00 
                           .data:01004129 00                               0x00 
                           .data:0100412a 00                               0x00 
                           .data:0100412b 00                               0x00 
                           .data:0100412c 00                               0x00 
                           .data:0100412d 00                               0x00 
                           .data:0100412e 00                               0x00 
                           .data:0100412f 00                               0x00 
                           .data:01004130 00                               0x00 
                           .data:01004131 00                               0x00 
                           .data:01004132 00                               0x00 
                           .data:01004133 00                               0x00 
                           .data:01004134 00                               0x00 
                           .data:01004135 00                               0x00 
                           .data:01004136 00                               0x00 
                           .data:01004137 00                               0x00 
                           .data:01004138 00                               0x00 
                           .data:01004139 00                               0x00 
                           .data:0100413a 00                               0x00 
                           .data:0100413b 00                               0x00 
                           .data:0100413c 00                               0x00 
                           .data:0100413d 00                               0x00 
                           .data:0100413e 00                               0x00 
                           .data:0100413f 00                               0x00 
                           .data:01004140 00                               0x00 
                           .data:01004141 00                               0x00 
                           .data:01004142 00                               0x00 
                           .data:01004143 00                               0x00 
                           .data:01004144 00                               0x00 
                           .data:01004145 00                               0x00 
                           .data:01004146 00                               0x00 
                           .data:01004147 00                               0x00 
                           .data:01004148 00                               0x00 
                           .data:01004149 00                               0x00 
                           .data:0100414a 00                               0x00 
                           .data:0100414b 00                               0x00 
                           .data:0100414c 00                               0x00 
                           .data:0100414d 00                               0x00 
                           .data:0100414e 00                               0x00 
                           .data:0100414f 00                               0x00 
                           .data:01004150 00                               0x00 
                           .data:01004151 00                               0x00 
                           .data:01004152 00                               0x00 
                           .data:01004153 00                               0x00 
                           .data:01004154 00                               0x00 
                           .data:01004155 00                               0x00 
                           .data:01004156 00                               0x00 
                           .data:01004157 00                               0x00 
                           .data:01004158 00                               0x00 
                           .data:01004159 00                               0x00 
                           .data:0100415a 00                               0x00 
                           .data:0100415b 00                               0x00 
                           .data:0100415c 00                               0x00 
                           .data:0100415d 00                               0x00 
                           .data:0100415e 00                               0x00 
                           .data:0100415f 00                               0x00 
                           .data:01004160 00                               0x00 
                           .data:01004161 00                               0x00 
                           .data:01004162 00                               0x00 
                           .data:01004163 00                               0x00 
                           .data:01004164 00                               0x00 
                           .data:01004165 00                               0x00 
                           .data:01004166 00                               0x00 
                           .data:01004167 00                               0x00 
                           .data:01004168 00                               0x00 
                           .data:01004169 00                               0x00 
                           .data:0100416a 00                               0x00 
                           .data:0100416b 00                               0x00 
                           .data:0100416c 00                               0x00 
                           .data:0100416d 00                               0x00 
                           .data:0100416e 00                               0x00 
                           .data:0100416f 00                               0x00 
                           .data:01004170 00                               0x00 
                           .data:01004171 00                               0x00 
                           .data:01004172 00                               0x00 
                           .data:01004173 00                               0x00 
                           .data:01004174 00                               0x00 
                           .data:01004175 00                               0x00 
                           .data:01004176 00                               0x00 
                           .data:01004177 00                               0x00 
                           .data:01004178 00                               0x00 
                           .data:01004179 00                               0x00 
                           .data:0100417a 00                               0x00 
                           .data:0100417b 00                               0x00 
                           .data:0100417c 00                               0x00 
                           .data:0100417d 00                               0x00 
                           .data:0100417e 00                               0x00 
                           .data:0100417f 00                               0x00 
                           .data:01004180 00                               0x00 
                           .data:01004181 00                               0x00 
                           .data:01004182 00                               0x00 
                           .data:01004183 00                               0x00 
                           .data:01004184 00                               0x00 
                           .data:01004185 00                               0x00 
                           .data:01004186 00                               0x00 
                           .data:01004187 00                               0x00 
                           .data:01004188 00                               0x00 
                           .data:01004189 00                               0x00 
                           .data:0100418a 00                               0x00 
                           .data:0100418b 00                               0x00 
                           .data:0100418c 00                               0x00 
                           .data:0100418d 00                               0x00 
                           .data:0100418e 00                               0x00 
                           .data:0100418f 00                               0x00 
                           .data:01004190 00                               0x00 
                           .data:01004191 00                               0x00 
                           .data:01004192 00                               0x00 
                           .data:01004193 00                               0x00 
                           .data:01004194 00                               0x00 
                           .data:01004195 00                               0x00 
                           .data:01004196 00                               0x00 
                           .data:01004197 00                               0x00 
                           .data:01004198 00                               0x00 
                           .data:01004199 00                               0x00 
                           .data:0100419a 00                               0x00 
                           .data:0100419b 00                               0x00 
                           .data:0100419c 00                               0x00 
                           .data:0100419d 00                               0x00 
                           .data:0100419e 00                               0x00 
                           .data:0100419f 00                               0x00 
                           .data:010041a0 00                               0x00 
                           .data:010041a1 00                               0x00 
                           .data:010041a2 00                               0x00 
                           .data:010041a3 00                               0x00 
                           .data:010041a4 00                               0x00 
                           .data:010041a5 00                               0x00 
                           .data:010041a6 00                               0x00 
                           .data:010041a7 00                               0x00 
                           .data:010041a8 00                               0x00 
                           .data:010041a9 00                               0x00 
                           .data:010041aa 00                               0x00 
                           .data:010041ab 00                               0x00 
                           .data:010041ac 00                               0x00 
                           .data:010041ad 00                               0x00 
                           .data:010041ae 00                               0x00 
                           .data:010041af 00                               0x00 
                           .data:010041b0 00                               0x00 
                           .data:010041b1 00                               0x00 
                           .data:010041b2 00                               0x00 
                           .data:010041b3 00                               0x00 
                           .data:010041b4 00                               0x00 
                           .data:010041b5 00                               0x00 
                           .data:010041b6 00                               0x00 
                           .data:010041b7 00                               0x00 
                           .data:010041b8 00                               0x00 
                           .data:010041b9 00                               0x00 
                           .data:010041ba 00                               0x00 
                           .data:010041bb 00                               0x00 
                           .data:010041bc 00                               0x00 
                           .data:010041bd 00                               0x00 
                           .data:010041be 00                               0x00 
                           .data:010041bf 00                               0x00 
                           .data:010041c0 00                               0x00 
                           .data:010041c1 00                               0x00 
                           .data:010041c2 00                               0x00 
                           .data:010041c3 00                               0x00 
                           .data:010041c4 00                               0x00 
                           .data:010041c5 00                               0x00 
                           .data:010041c6 00                               0x00 
                           .data:010041c7 00                               0x00 
                           .data:010041c8 00                               0x00 
                           .data:010041c9 00                               0x00 
                           .data:010041ca 00                               0x00 
                           .data:010041cb 00                               0x00 
                           .data:010041cc 00                               0x00 
                           .data:010041cd 00                               0x00 
                           .data:010041ce 00                               0x00 
                           .data:010041cf 00                               0x00 
                           .data:010041d0 00                               0x00 
                           .data:010041d1 00                               0x00 
                           .data:010041d2 00                               0x00 
                           .data:010041d3 00                               0x00 
                           .data:010041d4 00                               0x00 
                           .data:010041d5 00                               0x00 
                           .data:010041d6 00                               0x00 
                           .data:010041d7 00                               0x00 
                           .data:010041d8 00                               0x00 
                           .data:010041d9 00                               0x00 
                           .data:010041da 00                               0x00 
                           .data:010041db 00                               0x00 
                           .data:010041dc 00                               0x00 
                           .data:010041dd 00                               0x00 
                           .data:010041de 00                               0x00 
                           .data:010041df 00                               0x00 
                           .data:010041e0 00                               0x00 
                           .data:010041e1 00                               0x00 
                           .data:010041e2 00                               0x00 
                           .data:010041e3 00                               0x00 
                           .data:010041e4 00                               0x00 
                           .data:010041e5 00                               0x00 
                           .data:010041e6 00                               0x00 
                           .data:010041e7 00                               0x00 
                           .data:010041e8 00                               0x00 
                           .data:010041e9 00                               0x00 
                           .data:010041ea 00                               0x00 
                           .data:010041eb 00                               0x00 
                           .data:010041ec 00                               0x00 
                           .data:010041ed 00                               0x00 
                           .data:010041ee 00                               0x00 
                           .data:010041ef 00                               0x00 
                           .data:010041f0 00                               0x00 
                           .data:010041f1 00                               0x00 
                           .data:010041f2 00                               0x00 
                           .data:010041f3 00                               0x00 
                           .data:010041f4 00                               0x00 
                           .data:010041f5 00                               0x00 
                           .data:010041f6 00                               0x00 
                           .data:010041f7 00                               0x00 
                           .data:010041f8 00                               0x00 
                           .data:010041f9 00                               0x00 
                           .data:010041fa 00                               0x00 
                           .data:010041fb 00                               0x00 
                           .data:010041fc 00                               0x00 
                           .data:010041fd 00                               0x00 
                           .data:010041fe 00                               0x00 
                           .data:010041ff 00                               0x00 
                           .rsrc:01006000 00                               0x00 
                           .rsrc:01006001 00                               0x00 
                           .rsrc:01006002 00                               0x00 
                           .rsrc:01006003 00                               0x00 
                           .rsrc:01006004 00                               0x00 
                           .rsrc:01006005 00                               0x00 
                           .rsrc:01006006 00                               0x00 
                           .rsrc:01006007 00                               0x00 
                           .rsrc:01006008 00                               0x00 
                           .rsrc:01006009 00                               0x00 
                           .rsrc:0100600a 00                               0x00 
                           .rsrc:0100600b 00                               0x00 
                           .rsrc:0100600c 01                               0x01 
                           .rsrc:0100600d 00                               0x00 
                           .rsrc:0100600e 02                               0x02 
                           .rsrc:0100600f 00                               0x00 
                           .rsrc:01006010 e8                               0xe8 
                           .rsrc:01006011 00                               0x00 
                           .rsrc:01006012 00                               0x00 
                           .rsrc:01006013 80                               0x80 
                           .rsrc:01006014 28                               0x28 '('
                           .rsrc:01006015 00                               0x00 
                           .rsrc:01006016 00                               0x00 
                           .rsrc:01006017 80                               0x80 
                           .rsrc:01006018 10                               0x10 
                           .rsrc:01006019 00                               0x00 
                           .rsrc:0100601a 00                               0x00 
                           .rsrc:0100601b 00                               0x00 
                           .rsrc:0100601c 40                               0x40 '@'
                           .rsrc:0100601d 00                               0x00 
                           .rsrc:0100601e 00                               0x00 
                           .rsrc:0100601f 80                               0x80 
                           .rsrc:01006020 18                               0x18 
                           .rsrc:01006021 00                               0x00 
                           .rsrc:01006022 00                               0x00 
                           .rsrc:01006023 00                               0x00 
                           .rsrc:01006024 58                               0x58 'X'
                           .rsrc:01006025 00                               0x00 
                           .rsrc:01006026 00                               0x00 
                           .rsrc:01006027 80                               0x80 
                           .rsrc:01006028 00                               0x00 
                           .rsrc:01006029 00                               0x00 
                           .rsrc:0100602a 00                               0x00 
                           .rsrc:0100602b 00                               0x00 
                           .rsrc:0100602c 00                               0x00 
                           .rsrc:0100602d 00                               0x00 
                           .rsrc:0100602e 00                               0x00 
                           .rsrc:0100602f 00                               0x00 
                           .rsrc:01006030 00                               0x00 
                           .rsrc:01006031 00                               0x00 
                           .rsrc:01006032 00                               0x00 
                           .rsrc:01006033 00                               0x00 
                           .rsrc:01006034 00                               0x00 
                           .rsrc:01006035 00                               0x00 
                           .rsrc:01006036 01                               0x01 
                           .rsrc:01006037 00                               0x00 
                           .rsrc:01006038 01                               0x01 
                           .rsrc:01006039 00                               0x00 
                           .rsrc:0100603a 00                               0x00 
                           .rsrc:0100603b 00                               0x00 
                           .rsrc:0100603c 70                               0x70 'p'
                           .rsrc:0100603d 00                               0x00 
                           .rsrc:0100603e 00                               0x00 
                           .rsrc:0100603f 80                               0x80 
                           .rsrc:01006040 00                               0x00 
                           .rsrc:01006041 00                               0x00 
                           .rsrc:01006042 00                               0x00 
                           .rsrc:01006043 00                               0x00 
                           .rsrc:01006044 00                               0x00 
                           .rsrc:01006045 00                               0x00 
                           .rsrc:01006046 00                               0x00 
                           .rsrc:01006047 00                               0x00 
                           .rsrc:01006048 00                               0x00 
                           .rsrc:01006049 00                               0x00 
                           .rsrc:0100604a 00                               0x00 
                           .rsrc:0100604b 00                               0x00 
                           .rsrc:0100604c 00                               0x00 
                           .rsrc:0100604d 00                               0x00 
                           .rsrc:0100604e 01                               0x01 
                           .rsrc:0100604f 00                               0x00 
                           .rsrc:01006050 01                               0x01 
                           .rsrc:01006051 00                               0x00 
                           .rsrc:01006052 00                               0x00 
                           .rsrc:01006053 00                               0x00 
                           .rsrc:01006054 88                               0x88 
                           .rsrc:01006055 00                               0x00 
                           .rsrc:01006056 00                               0x00 
                           .rsrc:01006057 80                               0x80 
                           .rsrc:01006058 00                               0x00 
                           .rsrc:01006059 00                               0x00 
                           .rsrc:0100605a 00                               0x00 
                           .rsrc:0100605b 00                               0x00 
                           .rsrc:0100605c 00                               0x00 
                           .rsrc:0100605d 00                               0x00 
                           .rsrc:0100605e 00                               0x00 
                           .rsrc:0100605f 00                               0x00 
                           .rsrc:01006060 00                               0x00 
                           .rsrc:01006061 00                               0x00 
                           .rsrc:01006062 00                               0x00 
                           .rsrc:01006063 00                               0x00 
                           .rsrc:01006064 00                               0x00 
                           .rsrc:01006065 00                               0x00 
                           .rsrc:01006066 01                               0x01 
                           .rsrc:01006067 00                               0x00 
                           .rsrc:01006068 01                               0x01 
                           .rsrc:01006069 00                               0x00 
                           .rsrc:0100606a 00                               0x00 
                           .rsrc:0100606b 00                               0x00 
                           .rsrc:0100606c a0                               0xa0 
                           .rsrc:0100606d 00                               0x00 
                           .rsrc:0100606e 00                               0x00 
                           .rsrc:0100606f 80                               0x80 
                           .rsrc:01006070 00                               0x00 
                           .rsrc:01006071 00                               0x00 
                           .rsrc:01006072 00                               0x00 
                           .rsrc:01006073 00                               0x00 
                           .rsrc:01006074 00                               0x00 
                           .rsrc:01006075 00                               0x00 
                           .rsrc:01006076 00                               0x00 
                           .rsrc:01006077 00                               0x00 
                           .rsrc:01006078 00                               0x00 
                           .rsrc:01006079 00                               0x00 
                           .rsrc:0100607a 00                               0x00 
                           .rsrc:0100607b 00                               0x00 
                           .rsrc:0100607c 00                               0x00 
                           .rsrc:0100607d 00                               0x00 
                           .rsrc:0100607e 01                               0x01 
                           .rsrc:0100607f 00                               0x00 
                           .rsrc:01006080 09                               0x09 '	'
                           .rsrc:01006081 04                               0x04 
                           .rsrc:01006082 00                               0x00 
                           .rsrc:01006083 00                               0x00 
                           .rsrc:01006084 b8                               0xb8 
                           .rsrc:01006085 00                               0x00 
                           .rsrc:01006086 00                               0x00 
                           .rsrc:01006087 00                               0x00 
                           .rsrc:01006088 00                               0x00 
                           .rsrc:01006089 00                               0x00 
                           .rsrc:0100608a 00                               0x00 
                           .rsrc:0100608b 00                               0x00 
                           .rsrc:0100608c 00                               0x00 
                           .rsrc:0100608d 00                               0x00 
                           .rsrc:0100608e 00                               0x00 
                           .rsrc:0100608f 00                               0x00 
                           .rsrc:01006090 00                               0x00 
                           .rsrc:01006091 00                               0x00 
                           .rsrc:01006092 00                               0x00 
                           .rsrc:01006093 00                               0x00 
                           .rsrc:01006094 00                               0x00 
                           .rsrc:01006095 00                               0x00 
                           .rsrc:01006096 01                               0x01 
                           .rsrc:01006097 00                               0x00 
                           .rsrc:01006098 09                               0x09 '	'
                           .rsrc:01006099 04                               0x04 
                           .rsrc:0100609a 00                               0x00 
                           .rsrc:0100609b 00                               0x00 
                           .rsrc:0100609c c8                               0xc8 
                           .rsrc:0100609d 00                               0x00 
                           .rsrc:0100609e 00                               0x00 
                           .rsrc:0100609f 00                               0x00 
                           .rsrc:010060a0 00                               0x00 
                           .rsrc:010060a1 00                               0x00 
                           .rsrc:010060a2 00                               0x00 
                           .rsrc:010060a3 00                               0x00 
                           .rsrc:010060a4 00                               0x00 
                           .rsrc:010060a5 00                               0x00 
                           .rsrc:010060a6 00                               0x00 
                           .rsrc:010060a7 00                               0x00 
                           .rsrc:010060a8 00                               0x00 
                           .rsrc:010060a9 00                               0x00 
                           .rsrc:010060aa 00                               0x00 
                           .rsrc:010060ab 00                               0x00 
                           .rsrc:010060ac 00                               0x00 
                           .rsrc:010060ad 00                               0x00 
                           .rsrc:010060ae 01                               0x01 
                           .rsrc:010060af 00                               0x00 
                           .rsrc:010060b0 09                               0x09 '	'
                           .rsrc:010060b1 04                               0x04 
                           .rsrc:010060b2 00                               0x00 
                           .rsrc:010060b3 00                               0x00 
                           .rsrc:010060b4 d8                               0xd8 
                           .rsrc:010060b5 00                               0x00 
                           .rsrc:010060b6 00                               0x00 
                           .rsrc:010060b7 00                               0x00 
                           .rsrc:010060b8 50                               0x50 'P'
                           .rsrc:010060b9 67                               0x67 'g'
                           .rsrc:010060ba 00                               0x00 
                           .rsrc:010060bb 00                               0x00 
                           .rsrc:010060bc c8                               0xc8 
                           .rsrc:010060bd 00                               0x00 
                           .rsrc:010060be 00                               0x00 
                           .rsrc:010060bf 00                               0x00 
                           .rsrc:010060c0 00                               0x00 
                           .rsrc:010060c1 00                               0x00 
                           .rsrc:010060c2 00                               0x00 
                           .rsrc:010060c3 00                               0x00 
                           .rsrc:010060c4 00                               0x00 
                           .rsrc:010060c5 00                               0x00 
                           .rsrc:010060c6 00                               0x00 
                           .rsrc:010060c7 00                               0x00 
                           .rsrc:010060c8 c8                               0xc8 
                           .rsrc:010060c9 63                               0x63 'c'
                           .rsrc:010060ca 00                               0x00 
                           .rsrc:010060cb 00                               0x00 
                           .rsrc:010060cc 84                               0x84 
                           .rsrc:010060cd 03                               0x03 
                           .rsrc:010060ce 00                               0x00 
                           .rsrc:010060cf 00                               0x00 
                           .rsrc:010060d0 00                               0x00 
                           .rsrc:010060d1 00                               0x00 
                           .rsrc:010060d2 00                               0x00 
                           .rsrc:010060d3 00                               0x00 
                           .rsrc:010060d4 00                               0x00 
                           .rsrc:010060d5 00                               0x00 
                           .rsrc:010060d6 00                               0x00 
                           .rsrc:010060d7 00                               0x00 
                           .rsrc:010060d8 f0                               0xf0 
                           .rsrc:010060d9 60                               0x60 '`'
                           .rsrc:010060da 00                               0x00 
                           .rsrc:010060db 00                               0x00 
                           .rsrc:010060dc d1                               0xd1 
                           .rsrc:010060dd 02                               0x02 
                           .rsrc:010060de 00                               0x00 
                           .rsrc:010060df 00                               0x00 
                           .rsrc:010060e0 00                               0x00 
                           .rsrc:010060e1 00                               0x00 
                           .rsrc:010060e2 00                               0x00 
                           .rsrc:010060e3 00                               0x00 
                           .rsrc:010060e4 00                               0x00 
                           .rsrc:010060e5 00                               0x00 
                           .rsrc:010060e6 00                               0x00 
                           .rsrc:010060e7 00                               0x00 
                           .rsrc:010060e8 03                               0x03 
                           .rsrc:010060e9 00                               0x00 
                           .rsrc:010060ea 4d                               0x4d 'M'
                           .rsrc:010060eb 00                               0x00 
                           .rsrc:010060ec 55                               0x55 'U'
                           .rsrc:010060ed 00                               0x00 
                           .rsrc:010060ee 49                               0x49 'I'
                           .rsrc:010060ef 00                               0x00 
                           .rsrc:010060f0 3c                               0x3c '<'
                           .rsrc:010060f1 3f                               0x3f '?'
                           .rsrc:010060f2 78                               0x78 'x'
                           .rsrc:010060f3 6d                               0x6d 'm'
                           .rsrc:010060f4 6c                               0x6c 'l'
                           .rsrc:010060f5 20                               0x20 ' '
                           .rsrc:010060f6 76                               0x76 'v'
                           .rsrc:010060f7 65                               0x65 'e'
                           .rsrc:010060f8 72                               0x72 'r'
                           .rsrc:010060f9 73                               0x73 's'
                           .rsrc:010060fa 69                               0x69 'i'
                           .rsrc:010060fb 6f                               0x6f 'o'
                           .rsrc:010060fc 6e                               0x6e 'n'
                           .rsrc:010060fd 3d                               0x3d '='
                           .rsrc:010060fe 22                               0x22 '"'
                           .rsrc:010060ff 31                               0x31 '1'
                           .rsrc:01006100 2e                               0x2e '.'
                           .rsrc:01006101 30                               0x30 '0'
                           .rsrc:01006102 22                               0x22 '"'
                           .rsrc:01006103 20                               0x20 ' '
                           .rsrc:01006104 65                               0x65 'e'
                           .rsrc:01006105 6e                               0x6e 'n'
                           .rsrc:01006106 63                               0x63 'c'
                           .rsrc:01006107 6f                               0x6f 'o'
                           .rsrc:01006108 64                               0x64 'd'
                           .rsrc:01006109 69                               0x69 'i'
                           .rsrc:0100610a 6e                               0x6e 'n'
                           .rsrc:0100610b 67                               0x67 'g'
                           .rsrc:0100610c 3d                               0x3d '='
                           .rsrc:0100610d 22                               0x22 '"'
                           .rsrc:0100610e 55                               0x55 'U'
                           .rsrc:0100610f 54                               0x54 'T'
                           .rsrc:01006110 46                               0x46 'F'
                           .rsrc:01006111 2d                               0x2d '-'
                           .rsrc:01006112 38                               0x38 '8'
                           .rsrc:01006113 22                               0x22 '"'
                           .rsrc:01006114 20                               0x20 ' '
                           .rsrc:01006115 73                               0x73 's'
                           .rsrc:01006116 74                               0x74 't'
                           .rsrc:01006117 61                               0x61 'a'
                           .rsrc:01006118 6e                               0x6e 'n'
                           .rsrc:01006119 64                               0x64 'd'
                           .rsrc:0100611a 61                               0x61 'a'
                           .rsrc:0100611b 6c                               0x6c 'l'
                           .rsrc:0100611c 6f                               0x6f 'o'
                           .rsrc:0100611d 6e                               0x6e 'n'
                           .rsrc:0100611e 65                               0x65 'e'
                           .rsrc:0100611f 3d                               0x3d '='
                           .rsrc:01006120 22                               0x22 '"'
                           .rsrc:01006121 79                               0x79 'y'
                           .rsrc:01006122 65                               0x65 'e'
                           .rsrc:01006123 73                               0x73 's'
                           .rsrc:01006124 22                               0x22 '"'
                           .rsrc:01006125 3f                               0x3f '?'
                           .rsrc:01006126 3e                               0x3e '>'
                           .rsrc:01006127 0d                               0x0d ''
                           .rsrc:01006128 0a                               0x0a '
'
                           .rsrc:01006129 3c                               0x3c '<'
                           .rsrc:0100612a 21                               0x21 '!'
                           .rsrc:0100612b 2d                               0x2d '-'
                           .rsrc:0100612c 2d                               0x2d '-'
                           .rsrc:0100612d 20                               0x20 ' '
                           .rsrc:0100612e 43                               0x43 'C'
                           .rsrc:0100612f 6f                               0x6f 'o'
                           .rsrc:01006130 70                               0x70 'p'
                           .rsrc:01006131 79                               0x79 'y'
                           .rsrc:01006132 72                               0x72 'r'
                           .rsrc:01006133 69                               0x69 'i'
                           .rsrc:01006134 67                               0x67 'g'
                           .rsrc:01006135 68                               0x68 'h'
                           .rsrc:01006136 74                               0x74 't'
                           .rsrc:01006137 20                               0x20 ' '
                           .rsrc:01006138 28                               0x28 '('
                           .rsrc:01006139 63                               0x63 'c'
                           .rsrc:0100613a 29                               0x29 ')'
                           .rsrc:0100613b 20                               0x20 ' '
                           .rsrc:0100613c 4d                               0x4d 'M'
                           .rsrc:0100613d 69                               0x69 'i'
                           .rsrc:0100613e 63                               0x63 'c'
                           .rsrc:0100613f 72                               0x72 'r'
                           .rsrc:01006140 6f                               0x6f 'o'
                           .rsrc:01006141 73                               0x73 's'
                           .rsrc:01006142 6f                               0x6f 'o'
                           .rsrc:01006143 66                               0x66 'f'
                           .rsrc:01006144 74                               0x74 't'
                           .rsrc:01006145 20                               0x20 ' '
                           .rsrc:01006146 43                               0x43 'C'
                           .rsrc:01006147 6f                               0x6f 'o'
                           .rsrc:01006148 72                               0x72 'r'
                           .rsrc:01006149 70                               0x70 'p'
                           .rsrc:0100614a 6f                               0x6f 'o'
                           .rsrc:0100614b 72                               0x72 'r'
                           .rsrc:0100614c 61                               0x61 'a'
                           .rsrc:0100614d 74                               0x74 't'
                           .rsrc:0100614e 69                               0x69 'i'
                           .rsrc:0100614f 6f                               0x6f 'o'
                           .rsrc:01006150 6e                               0x6e 'n'
                           .rsrc:01006151 20                               0x20 ' '
                           .rsrc:01006152 2d                               0x2d '-'
                           .rsrc:01006153 2d                               0x2d '-'
                           .rsrc:01006154 3e                               0x3e '>'
                           .rsrc:01006155 0d                               0x0d ''
                           .rsrc:01006156 0a                               0x0a '
'
                           .rsrc:01006157 3c                               0x3c '<'
                           .rsrc:01006158 61                               0x61 'a'
                           .rsrc:01006159 73                               0x73 's'
                           .rsrc:0100615a 73                               0x73 's'
                           .rsrc:0100615b 65                               0x65 'e'
                           .rsrc:0100615c 6d                               0x6d 'm'
                           .rsrc:0100615d 62                               0x62 'b'
                           .rsrc:0100615e 6c                               0x6c 'l'
                           .rsrc:0100615f 79                               0x79 'y'
                           .rsrc:01006160 20                               0x20 ' '
                           .rsrc:01006161 78                               0x78 'x'
                           .rsrc:01006162 6d                               0x6d 'm'
                           .rsrc:01006163 6c                               0x6c 'l'
                           .rsrc:01006164 6e                               0x6e 'n'
                           .rsrc:01006165 73                               0x73 's'
                           .rsrc:01006166 3d                               0x3d '='
                           .rsrc:01006167 22                               0x22 '"'
                           .rsrc:01006168 75                               0x75 'u'
                           .rsrc:01006169 72                               0x72 'r'
                           .rsrc:0100616a 6e                               0x6e 'n'
                           .rsrc:0100616b 3a                               0x3a ':'
                           .rsrc:0100616c 73                               0x73 's'
                           .rsrc:0100616d 63                               0x63 'c'
                           .rsrc:0100616e 68                               0x68 'h'
                           .rsrc:0100616f 65                               0x65 'e'
                           .rsrc:01006170 6d                               0x6d 'm'
                           .rsrc:01006171 61                               0x61 'a'
                           .rsrc:01006172 73                               0x73 's'
                           .rsrc:01006173 2d                               0x2d '-'
                           .rsrc:01006174 6d                               0x6d 'm'
                           .rsrc:01006175 69                               0x69 'i'
                           .rsrc:01006176 63                               0x63 'c'
                           .rsrc:01006177 72                               0x72 'r'
                           .rsrc:01006178 6f                               0x6f 'o'
                           .rsrc:01006179 73                               0x73 's'
                           .rsrc:0100617a 6f                               0x6f 'o'
                           .rsrc:0100617b 66                               0x66 'f'
                           .rsrc:0100617c 74                               0x74 't'
                           .rsrc:0100617d 2d                               0x2d '-'
                           .rsrc:0100617e 63                               0x63 'c'
                           .rsrc:0100617f 6f                               0x6f 'o'
                           .rsrc:01006180 6d                               0x6d 'm'
                           .rsrc:01006181 3a                               0x3a ':'
                           .rsrc:01006182 61                               0x61 'a'
                           .rsrc:01006183 73                               0x73 's'
                           .rsrc:01006184 6d                               0x6d 'm'
                           .rsrc:01006185 2e                               0x2e '.'
                           .rsrc:01006186 76                               0x76 'v'
                           .rsrc:01006187 31                               0x31 '1'
                           .rsrc:01006188 22                               0x22 '"'
                           .rsrc:01006189 0d                               0x0d ''
                           .rsrc:0100618a 0a                               0x0a '
'
                           .rsrc:0100618b 20                               0x20 ' '
                           .rsrc:0100618c 6d                               0x6d 'm'
                           .rsrc:0100618d 61                               0x61 'a'
                           .rsrc:0100618e 6e                               0x6e 'n'
                           .rsrc:0100618f 69                               0x69 'i'
                           .rsrc:01006190 66                               0x66 'f'
                           .rsrc:01006191 65                               0x65 'e'
                           .rsrc:01006192 73                               0x73 's'
                           .rsrc:01006193 74                               0x74 't'
                           .rsrc:01006194 56                               0x56 'V'
                           .rsrc:01006195 65                               0x65 'e'
                           .rsrc:01006196 72                               0x72 'r'
                           .rsrc:01006197 73                               0x73 's'
                           .rsrc:01006198 69                               0x69 'i'
                           .rsrc:01006199 6f                               0x6f 'o'
                           .rsrc:0100619a 6e                               0x6e 'n'
                           .rsrc:0100619b 3d                               0x3d '='
                           .rsrc:0100619c 22                               0x22 '"'
                           .rsrc:0100619d 31                               0x31 '1'
                           .rsrc:0100619e 2e                               0x2e '.'
                           .rsrc:0100619f 30                               0x30 '0'
                           .rsrc:010061a0 22                               0x22 '"'
                           .rsrc:010061a1 3e                               0x3e '>'
                           .rsrc:010061a2 20                               0x20 ' '
                           .rsrc:010061a3 0d                               0x0d ''
                           .rsrc:010061a4 0a                               0x0a '
'
                           .rsrc:010061a5 0d                               0x0d ''
                           .rsrc:010061a6 0a                               0x0a '
'
                           .rsrc:010061a7 20                               0x20 ' '
                           .rsrc:010061a8 20                               0x20 ' '
                           .rsrc:010061a9 3c                               0x3c '<'
                           .rsrc:010061aa 61                               0x61 'a'
                           .rsrc:010061ab 73                               0x73 's'
                           .rsrc:010061ac 73                               0x73 's'
                           .rsrc:010061ad 65                               0x65 'e'
                           .rsrc:010061ae 6d                               0x6d 'm'
                           .rsrc:010061af 62                               0x62 'b'
                           .rsrc:010061b0 6c                               0x6c 'l'
                           .rsrc:010061b1 79                               0x79 'y'
                           .rsrc:010061b2 49                               0x49 'I'
                           .rsrc:010061b3 64                               0x64 'd'
                           .rsrc:010061b4 65                               0x65 'e'
                           .rsrc:010061b5 6e                               0x6e 'n'
                           .rsrc:010061b6 74                               0x74 't'
                           .rsrc:010061b7 69                               0x69 'i'
                           .rsrc:010061b8 74                               0x74 't'
                           .rsrc:010061b9 79                               0x79 'y'
                           .rsrc:010061ba 20                               0x20 ' '
                           .rsrc:010061bb 76                               0x76 'v'
                           .rsrc:010061bc 65                               0x65 'e'
                           .rsrc:010061bd 72                               0x72 'r'
                           .rsrc:010061be 73                               0x73 's'
                           .rsrc:010061bf 69                               0x69 'i'
                           .rsrc:010061c0 6f                               0x6f 'o'
                           .rsrc:010061c1 6e                               0x6e 'n'
                           .rsrc:010061c2 3d                               0x3d '='
                           .rsrc:010061c3 22                               0x22 '"'
                           .rsrc:010061c4 35                               0x35 '5'
                           .rsrc:010061c5 2e                               0x2e '.'
                           .rsrc:010061c6 31                               0x31 '1'
                           .rsrc:010061c7 2e                               0x2e '.'
                           .rsrc:010061c8 30                               0x30 '0'
                           .rsrc:010061c9 2e                               0x2e '.'
                           .rsrc:010061ca 30                               0x30 '0'
                           .rsrc:010061cb 22                               0x22 '"'
                           .rsrc:010061cc 0d                               0x0d ''
                           .rsrc:010061cd 0a                               0x0a '
'
                           .rsrc:010061ce 20                               0x20 ' '
                           .rsrc:010061cf 20                               0x20 ' '
                           .rsrc:010061d0 20                               0x20 ' '
                           .rsrc:010061d1 20                               0x20 ' '
                           .rsrc:010061d2 20                               0x20 ' '
                           .rsrc:010061d3 70                               0x70 'p'
                           .rsrc:010061d4 72                               0x72 'r'
                           .rsrc:010061d5 6f                               0x6f 'o'
                           .rsrc:010061d6 63                               0x63 'c'
                           .rsrc:010061d7 65                               0x65 'e'
                           .rsrc:010061d8 73                               0x73 's'
                           .rsrc:010061d9 73                               0x73 's'
                           .rsrc:010061da 6f                               0x6f 'o'
                           .rsrc:010061db 72                               0x72 'r'
                           .rsrc:010061dc 41                               0x41 'A'
                           .rsrc:010061dd 72                               0x72 'r'
                           .rsrc:010061de 63                               0x63 'c'
                           .rsrc:010061df 68                               0x68 'h'
                           .rsrc:010061e0 69                               0x69 'i'
                           .rsrc:010061e1 74                               0x74 't'
                           .rsrc:010061e2 65                               0x65 'e'
                           .rsrc:010061e3 63                               0x63 'c'
                           .rsrc:010061e4 74                               0x74 't'
                           .rsrc:010061e5 75                               0x75 'u'
                           .rsrc:010061e6 72                               0x72 'r'
                           .rsrc:010061e7 65                               0x65 'e'
                           .rsrc:010061e8 3d                               0x3d '='
                           .rsrc:010061e9 22                               0x22 '"'
                           .rsrc:010061ea 78                               0x78 'x'
                           .rsrc:010061eb 38                               0x38 '8'
                           .rsrc:010061ec 36                               0x36 '6'
                           .rsrc:010061ed 22                               0x22 '"'
                           .rsrc:010061ee 0d                               0x0d ''
                           .rsrc:010061ef 0a                               0x0a '
'
                           .rsrc:010061f0 20                               0x20 ' '
                           .rsrc:010061f1 20                               0x20 ' '
                           .rsrc:010061f2 20                               0x20 ' '
                           .rsrc:010061f3 20                               0x20 ' '
                           .rsrc:010061f4 20                               0x20 ' '
                           .rsrc:010061f5 6e                               0x6e 'n'
                           .rsrc:010061f6 61                               0x61 'a'
                           .rsrc:010061f7 6d                               0x6d 'm'
                           .rsrc:010061f8 65                               0x65 'e'
                           .rsrc:010061f9 3d                               0x3d '='
                           .rsrc:010061fa 22                               0x22 '"'
                           .rsrc:010061fb 4d                               0x4d 'M'
                           .rsrc:010061fc 69                               0x69 'i'
                           .rsrc:010061fd 63                               0x63 'c'
                           .rsrc:010061fe 72                               0x72 'r'
                           .rsrc:010061ff 6f                               0x6f 'o'
                           .rsrc:01006200 73                               0x73 's'
                           .rsrc:01006201 6f                               0x6f 'o'
                           .rsrc:01006202 66                               0x66 'f'
                           .rsrc:01006203 74                               0x74 't'
                           .rsrc:01006204 2e                               0x2e '.'
                           .rsrc:01006205 57                               0x57 'W'
                           .rsrc:01006206 69                               0x69 'i'
                           .rsrc:01006207 6e                               0x6e 'n'
                           .rsrc:01006208 64                               0x64 'd'
                           .rsrc:01006209 6f                               0x6f 'o'
                           .rsrc:0100620a 77                               0x77 'w'
                           .rsrc:0100620b 73                               0x73 's'
                           .rsrc:0100620c 2e                               0x2e '.'
                           .rsrc:0100620d 4e                               0x4e 'N'
                           .rsrc:0100620e 65                               0x65 'e'
                           .rsrc:0100620f 74                               0x74 't'
                           .rsrc:01006210 2e                               0x2e '.'
                           .rsrc:01006211 70                               0x70 'p'
                           .rsrc:01006212 69                               0x69 'i'
                           .rsrc:01006213 6e                               0x6e 'n'
                           .rsrc:01006214 67                               0x67 'g'
                           .rsrc:01006215 22                               0x22 '"'
                           .rsrc:01006216 0d                               0x0d ''
                           .rsrc:01006217 0a                               0x0a '
'
                           .rsrc:01006218 20                               0x20 ' '
                           .rsrc:01006219 20                               0x20 ' '
                           .rsrc:0100621a 20                               0x20 ' '
                           .rsrc:0100621b 20                               0x20 ' '
                           .rsrc:0100621c 20                               0x20 ' '
                           .rsrc:0100621d 74                               0x74 't'
                           .rsrc:0100621e 79                               0x79 'y'
                           .rsrc:0100621f 70                               0x70 'p'
                           .rsrc:01006220 65                               0x65 'e'
                           .rsrc:01006221 3d                               0x3d '='
                           .rsrc:01006222 22                               0x22 '"'
                           .rsrc:01006223 77                               0x77 'w'
                           .rsrc:01006224 69                               0x69 'i'
                           .rsrc:01006225 6e                               0x6e 'n'
                           .rsrc:01006226 33                               0x33 '3'
                           .rsrc:01006227 32                               0x32 '2'
                           .rsrc:01006228 22                               0x22 '"'
                           .rsrc:01006229 2f                               0x2f '/'
                           .rsrc:0100622a 3e                               0x3e '>'
                           .rsrc:0100622b 20                               0x20 ' '
                           .rsrc:0100622c 0d                               0x0d ''
                           .rsrc:0100622d 0a                               0x0a '
'
                           .rsrc:0100622e 0d                               0x0d ''
                           .rsrc:0100622f 0a                               0x0a '
'
                           .rsrc:01006230 20                               0x20 ' '
                           .rsrc:01006231 20                               0x20 ' '
                           .rsrc:01006232 3c                               0x3c '<'
                           .rsrc:01006233 64                               0x64 'd'
                           .rsrc:01006234 65                               0x65 'e'
                           .rsrc:01006235 73                               0x73 's'
                           .rsrc:01006236 63                               0x63 'c'
                           .rsrc:01006237 72                               0x72 'r'
                           .rsrc:01006238 69                               0x69 'i'
                           .rsrc:01006239 70                               0x70 'p'
                           .rsrc:0100623a 74                               0x74 't'
                           .rsrc:0100623b 69                               0x69 'i'
                           .rsrc:0100623c 6f                               0x6f 'o'
                           .rsrc:0100623d 6e                               0x6e 'n'
                           .rsrc:0100623e 3e                               0x3e '>'
                           .rsrc:0100623f 70                               0x70 'p'
                           .rsrc:01006240 69                               0x69 'i'
                           .rsrc:01006241 6e                               0x6e 'n'
                           .rsrc:01006242 67                               0x67 'g'
                           .rsrc:01006243 20                               0x20 ' '
                           .rsrc:01006244 2d                               0x2d '-'
                           .rsrc:01006245 20                               0x20 ' '
                           .rsrc:01006246 70                               0x70 'p'
                           .rsrc:01006247 69                               0x69 'i'
                           .rsrc:01006248 6e                               0x6e 'n'
                           .rsrc:01006249 67                               0x67 'g'
                           .rsrc:0100624a 20                               0x20 ' '
                           .rsrc:0100624b 63                               0x63 'c'
                           .rsrc:0100624c 6f                               0x6f 'o'
                           .rsrc:0100624d 6d                               0x6d 'm'
                           .rsrc:0100624e 6d                               0x6d 'm'
                           .rsrc:0100624f 61                               0x61 'a'
                           .rsrc:01006250 6e                               0x6e 'n'
                           .rsrc:01006251 64                               0x64 'd'
                           .rsrc:01006252 20                               0x20 ' '
                           .rsrc:01006253 6c                               0x6c 'l'
                           .rsrc:01006254 69                               0x69 'i'
                           .rsrc:01006255 6e                               0x6e 'n'
                           .rsrc:01006256 65                               0x65 'e'
                           .rsrc:01006257 20                               0x20 ' '
                           .rsrc:01006258 74                               0x74 't'
                           .rsrc:01006259 6f                               0x6f 'o'
                           .rsrc:0100625a 6f                               0x6f 'o'
                           .rsrc:0100625b 6c                               0x6c 'l'
                           .rsrc:0100625c 2e                               0x2e '.'
                           .rsrc:0100625d 3c                               0x3c '<'
                           .rsrc:0100625e 2f                               0x2f '/'
                           .rsrc:0100625f 64                               0x64 'd'
                           .rsrc:01006260 65                               0x65 'e'
                           .rsrc:01006261 73                               0x73 's'
                           .rsrc:01006262 63                               0x63 'c'
                           .rsrc:01006263 72                               0x72 'r'
                           .rsrc:01006264 69                               0x69 'i'
                           .rsrc:01006265 70                               0x70 'p'
                           .rsrc:01006266 74                               0x74 't'
                           .rsrc:01006267 69                               0x69 'i'
                           .rsrc:01006268 6f                               0x6f 'o'
                           .rsrc:01006269 6e                               0x6e 'n'
                           .rsrc:0100626a 3e                               0x3e '>'
                           .rsrc:0100626b 20                               0x20 ' '
                           .rsrc:0100626c 0d                               0x0d ''
                           .rsrc:0100626d 0a                               0x0a '
'
                           .rsrc:0100626e 0d                               0x0d ''
                           .rsrc:0100626f 0a                               0x0a '
'
                           .rsrc:01006270 20                               0x20 ' '
                           .rsrc:01006271 20                               0x20 ' '
                           .rsrc:01006272 3c                               0x3c '<'
                           .rsrc:01006273 21                               0x21 '!'
                           .rsrc:01006274 2d                               0x2d '-'
                           .rsrc:01006275 2d                               0x2d '-'
                           .rsrc:01006276 20                               0x20 ' '
                           .rsrc:01006277 49                               0x49 'I'
                           .rsrc:01006278 64                               0x64 'd'
                           .rsrc:01006279 65                               0x65 'e'
                           .rsrc:0100627a 6e                               0x6e 'n'
                           .rsrc:0100627b 74                               0x74 't'
                           .rsrc:0100627c 69                               0x69 'i'
                           .rsrc:0100627d 66                               0x66 'f'
                           .rsrc:0100627e 79                               0x79 'y'
                           .rsrc:0100627f 20                               0x20 ' '
                           .rsrc:01006280 74                               0x74 't'
                           .rsrc:01006281 68                               0x68 'h'
                           .rsrc:01006282 65                               0x65 'e'
                           .rsrc:01006283 20                               0x20 ' '
                           .rsrc:01006284 61                               0x61 'a'
                           .rsrc:01006285 70                               0x70 'p'
                           .rsrc:01006286 70                               0x70 'p'
                           .rsrc:01006287 6c                               0x6c 'l'
                           .rsrc:01006288 69                               0x69 'i'
                           .rsrc:01006289 63                               0x63 'c'
                           .rsrc:0100628a 61                               0x61 'a'
                           .rsrc:0100628b 74                               0x74 't'
                           .rsrc:0100628c 69                               0x69 'i'
                           .rsrc:0100628d 6f                               0x6f 'o'
                           .rsrc:0100628e 6e                               0x6e 'n'
                           .rsrc:0100628f 20                               0x20 ' '
                           .rsrc:01006290 73                               0x73 's'
                           .rsrc:01006291 65                               0x65 'e'
                           .rsrc:01006292 63                               0x63 'c'
                           .rsrc:01006293 75                               0x75 'u'
                           .rsrc:01006294 72                               0x72 'r'
                           .rsrc:01006295 69                               0x69 'i'
                           .rsrc:01006296 74                               0x74 't'
                           .rsrc:01006297 79                               0x79 'y'
                           .rsrc:01006298 20                               0x20 ' '
                           .rsrc:01006299 72                               0x72 'r'
                           .rsrc:0100629a 65                               0x65 'e'
                           .rsrc:0100629b 71                               0x71 'q'
                           .rsrc:0100629c 75                               0x75 'u'
                           .rsrc:0100629d 69                               0x69 'i'
                           .rsrc:0100629e 72                               0x72 'r'
                           .rsrc:0100629f 65                               0x65 'e'
                           .rsrc:010062a0 6d                               0x6d 'm'
                           .rsrc:010062a1 65                               0x65 'e'
                           .rsrc:010062a2 6e                               0x6e 'n'
                           .rsrc:010062a3 74                               0x74 't'
                           .rsrc:010062a4 73                               0x73 's'
                           .rsrc:010062a5 2e                               0x2e '.'
                           .rsrc:010062a6 20                               0x20 ' '
                           .rsrc:010062a7 2d                               0x2d '-'
                           .rsrc:010062a8 2d                               0x2d '-'
                           .rsrc:010062a9 3e                               0x3e '>'
                           .rsrc:010062aa 0d                               0x0d ''
                           .rsrc:010062ab 0a                               0x0a '
'
                           .rsrc:010062ac 0d                               0x0d ''
                           .rsrc:010062ad 0a                               0x0a '
'
                           .rsrc:010062ae 20                               0x20 ' '
                           .rsrc:010062af 20                               0x20 ' '
                           .rsrc:010062b0 3c                               0x3c '<'
                           .rsrc:010062b1 74                               0x74 't'
                           .rsrc:010062b2 72                               0x72 'r'
                           .rsrc:010062b3 75                               0x75 'u'
                           .rsrc:010062b4 73                               0x73 's'
                           .rsrc:010062b5 74                               0x74 't'
                           .rsrc:010062b6 49                               0x49 'I'
                           .rsrc:010062b7 6e                               0x6e 'n'
                           .rsrc:010062b8 66                               0x66 'f'
                           .rsrc:010062b9 6f                               0x6f 'o'
                           .rsrc:010062ba 20                               0x20 ' '
                           .rsrc:010062bb 78                               0x78 'x'
                           .rsrc:010062bc 6d                               0x6d 'm'
                           .rsrc:010062bd 6c                               0x6c 'l'
                           .rsrc:010062be 6e                               0x6e 'n'
                           .rsrc:010062bf 73                               0x73 's'
                           .rsrc:010062c0 3d                               0x3d '='
                           .rsrc:010062c1 22                               0x22 '"'
                           .rsrc:010062c2 75                               0x75 'u'
                           .rsrc:010062c3 72                               0x72 'r'
                           .rsrc:010062c4 6e                               0x6e 'n'
                           .rsrc:010062c5 3a                               0x3a ':'
                           .rsrc:010062c6 73                               0x73 's'
                           .rsrc:010062c7 63                               0x63 'c'
                           .rsrc:010062c8 68                               0x68 'h'
                           .rsrc:010062c9 65                               0x65 'e'
                           .rsrc:010062ca 6d                               0x6d 'm'
                           .rsrc:010062cb 61                               0x61 'a'
                           .rsrc:010062cc 73                               0x73 's'
                           .rsrc:010062cd 2d                               0x2d '-'
                           .rsrc:010062ce 6d                               0x6d 'm'
                           .rsrc:010062cf 69                               0x69 'i'
                           .rsrc:010062d0 63                               0x63 'c'
                           .rsrc:010062d1 72                               0x72 'r'
                           .rsrc:010062d2 6f                               0x6f 'o'
                           .rsrc:010062d3 73                               0x73 's'
                           .rsrc:010062d4 6f                               0x6f 'o'
                           .rsrc:010062d5 66                               0x66 'f'
                           .rsrc:010062d6 74                               0x74 't'
                           .rsrc:010062d7 2d                               0x2d '-'
                           .rsrc:010062d8 63                               0x63 'c'
                           .rsrc:010062d9 6f                               0x6f 'o'
                           .rsrc:010062da 6d                               0x6d 'm'
                           .rsrc:010062db 3a                               0x3a ':'
                           .rsrc:010062dc 61                               0x61 'a'
                           .rsrc:010062dd 73                               0x73 's'
                           .rsrc:010062de 6d                               0x6d 'm'
                           .rsrc:010062df 2e                               0x2e '.'
                           .rsrc:010062e0 76                               0x76 'v'
                           .rsrc:010062e1 33                               0x33 '3'
                           .rsrc:010062e2 22                               0x22 '"'
                           .rsrc:010062e3 3e                               0x3e '>'
                           .rsrc:010062e4 0d                               0x0d ''
                           .rsrc:010062e5 0a                               0x0a '
'
                           .rsrc:010062e6 20                               0x20 ' '
                           .rsrc:010062e7 20                               0x20 ' '
                           .rsrc:010062e8 20                               0x20 ' '
                           .rsrc:010062e9 20                               0x20 ' '
                           .rsrc:010062ea 3c                               0x3c '<'
                           .rsrc:010062eb 73                               0x73 's'
                           .rsrc:010062ec 65                               0x65 'e'
                           .rsrc:010062ed 63                               0x63 'c'
                           .rsrc:010062ee 75                               0x75 'u'
                           .rsrc:010062ef 72                               0x72 'r'
                           .rsrc:010062f0 69                               0x69 'i'
                           .rsrc:010062f1 74                               0x74 't'
                           .rsrc:010062f2 79                               0x79 'y'
                           .rsrc:010062f3 3e                               0x3e '>'
                           .rsrc:010062f4 0d                               0x0d ''
                           .rsrc:010062f5 0a                               0x0a '
'
                           .rsrc:010062f6 20                               0x20 ' '
                           .rsrc:010062f7 20                               0x20 ' '
                           .rsrc:010062f8 20                               0x20 ' '
                           .rsrc:010062f9 20                               0x20 ' '
                           .rsrc:010062fa 20                               0x20 ' '
                           .rsrc:010062fb 20                               0x20 ' '
                           .rsrc:010062fc 3c                               0x3c '<'
                           .rsrc:010062fd 72                               0x72 'r'
                           .rsrc:010062fe 65                               0x65 'e'
                           .rsrc:010062ff 71                               0x71 'q'
                           .rsrc:01006300 75                               0x75 'u'
                           .rsrc:01006301 65                               0x65 'e'
                           .rsrc:01006302 73                               0x73 's'
                           .rsrc:01006303 74                               0x74 't'
                           .rsrc:01006304 65                               0x65 'e'
                           .rsrc:01006305 64                               0x64 'd'
                           .rsrc:01006306 50                               0x50 'P'
                           .rsrc:01006307 72                               0x72 'r'
                           .rsrc:01006308 69                               0x69 'i'
                           .rsrc:01006309 76                               0x76 'v'
                           .rsrc:0100630a 69                               0x69 'i'
                           .rsrc:0100630b 6c                               0x6c 'l'
                           .rsrc:0100630c 65                               0x65 'e'
                           .rsrc:0100630d 67                               0x67 'g'
                           .rsrc:0100630e 65                               0x65 'e'
                           .rsrc:0100630f 73                               0x73 's'
                           .rsrc:01006310 3e                               0x3e '>'
                           .rsrc:01006311 0d                               0x0d ''
                           .rsrc:01006312 0a                               0x0a '
'
                           .rsrc:01006313 20                               0x20 ' '
                           .rsrc:01006314 20                               0x20 ' '
                           .rsrc:01006315 20                               0x20 ' '
                           .rsrc:01006316 20                               0x20 ' '
                           .rsrc:01006317 20                               0x20 ' '
                           .rsrc:01006318 20                               0x20 ' '
                           .rsrc:01006319 20                               0x20 ' '
                           .rsrc:0100631a 20                               0x20 ' '
                           .rsrc:0100631b 3c                               0x3c '<'
                           .rsrc:0100631c 72                               0x72 'r'
                           .rsrc:0100631d 65                               0x65 'e'
                           .rsrc:0100631e 71                               0x71 'q'
                           .rsrc:0100631f 75                               0x75 'u'
                           .rsrc:01006320 65                               0x65 'e'
                           .rsrc:01006321 73                               0x73 's'
                           .rsrc:01006322 74                               0x74 't'
                           .rsrc:01006323 65                               0x65 'e'
                           .rsrc:01006324 64                               0x64 'd'
                           .rsrc:01006325 45                               0x45 'E'
                           .rsrc:01006326 78                               0x78 'x'
                           .rsrc:01006327 65                               0x65 'e'
                           .rsrc:01006328 63                               0x63 'c'
                           .rsrc:01006329 75                               0x75 'u'
                           .rsrc:0100632a 74                               0x74 't'
                           .rsrc:0100632b 69                               0x69 'i'
                           .rsrc:0100632c 6f                               0x6f 'o'
                           .rsrc:0100632d 6e                               0x6e 'n'
                           .rsrc:0100632e 4c                               0x4c 'L'
                           .rsrc:0100632f 65                               0x65 'e'
                           .rsrc:01006330 76                               0x76 'v'
                           .rsrc:01006331 65                               0x65 'e'
                           .rsrc:01006332 6c                               0x6c 'l'
                           .rsrc:01006333 0d                               0x0d ''
                           .rsrc:01006334 0a                               0x0a '
'
                           .rsrc:01006335 20                               0x20 ' '
                           .rsrc:01006336 20                               0x20 ' '
                           .rsrc:01006337 20                               0x20 ' '
                           .rsrc:01006338 20                               0x20 ' '
                           .rsrc:01006339 20                               0x20 ' '
                           .rsrc:0100633a 20                               0x20 ' '
                           .rsrc:0100633b 20                               0x20 ' '
                           .rsrc:0100633c 20                               0x20 ' '
                           .rsrc:0100633d 20                               0x20 ' '
                           .rsrc:0100633e 20                               0x20 ' '
                           .rsrc:0100633f 6c                               0x6c 'l'
                           .rsrc:01006340 65                               0x65 'e'
                           .rsrc:01006341 76                               0x76 'v'
                           .rsrc:01006342 65                               0x65 'e'
                           .rsrc:01006343 6c                               0x6c 'l'
                           .rsrc:01006344 3d                               0x3d '='
                           .rsrc:01006345 22                               0x22 '"'
                           .rsrc:01006346 61                               0x61 'a'
                           .rsrc:01006347 73                               0x73 's'
                           .rsrc:01006348 49                               0x49 'I'
                           .rsrc:01006349 6e                               0x6e 'n'
                           .rsrc:0100634a 76                               0x76 'v'
                           .rsrc:0100634b 6f                               0x6f 'o'
                           .rsrc:0100634c 6b                               0x6b 'k'
                           .rsrc:0100634d 65                               0x65 'e'
                           .rsrc:0100634e 72                               0x72 'r'
                           .rsrc:0100634f 22                               0x22 '"'
                           .rsrc:01006350 0d                               0x0d ''
                           .rsrc:01006351 0a                               0x0a '
'
                           .rsrc:01006352 20                               0x20 ' '
                           .rsrc:01006353 20                               0x20 ' '
                           .rsrc:01006354 20                               0x20 ' '
                           .rsrc:01006355 20                               0x20 ' '
                           .rsrc:01006356 20                               0x20 ' '
                           .rsrc:01006357 20                               0x20 ' '
                           .rsrc:01006358 20                               0x20 ' '
                           .rsrc:01006359 20                               0x20 ' '
                           .rsrc:0100635a 20                               0x20 ' '
                           .rsrc:0100635b 20                               0x20 ' '
                           .rsrc:0100635c 75                               0x75 'u'
                           .rsrc:0100635d 69                               0x69 'i'
                           .rsrc:0100635e 41                               0x41 'A'
                           .rsrc:0100635f 63                               0x63 'c'
                           .rsrc:01006360 63                               0x63 'c'
                           .rsrc:01006361 65                               0x65 'e'
                           .rsrc:01006362 73                               0x73 's'
                           .rsrc:01006363 73                               0x73 's'
                           .rsrc:01006364 3d                               0x3d '='
                           .rsrc:01006365 22                               0x22 '"'
                           .rsrc:01006366 66                               0x66 'f'
                           .rsrc:01006367 61                               0x61 'a'
                           .rsrc:01006368 6c                               0x6c 'l'
                           .rsrc:01006369 73                               0x73 's'
                           .rsrc:0100636a 65                               0x65 'e'
                           .rsrc:0100636b 22                               0x22 '"'
                           .rsrc:0100636c 2f                               0x2f '/'
                           .rsrc:0100636d 3e                               0x3e '>'
                           .rsrc:0100636e 0d                               0x0d ''
                           .rsrc:0100636f 0a                               0x0a '
'
                           .rsrc:01006370 20                               0x20 ' '
                           .rsrc:01006371 20                               0x20 ' '
                           .rsrc:01006372 20                               0x20 ' '
                           .rsrc:01006373 20                               0x20 ' '
                           .rsrc:01006374 20                               0x20 ' '
                           .rsrc:01006375 20                               0x20 ' '
                           .rsrc:01006376 20                               0x20 ' '
                           .rsrc:01006377 20                               0x20 ' '
                           .rsrc:01006378 3c                               0x3c '<'
                           .rsrc:01006379 2f                               0x2f '/'
                           .rsrc:0100637a 72                               0x72 'r'
                           .rsrc:0100637b 65                               0x65 'e'
                           .rsrc:0100637c 71                               0x71 'q'
                           .rsrc:0100637d 75                               0x75 'u'
                           .rsrc:0100637e 65                               0x65 'e'
                           .rsrc:0100637f 73                               0x73 's'
                           .rsrc:01006380 74                               0x74 't'
                           .rsrc:01006381 65                               0x65 'e'
                           .rsrc:01006382 64                               0x64 'd'
                           .rsrc:01006383 50                               0x50 'P'
                           .rsrc:01006384 72                               0x72 'r'
                           .rsrc:01006385 69                               0x69 'i'
                           .rsrc:01006386 76                               0x76 'v'
                           .rsrc:01006387 69                               0x69 'i'
                           .rsrc:01006388 6c                               0x6c 'l'
                           .rsrc:01006389 65                               0x65 'e'
                           .rsrc:0100638a 67                               0x67 'g'
                           .rsrc:0100638b 65                               0x65 'e'
                           .rsrc:0100638c 73                               0x73 's'
                           .rsrc:0100638d 3e                               0x3e '>'
                           .rsrc:0100638e 0d                               0x0d ''
                           .rsrc:0100638f 0a                               0x0a '
'
                           .rsrc:01006390 20                               0x20 ' '
                           .rsrc:01006391 20                               0x20 ' '
                           .rsrc:01006392 20                               0x20 ' '
                           .rsrc:01006393 20                               0x20 ' '
                           .rsrc:01006394 20                               0x20 ' '
                           .rsrc:01006395 20                               0x20 ' '
                           .rsrc:01006396 20                               0x20 ' '
                           .rsrc:01006397 3c                               0x3c '<'
                           .rsrc:01006398 2f                               0x2f '/'
                           .rsrc:01006399 73                               0x73 's'
                           .rsrc:0100639a 65                               0x65 'e'
                           .rsrc:0100639b 63                               0x63 'c'
                           .rsrc:0100639c 75                               0x75 'u'
                           .rsrc:0100639d 72                               0x72 'r'
                           .rsrc:0100639e 69                               0x69 'i'
                           .rsrc:0100639f 74                               0x74 't'
                           .rsrc:010063a0 79                               0x79 'y'
                           .rsrc:010063a1 3e                               0x3e '>'
                           .rsrc:010063a2 0d                               0x0d ''
                           .rsrc:010063a3 0a                               0x0a '
'
                           .rsrc:010063a4 20                               0x20 ' '
                           .rsrc:010063a5 20                               0x20 ' '
                           .rsrc:010063a6 3c                               0x3c '<'
                           .rsrc:010063a7 2f                               0x2f '/'
                           .rsrc:010063a8 74                               0x74 't'
                           .rsrc:010063a9 72                               0x72 'r'
                           .rsrc:010063aa 75                               0x75 'u'
                           .rsrc:010063ab 73                               0x73 's'
                           .rsrc:010063ac 74                               0x74 't'
                           .rsrc:010063ad 49                               0x49 'I'
                           .rsrc:010063ae 6e                               0x6e 'n'
                           .rsrc:010063af 66                               0x66 'f'
                           .rsrc:010063b0 6f                               0x6f 'o'
                           .rsrc:010063b1 3e                               0x3e '>'
                           .rsrc:010063b2 0d                               0x0d ''
                           .rsrc:010063b3 0a                               0x0a '
'
                           .rsrc:010063b4 0d                               0x0d ''
                           .rsrc:010063b5 0a                               0x0a '
'
                           .rsrc:010063b6 3c                               0x3c '<'
                           .rsrc:010063b7 2f                               0x2f '/'
                           .rsrc:010063b8 61                               0x61 'a'
                           .rsrc:010063b9 73                               0x73 's'
                           .rsrc:010063ba 73                               0x73 's'
                           .rsrc:010063bb 65                               0x65 'e'
                           .rsrc:010063bc 6d                               0x6d 'm'
                           .rsrc:010063bd 62                               0x62 'b'
                           .rsrc:010063be 6c                               0x6c 'l'
                           .rsrc:010063bf 79                               0x79 'y'
                           .rsrc:010063c0 3e                               0x3e '>'
                           .rsrc:010063c1 00                               0x00 
                           .rsrc:010063c2 00                               0x00 
                           .rsrc:010063c3 00                               0x00 
                           .rsrc:010063c4 00                               0x00 
                           .rsrc:010063c5 00                               0x00 
                           .rsrc:010063c6 00                               0x00 
                           .rsrc:010063c7 00                               0x00 
                           .rsrc:010063c8 84                               0x84 
                           .rsrc:010063c9 03                               0x03 
                           .rsrc:010063ca 34                               0x34 '4'
                           .rsrc:010063cb 00                               0x00 
                           .rsrc:010063cc 00                               0x00 
                           .rsrc:010063cd 00                               0x00 
                           .rsrc:010063ce 56                               0x56 'V'
                           .rsrc:010063cf 00                               0x00 
                           .rsrc:010063d0 53                               0x53 'S'
                           .rsrc:010063d1 00                               0x00 
                           .rsrc:010063d2 5f                               0x5f '_'
                           .rsrc:010063d3 00                               0x00 
                           .rsrc:010063d4 56                               0x56 'V'
                           .rsrc:010063d5 00                               0x00 
                           .rsrc:010063d6 45                               0x45 'E'
                           .rsrc:010063d7 00                               0x00 
                           .rsrc:010063d8 52                               0x52 'R'
                           .rsrc:010063d9 00                               0x00 
                           .rsrc:010063da 53                               0x53 'S'
                           .rsrc:010063db 00                               0x00 
                           .rsrc:010063dc 49                               0x49 'I'
                           .rsrc:010063dd 00                               0x00 
                           .rsrc:010063de 4f                               0x4f 'O'
                           .rsrc:010063df 00                               0x00 
                           .rsrc:010063e0 4e                               0x4e 'N'
                           .rsrc:010063e1 00                               0x00 
                           .rsrc:010063e2 5f                               0x5f '_'
                           .rsrc:010063e3 00                               0x00 
                           .rsrc:010063e4 49                               0x49 'I'
                           .rsrc:010063e5 00                               0x00 
                           .rsrc:010063e6 4e                               0x4e 'N'
                           .rsrc:010063e7 00                               0x00 
                           .rsrc:010063e8 46                               0x46 'F'
                           .rsrc:010063e9 00                               0x00 
                           .rsrc:010063ea 4f                               0x4f 'O'
                           .rsrc:010063eb 00                               0x00 
                           .rsrc:010063ec 00                               0x00 
                           .rsrc:010063ed 00                               0x00 
                           .rsrc:010063ee 00                               0x00 
                           .rsrc:010063ef 00                               0x00 
                           .rsrc:010063f0 bd                               0xbd 
                           .rsrc:010063f1 04                               0x04 
                           .rsrc:010063f2 ef                               0xef 
                           .rsrc:010063f3 fe                               0xfe 
                           .rsrc:010063f4 00                               0x00 
                           .rsrc:010063f5 00                               0x00 
                           .rsrc:010063f6 01                               0x01 
                           .rsrc:010063f7 00                               0x00 
                           .rsrc:010063f8 01                               0x01 
                           .rsrc:010063f9 00                               0x00 
                           .rsrc:010063fa 06                               0x06 
                           .rsrc:010063fb 00                               0x00 
                           .rsrc:010063fc 01                               0x01 
                           .rsrc:010063fd 40                               0x40 '@'
                           .rsrc:010063fe b0                               0xb0 
                           .rsrc:010063ff 1d                               0x1d 
                           .rsrc:01006400 01                               0x01 
                           .rsrc:01006401 00                               0x00 
                           .rsrc:01006402 06                               0x06 
                           .rsrc:01006403 00                               0x00 
                           .rsrc:01006404 01                               0x01 
                           .rsrc:01006405 40                               0x40 '@'
                           .rsrc:01006406 b0                               0xb0 
                           .rsrc:01006407 1d                               0x1d 
                           .rsrc:01006408 3f                               0x3f '?'
                           .rsrc:01006409 00                               0x00 
                           .rsrc:0100640a 00                               0x00 
                           .rsrc:0100640b 00                               0x00 
                           .rsrc:0100640c 00                               0x00 
                           .rsrc:0100640d 00                               0x00 
                           .rsrc:0100640e 00                               0x00 
                           .rsrc:0100640f 00                               0x00 
                           .rsrc:01006410 04                               0x04 
                           .rsrc:01006411 00                               0x00 
                           .rsrc:01006412 04                               0x04 
                           .rsrc:01006413 00                               0x00 
                           .rsrc:01006414 01                               0x01 
                           .rsrc:01006415 00                               0x00 
                           .rsrc:01006416 00                               0x00 
                           .rsrc:01006417 00                               0x00 
                           .rsrc:01006418 00                               0x00 
                           .rsrc:01006419 00                               0x00 
                           .rsrc:0100641a 00                               0x00 
                           .rsrc:0100641b 00                               0x00 
                           .rsrc:0100641c 00                               0x00 
                           .rsrc:0100641d 00                               0x00 
                           .rsrc:0100641e 00                               0x00 
                           .rsrc:0100641f 00                               0x00 
                           .rsrc:01006420 00                               0x00 
                           .rsrc:01006421 00                               0x00 
                           .rsrc:01006422 00                               0x00 
                           .rsrc:01006423 00                               0x00 
                           .rsrc:01006424 e2                               0xe2 
                           .rsrc:01006425 02                               0x02 
                           .rsrc:01006426 00                               0x00 
                           .rsrc:01006427 00                               0x00 
                           .rsrc:01006428 01                               0x01 
                           .rsrc:01006429 00                               0x00 
                           .rsrc:0100642a 53                               0x53 'S'
                           .rsrc:0100642b 00                               0x00 
                           .rsrc:0100642c 74                               0x74 't'
                           .rsrc:0100642d 00                               0x00 
                           .rsrc:0100642e 72                               0x72 'r'
                           .rsrc:0100642f 00                               0x00 
                           .rsrc:01006430 69                               0x69 'i'
                           .rsrc:01006431 00                               0x00 
                           .rsrc:01006432 6e                               0x6e 'n'
                           .rsrc:01006433 00                               0x00 
                           .rsrc:01006434 67                               0x67 'g'
                           .rsrc:01006435 00                               0x00 
                           .rsrc:01006436 46                               0x46 'F'
                           .rsrc:01006437 00                               0x00 
                           .rsrc:01006438 69                               0x69 'i'
                           .rsrc:01006439 00                               0x00 
                           .rsrc:0100643a 6c                               0x6c 'l'
                           .rsrc:0100643b 00                               0x00 
                           .rsrc:0100643c 65                               0x65 'e'
                           .rsrc:0100643d 00                               0x00 
                           .rsrc:0100643e 49                               0x49 'I'
                           .rsrc:0100643f 00                               0x00 
                           .rsrc:01006440 6e                               0x6e 'n'
                           .rsrc:01006441 00                               0x00 
                           .rsrc:01006442 66                               0x66 'f'
                           .rsrc:01006443 00                               0x00 
                           .rsrc:01006444 6f                               0x6f 'o'
                           .rsrc:01006445 00                               0x00 
                           .rsrc:01006446 00                               0x00 
                           .rsrc:01006447 00                               0x00 
                           .rsrc:01006448 be                               0xbe 
                           .rsrc:01006449 02                               0x02 
                           .rsrc:0100644a 00                               0x00 
                           .rsrc:0100644b 00                               0x00 
                           .rsrc:0100644c 01                               0x01 
                           .rsrc:0100644d 00                               0x00 
                           .rsrc:0100644e 30                               0x30 '0'
                           .rsrc:0100644f 00                               0x00 
                           .rsrc:01006450 34                               0x34 '4'
                           .rsrc:01006451 00                               0x00 
                           .rsrc:01006452 30                               0x30 '0'
                           .rsrc:01006453 00                               0x00 
                           .rsrc:01006454 39                               0x39 '9'
                           .rsrc:01006455 00                               0x00 
                           .rsrc:01006456 30                               0x30 '0'
                           .rsrc:01006457 00                               0x00 
                           .rsrc:01006458 34                               0x34 '4'
                           .rsrc:01006459 00                               0x00 
                           .rsrc:0100645a 42                               0x42 'B'
                           .rsrc:0100645b 00                               0x00 
                           .rsrc:0100645c 30                               0x30 '0'
                           .rsrc:0100645d 00                               0x00 
                           .rsrc:0100645e 00                               0x00 
                           .rsrc:0100645f 00                               0x00 
                           .rsrc:01006460 4c                               0x4c 'L'
                           .rsrc:01006461 00                               0x00 
                           .rsrc:01006462 16                               0x16 
                           .rsrc:01006463 00                               0x00 
                           .rsrc:01006464 01                               0x01 
                           .rsrc:01006465 00                               0x00 
                           .rsrc:01006466 43                               0x43 'C'
                           .rsrc:01006467 00                               0x00 
                           .rsrc:01006468 6f                               0x6f 'o'
                           .rsrc:01006469 00                               0x00 
                           .rsrc:0100646a 6d                               0x6d 'm'
                           .rsrc:0100646b 00                               0x00 
                           .rsrc:0100646c 70                               0x70 'p'
                           .rsrc:0100646d 00                               0x00 
                           .rsrc:0100646e 61                               0x61 'a'
                           .rsrc:0100646f 00                               0x00 
                           .rsrc:01006470 6e                               0x6e 'n'
                           .rsrc:01006471 00                               0x00 
                           .rsrc:01006472 79                               0x79 'y'
                           .rsrc:01006473 00                               0x00 
                           .rsrc:01006474 4e                               0x4e 'N'
                           .rsrc:01006475 00                               0x00 
                           .rsrc:01006476 61                               0x61 'a'
                           .rsrc:01006477 00                               0x00 
                           .rsrc:01006478 6d                               0x6d 'm'
                           .rsrc:01006479 00                               0x00 
                           .rsrc:0100647a 65                               0x65 'e'
                           .rsrc:0100647b 00                               0x00 
                           .rsrc:0100647c 00                               0x00 
                           .rsrc:0100647d 00                               0x00 
                           .rsrc:0100647e 00                               0x00 
                           .rsrc:0100647f 00                               0x00 
                           .rsrc:01006480 4d                               0x4d 'M'
                           .rsrc:01006481 00                               0x00 
                           .rsrc:01006482 69                               0x69 'i'
                           .rsrc:01006483 00                               0x00 
                           .rsrc:01006484 63                               0x63 'c'
                           .rsrc:01006485 00                               0x00 
                           .rsrc:01006486 72                               0x72 'r'
                           .rsrc:01006487 00                               0x00 
                           .rsrc:01006488 6f                               0x6f 'o'
                           .rsrc:01006489 00                               0x00 
                           .rsrc:0100648a 73                               0x73 's'
                           .rsrc:0100648b 00                               0x00 
                           .rsrc:0100648c 6f                               0x6f 'o'
                           .rsrc:0100648d 00                               0x00 
                           .rsrc:0100648e 66                               0x66 'f'
                           .rsrc:0100648f 00                               0x00 
                           .rsrc:01006490 74                               0x74 't'
                           .rsrc:01006491 00                               0x00 
                           .rsrc:01006492 20                               0x20 ' '
                           .rsrc:01006493 00                               0x00 
                           .rsrc:01006494 43                               0x43 'C'
                           .rsrc:01006495 00                               0x00 
                           .rsrc:01006496 6f                               0x6f 'o'
                           .rsrc:01006497 00                               0x00 
                           .rsrc:01006498 72                               0x72 'r'
                           .rsrc:01006499 00                               0x00 
                           .rsrc:0100649a 70                               0x70 'p'
                           .rsrc:0100649b 00                               0x00 
                           .rsrc:0100649c 6f                               0x6f 'o'
                           .rsrc:0100649d 00                               0x00 
                           .rsrc:0100649e 72                               0x72 'r'
                           .rsrc:0100649f 00                               0x00 
                           .rsrc:010064a0 61                               0x61 'a'
                           .rsrc:010064a1 00                               0x00 
                           .rsrc:010064a2 74                               0x74 't'
                           .rsrc:010064a3 00                               0x00 
                           .rsrc:010064a4 69                               0x69 'i'
                           .rsrc:010064a5 00                               0x00 
                           .rsrc:010064a6 6f                               0x6f 'o'
                           .rsrc:010064a7 00                               0x00 
                           .rsrc:010064a8 6e                               0x6e 'n'
                           .rsrc:010064a9 00                               0x00 
                           .rsrc:010064aa 00                               0x00 
                           .rsrc:010064ab 00                               0x00 
                           .rsrc:010064ac 50                               0x50 'P'
                           .rsrc:010064ad 00                               0x00 
                           .rsrc:010064ae 14                               0x14 
                           .rsrc:010064af 00                               0x00 
                           .rsrc:010064b0 01                               0x01 
                           .rsrc:010064b1 00                               0x00 
                           .rsrc:010064b2 46                               0x46 'F'
                           .rsrc:010064b3 00                               0x00 
                           .rsrc:010064b4 69                               0x69 'i'
                           .rsrc:010064b5 00                               0x00 
                           .rsrc:010064b6 6c                               0x6c 'l'
                           .rsrc:010064b7 00                               0x00 
                           .rsrc:010064b8 65                               0x65 'e'
                           .rsrc:010064b9 00                               0x00 
                           .rsrc:010064ba 44                               0x44 'D'
                           .rsrc:010064bb 00                               0x00 
                           .rsrc:010064bc 65                               0x65 'e'
                           .rsrc:010064bd 00                               0x00 
                           .rsrc:010064be 73                               0x73 's'
                           .rsrc:010064bf 00                               0x00 
                           .rsrc:010064c0 63                               0x63 'c'
                           .rsrc:010064c1 00                               0x00 
                           .rsrc:010064c2 72                               0x72 'r'
                           .rsrc:010064c3 00                               0x00 
                           .rsrc:010064c4 69                               0x69 'i'
                           .rsrc:010064c5 00                               0x00 
                           .rsrc:010064c6 70                               0x70 'p'
                           .rsrc:010064c7 00                               0x00 
                           .rsrc:010064c8 74                               0x74 't'
                           .rsrc:010064c9 00                               0x00 
                           .rsrc:010064ca 69                               0x69 'i'
                           .rsrc:010064cb 00                               0x00 
                           .rsrc:010064cc 6f                               0x6f 'o'
                           .rsrc:010064cd 00                               0x00 
                           .rsrc:010064ce 6e                               0x6e 'n'
                           .rsrc:010064cf 00                               0x00 
                           .rsrc:010064d0 00                               0x00 
                           .rsrc:010064d1 00                               0x00 
                           .rsrc:010064d2 00                               0x00 
                           .rsrc:010064d3 00                               0x00 
                           .rsrc:010064d4 54                               0x54 'T'
                           .rsrc:010064d5 00                               0x00 
                           .rsrc:010064d6 43                               0x43 'C'
                           .rsrc:010064d7 00                               0x00 
                           .rsrc:010064d8 50                               0x50 'P'
                           .rsrc:010064d9 00                               0x00 
                           .rsrc:010064da 2f                               0x2f '/'
                           .rsrc:010064db 00                               0x00 
                           .rsrc:010064dc 49                               0x49 'I'
                           .rsrc:010064dd 00                               0x00 
                           .rsrc:010064de 50                               0x50 'P'
                           .rsrc:010064df 00                               0x00 
                           .rsrc:010064e0 20                               0x20 ' '
                           .rsrc:010064e1 00                               0x00 
                           .rsrc:010064e2 50                               0x50 'P'
                           .rsrc:010064e3 00                               0x00 
                           .rsrc:010064e4 69                               0x69 'i'
                           .rsrc:010064e5 00                               0x00 
                           .rsrc:010064e6 6e                               0x6e 'n'
                           .rsrc:010064e7 00                               0x00 
                           .rsrc:010064e8 67                               0x67 'g'
                           .rsrc:010064e9 00                               0x00 
                           .rsrc:010064ea 20                               0x20 ' '
                           .rsrc:010064eb 00                               0x00 
                           .rsrc:010064ec 43                               0x43 'C'
                           .rsrc:010064ed 00                               0x00 
                           .rsrc:010064ee 6f                               0x6f 'o'
                           .rsrc:010064ef 00                               0x00 
                           .rsrc:010064f0 6d                               0x6d 'm'
                           .rsrc:010064f1 00                               0x00 
                           .rsrc:010064f2 6d                               0x6d 'm'
                           .rsrc:010064f3 00                               0x00 
                           .rsrc:010064f4 61                               0x61 'a'
                           .rsrc:010064f5 00                               0x00 
                           .rsrc:010064f6 6e                               0x6e 'n'
                           .rsrc:010064f7 00                               0x00 
                           .rsrc:010064f8 64                               0x64 'd'
                           .rsrc:010064f9 00                               0x00 
                           .rsrc:010064fa 00                               0x00 
                           .rsrc:010064fb 00                               0x00 
                           .rsrc:010064fc 6c                               0x6c 'l'
                           .rsrc:010064fd 00                               0x00 
                           .rsrc:010064fe 26                               0x26 '&'
                           .rsrc:010064ff 00                               0x00 
                           .rsrc:01006500 01                               0x01 
                           .rsrc:01006501 00                               0x00 
                           .rsrc:01006502 46                               0x46 'F'
                           .rsrc:01006503 00                               0x00 
                           .rsrc:01006504 69                               0x69 'i'
                           .rsrc:01006505 00                               0x00 
                           .rsrc:01006506 6c                               0x6c 'l'
                           .rsrc:01006507 00                               0x00 
                           .rsrc:01006508 65                               0x65 'e'
                           .rsrc:01006509 00                               0x00 
                           .rsrc:0100650a 56                               0x56 'V'
                           .rsrc:0100650b 00                               0x00 
                           .rsrc:0100650c 65                               0x65 'e'
                           .rsrc:0100650d 00                               0x00 
                           .rsrc:0100650e 72                               0x72 'r'
                           .rsrc:0100650f 00                               0x00 
                           .rsrc:01006510 73                               0x73 's'
                           .rsrc:01006511 00                               0x00 
                           .rsrc:01006512 69                               0x69 'i'
                           .rsrc:01006513 00                               0x00 
                           .rsrc:01006514 6f                               0x6f 'o'
                           .rsrc:01006515 00                               0x00 
                           .rsrc:01006516 6e                               0x6e 'n'
                           .rsrc:01006517 00                               0x00 
                           .rsrc:01006518 00                               0x00 
                           .rsrc:01006519 00                               0x00 
                           .rsrc:0100651a 00                               0x00 
                           .rsrc:0100651b 00                               0x00 
                           .rsrc:0100651c 36                               0x36 '6'
                           .rsrc:0100651d 00                               0x00 
                           .rsrc:0100651e 2e                               0x2e '.'
                           .rsrc:0100651f 00                               0x00 
                           .rsrc:01006520 31                               0x31 '1'
                           .rsrc:01006521 00                               0x00 
                           .rsrc:01006522 2e                               0x2e '.'
                           .rsrc:01006523 00                               0x00 
                           .rsrc:01006524 37                               0x37 '7'
                           .rsrc:01006525 00                               0x00 
                           .rsrc:01006526 36                               0x36 '6'
                           .rsrc:01006527 00                               0x00 
                           .rsrc:01006528 30                               0x30 '0'
                           .rsrc:01006529 00                               0x00 
                           .rsrc:0100652a 30                               0x30 '0'
                           .rsrc:0100652b 00                               0x00 
                           .rsrc:0100652c 2e                               0x2e '.'
                           .rsrc:0100652d 00                               0x00 
                           .rsrc:0100652e 31                               0x31 '1'
                           .rsrc:0100652f 00                               0x00 
                           .rsrc:01006530 36                               0x36 '6'
                           .rsrc:01006531 00                               0x00 
                           .rsrc:01006532 33                               0x33 '3'
                           .rsrc:01006533 00                               0x00 
                           .rsrc:01006534 38                               0x38 '8'
                           .rsrc:01006535 00                               0x00 
                           .rsrc:01006536 35                               0x35 '5'
                           .rsrc:01006537 00                               0x00 
                           .rsrc:01006538 20                               0x20 ' '
                           .rsrc:01006539 00                               0x00 
                           .rsrc:0100653a 28                               0x28 '('
                           .rsrc:0100653b 00                               0x00 
                           .rsrc:0100653c 77                               0x77 'w'
                           .rsrc:0100653d 00                               0x00 
                           .rsrc:0100653e 69                               0x69 'i'
                           .rsrc:0100653f 00                               0x00 
                           .rsrc:01006540 6e                               0x6e 'n'
                           .rsrc:01006541 00                               0x00 
                           .rsrc:01006542 37                               0x37 '7'
                           .rsrc:01006543 00                               0x00 
                           .rsrc:01006544 5f                               0x5f '_'
                           .rsrc:01006545 00                               0x00 
                           .rsrc:01006546 72                               0x72 'r'
                           .rsrc:01006547 00                               0x00 
                           .rsrc:01006548 74                               0x74 't'
                           .rsrc:01006549 00                               0x00 
                           .rsrc:0100654a 6d                               0x6d 'm'
                           .rsrc:0100654b 00                               0x00 
                           .rsrc:0100654c 2e                               0x2e '.'
                           .rsrc:0100654d 00                               0x00 
                           .rsrc:0100654e 30                               0x30 '0'
                           .rsrc:0100654f 00                               0x00 
                           .rsrc:01006550 39                               0x39 '9'
                           .rsrc:01006551 00                               0x00 
                           .rsrc:01006552 30                               0x30 '0'
                           .rsrc:01006553 00                               0x00 
                           .rsrc:01006554 37                               0x37 '7'
                           .rsrc:01006555 00                               0x00 
                           .rsrc:01006556 31                               0x31 '1'
                           .rsrc:01006557 00                               0x00 
                           .rsrc:01006558 33                               0x33 '3'
                           .rsrc:01006559 00                               0x00 
                           .rsrc:0100655a 2d                               0x2d '-'
                           .rsrc:0100655b 00                               0x00 
                           .rsrc:0100655c 31                               0x31 '1'
                           .rsrc:0100655d 00                               0x00 
                           .rsrc:0100655e 32                               0x32 '2'
                           .rsrc:0100655f 00                               0x00 
                           .rsrc:01006560 35                               0x35 '5'
                           .rsrc:01006561 00                               0x00 
                           .rsrc:01006562 35                               0x35 '5'
                           .rsrc:01006563 00                               0x00 
                           .rsrc:01006564 29                               0x29 ')'
                           .rsrc:01006565 00                               0x00 
                           .rsrc:01006566 00                               0x00 
                           .rsrc:01006567 00                               0x00 
                           .rsrc:01006568 32                               0x32 '2'
                           .rsrc:01006569 00                               0x00 
                           .rsrc:0100656a 09                               0x09 '	'
                           .rsrc:0100656b 00                               0x00 
                           .rsrc:0100656c 01                               0x01 
                           .rsrc:0100656d 00                               0x00 
                           .rsrc:0100656e 49                               0x49 'I'
                           .rsrc:0100656f 00                               0x00 
                           .rsrc:01006570 6e                               0x6e 'n'
                           .rsrc:01006571 00                               0x00 
                           .rsrc:01006572 74                               0x74 't'
                           .rsrc:01006573 00                               0x00 
                           .rsrc:01006574 65                               0x65 'e'
                           .rsrc:01006575 00                               0x00 
                           .rsrc:01006576 72                               0x72 'r'
                           .rsrc:01006577 00                               0x00 
                           .rsrc:01006578 6e                               0x6e 'n'
                           .rsrc:01006579 00                               0x00 
                           .rsrc:0100657a 61                               0x61 'a'
                           .rsrc:0100657b 00                               0x00 
                           .rsrc:0100657c 6c                               0x6c 'l'
                           .rsrc:0100657d 00                               0x00 
                           .rsrc:0100657e 4e                               0x4e 'N'
                           .rsrc:0100657f 00                               0x00 
                           .rsrc:01006580 61                               0x61 'a'
                           .rsrc:01006581 00                               0x00 
                           .rsrc:01006582 6d                               0x6d 'm'
                           .rsrc:01006583 00                               0x00 
                           .rsrc:01006584 65                               0x65 'e'
                           .rsrc:01006585 00                               0x00 
                           .rsrc:01006586 00                               0x00 
                           .rsrc:01006587 00                               0x00 
                           .rsrc:01006588 70                               0x70 'p'
                           .rsrc:01006589 00                               0x00 
                           .rsrc:0100658a 69                               0x69 'i'
                           .rsrc:0100658b 00                               0x00 
                           .rsrc:0100658c 6e                               0x6e 'n'
                           .rsrc:0100658d 00                               0x00 
                           .rsrc:0100658e 67                               0x67 'g'
                           .rsrc:0100658f 00                               0x00 
                           .rsrc:01006590 2e                               0x2e '.'
                           .rsrc:01006591 00                               0x00 
                           .rsrc:01006592 65                               0x65 'e'
                           .rsrc:01006593 00                               0x00 
                           .rsrc:01006594 78                               0x78 'x'
                           .rsrc:01006595 00                               0x00 
                           .rsrc:01006596 65                               0x65 'e'
                           .rsrc:01006597 00                               0x00 
                           .rsrc:01006598 00                               0x00 
                           .rsrc:01006599 00                               0x00 
                           .rsrc:0100659a 00                               0x00 
                           .rsrc:0100659b 00                               0x00 
                           .rsrc:0100659c 80                               0x80 
                           .rsrc:0100659d 00                               0x00 
                           .rsrc:0100659e 2e                               0x2e '.'
                           .rsrc:0100659f 00                               0x00 
                           .rsrc:010065a0 01                               0x01 
                           .rsrc:010065a1 00                               0x00 
                           .rsrc:010065a2 4c                               0x4c 'L'
                           .rsrc:010065a3 00                               0x00 
                           .rsrc:010065a4 65                               0x65 'e'
                           .rsrc:010065a5 00                               0x00 
                           .rsrc:010065a6 67                               0x67 'g'
                           .rsrc:010065a7 00                               0x00 
                           .rsrc:010065a8 61                               0x61 'a'
                           .rsrc:010065a9 00                               0x00 
                           .rsrc:010065aa 6c                               0x6c 'l'
                           .rsrc:010065ab 00                               0x00 
                           .rsrc:010065ac 43                               0x43 'C'
                           .rsrc:010065ad 00                               0x00 
                           .rsrc:010065ae 6f                               0x6f 'o'
                           .rsrc:010065af 00                               0x00 
                           .rsrc:010065b0 70                               0x70 'p'
                           .rsrc:010065b1 00                               0x00 
                           .rsrc:010065b2 79                               0x79 'y'
                           .rsrc:010065b3 00                               0x00 
                           .rsrc:010065b4 72                               0x72 'r'
                           .rsrc:010065b5 00                               0x00 
                           .rsrc:010065b6 69                               0x69 'i'
                           .rsrc:010065b7 00                               0x00 
                           .rsrc:010065b8 67                               0x67 'g'
                           .rsrc:010065b9 00                               0x00 
                           .rsrc:010065ba 68                               0x68 'h'
                           .rsrc:010065bb 00                               0x00 
                           .rsrc:010065bc 74                               0x74 't'
                           .rsrc:010065bd 00                               0x00 
                           .rsrc:010065be 00                               0x00 
                           .rsrc:010065bf 00                               0x00 
                           .rsrc:010065c0 a9                               0xa9 
                           .rsrc:010065c1 00                               0x00 
                           .rsrc:010065c2 20                               0x20 ' '
                           .rsrc:010065c3 00                               0x00 
                           .rsrc:010065c4 4d                               0x4d 'M'
                           .rsrc:010065c5 00                               0x00 
                           .rsrc:010065c6 69                               0x69 'i'
                           .rsrc:010065c7 00                               0x00 
                           .rsrc:010065c8 63                               0x63 'c'
                           .rsrc:010065c9 00                               0x00 
                           .rsrc:010065ca 72                               0x72 'r'
                           .rsrc:010065cb 00                               0x00 
                           .rsrc:010065cc 6f                               0x6f 'o'
                           .rsrc:010065cd 00                               0x00 
                           .rsrc:010065ce 73                               0x73 's'
                           .rsrc:010065cf 00                               0x00 
                           .rsrc:010065d0 6f                               0x6f 'o'
                           .rsrc:010065d1 00                               0x00 
                           .rsrc:010065d2 66                               0x66 'f'
                           .rsrc:010065d3 00                               0x00 
                           .rsrc:010065d4 74                               0x74 't'
                           .rsrc:010065d5 00                               0x00 
                           .rsrc:010065d6 20                               0x20 ' '
                           .rsrc:010065d7 00                               0x00 
                           .rsrc:010065d8 43                               0x43 'C'
                           .rsrc:010065d9 00                               0x00 
                           .rsrc:010065da 6f                               0x6f 'o'
                           .rsrc:010065db 00                               0x00 
                           .rsrc:010065dc 72                               0x72 'r'
                           .rsrc:010065dd 00                               0x00 
                           .rsrc:010065de 70                               0x70 'p'
                           .rsrc:010065df 00                               0x00 
                           .rsrc:010065e0 6f                               0x6f 'o'
                           .rsrc:010065e1 00                               0x00 
                           .rsrc:010065e2 72                               0x72 'r'
                           .rsrc:010065e3 00                               0x00 
                           .rsrc:010065e4 61                               0x61 'a'
                           .rsrc:010065e5 00                               0x00 
                           .rsrc:010065e6 74                               0x74 't'
                           .rsrc:010065e7 00                               0x00 
                           .rsrc:010065e8 69                               0x69 'i'
                           .rsrc:010065e9 00                               0x00 
                           .rsrc:010065ea 6f                               0x6f 'o'
                           .rsrc:010065eb 00                               0x00 
                           .rsrc:010065ec 6e                               0x6e 'n'
                           .rsrc:010065ed 00                               0x00 
                           .rsrc:010065ee 2e                               0x2e '.'
                           .rsrc:010065ef 00                               0x00 
                           .rsrc:010065f0 20                               0x20 ' '
                           .rsrc:010065f1 00                               0x00 
                           .rsrc:010065f2 41                               0x41 'A'
                           .rsrc:010065f3 00                               0x00 
                           .rsrc:010065f4 6c                               0x6c 'l'
                           .rsrc:010065f5 00                               0x00 
                           .rsrc:010065f6 6c                               0x6c 'l'
                           .rsrc:010065f7 00                               0x00 
                           .rsrc:010065f8 20                               0x20 ' '
                           .rsrc:010065f9 00                               0x00 
                           .rsrc:010065fa 72                               0x72 'r'
                           .rsrc:010065fb 00                               0x00 
                           .rsrc:010065fc 69                               0x69 'i'
                           .rsrc:010065fd 00                               0x00 
                           .rsrc:010065fe 67                               0x67 'g'
                           .rsrc:010065ff 00                               0x00 
                           .rsrc:01006600 68                               0x68 'h'
                           .rsrc:01006601 00                               0x00 
                           .rsrc:01006602 74                               0x74 't'
                           .rsrc:01006603 00                               0x00 
                           .rsrc:01006604 73                               0x73 's'
                           .rsrc:01006605 00                               0x00 
                           .rsrc:01006606 20                               0x20 ' '
                           .rsrc:01006607 00                               0x00 
                           .rsrc:01006608 72                               0x72 'r'
                           .rsrc:01006609 00                               0x00 
                           .rsrc:0100660a 65                               0x65 'e'
                           .rsrc:0100660b 00                               0x00 
                           .rsrc:0100660c 73                               0x73 's'
                           .rsrc:0100660d 00                               0x00 
                           .rsrc:0100660e 65                               0x65 'e'
                           .rsrc:0100660f 00                               0x00 
                           .rsrc:01006610 72                               0x72 'r'
                           .rsrc:01006611 00                               0x00 
                           .rsrc:01006612 76                               0x76 'v'
                           .rsrc:01006613 00                               0x00 
                           .rsrc:01006614 65                               0x65 'e'
                           .rsrc:01006615 00                               0x00 
                           .rsrc:01006616 64                               0x64 'd'
                           .rsrc:01006617 00                               0x00 
                           .rsrc:01006618 2e                               0x2e '.'
                           .rsrc:01006619 00                               0x00 
                           .rsrc:0100661a 00                               0x00 
                           .rsrc:0100661b 00                               0x00 
                           .rsrc:0100661c 3a                               0x3a ':'
                           .rsrc:0100661d 00                               0x00 
                           .rsrc:0100661e 09                               0x09 '	'
                           .rsrc:0100661f 00                               0x00 
                           .rsrc:01006620 01                               0x01 
                           .rsrc:01006621 00                               0x00 
                           .rsrc:01006622 4f                               0x4f 'O'
                           .rsrc:01006623 00                               0x00 
                           .rsrc:01006624 72                               0x72 'r'
                           .rsrc:01006625 00                               0x00 
                           .rsrc:01006626 69                               0x69 'i'
                           .rsrc:01006627 00                               0x00 
                           .rsrc:01006628 67                               0x67 'g'
                           .rsrc:01006629 00                               0x00 
                           .rsrc:0100662a 69                               0x69 'i'
                           .rsrc:0100662b 00                               0x00 
                           .rsrc:0100662c 6e                               0x6e 'n'
                           .rsrc:0100662d 00                               0x00 
                           .rsrc:0100662e 61                               0x61 'a'
                           .rsrc:0100662f 00                               0x00 
                           .rsrc:01006630 6c                               0x6c 'l'
                           .rsrc:01006631 00                               0x00 
                           .rsrc:01006632 46                               0x46 'F'
                           .rsrc:01006633 00                               0x00 
                           .rsrc:01006634 69                               0x69 'i'
                           .rsrc:01006635 00                               0x00 
                           .rsrc:01006636 6c                               0x6c 'l'
                           .rsrc:01006637 00                               0x00 
                           .rsrc:01006638 65                               0x65 'e'
                           .rsrc:01006639 00                               0x00 
                           .rsrc:0100663a 6e                               0x6e 'n'
                           .rsrc:0100663b 00                               0x00 
                           .rsrc:0100663c 61                               0x61 'a'
                           .rsrc:0100663d 00                               0x00 
                           .rsrc:0100663e 6d                               0x6d 'm'
                           .rsrc:0100663f 00                               0x00 
                           .rsrc:01006640 65                               0x65 'e'
                           .rsrc:01006641 00                               0x00 
                           .rsrc:01006642 00                               0x00 
                           .rsrc:01006643 00                               0x00 
                           .rsrc:01006644 70                               0x70 'p'
                           .rsrc:01006645 00                               0x00 
                           .rsrc:01006646 69                               0x69 'i'
                           .rsrc:01006647 00                               0x00 
                           .rsrc:01006648 6e                               0x6e 'n'
                           .rsrc:01006649 00                               0x00 
                           .rsrc:0100664a 67                               0x67 'g'
                           .rsrc:0100664b 00                               0x00 
                           .rsrc:0100664c 2e                               0x2e '.'
                           .rsrc:0100664d 00                               0x00 
                           .rsrc:0100664e 65                               0x65 'e'
                           .rsrc:0100664f 00                               0x00 
                           .rsrc:01006650 78                               0x78 'x'
                           .rsrc:01006651 00                               0x00 
                           .rsrc:01006652 65                               0x65 'e'
                           .rsrc:01006653 00                               0x00 
                           .rsrc:01006654 00                               0x00 
                           .rsrc:01006655 00                               0x00 
                           .rsrc:01006656 00                               0x00 
                           .rsrc:01006657 00                               0x00 
                           .rsrc:01006658 6a                               0x6a 'j'
                           .rsrc:01006659 00                               0x00 
                           .rsrc:0100665a 25                               0x25 '%'
                           .rsrc:0100665b 00                               0x00 
                           .rsrc:0100665c 01                               0x01 
                           .rsrc:0100665d 00                               0x00 
                           .rsrc:0100665e 50                               0x50 'P'
                           .rsrc:0100665f 00                               0x00 
                           .rsrc:01006660 72                               0x72 'r'
                           .rsrc:01006661 00                               0x00 
                           .rsrc:01006662 6f                               0x6f 'o'
                           .rsrc:01006663 00                               0x00 
                           .rsrc:01006664 64                               0x64 'd'
                           .rsrc:01006665 00                               0x00 
                           .rsrc:01006666 75                               0x75 'u'
                           .rsrc:01006667 00                               0x00 
                           .rsrc:01006668 63                               0x63 'c'
                           .rsrc:01006669 00                               0x00 
                           .rsrc:0100666a 74                               0x74 't'
                           .rsrc:0100666b 00                               0x00 
                           .rsrc:0100666c 4e                               0x4e 'N'
                           .rsrc:0100666d 00                               0x00 
                           .rsrc:0100666e 61                               0x61 'a'
                           .rsrc:0100666f 00                               0x00 
                           .rsrc:01006670 6d                               0x6d 'm'
                           .rsrc:01006671 00                               0x00 
                           .rsrc:01006672 65                               0x65 'e'
                           .rsrc:01006673 00                               0x00 
                           .rsrc:01006674 00                               0x00 
                           .rsrc:01006675 00                               0x00 
                           .rsrc:01006676 00                               0x00 
                           .rsrc:01006677 00                               0x00 
                           .rsrc:01006678 4d                               0x4d 'M'
                           .rsrc:01006679 00                               0x00 
                           .rsrc:0100667a 69                               0x69 'i'
                           .rsrc:0100667b 00                               0x00 
                           .rsrc:0100667c 63                               0x63 'c'
                           .rsrc:0100667d 00                               0x00 
                           .rsrc:0100667e 72                               0x72 'r'
                           .rsrc:0100667f 00                               0x00 
                           .rsrc:01006680 6f                               0x6f 'o'
                           .rsrc:01006681 00                               0x00 
                           .rsrc:01006682 73                               0x73 's'
                           .rsrc:01006683 00                               0x00 
                           .rsrc:01006684 6f                               0x6f 'o'
                           .rsrc:01006685 00                               0x00 
                           .rsrc:01006686 66                               0x66 'f'
                           .rsrc:01006687 00                               0x00 
                           .rsrc:01006688 74                               0x74 't'
                           .rsrc:01006689 00                               0x00 
                           .rsrc:0100668a ae                               0xae 
                           .rsrc:0100668b 00                               0x00 
                           .rsrc:0100668c 20                               0x20 ' '
                           .rsrc:0100668d 00                               0x00 
                           .rsrc:0100668e 57                               0x57 'W'
                           .rsrc:0100668f 00                               0x00 
                           .rsrc:01006690 69                               0x69 'i'
                           .rsrc:01006691 00                               0x00 
                           .rsrc:01006692 6e                               0x6e 'n'
                           .rsrc:01006693 00                               0x00 
                           .rsrc:01006694 64                               0x64 'd'
                           .rsrc:01006695 00                               0x00 
                           .rsrc:01006696 6f                               0x6f 'o'
                           .rsrc:01006697 00                               0x00 
                           .rsrc:01006698 77                               0x77 'w'
                           .rsrc:01006699 00                               0x00 
                           .rsrc:0100669a 73                               0x73 's'
                           .rsrc:0100669b 00                               0x00 
                           .rsrc:0100669c ae                               0xae 
                           .rsrc:0100669d 00                               0x00 
                           .rsrc:0100669e 20                               0x20 ' '
                           .rsrc:0100669f 00                               0x00 
                           .rsrc:010066a0 4f                               0x4f 'O'
                           .rsrc:010066a1 00                               0x00 
                           .rsrc:010066a2 70                               0x70 'p'
                           .rsrc:010066a3 00                               0x00 
                           .rsrc:010066a4 65                               0x65 'e'
                           .rsrc:010066a5 00                               0x00 
                           .rsrc:010066a6 72                               0x72 'r'
                           .rsrc:010066a7 00                               0x00 
                           .rsrc:010066a8 61                               0x61 'a'
                           .rsrc:010066a9 00                               0x00 
                           .rsrc:010066aa 74                               0x74 't'
                           .rsrc:010066ab 00                               0x00 
                           .rsrc:010066ac 69                               0x69 'i'
                           .rsrc:010066ad 00                               0x00 
                           .rsrc:010066ae 6e                               0x6e 'n'
                           .rsrc:010066af 00                               0x00 
                           .rsrc:010066b0 67                               0x67 'g'
                           .rsrc:010066b1 00                               0x00 
                           .rsrc:010066b2 20                               0x20 ' '
                           .rsrc:010066b3 00                               0x00 
                           .rsrc:010066b4 53                               0x53 'S'
                           .rsrc:010066b5 00                               0x00 
                           .rsrc:010066b6 79                               0x79 'y'
                           .rsrc:010066b7 00                               0x00 
                           .rsrc:010066b8 73                               0x73 's'
                           .rsrc:010066b9 00                               0x00 
                           .rsrc:010066ba 74                               0x74 't'
                           .rsrc:010066bb 00                               0x00 
                           .rsrc:010066bc 65                               0x65 'e'
                           .rsrc:010066bd 00                               0x00 
                           .rsrc:010066be 6d                               0x6d 'm'
                           .rsrc:010066bf 00                               0x00 
                           .rsrc:010066c0 00                               0x00 
                           .rsrc:010066c1 00                               0x00 
                           .rsrc:010066c2 00                               0x00 
                           .rsrc:010066c3 00                               0x00 
                           .rsrc:010066c4 42                               0x42 'B'
                           .rsrc:010066c5 00                               0x00 
                           .rsrc:010066c6 0f                               0x0f 
                           .rsrc:010066c7 00                               0x00 
                           .rsrc:010066c8 01                               0x01 
                           .rsrc:010066c9 00                               0x00 
                           .rsrc:010066ca 50                               0x50 'P'
                           .rsrc:010066cb 00                               0x00 
                           .rsrc:010066cc 72                               0x72 'r'
                           .rsrc:010066cd 00                               0x00 
                           .rsrc:010066ce 6f                               0x6f 'o'
                           .rsrc:010066cf 00                               0x00 
                           .rsrc:010066d0 64                               0x64 'd'
                           .rsrc:010066d1 00                               0x00 
                           .rsrc:010066d2 75                               0x75 'u'
                           .rsrc:010066d3 00                               0x00 
                           .rsrc:010066d4 63                               0x63 'c'
                           .rsrc:010066d5 00                               0x00 
                           .rsrc:010066d6 74                               0x74 't'
                           .rsrc:010066d7 00                               0x00 
                           .rsrc:010066d8 56                               0x56 'V'
                           .rsrc:010066d9 00                               0x00 
                           .rsrc:010066da 65                               0x65 'e'
                           .rsrc:010066db 00                               0x00 
                           .rsrc:010066dc 72                               0x72 'r'
                           .rsrc:010066dd 00                               0x00 
                           .rsrc:010066de 73                               0x73 's'
                           .rsrc:010066df 00                               0x00 
                           .rsrc:010066e0 69                               0x69 'i'
                           .rsrc:010066e1 00                               0x00 
                           .rsrc:010066e2 6f                               0x6f 'o'
                           .rsrc:010066e3 00                               0x00 
                           .rsrc:010066e4 6e                               0x6e 'n'
                           .rsrc:010066e5 00                               0x00 
                           .rsrc:010066e6 00                               0x00 
                           .rsrc:010066e7 00                               0x00 
                           .rsrc:010066e8 36                               0x36 '6'
                           .rsrc:010066e9 00                               0x00 
                           .rsrc:010066ea 2e                               0x2e '.'
                           .rsrc:010066eb 00                               0x00 
                           .rsrc:010066ec 31                               0x31 '1'
                           .rsrc:010066ed 00                               0x00 
                           .rsrc:010066ee 2e                               0x2e '.'
                           .rsrc:010066ef 00                               0x00 
                           .rsrc:010066f0 37                               0x37 '7'
                           .rsrc:010066f1 00                               0x00 
                           .rsrc:010066f2 36                               0x36 '6'
                           .rsrc:010066f3 00                               0x00 
                           .rsrc:010066f4 30                               0x30 '0'
                           .rsrc:010066f5 00                               0x00 
                           .rsrc:010066f6 30                               0x30 '0'
                           .rsrc:010066f7 00                               0x00 
                           .rsrc:010066f8 2e                               0x2e '.'
                           .rsrc:010066f9 00                               0x00 
                           .rsrc:010066fa 31                               0x31 '1'
                           .rsrc:010066fb 00                               0x00 
                           .rsrc:010066fc 36                               0x36 '6'
                           .rsrc:010066fd 00                               0x00 
                           .rsrc:010066fe 33                               0x33 '3'
                           .rsrc:010066ff 00                               0x00 
                           .rsrc:01006700 38                               0x38 '8'
                           .rsrc:01006701 00                               0x00 
                           .rsrc:01006702 35                               0x35 '5'
                           .rsrc:01006703 00                               0x00 
                           .rsrc:01006704 00                               0x00 
                           .rsrc:01006705 00                               0x00 
                           .rsrc:01006706 00                               0x00 
                           .rsrc:01006707 00                               0x00 
                           .rsrc:01006708 44                               0x44 'D'
                           .rsrc:01006709 00                               0x00 
                           .rsrc:0100670a 00                               0x00 
                           .rsrc:0100670b 00                               0x00 
                           .rsrc:0100670c 01                               0x01 
                           .rsrc:0100670d 00                               0x00 
                           .rsrc:0100670e 56                               0x56 'V'
                           .rsrc:0100670f 00                               0x00 
                           .rsrc:01006710 61                               0x61 'a'
                           .rsrc:01006711 00                               0x00 
                           .rsrc:01006712 72                               0x72 'r'
                           .rsrc:01006713 00                               0x00 
                           .rsrc:01006714 46                               0x46 'F'
                           .rsrc:01006715 00                               0x00 
                           .rsrc:01006716 69                               0x69 'i'
                           .rsrc:01006717 00                               0x00 
                           .rsrc:01006718 6c                               0x6c 'l'
                           .rsrc:01006719 00                               0x00 
                           .rsrc:0100671a 65                               0x65 'e'
                           .rsrc:0100671b 00                               0x00 
                           .rsrc:0100671c 49                               0x49 'I'
                           .rsrc:0100671d 00                               0x00 
                           .rsrc:0100671e 6e                               0x6e 'n'
                           .rsrc:0100671f 00                               0x00 
                           .rsrc:01006720 66                               0x66 'f'
                           .rsrc:01006721 00                               0x00 
                           .rsrc:01006722 6f                               0x6f 'o'
                           .rsrc:01006723 00                               0x00 
                           .rsrc:01006724 00                               0x00 
                           .rsrc:01006725 00                               0x00 
                           .rsrc:01006726 00                               0x00 
                           .rsrc:01006727 00                               0x00 
                           .rsrc:01006728 24                               0x24 '$'
                           .rsrc:01006729 00                               0x00 
                           .rsrc:0100672a 04                               0x04 
                           .rsrc:0100672b 00                               0x00 
                           .rsrc:0100672c 00                               0x00 
                           .rsrc:0100672d 00                               0x00 
                           .rsrc:0100672e 54                               0x54 'T'
                           .rsrc:0100672f 00                               0x00 
                           .rsrc:01006730 72                               0x72 'r'
                           .rsrc:01006731 00                               0x00 
                           .rsrc:01006732 61                               0x61 'a'
                           .rsrc:01006733 00                               0x00 
                           .rsrc:01006734 6e                               0x6e 'n'
                           .rsrc:01006735 00                               0x00 
                           .rsrc:01006736 73                               0x73 's'
                           .rsrc:01006737 00                               0x00 
                           .rsrc:01006738 6c                               0x6c 'l'
                           .rsrc:01006739 00                               0x00 
                           .rsrc:0100673a 61                               0x61 'a'
                           .rsrc:0100673b 00                               0x00 
                           .rsrc:0100673c 74                               0x74 't'
                           .rsrc:0100673d 00                               0x00 
                           .rsrc:0100673e 69                               0x69 'i'
                           .rsrc:0100673f 00                               0x00 
                           .rsrc:01006740 6f                               0x6f 'o'
                           .rsrc:01006741 00                               0x00 
                           .rsrc:01006742 6e                               0x6e 'n'
                           .rsrc:01006743 00                               0x00 
                           .rsrc:01006744 00                               0x00 
                           .rsrc:01006745 00                               0x00 
                           .rsrc:01006746 00                               0x00 
                           .rsrc:01006747 00                               0x00 
                           .rsrc:01006748 09                               0x09 '	'
                           .rsrc:01006749 04                               0x04 
                           .rsrc:0100674a b0                               0xb0 
                           .rsrc:0100674b 04                               0x04 
                           .rsrc:0100674c 00                               0x00 
                           .rsrc:0100674d 00                               0x00 
                           .rsrc:0100674e 00                               0x00 
                           .rsrc:0100674f 00                               0x00 
                           .rsrc:01006750 cd                               0xcd 
                           .rsrc:01006751 fe                               0xfe 
                           .rsrc:01006752 cd                               0xcd 
                           .rsrc:01006753 fe                               0xfe 
                           .rsrc:01006754 c8                               0xc8 
                           .rsrc:01006755 00                               0x00 
                           .rsrc:01006756 00                               0x00 
                           .rsrc:01006757 00                               0x00 
                           .rsrc:01006758 00                               0x00 
                           .rsrc:01006759 00                               0x00 
                           .rsrc:0100675a 01                               0x01 
                           .rsrc:0100675b 00                               0x00 
                           .rsrc:0100675c 00                               0x00 
                           .rsrc:0100675d 00                               0x00 
                           .rsrc:0100675e 00                               0x00 
                           .rsrc:0100675f 00                               0x00 
                           .rsrc:01006760 11                               0x11 
                           .rsrc:01006761 00                               0x00 
                           .rsrc:01006762 00                               0x00 
                           .rsrc:01006763 00                               0x00 
                           .rsrc:01006764 00                               0x00 
                           .rsrc:01006765 00                               0x00 
                           .rsrc:01006766 00                               0x00 
                           .rsrc:01006767 00                               0x00 
                           .rsrc:01006768 02                               0x02 
                           .rsrc:01006769 00                               0x00 
                           .rsrc:0100676a 00                               0x00 
                           .rsrc:0100676b 00                               0x00 
                           .rsrc:0100676c d3                               0xd3 
                           .rsrc:0100676d 54                               0x54 'T'
                           .rsrc:0100676e 0d                               0x0d ''
                           .rsrc:0100676f eb                               0xeb 
                           .rsrc:01006770 32                               0x32 '2'
                           .rsrc:01006771 16                               0x16 
                           .rsrc:01006772 bd                               0xbd 
                           .rsrc:01006773 08                               0x08 
                           .rsrc:01006774 c7                               0xc7 
                           .rsrc:01006775 42                               0x42 'B'
                           .rsrc:01006776 6b                               0x6b 'k'
                           .rsrc:01006777 a5                               0xa5 
                           .rsrc:01006778 55                               0x55 'U'
                           .rsrc:01006779 d9                               0xd9 
                           .rsrc:0100677a fe                               0xfe 
                           .rsrc:0100677b e6                               0xe6 
                           .rsrc:0100677c 62                               0x62 'b'
                           .rsrc:0100677d 56                               0x56 'V'
                           .rsrc:0100677e 69                               0x69 'i'
                           .rsrc:0100677f d1                               0xd1 
                           .rsrc:01006780 58                               0x58 'X'
                           .rsrc:01006781 12                               0x12 
                           .rsrc:01006782 08                               0x08 
                           .rsrc:01006783 02                               0x02 
                           .rsrc:01006784 f8                               0xf8 
                           .rsrc:01006785 29                               0x29 ')'
                           .rsrc:01006786 02                               0x02 
                           .rsrc:01006787 87                               0x87 
                           .rsrc:01006788 5e                               0x5e '^'
                           .rsrc:01006789 9a                               0x9a 
                           .rsrc:0100678a 81                               0x81 
                           .rsrc:0100678b a6                               0xa6 
                           .rsrc:0100678c 00                               0x00 
                           .rsrc:0100678d 00                               0x00 
                           .rsrc:0100678e 00                               0x00 
                           .rsrc:0100678f 00                               0x00 
                           .rsrc:01006790 00                               0x00 
                           .rsrc:01006791 00                               0x00 
                           .rsrc:01006792 00                               0x00 
                           .rsrc:01006793 00                               0x00 
                           .rsrc:01006794 00                               0x00 
                           .rsrc:01006795 00                               0x00 
                           .rsrc:01006796 00                               0x00 
                           .rsrc:01006797 00                               0x00 
                           .rsrc:01006798 00                               0x00 
                           .rsrc:01006799 00                               0x00 
                           .rsrc:0100679a 00                               0x00 
                           .rsrc:0100679b 00                               0x00 
                           .rsrc:0100679c 00                               0x00 
                           .rsrc:0100679d 00                               0x00 
                           .rsrc:0100679e 00                               0x00 
                           .rsrc:0100679f 00                               0x00 
                           .rsrc:010067a0 00                               0x00 
                           .rsrc:010067a1 00                               0x00 
                           .rsrc:010067a2 00                               0x00 
                           .rsrc:010067a3 00                               0x00 
                           .rsrc:010067a4 88                               0x88 
                           .rsrc:010067a5 00                               0x00 
                           .rsrc:010067a6 00                               0x00 
                           .rsrc:010067a7 00                               0x00 
                           .rsrc:010067a8 0e                               0x0e 
                           .rsrc:010067a9 00                               0x00 
                           .rsrc:010067aa 00                               0x00 
                           .rsrc:010067ab 00                               0x00 
                           .rsrc:010067ac 98                               0x98 
                           .rsrc:010067ad 00                               0x00 
                           .rsrc:010067ae 00                               0x00 
                           .rsrc:010067af 00                               0x00 
                           .rsrc:010067b0 08                               0x08 
                           .rsrc:010067b1 00                               0x00 
                           .rsrc:010067b2 00                               0x00 
                           .rsrc:010067b3 00                               0x00 
                           .rsrc:010067b4 a0                               0xa0 
                           .rsrc:010067b5 00                               0x00 
                           .rsrc:010067b6 00                               0x00 
                           .rsrc:010067b7 00                               0x00 
                           .rsrc:010067b8 0e                               0x0e 
                           .rsrc:010067b9 00                               0x00 
                           .rsrc:010067ba 00                               0x00 
                           .rsrc:010067bb 00                               0x00 
                           .rsrc:010067bc b0                               0xb0 
                           .rsrc:010067bd 00                               0x00 
                           .rsrc:010067be 00                               0x00 
                           .rsrc:010067bf 00                               0x00 
                           .rsrc:010067c0 08                               0x08 
                           .rsrc:010067c1 00                               0x00 
                           .rsrc:010067c2 00                               0x00 
                           .rsrc:010067c3 00                               0x00 
                           .rsrc:010067c4 00                               0x00 
                           .rsrc:010067c5 00                               0x00 
                           .rsrc:010067c6 00                               0x00 
                           .rsrc:010067c7 00                               0x00 
                           .rsrc:010067c8 00                               0x00 
                           .rsrc:010067c9 00                               0x00 
                           .rsrc:010067ca 00                               0x00 
                           .rsrc:010067cb 00                               0x00 
                           .rsrc:010067cc b8                               0xb8 
                           .rsrc:010067cd 00                               0x00 
                           .rsrc:010067ce 00                               0x00 
                           .rsrc:010067cf 00                               0x00 
                           .rsrc:010067d0 0c                               0x0c ''
                           .rsrc:010067d1 00                               0x00 
                           .rsrc:010067d2 00                               0x00 
                           .rsrc:010067d3 00                               0x00 
                           .rsrc:010067d4 00                               0x00 
                           .rsrc:010067d5 00                               0x00 
                           .rsrc:010067d6 00                               0x00 
                           .rsrc:010067d7 00                               0x00 
                           .rsrc:010067d8 4d                               0x4d 'M'
                           .rsrc:010067d9 00                               0x00 
                           .rsrc:010067da 55                               0x55 'U'
                           .rsrc:010067db 00                               0x00 
                           .rsrc:010067dc 49                               0x49 'I'
                           .rsrc:010067dd 00                               0x00 
                           .rsrc:010067de 00                               0x00 
                           .rsrc:010067df 00                               0x00 
                           .rsrc:010067e0 00                               0x00 
                           .rsrc:010067e1 00                               0x00 
                           .rsrc:010067e2 00                               0x00 
                           .rsrc:010067e3 00                               0x00 
                           .rsrc:010067e4 00                               0x00 
                           .rsrc:010067e5 00                               0x00 
                           .rsrc:010067e6 00                               0x00 
                           .rsrc:010067e7 00                               0x00 
                           .rsrc:010067e8 10                               0x10 
                           .rsrc:010067e9 00                               0x00 
                           .rsrc:010067ea 00                               0x00 
                           .rsrc:010067eb 00                               0x00 
                           .rsrc:010067ec 18                               0x18 
                           .rsrc:010067ed 00                               0x00 
                           .rsrc:010067ee 00                               0x00 
                           .rsrc:010067ef 00                               0x00 
                           .rsrc:010067f0 4d                               0x4d 'M'
                           .rsrc:010067f1 00                               0x00 
                           .rsrc:010067f2 55                               0x55 'U'
                           .rsrc:010067f3 00                               0x00 
                           .rsrc:010067f4 49                               0x49 'I'
                           .rsrc:010067f5 00                               0x00 
                           .rsrc:010067f6 00                               0x00 
                           .rsrc:010067f7 00                               0x00 
                           .rsrc:010067f8 00                               0x00 
                           .rsrc:010067f9 00                               0x00 
                           .rsrc:010067fa 00                               0x00 
                           .rsrc:010067fb 00                               0x00 
                           .rsrc:010067fc 00                               0x00 
                           .rsrc:010067fd 00                               0x00 
                           .rsrc:010067fe 00                               0x00 
                           .rsrc:010067ff 00                               0x00 
                           .rsrc:01006800 0b                               0x0b ''
                           .rsrc:01006801 00                               0x00 
                           .rsrc:01006802 00                               0x00 
                           .rsrc:01006803 00                               0x00 
                           .rsrc:01006804 10                               0x10 
                           .rsrc:01006805 00                               0x00 
                           .rsrc:01006806 00                               0x00 
                           .rsrc:01006807 00                               0x00 
                           .rsrc:01006808 65                               0x65 'e'
                           .rsrc:01006809 00                               0x00 
                           .rsrc:0100680a 6e                               0x6e 'n'
                           .rsrc:0100680b 00                               0x00 
                           .rsrc:0100680c 2d                               0x2d '-'
                           .rsrc:0100680d 00                               0x00 
                           .rsrc:0100680e 55                               0x55 'U'
                           .rsrc:0100680f 00                               0x00 
                           .rsrc:01006810 53                               0x53 'S'
                           .rsrc:01006811 00                               0x00 
                           .rsrc:01006812 00                               0x00 
                           .rsrc:01006813 00                               0x00 
                           .rsrc:01006814 00                               0x00 
                           .rsrc:01006815 00                               0x00 
                           .rsrc:01006816 00                               0x00 
                           .rsrc:01006817 00                               0x00 
                          .reloc:01007000 00                               0x00 
                          .reloc:01007001 10                               0x10 
                          .reloc:01007002 00                               0x00 
                          .reloc:01007003 00                               0x00 
                          .reloc:01007004 98                               0x98 
                          .reloc:01007005 00                               0x00 
                          .reloc:01007006 00                               0x00 
                          .reloc:01007007 00                               0x00 
                          .reloc:01007008 0c                               0x0c ''
                          .reloc:01007009 31                               0x31 '1'
                          .reloc:0100700a 18                               0x18 
                          .reloc:0100700b 31                               0x31 '1'
                          .reloc:0100700c 1c                               0x1c 
                          .reloc:0100700d 31                               0x31 '1'
                          .reloc:0100700e a0                               0xa0 
                          .reloc:0100700f 31                               0x31 '1'
                          .reloc:01007010 a4                               0xa4 
                          .reloc:01007011 31                               0x31 '1'
                          .reloc:01007012 e4                               0xe4 
                          .reloc:01007013 31                               0x31 '1'
                          .reloc:01007014 e8                               0xe8 
                          .reloc:01007015 31                               0x31 '1'
                          .reloc:01007016 82                               0x82 
                          .reloc:01007017 32                               0x32 '2'
                          .reloc:01007018 9d                               0x9d 
                          .reloc:01007019 32                               0x32 '2'
                          .reloc:0100701a 56                               0x56 'V'
                          .reloc:0100701b 33                               0x33 '3'
                          .reloc:0100701c 69                               0x69 'i'
                          .reloc:0100701d 33                               0x33 '3'
                          .reloc:0100701e de                               0xde 
                          .reloc:0100701f 34                               0x34 '4'
                          .reloc:01007020 e9                               0xe9 
                          .reloc:01007021 34                               0x34 '4'
                          .reloc:01007022 07                               0x07 
                          .reloc:01007023 35                               0x35 '5'
                          .reloc:01007024 81                               0x81 
                          .reloc:01007025 36                               0x36 '6'
                          .reloc:01007026 8c                               0x8c 
                          .reloc:01007027 36                               0x36 '6'
                          .reloc:01007028 aa                               0xaa 
                          .reloc:01007029 36                               0x36 '6'
                          .reloc:0100702a 13                               0x13 
                          .reloc:0100702b 37                               0x37 '7'
                          .reloc:0100702c 1e                               0x1e 
                          .reloc:0100702d 37                               0x37 '7'
                          .reloc:0100702e 2b                               0x2b '+'
                          .reloc:0100702f 37                               0x37 '7'
                          .reloc:01007030 34                               0x34 '4'
                          .reloc:01007031 37                               0x37 '7'
                          .reloc:01007032 49                               0x49 'I'
                          .reloc:01007033 37                               0x37 '7'
                          .reloc:01007034 4e                               0x4e 'N'
                          .reloc:01007035 37                               0x37 '7'
                          .reloc:01007036 54                               0x54 'T'
                          .reloc:01007037 37                               0x37 '7'
                          .reloc:01007038 5a                               0x5a 'Z'
                          .reloc:01007039 37                               0x37 '7'
                          .reloc:0100703a 60                               0x60 '`'
                          .reloc:0100703b 37                               0x37 '7'
                          .reloc:0100703c 87                               0x87 
                          .reloc:0100703d 37                               0x37 '7'
                          .reloc:0100703e 95                               0x95 
                          .reloc:0100703f 37                               0x37 '7'
                          .reloc:01007040 a0                               0xa0 
                          .reloc:01007041 37                               0x37 '7'
                          .reloc:01007042 a6                               0xa6 
                          .reloc:01007043 37                               0x37 '7'
                          .reloc:01007044 1f                               0x1f 
                          .reloc:01007045 38                               0x38 '8'
                          .reloc:01007046 37                               0x37 '7'
                          .reloc:01007047 38                               0x38 '8'
                          .reloc:01007048 4d                               0x4d 'M'
                          .reloc:01007049 38                               0x38 '8'
                          .reloc:0100704a 56                               0x56 'V'
                          .reloc:0100704b 38                               0x38 '8'
                          .reloc:0100704c 6d                               0x6d 'm'
                          .reloc:0100704d 38                               0x38 '8'
                          .reloc:0100704e ab                               0xab 
                          .reloc:0100704f 38                               0x38 '8'
                          .reloc:01007050 ee                               0xee 
                          .reloc:01007051 38                               0x38 '8'
                          .reloc:01007052 f8                               0xf8 
                          .reloc:01007053 38                               0x38 '8'
                          .reloc:01007054 97                               0x97 
                          .reloc:01007055 39                               0x39 '9'
                          .reloc:01007056 ef                               0xef 
                          .reloc:01007057 39                               0x39 '9'
                          .reloc:01007058 fa                               0xfa 
                          .reloc:01007059 39                               0x39 '9'
                          .reloc:0100705a 65                               0x65 'e'
                          .reloc:0100705b 3a                               0x3a ':'
                          .reloc:0100705c ec                               0xec 
                          .reloc:0100705d 3a                               0x3a ':'
                          .reloc:0100705e f7                               0xf7 
                          .reloc:0100705f 3a                               0x3a ':'
                          .reloc:01007060 fc                               0xfc 
                          .reloc:01007061 3a                               0x3a ':'
                          .reloc:01007062 04                               0x04 
                          .reloc:01007063 3b                               0x3b ';'
                          .reloc:01007064 26                               0x26 '&'
                          .reloc:01007065 3b                               0x3b ';'
                          .reloc:01007066 51                               0x51 'Q'
                          .reloc:01007067 3c                               0x3c '<'
                          .reloc:01007068 56                               0x56 'V'
                          .reloc:01007069 3c                               0x3c '<'
                          .reloc:0100706a 71                               0x71 'q'
                          .reloc:0100706b 3c                               0x3c '<'
                          .reloc:0100706c 7a                               0x7a 'z'
                          .reloc:0100706d 3c                               0x3c '<'
                          .reloc:0100706e 82                               0x82 
                          .reloc:0100706f 3d                               0x3d '='
                          .reloc:01007070 88                               0x88 
                          .reloc:01007071 3d                               0x3d '='
                          .reloc:01007072 8f                               0x8f 
                          .reloc:01007073 3d                               0x3d '='
                          .reloc:01007074 96                               0x96 
                          .reloc:01007075 3d                               0x3d '='
                          .reloc:01007076 d9                               0xd9 
                          .reloc:01007077 3d                               0x3d '='
                          .reloc:01007078 f4                               0xf4 
                          .reloc:01007079 3d                               0x3d '='
                          .reloc:0100707a fe                               0xfe 
                          .reloc:0100707b 3d                               0x3d '='
                          .reloc:0100707c 17                               0x17 
                          .reloc:0100707d 3e                               0x3e '>'
                          .reloc:0100707e 4e                               0x4e 'N'
                          .reloc:0100707f 3e                               0x3e '>'
                          .reloc:01007080 a7                               0xa7 
                          .reloc:01007081 3e                               0x3e '>'
                          .reloc:01007082 ae                               0xae 
                          .reloc:01007083 3e                               0x3e '>'
                          .reloc:01007084 b5                               0xb5 
                          .reloc:01007085 3e                               0x3e '>'
                          .reloc:01007086 dc                               0xdc 
                          .reloc:01007087 3e                               0x3e '>'
                          .reloc:01007088 43                               0x43 'C'
                          .reloc:01007089 3f                               0x3f '?'
                          .reloc:0100708a 49                               0x49 'I'
                          .reloc:0100708b 3f                               0x3f '?'
                          .reloc:0100708c 50                               0x50 'P'
                          .reloc:0100708d 3f                               0x3f '?'
                          .reloc:0100708e 57                               0x57 'W'
                          .reloc:0100708f 3f                               0x3f '?'
                          .reloc:01007090 a6                               0xa6 
                          .reloc:01007091 3f                               0x3f '?'
                          .reloc:01007092 c1                               0xc1 
                          .reloc:01007093 3f                               0x3f '?'
                          .reloc:01007094 cb                               0xcb 
                          .reloc:01007095 3f                               0x3f '?'
                          .reloc:01007096 e4                               0xe4 
                          .reloc:01007097 3f                               0x3f '?'
                          .reloc:01007098 00                               0x00 
                          .reloc:01007099 20                               0x20 ' '
                          .reloc:0100709a 00                               0x00 
                          .reloc:0100709b 00                               0x00 
                          .reloc:0100709c 64                               0x64 'd'
                          .reloc:0100709d 01                               0x01 
                          .reloc:0100709e 00                               0x00 
                          .reloc:0100709f 00                               0x00 
                          .reloc:010070a0 15                               0x15 
                          .reloc:010070a1 30                               0x30 '0'
                          .reloc:010070a2 4c                               0x4c 'L'
                          .reloc:010070a3 30                               0x30 '0'
                          .reloc:010070a4 53                               0x53 'S'
                          .reloc:010070a5 30                               0x30 '0'
                          .reloc:010070a6 5a                               0x5a 'Z'
                          .reloc:010070a7 30                               0x30 '0'
                          .reloc:010070a8 7b                               0x7b '{'
                          .reloc:010070a9 30                               0x30 '0'
                          .reloc:010070aa 7c                               0x7c '|'
                          .reloc:010070ab 31                               0x31 '1'
                          .reloc:010070ac 95                               0x95 
                          .reloc:010070ad 31                               0x31 '1'
                          .reloc:010070ae bc                               0xbc 
                          .reloc:010070af 31                               0x31 '1'
                          .reloc:010070b0 c1                               0xc1 
                          .reloc:010070b1 31                               0x31 '1'
                          .reloc:010070b2 e6                               0xe6 
                          .reloc:010070b3 31                               0x31 '1'
                          .reloc:010070b4 0e                               0x0e 
                          .reloc:010070b5 32                               0x32 '2'
                          .reloc:010070b6 2b                               0x2b '+'
                          .reloc:010070b7 32                               0x32 '2'
                          .reloc:010070b8 9f                               0x9f 
                          .reloc:010070b9 32                               0x32 '2'
                          .reloc:010070ba e5                               0xe5 
                          .reloc:010070bb 32                               0x32 '2'
                          .reloc:010070bc ea                               0xea 
                          .reloc:010070bd 32                               0x32 '2'
                          .reloc:010070be ac                               0xac 
                          .reloc:010070bf 33                               0x33 '3'
                          .reloc:010070c0 b2                               0xb2 
                          .reloc:010070c1 33                               0x33 '3'
                          .reloc:010070c2 0a                               0x0a '
'
                          .reloc:010070c3 34                               0x34 '4'
                          .reloc:010070c4 33                               0x33 '3'
                          .reloc:010070c5 34                               0x34 '4'
                          .reloc:010070c6 3d                               0x3d '='
                          .reloc:010070c7 34                               0x34 '4'
                          .reloc:010070c8 62                               0x62 'b'
                          .reloc:010070c9 34                               0x34 '4'
                          .reloc:010070ca 75                               0x75 'u'
                          .reloc:010070cb 34                               0x34 '4'
                          .reloc:010070cc 81                               0x81 
                          .reloc:010070cd 34                               0x34 '4'
                          .reloc:010070ce b5                               0xb5 
                          .reloc:010070cf 34                               0x34 '4'
                          .reloc:010070d0 d8                               0xd8 
                          .reloc:010070d1 34                               0x34 '4'
                          .reloc:010070d2 5c                               0x5c '\'
                          .reloc:010070d3 35                               0x35 '5'
                          .reloc:010070d4 68                               0x68 'h'
                          .reloc:010070d5 35                               0x35 '5'
                          .reloc:010070d6 6f                               0x6f 'o'
                          .reloc:010070d7 35                               0x35 '5'
                          .reloc:010070d8 78                               0x78 'x'
                          .reloc:010070d9 35                               0x35 '5'
                          .reloc:010070da 7f                               0x7f 
                          .reloc:010070db 35                               0x35 '5'
                          .reloc:010070dc 93                               0x93 
                          .reloc:010070dd 35                               0x35 '5'
                          .reloc:010070de c4                               0xc4 
                          .reloc:010070df 35                               0x35 '5'
                          .reloc:010070e0 d8                               0xd8 
                          .reloc:010070e1 35                               0x35 '5'
                          .reloc:010070e2 e4                               0xe4 
                          .reloc:010070e3 35                               0x35 '5'
                          .reloc:010070e4 f8                               0xf8 
                          .reloc:010070e5 35                               0x35 '5'
                          .reloc:010070e6 25                               0x25 '%'
                          .reloc:010070e7 36                               0x36 '6'
                          .reloc:010070e8 40                               0x40 '@'
                          .reloc:010070e9 36                               0x36 '6'
                          .reloc:010070ea 4c                               0x4c 'L'
                          .reloc:010070eb 36                               0x36 '6'
                          .reloc:010070ec 5d                               0x5d ']'
                          .reloc:010070ed 36                               0x36 '6'
                          .reloc:010070ee 74                               0x74 't'
                          .reloc:010070ef 36                               0x36 '6'
                          .reloc:010070f0 94                               0x94 
                          .reloc:010070f1 36                               0x36 '6'
                          .reloc:010070f2 9a                               0x9a 
                          .reloc:010070f3 36                               0x36 '6'
                          .reloc:010070f4 a0                               0xa0 
                          .reloc:010070f5 36                               0x36 '6'
                          .reloc:010070f6 d3                               0xd3 
                          .reloc:010070f7 36                               0x36 '6'
                          .reloc:010070f8 f0                               0xf0 
                          .reloc:010070f9 36                               0x36 '6'
                          .reloc:010070fa fc                               0xfc 
                          .reloc:010070fb 36                               0x36 '6'
                          .reloc:010070fc 03                               0x03 
                          .reloc:010070fd 37                               0x37 '7'
                          .reloc:010070fe 0c                               0x0c ''
                          .reloc:010070ff 37                               0x37 '7'
                          .reloc:01007100 13                               0x13 
                          .reloc:01007101 37                               0x37 '7'
                          .reloc:01007102 29                               0x29 ')'
                          .reloc:01007103 37                               0x37 '7'
                          .reloc:01007104 35                               0x35 '5'
                          .reloc:01007105 37                               0x37 '7'
                          .reloc:01007106 44                               0x44 'D'
                          .reloc:01007107 37                               0x37 '7'
                          .reloc:01007108 53                               0x53 'S'
                          .reloc:01007109 37                               0x37 '7'
                          .reloc:0100710a 60                               0x60 '`'
                          .reloc:0100710b 37                               0x37 '7'
                          .reloc:0100710c 97                               0x97 
                          .reloc:0100710d 37                               0x37 '7'
                          .reloc:0100710e ba                               0xba 
                          .reloc:0100710f 37                               0x37 '7'
                          .reloc:01007110 d9                               0xd9 
                          .reloc:01007111 37                               0x37 '7'
                          .reloc:01007112 ff                               0xff 
                          .reloc:01007113 37                               0x37 '7'
                          .reloc:01007114 3d                               0x3d '='
                          .reloc:01007115 38                               0x38 '8'
                          .reloc:01007116 42                               0x42 'B'
                          .reloc:01007117 38                               0x38 '8'
                          .reloc:01007118 48                               0x48 'H'
                          .reloc:01007119 38                               0x38 '8'
                          .reloc:0100711a 4d                               0x4d 'M'
                          .reloc:0100711b 38                               0x38 '8'
                          .reloc:0100711c 52                               0x52 'R'
                          .reloc:0100711d 38                               0x38 '8'
                          .reloc:0100711e 57                               0x57 'W'
                          .reloc:0100711f 38                               0x38 '8'
                          .reloc:01007120 5c                               0x5c '\'
                          .reloc:01007121 38                               0x38 '8'
                          .reloc:01007122 62                               0x62 'b'
                          .reloc:01007123 38                               0x38 '8'
                          .reloc:01007124 6a                               0x6a 'j'
                          .reloc:01007125 38                               0x38 '8'
                          .reloc:01007126 77                               0x77 'w'
                          .reloc:01007127 38                               0x38 '8'
                          .reloc:01007128 92                               0x92 
                          .reloc:01007129 38                               0x38 '8'
                          .reloc:0100712a 9b                               0x9b 
                          .reloc:0100712b 38                               0x38 '8'
                          .reloc:0100712c b6                               0xb6 
                          .reloc:0100712d 38                               0x38 '8'
                          .reloc:0100712e c0                               0xc0 
                          .reloc:0100712f 38                               0x38 '8'
                          .reloc:01007130 d3                               0xd3 
                          .reloc:01007131 38                               0x38 '8'
                          .reloc:01007132 dd                               0xdd 
                          .reloc:01007133 38                               0x38 '8'
                          .reloc:01007134 e2                               0xe2 
                          .reloc:01007135 38                               0x38 '8'
                          .reloc:01007136 e7                               0xe7 
                          .reloc:01007137 38                               0x38 '8'
                          .reloc:01007138 09                               0x09 '	'
                          .reloc:01007139 39                               0x39 '9'
                          .reloc:0100713a 0e                               0x0e 
                          .reloc:0100713b 39                               0x39 '9'
                          .reloc:0100713c 17                               0x17 
                          .reloc:0100713d 39                               0x39 '9'
                          .reloc:0100713e 1c                               0x1c 
                          .reloc:0100713f 39                               0x39 '9'
                          .reloc:01007140 29                               0x29 ')'
                          .reloc:01007141 39                               0x39 '9'
                          .reloc:01007142 3a                               0x3a ':'
                          .reloc:01007143 39                               0x39 '9'
                          .reloc:01007144 40                               0x40 '@'
                          .reloc:01007145 39                               0x39 '9'
                          .reloc:01007146 47                               0x47 'G'
                          .reloc:01007147 39                               0x39 '9'
                          .reloc:01007148 5b                               0x5b '['
                          .reloc:01007149 39                               0x39 '9'
                          .reloc:0100714a 61                               0x61 'a'
                          .reloc:0100714b 39                               0x39 '9'
                          .reloc:0100714c 67                               0x67 'g'
                          .reloc:0100714d 39                               0x39 '9'
                          .reloc:0100714e 6d                               0x6d 'm'
                          .reloc:0100714f 39                               0x39 '9'
                          .reloc:01007150 7a                               0x7a 'z'
                          .reloc:01007151 39                               0x39 '9'
                          .reloc:01007152 80                               0x80 
                          .reloc:01007153 39                               0x39 '9'
                          .reloc:01007154 89                               0x89 
                          .reloc:01007155 39                               0x39 '9'
                          .reloc:01007156 a8                               0xa8 
                          .reloc:01007157 39                               0x39 '9'
                          .reloc:01007158 b0                               0xb0 
                          .reloc:01007159 39                               0x39 '9'
                          .reloc:0100715a b9                               0xb9 
                          .reloc:0100715b 39                               0x39 '9'
                          .reloc:0100715c bf                               0xbf 
                          .reloc:0100715d 39                               0x39 '9'
                          .reloc:0100715e c7                               0xc7 
                          .reloc:0100715f 39                               0x39 '9'
                          .reloc:01007160 d3                               0xd3 
                          .reloc:01007161 39                               0x39 '9'
                          .reloc:01007162 ea                               0xea 
                          .reloc:01007163 39                               0x39 '9'
                          .reloc:01007164 f5                               0xf5 
                          .reloc:01007165 39                               0x39 '9'
                          .reloc:01007166 fb                               0xfb 
                          .reloc:01007167 39                               0x39 '9'
                          .reloc:01007168 44                               0x44 'D'
                          .reloc:01007169 3a                               0x3a ':'
                          .reloc:0100716a 50                               0x50 'P'
                          .reloc:0100716b 3a                               0x3a ':'
                          .reloc:0100716c 56                               0x56 'V'
                          .reloc:0100716d 3a                               0x3a ':'
                          .reloc:0100716e 5d                               0x5d ']'
                          .reloc:0100716f 3a                               0x3a ':'
                          .reloc:01007170 66                               0x66 'f'
                          .reloc:01007171 3a                               0x3a ':'
                          .reloc:01007172 6c                               0x6c 'l'
                          .reloc:01007173 3a                               0x3a ':'
                          .reloc:01007174 74                               0x74 't'
                          .reloc:01007175 3a                               0x3a ':'
                          .reloc:01007176 7a                               0x7a 'z'
                          .reloc:01007177 3a                               0x3a ':'
                          .reloc:01007178 87                               0x87 
                          .reloc:01007179 3a                               0x3a ':'
                          .reloc:0100717a 8f                               0x8f 
                          .reloc:0100717b 3a                               0x3a ':'
                          .reloc:0100717c 95                               0x95 
                          .reloc:0100717d 3a                               0x3a ':'
                          .reloc:0100717e b8                               0xb8 
                          .reloc:0100717f 3a                               0x3a ':'
                          .reloc:01007180 c3                               0xc3 
                          .reloc:01007181 3a                               0x3a ':'
                          .reloc:01007182 d8                               0xd8 
                          .reloc:01007183 3a                               0x3a ':'
                          .reloc:01007184 1a                               0x1a 
                          .reloc:01007185 3b                               0x3b ';'
                          .reloc:01007186 2a                               0x2a '*'
                          .reloc:01007187 3b                               0x3b ';'
                          .reloc:01007188 30                               0x30 '0'
                          .reloc:01007189 3b                               0x3b ';'
                          .reloc:0100718a 3e                               0x3e '>'
                          .reloc:0100718b 3b                               0x3b ';'
                          .reloc:0100718c dc                               0xdc 
                          .reloc:0100718d 3b                               0x3b ';'
                          .reloc:0100718e ea                               0xea 
                          .reloc:0100718f 3b                               0x3b ';'
                          .reloc:01007190 4c                               0x4c 'L'
                          .reloc:01007191 3c                               0x3c '<'
                          .reloc:01007192 58                               0x58 'X'
                          .reloc:01007193 3c                               0x3c '<'
                          .reloc:01007194 65                               0x65 'e'
                          .reloc:01007195 3c                               0x3c '<'
                          .reloc:01007196 82                               0x82 
                          .reloc:01007197 3c                               0x3c '<'
                          .reloc:01007198 d4                               0xd4 
                          .reloc:01007199 3c                               0x3c '<'
                          .reloc:0100719a d9                               0xd9 
                          .reloc:0100719b 3c                               0x3c '<'
                          .reloc:0100719c f8                               0xf8 
                          .reloc:0100719d 3c                               0x3c '<'
                          .reloc:0100719e 0f                               0x0f 
                          .reloc:0100719f 3d                               0x3d '='
                          .reloc:010071a0 7b                               0x7b '{'
                          .reloc:010071a1 3d                               0x3d '='
                          .reloc:010071a2 ba                               0xba 
                          .reloc:010071a3 3d                               0x3d '='
                          .reloc:010071a4 dd                               0xdd 
                          .reloc:010071a5 3d                               0x3d '='
                          .reloc:010071a6 ea                               0xea 
                          .reloc:010071a7 3d                               0x3d '='
                          .reloc:010071a8 f6                               0xf6 
                          .reloc:010071a9 3d                               0x3d '='
                          .reloc:010071aa fe                               0xfe 
                          .reloc:010071ab 3d                               0x3d '='
                          .reloc:010071ac 06                               0x06 
                          .reloc:010071ad 3e                               0x3e '>'
                          .reloc:010071ae 12                               0x12 
                          .reloc:010071af 3e                               0x3e '>'
                          .reloc:010071b0 24                               0x24 '$'
                          .reloc:010071b1 3e                               0x3e '>'
                          .reloc:010071b2 31                               0x31 '1'
                          .reloc:010071b3 3e                               0x3e '>'
                          .reloc:010071b4 39                               0x39 '9'
                          .reloc:010071b5 3e                               0x3e '>'
                          .reloc:010071b6 53                               0x53 'S'
                          .reloc:010071b7 3e                               0x3e '>'
                          .reloc:010071b8 59                               0x59 'Y'
                          .reloc:010071b9 3e                               0x3e '>'
                          .reloc:010071ba 5f                               0x5f '_'
                          .reloc:010071bb 3e                               0x3e '>'
                          .reloc:010071bc 65                               0x65 'e'
                          .reloc:010071bd 3e                               0x3e '>'
                          .reloc:010071be 6b                               0x6b 'k'
                          .reloc:010071bf 3e                               0x3e '>'
                          .reloc:010071c0 71                               0x71 'q'
                          .reloc:010071c1 3e                               0x3e '>'
                          .reloc:010071c2 78                               0x78 'x'
                          .reloc:010071c3 3e                               0x3e '>'
                          .reloc:010071c4 7f                               0x7f 
                          .reloc:010071c5 3e                               0x3e '>'
                          .reloc:010071c6 86                               0x86 
                          .reloc:010071c7 3e                               0x3e '>'
                          .reloc:010071c8 8d                               0x8d 
                          .reloc:010071c9 3e                               0x3e '>'
                          .reloc:010071ca 94                               0x94 
                          .reloc:010071cb 3e                               0x3e '>'
                          .reloc:010071cc 9b                               0x9b 
                          .reloc:010071cd 3e                               0x3e '>'
                          .reloc:010071ce a2                               0xa2 
                          .reloc:010071cf 3e                               0x3e '>'
                          .reloc:010071d0 aa                               0xaa 
                          .reloc:010071d1 3e                               0x3e '>'
                          .reloc:010071d2 b2                               0xb2 
                          .reloc:010071d3 3e                               0x3e '>'
                          .reloc:010071d4 ba                               0xba 
                          .reloc:010071d5 3e                               0x3e '>'
                          .reloc:010071d6 c6                               0xc6 
                          .reloc:010071d7 3e                               0x3e '>'
                          .reloc:010071d8 cf                               0xcf 
                          .reloc:010071d9 3e                               0x3e '>'
                          .reloc:010071da d4                               0xd4 
                          .reloc:010071db 3e                               0x3e '>'
                          .reloc:010071dc da                               0xda 
                          .reloc:010071dd 3e                               0x3e '>'
                          .reloc:010071de e4                               0xe4 
                          .reloc:010071df 3e                               0x3e '>'
                          .reloc:010071e0 ed                               0xed 
                          .reloc:010071e1 3e                               0x3e '>'
                          .reloc:010071e2 f8                               0xf8 
                          .reloc:010071e3 3e                               0x3e '>'
                          .reloc:010071e4 06                               0x06 
                          .reloc:010071e5 3f                               0x3f '?'
                          .reloc:010071e6 0b                               0x0b ''
                          .reloc:010071e7 3f                               0x3f '?'
                          .reloc:010071e8 11                               0x11 
                          .reloc:010071e9 3f                               0x3f '?'
                          .reloc:010071ea 1c                               0x1c 
                          .reloc:010071eb 3f                               0x3f '?'
                          .reloc:010071ec 23                               0x23 '#'
                          .reloc:010071ed 3f                               0x3f '?'
                          .reloc:010071ee 30                               0x30 '0'
                          .reloc:010071ef 3f                               0x3f '?'
                          .reloc:010071f0 57                               0x57 'W'
                          .reloc:010071f1 3f                               0x3f '?'
                          .reloc:010071f2 62                               0x62 'b'
                          .reloc:010071f3 3f                               0x3f '?'
                          .reloc:010071f4 88                               0x88 
                          .reloc:010071f5 3f                               0x3f '?'
                          .reloc:010071f6 ba                               0xba 
                          .reloc:010071f7 3f                               0x3f '?'
                          .reloc:010071f8 ee                               0xee 
                          .reloc:010071f9 3f                               0x3f '?'
                          .reloc:010071fa fa                               0xfa 
                          .reloc:010071fb 3f                               0x3f '?'
                          .reloc:010071fc 00                               0x00 
                          .reloc:010071fd 30                               0x30 '0'
                          .reloc:010071fe 00                               0x00 
                          .reloc:010071ff 00                               0x00 
                          .reloc:01007200 24                               0x24 '$'
                          .reloc:01007201 00                               0x00 
                          .reloc:01007202 00                               0x00 
                          .reloc:01007203 00                               0x00 
                          .reloc:01007204 06                               0x06 
                          .reloc:01007205 30                               0x30 '0'
                          .reloc:01007206 12                               0x12 
                          .reloc:01007207 30                               0x30 '0'
                          .reloc:01007208 1e                               0x1e 
                          .reloc:01007209 30                               0x30 '0'
                          .reloc:0100720a 2a                               0x2a '*'
                          .reloc:0100720b 30                               0x30 '0'
                          .reloc:0100720c 36                               0x36 '6'
                          .reloc:0100720d 30                               0x30 '0'
                          .reloc:0100720e 42                               0x42 'B'
                          .reloc:0100720f 30                               0x30 '0'
                          .reloc:01007210 4e                               0x4e 'N'
                          .reloc:01007211 30                               0x30 '0'
                          .reloc:01007212 6c                               0x6c 'l'
                          .reloc:01007213 30                               0x30 '0'
                          .reloc:01007214 70                               0x70 'p'
                          .reloc:01007215 30                               0x30 '0'
                          .reloc:01007216 8c                               0x8c 
                          .reloc:01007217 30                               0x30 '0'
                          .reloc:01007218 90                               0x90 
                          .reloc:01007219 30                               0x30 '0'
                          .reloc:0100721a ac                               0xac 
                          .reloc:0100721b 30                               0x30 '0'
                          .reloc:0100721c b0                               0xb0 
                          .reloc:0100721d 30                               0x30 '0'
                          .reloc:0100721e 00                               0x00 
                          .reloc:0100721f 00                               0x00 
                          .reloc:01007220 00                               0x00 
                          .reloc:01007221 00                               0x00 
                          .reloc:01007222 00                               0x00 
                          .reloc:01007223 00                               0x00 
                          .reloc:01007224 00                               0x00 
                          .reloc:01007225 00                               0x00 
                          .reloc:01007226 00                               0x00 
                          .reloc:01007227 00                               0x00 
                          .reloc:01007228 00                               0x00 
                          .reloc:01007229 00                               0x00 
                          .reloc:0100722a 00                               0x00 
                          .reloc:0100722b 00                               0x00 
                          .reloc:0100722c 00                               0x00 
                          .reloc:0100722d 00                               0x00 
                          .reloc:0100722e 00                               0x00 
                          .reloc:0100722f 00                               0x00 
                          .reloc:01007230 00                               0x00 
                          .reloc:01007231 00                               0x00 
                          .reloc:01007232 00                               0x00 
                          .reloc:01007233 00                               0x00 
                          .reloc:01007234 00                               0x00 
                          .reloc:01007235 00                               0x00 
                          .reloc:01007236 00                               0x00 
                          .reloc:01007237 00                               0x00 
                          .reloc:01007238 00                               0x00 
                          .reloc:01007239 00                               0x00 
                          .reloc:0100723a 00                               0x00 
                          .reloc:0100723b 00                               0x00 
                          .reloc:0100723c 00                               0x00 
                          .reloc:0100723d 00                               0x00 
                          .reloc:0100723e 00                               0x00 
                          .reloc:0100723f 00                               0x00 
                          .reloc:01007240 00                               0x00 
                          .reloc:01007241 00                               0x00 
                          .reloc:01007242 00                               0x00 
                          .reloc:01007243 00                               0x00 
                          .reloc:01007244 00                               0x00 
                          .reloc:01007245 00                               0x00 
                          .reloc:01007246 00                               0x00 
                          .reloc:01007247 00                               0x00 
                          .reloc:01007248 00                               0x00 
                          .reloc:01007249 00                               0x00 
                          .reloc:0100724a 00                               0x00 
                          .reloc:0100724b 00                               0x00 
                          .reloc:0100724c 00                               0x00 
                          .reloc:0100724d 00                               0x00 
                          .reloc:0100724e 00                               0x00 
                          .reloc:0100724f 00                               0x00 
                          .reloc:01007250 00                               0x00 
                          .reloc:01007251 00                               0x00 
                          .reloc:01007252 00                               0x00 
                          .reloc:01007253 00                               0x00 
                          .reloc:01007254 00                               0x00 
                          .reloc:01007255 00                               0x00 
                          .reloc:01007256 00                               0x00 
                          .reloc:01007257 00                               0x00 
                          .reloc:01007258 00                               0x00 
                          .reloc:01007259 00                               0x00 
                          .reloc:0100725a 00                               0x00 
                          .reloc:0100725b 00                               0x00 
                          .reloc:0100725c 00                               0x00 
                          .reloc:0100725d 00                               0x00 
                          .reloc:0100725e 00                               0x00 
                          .reloc:0100725f 00                               0x00 
                          .reloc:01007260 00                               0x00 
                          .reloc:01007261 00                               0x00 
                          .reloc:01007262 00                               0x00 
                          .reloc:01007263 00                               0x00 
                          .reloc:01007264 00                               0x00 
                          .reloc:01007265 00                               0x00 
                          .reloc:01007266 00                               0x00 
                          .reloc:01007267 00                               0x00 
                          .reloc:01007268 00                               0x00 
                          .reloc:01007269 00                               0x00 
                          .reloc:0100726a 00                               0x00 
                          .reloc:0100726b 00                               0x00 
                          .reloc:0100726c 00                               0x00 
                          .reloc:0100726d 00                               0x00 
                          .reloc:0100726e 00                               0x00 
                          .reloc:0100726f 00                               0x00 
                          .reloc:01007270 00                               0x00 
                          .reloc:01007271 00                               0x00 
                          .reloc:01007272 00                               0x00 
                          .reloc:01007273 00                               0x00 
                          .reloc:01007274 00                               0x00 
                          .reloc:01007275 00                               0x00 
                          .reloc:01007276 00                               0x00 
                          .reloc:01007277 00                               0x00 
                          .reloc:01007278 00                               0x00 
                          .reloc:01007279 00                               0x00 
                          .reloc:0100727a 00                               0x00 
                          .reloc:0100727b 00                               0x00 
                          .reloc:0100727c 00                               0x00 
                          .reloc:0100727d 00                               0x00 
                          .reloc:0100727e 00                               0x00 
                          .reloc:0100727f 00                               0x00 
                          .reloc:01007280 00                               0x00 
                          .reloc:01007281 00                               0x00 
                          .reloc:01007282 00                               0x00 
                          .reloc:01007283 00                               0x00 
                          .reloc:01007284 00                               0x00 
                          .reloc:01007285 00                               0x00 
                          .reloc:01007286 00                               0x00 
                          .reloc:01007287 00                               0x00 
                          .reloc:01007288 00                               0x00 
                          .reloc:01007289 00                               0x00 
                          .reloc:0100728a 00                               0x00 
                          .reloc:0100728b 00                               0x00 
                          .reloc:0100728c 00                               0x00 
                          .reloc:0100728d 00                               0x00 
                          .reloc:0100728e 00                               0x00 
                          .reloc:0100728f 00                               0x00 
                          .reloc:01007290 00                               0x00 
                          .reloc:01007291 00                               0x00 
                          .reloc:01007292 00                               0x00 
                          .reloc:01007293 00                               0x00 
                          .reloc:01007294 00                               0x00 
                          .reloc:01007295 00                               0x00 
                          .reloc:01007296 00                               0x00 
                          .reloc:01007297 00                               0x00 
                          .reloc:01007298 00                               0x00 
                          .reloc:01007299 00                               0x00 
                          .reloc:0100729a 00                               0x00 
                          .reloc:0100729b 00                               0x00 
                          .reloc:0100729c 00                               0x00 
                          .reloc:0100729d 00                               0x00 
                          .reloc:0100729e 00                               0x00 
                          .reloc:0100729f 00                               0x00 
                          .reloc:010072a0 00                               0x00 
                          .reloc:010072a1 00                               0x00 
                          .reloc:010072a2 00                               0x00 
                          .reloc:010072a3 00                               0x00 
                          .reloc:010072a4 00                               0x00 
                          .reloc:010072a5 00                               0x00 
                          .reloc:010072a6 00                               0x00 
                          .reloc:010072a7 00                               0x00 
                          .reloc:010072a8 00                               0x00 
                          .reloc:010072a9 00                               0x00 
                          .reloc:010072aa 00                               0x00 
                          .reloc:010072ab 00                               0x00 
                          .reloc:010072ac 00                               0x00 
                          .reloc:010072ad 00                               0x00 
                          .reloc:010072ae 00                               0x00 
                          .reloc:010072af 00                               0x00 
                          .reloc:010072b0 00                               0x00 
                          .reloc:010072b1 00                               0x00 
                          .reloc:010072b2 00                               0x00 
                          .reloc:010072b3 00                               0x00 
                          .reloc:010072b4 00                               0x00 
                          .reloc:010072b5 00                               0x00 
                          .reloc:010072b6 00                               0x00 
                          .reloc:010072b7 00                               0x00 
                          .reloc:010072b8 00                               0x00 
                          .reloc:010072b9 00                               0x00 
                          .reloc:010072ba 00                               0x00 
                          .reloc:010072bb 00                               0x00 
                          .reloc:010072bc 00                               0x00 
                          .reloc:010072bd 00                               0x00 
                          .reloc:010072be 00                               0x00 
                          .reloc:010072bf 00                               0x00 
                          .reloc:010072c0 00                               0x00 
                          .reloc:010072c1 00                               0x00 
                          .reloc:010072c2 00                               0x00 
                          .reloc:010072c3 00                               0x00 
                          .reloc:010072c4 00                               0x00 
                          .reloc:010072c5 00                               0x00 
                          .reloc:010072c6 00                               0x00 
                          .reloc:010072c7 00                               0x00 
                          .reloc:010072c8 00                               0x00 
                          .reloc:010072c9 00                               0x00 
                          .reloc:010072ca 00                               0x00 
                          .reloc:010072cb 00                               0x00 
                          .reloc:010072cc 00                               0x00 
                          .reloc:010072cd 00                               0x00 
                          .reloc:010072ce 00                               0x00 
                          .reloc:010072cf 00                               0x00 
                          .reloc:010072d0 00                               0x00 
                          .reloc:010072d1 00                               0x00 
                          .reloc:010072d2 00                               0x00 
                          .reloc:010072d3 00                               0x00 
                          .reloc:010072d4 00                               0x00 
                          .reloc:010072d5 00                               0x00 
                          .reloc:010072d6 00                               0x00 
                          .reloc:010072d7 00                               0x00 
                          .reloc:010072d8 00                               0x00 
                          .reloc:010072d9 00                               0x00 
                          .reloc:010072da 00                               0x00 
                          .reloc:010072db 00                               0x00 
                          .reloc:010072dc 00                               0x00 
                          .reloc:010072dd 00                               0x00 
                          .reloc:010072de 00                               0x00 
                          .reloc:010072df 00                               0x00 
                          .reloc:010072e0 00                               0x00 
                          .reloc:010072e1 00                               0x00 
                          .reloc:010072e2 00                               0x00 
                          .reloc:010072e3 00                               0x00 
                          .reloc:010072e4 00                               0x00 
                          .reloc:010072e5 00                               0x00 
                          .reloc:010072e6 00                               0x00 
                          .reloc:010072e7 00                               0x00 
                          .reloc:010072e8 00                               0x00 
                          .reloc:010072e9 00                               0x00 
                          .reloc:010072ea 00                               0x00 
                          .reloc:010072eb 00                               0x00 
                          .reloc:010072ec 00                               0x00 
                          .reloc:010072ed 00                               0x00 
                          .reloc:010072ee 00                               0x00 
                          .reloc:010072ef 00                               0x00 
                          .reloc:010072f0 00                               0x00 
                          .reloc:010072f1 00                               0x00 
                          .reloc:010072f2 00                               0x00 
                          .reloc:010072f3 00                               0x00 
                          .reloc:010072f4 00                               0x00 
                          .reloc:010072f5 00                               0x00 
                          .reloc:010072f6 00                               0x00 
                          .reloc:010072f7 00                               0x00 
                          .reloc:010072f8 00                               0x00 
                          .reloc:010072f9 00                               0x00 
                          .reloc:010072fa 00                               0x00 
                          .reloc:010072fb 00                               0x00 
