                           .text:01001000 d5 8b                            aad    $0x8b
                           .text:01001002 f2 77 80                         bnd ja 0x01000f85
                           .text:01001005 47                               inc    %edi
                           .text:01001006 ef                               out    %eax,(%dx)
                           .text:01001007 77 54                            ja     0x0100105d
                           .text:01001009 7e f1                            jle    0x01000ffc
                           .text:0100100b 77 9d                            ja     0x01000faa
                           .text:0100100d 20 f1                            and    %dh,%cl
                           .text:0100100f 77 00                            ja     0x01001011
                           .text:01001011 57                               push   %edi
                           .text:01001012 f0 77 10                         lock ja 0x01001025
                           .text:01001015 49                               dec    %ecx
                           .text:01001016 f0 77 80                         lock ja 0x01000f99
                           .text:01001019 5a                               pop    %edx
                           .text:0100101a f0 77 20                         lock ja 0x0100103d
                           .text:0100101d 51                               push   %ecx
                           .text:0100101e f0 77 60                         lock ja 0x01001081
                           .text:01001021 54                               push   %esp
                           .text:01001022 f0 77 0c                         lock ja 0x01001031
                           .text:01001025 f1                               icebp  
                           .text:01001026 f1                               icebp  
                           .text:01001027 77 80                            ja     0x01000fa9
                           .text:01001029 53                               push   %ebx
                           .text:0100102a f0 77 31                         lock ja 0x0100105e
                           .text:0100102d 1f                               pop    %ds
                           .text:0100102e f1                               icebp  
                           .text:0100102f 77 f0                            ja     0x01001021
                           .text:01001031 40                               inc    %eax
                           .text:01001032 ef                               out    %eax,(%dx)
                           .text:01001033 77 3f                            ja     0x01001074
                           .text:01001035 ae                               scas   %es:(%edi),%al
                           .text:01001036 ec                               in     (%dx),%al
                           .text:01001037 77 51                            ja     0x0100108a
                           .text:01001039 37                               aaa    
                           .text:0100103a f2 77 40                         bnd ja 0x0100107d
                           .text:0100103d 5e                               pop    %esi
                           .text:0100103e f0 77 70                         lock ja 0x010010b1
                           .text:01001041 4b                               dec    %ebx
                           .text:01001042 f0 77 f0                         lock ja 0x01001035
                           .text:01001045 49                               dec    %ecx
                           .text:01001046 f0 77 20                         lock ja 0x01001069
                           .text:01001049 5a                               pop    %edx
                           .text:0100104a f0 77 60                         lock ja 0x010010ad
                           .text:0100104d 5e                               pop    %esi
                           .text:0100104e f0 77 40                         lock ja 0x01001091
                           .text:01001051 44                               inc    %esp
                           .text:01001052 ef                               out    %eax,(%dx)
                           .text:01001053 77 66                            ja     0x010010bb
                           .text:01001055 76 f1                            jbe    0x01001048
                           .text:01001057 77 b0                            ja     0x01001009
                           .text:01001059 5e                               pop    %esi
                           .text:0100105a f0 77 b8                         lock ja 0x01001015
                           .text:0100105d 35 ef 77 47 77                   xor    $0x774777ef,%eax
                           .text:01001062 f2 77 85                         bnd ja 0x01000fea
                           .text:01001065 26 f1                            es icebp 
                           .text:01001067 77 66                            ja     0x010010cf
                           .text:01001069 f8                               clc    
                           .text:0100106a f6 77 70                         divb   0x70(%edi)
                           .text:0100106d 5c                               pop    %esp
                           .text:0100106e f0 77 e0                         lock ja 0x01001051
                           .text:01001071 25 ec 77 26 26                   and    $0x262677ec,%eax
                           .text:01001076 ec                               in     (%dx),%al
                           .text:01001077 77 1f                            ja     0x01001098
                           .text:01001079 25 ec 77 d1 f7                   and    $0xf7d177ec,%eax
                           .text:0100107e f6 77 de                         divb   -0x22(%edi)
                           .text:01001081 7d ed                            jge    0x01001070
                           .text:01001083 77 29                            ja     0x010010ae
                           .text:01001085 0c f3                            or     $0xf3,%al
                           .text:01001087 77 10                            ja     0x01001099
                           .text:01001089 5d                               pop    %ebp
                           .text:0100108a f0 77 e2                         lock ja 0x0100106f
                           .text:0100108d c2 f7 77                         ret    $0x77f7
                           .text:01001090 a1 4b ec 77 e5                   mov    0xe577ec4b,%eax
                           .text:01001095 d4 f2                            aam    $0xf2
                           .text:01001097 77 00                            ja     0x01001099
                           .text:01001099 00 00                            add    %al,(%eax)
                           .text:0100109b 00 00                            add    %al,(%eax)
                           .text:0100109d 00 00                            add    %al,(%eax)
                           .text:0100109f 00 00                            add    %al,(%eax)
                           .text:010010a1 00 00                            add    %al,(%eax)
                           .text:010010a3 00 ef                            add    %ch,%bh
                           .text:010010a5 c1 5b 4a 00                      rcrl   $0x0,0x4a(%ebx)
                           .text:010010a9 00 00                            add    %al,(%eax)
                           .text:010010ab 00 02                            add    %al,(%edx)
                           .text:010010ad 00 00                            add    %al,(%eax)
                           .text:010010af 00 26                            add    %ah,(%esi)
                           .text:010010b1 00 00                            add    %al,(%eax)
                           .text:010010b3 00 a4 12 00 00 a4 06             add    %ah,0x6a40000(%edx,%edx,1)
                           .text:010010ba 00 00                            add    %al,(%eax)
                           .text:010010bc 53                               push   %ebx
                           .text:010010bd 00 65 00                         add    %ah,0x0(%ebp)
                           .text:010010c0 74 00                            je     0x010010c2
                           .text:010010c2 75 00                            jne    0x010010c4
                           .text:010010c4 70 00                            jo     0x010010c6
                           .text:010010c6 45                               inc    %ebp
                           .text:010010c7 00 78 00                         add    %bh,0x0(%eax)
                           .text:010010ca 65 00 63 00                      add    %ah,%gs:0x0(%ebx)
                           .text:010010ce 75 00                            jne    0x010010d0
                           .text:010010d0 74 00                            je     0x010010d2
                           .text:010010d2 65 00 00                         add    %al,%gs:(%eax)
                           .text:010010d5 00 00                            add    %al,(%eax)
                           .text:010010d7 00 52 00                         add    %dl,0x0(%edx)
                           .text:010010da 65 00 73 00                      add    %dh,%gs:0x0(%ebx)
                           .text:010010de 74 00                            je     0x010010e0
                           .text:010010e0 6f                               outsl  %ds:(%esi),(%dx)
                           .text:010010e1 00 72 00                         add    %dh,0x0(%edx)
                           .text:010010e4 65 00 53 00                      add    %dl,%gs:0x0(%ebx)
                           .text:010010e8 74 00                            je     0x010010ea
                           .text:010010ea 61                               popa   
                           .text:010010eb 00 74 00 75                      add    %dh,0x75(%eax,%eax,1)
                           .text:010010ef 00 73 00                         add    %dh,0x0(%ebx)
                           .text:010010f2 52                               push   %edx
                           .text:010010f3 00 65 00                         add    %ah,0x0(%ebp)
                           .text:010010f6 73 00                            jae    0x010010f8
                           .text:010010f8 75 00                            jne    0x010010fa
                           .text:010010fa 6c                               insb   (%dx),%es:(%edi)
                           .text:010010fb 00 74 00 00                      add    %dh,0x0(%eax,%eax,1)
                           .text:010010ff 00 44 00 65                      add    %al,0x65(%eax,%eax,1)
                           .text:01001103 00 62 00                         add    %ah,0x0(%edx)
                           .text:01001106 75 00                            jne    0x01001108
                           .text:01001108 67 00 00                         add    %al,(%bx,%si)
                           .text:0100110b 00 41 00                         add    %al,0x0(%ecx)
                           .text:0100110e 6c                               insb   (%dx),%es:(%edi)
                           .text:0100110f 00 74 00 4e                      add    %dh,0x4e(%eax,%eax,1)
                           .text:01001113 00 61 00                         add    %ah,0x0(%ecx)
                           .text:01001116 6d                               insl   (%dx),%es:(%edi)
                           .text:01001117 00 65 00                         add    %ah,0x0(%ebp)
                           .text:0100111a 00 00                            add    %al,(%eax)
                           .text:0100111c 53                               push   %ebx
                           .text:0100111d 00 65 00                         add    %ah,0x0(%ebp)
                           .text:01001120 74 00                            je     0x01001122
                           .text:01001122 46                               inc    %esi
                           .text:01001123 00 69 00                         add    %ch,0x0(%ecx)
                           .text:01001126 6c                               insb   (%dx),%es:(%edi)
                           .text:01001127 00 65 00                         add    %ah,0x0(%ebp)
                           .text:0100112a 53                               push   %ebx
                           .text:0100112b 00 68 00                         add    %ch,0x0(%eax)
                           .text:0100112e 6f                               outsl  %ds:(%esi),(%dx)
                           .text:0100112f 00 72 00                         add    %dh,0x0(%edx)
                           .text:01001132 74 00                            je     0x01001134
                           .text:01001134 4e                               dec    %esi
                           .text:01001135 00 61 00                         add    %ah,0x0(%ecx)
                           .text:01001138 6d                               insl   (%dx),%es:(%edi)
                           .text:01001139 00 65 00                         add    %ah,0x0(%ebp)
                           .text:0100113c 00 00                            add    %al,(%eax)
                           .text:0100113e 00 00                            add    %al,(%eax)
                           .text:01001140 44                               inc    %esp
                           .text:01001141 00 65 00                         add    %ah,0x0(%ebp)
                           .text:01001144 6c                               insb   (%dx),%es:(%edi)
                           .text:01001145 00 65 00                         add    %ah,0x0(%ebp)
                           .text:01001148 74 00                            je     0x0100114a
                           .text:0100114a 65 00 46 00                      add    %al,%gs:0x0(%esi)
                           .text:0100114e 69 00 6c 00 65 00                imul   $0x65006c,(%eax),%eax
                           .text:01001154 00 00                            add    %al,(%eax)
                           .text:01001156 00 00                            add    %al,(%eax)
                           .text:01001158 4d                               dec    %ebp
                           .text:01001159 00 6f 00                         add    %ch,0x0(%edi)
                           .text:0100115c 76 00                            jbe    0x0100115e
                           .text:0100115e 65 00 46 00                      add    %al,%gs:0x0(%esi)
                           .text:01001162 69 00 6c 00 65 00                imul   $0x65006c,(%eax),%eax
                           .text:01001168 00 00                            add    %al,(%eax)
                           .text:0100116a 00 00                            add    %al,(%eax)
                           .text:0100116c 49                               dec    %ecx
                           .text:0100116d 00 4e 00                         add    %cl,0x0(%esi)
                           .text:01001170 5f                               pop    %edi
                           .text:01001171 00 50 00                         add    %dl,0x0(%eax)
                           .text:01001174 52                               push   %edx
                           .text:01001175 00 4f 00                         add    %cl,0x0(%edi)
                           .text:01001178 47                               inc    %edi
                           .text:01001179 00 52 00                         add    %dl,0x0(%edx)
                           .text:0100117c 45                               inc    %ebp
                           .text:0100117d 00 53 00                         add    %dl,0x0(%ebx)
                           .text:01001180 53                               push   %ebx
                           .text:01001181 00 00                            add    %al,(%eax)
                           .text:01001183 00 4e 00                         add    %cl,0x0(%esi)
                           .text:01001186 6f                               outsl  %ds:(%esi),(%dx)
                           .text:01001187 00 74 00 45                      add    %dh,0x45(%eax,%eax,1)
                           .text:0100118b 00 78 00                         add    %bh,0x0(%eax)
                           .text:0100118e 65 00 63 00                      add    %ah,%gs:0x0(%ebx)
                           .text:01001192 75 00                            jne    0x01001194
                           .text:01001194 74 00                            je     0x01001196
                           .text:01001196 65 00 64 00 00                   add    %ah,%gs:0x0(%eax,%eax,1)
                           .text:0100119b 00 53 00                         add    %dl,0x0(%ebx)
                           .text:0100119e 43                               inc    %ebx
                           .text:0100119f 00 3d 00 00 00 00                add    %bh,0x0
                           .text:010011a5 00 01                            add    %al,(%ecx)
                           .text:010011a7 00 06                            add    %al,(%esi)
                           .text:010011a9 00 08                            add    %cl,(%eax)
                           .text:010011ab 00 9c 11 00 01 00 00             add    %bl,0x100(%ecx,%edx,1)
                           .text:010011b2 01 00                            add    %eax,(%eax)
                           .text:010011b4 3c 00                            cmp    $0x0,%al
                           .text:010011b6 00 00                            add    %al,(%eax)
                           .text:010011b8 16                               push   %ss
                           .text:010011b9 00 18                            add    %bl,(%eax)
                           .text:010011bb 00 84 11 00 01 16 00             add    %al,0x160100(%ecx,%edx,1)
                           .text:010011c2 18 00                            sbb    %al,(%eax)
                           .text:010011c4 6c                               insb   (%dx),%es:(%edi)
                           .text:010011c5 11 00                            adc    %eax,(%eax)
                           .text:010011c7 01 10                            add    %edx,(%eax)
                           .text:010011c9 00 12                            add    %dl,(%edx)
                           .text:010011cb 00 58 11                         add    %bl,0x11(%eax)
                           .text:010011ce 00 01                            add    %al,(%ecx)
                           .text:010011d0 14 00                            adc    $0x0,%al
                           .text:010011d2 16                               push   %ss
                           .text:010011d3 00 40 11                         add    %al,0x11(%eax)
                           .text:010011d6 00 01                            add    %al,(%ecx)
                           .text:010011d8 20 00                            and    %al,(%eax)
                           .text:010011da 22 00                            and    (%eax),%al
                           .text:010011dc 1c 11                            sbb    $0x11,%al
                           .text:010011de 00 01                            add    %al,(%ecx)
                           .text:010011e0 0e                               push   %cs
                           .text:010011e1 00 10                            add    %dl,(%eax)
                           .text:010011e3 00 0c 11                         add    %cl,(%ecx,%edx,1)
                           .text:010011e6 00 01                            add    %al,(%ecx)
                           .text:010011e8 00 00                            add    %al,(%eax)
                           .text:010011ea 00 00                            add    %al,(%eax)
                           .text:010011ec 20 00                            and    %al,(%eax)
                           .text:010011ee 00 00                            add    %al,(%eax)
                           .text:010011f0 2e 00 25 00 6c 00 64             add    %ah,%cs:0x64006c00
                           .text:010011f7 00 00                            add    %al,(%eax)
                           .text:010011f9 00 00                            add    %al,(%eax)
                           .text:010011fb 00 52 00                         add    %dl,0x0(%edx)
                           .text:010011fe 65 00 73 00                      add    %dh,%gs:0x0(%ebx)
                           .text:01001202 74 00                            je     0x01001204
                           .text:01001204 6f                               outsl  %ds:(%esi),(%dx)
                           .text:01001205 00 72 00                         add    %dh,0x0(%edx)
                           .text:01001208 65 00 53 00                      add    %dl,%gs:0x0(%ebx)
                           .text:0100120c 74 00                            je     0x0100120e
                           .text:0100120e 61                               popa   
                           .text:0100120f 00 74 00 75                      add    %dh,0x75(%eax,%eax,1)
                           .text:01001213 00 73 00                         add    %dh,0x0(%ebx)
                           .text:01001216 44                               inc    %esp
                           .text:01001217 00 65 00                         add    %ah,0x0(%ebp)
                           .text:0100121a 74 00                            je     0x0100121c
                           .text:0100121c 61                               popa   
                           .text:0100121d 00 69 00                         add    %ch,0x0(%ecx)
                           .text:01001220 6c                               insb   (%dx),%es:(%edi)
                           .text:01001221 00 73 00                         add    %dh,0x0(%ebx)
                           .text:01001224 00 00                            add    %al,(%eax)
                           .text:01001226 00 00                            add    %al,(%eax)
                           .text:01001228 30 00                            xor    %al,(%eax)
                           .text:0100122a 78 00                            js     0x0100122c
                           .text:0100122c 66 00 66 00                      data16 add %ah,0x0(%esi)
                           .text:01001230 66 00 66 00                      data16 add %ah,0x0(%esi)
                           .text:01001234 66 00 66 00                      data16 add %ah,0x0(%esi)
                           .text:01001238 66 00 66 00                      data16 add %ah,0x0(%esi)
                           .text:0100123c 00 00                            add    %al,(%eax)
                           .text:0100123e 00 00                            add    %al,(%eax)
                           .text:01001240 30 00                            xor    %al,(%eax)
                           .text:01001242 78 00                            js     0x01001244
                           .text:01001244 25 00 30 00 38                   and    $0x38003000,%eax
                           .text:01001249 00 78 00                         add    %bh,0x0(%eax)
                           .text:0100124c 00 00                            add    %al,(%eax)
                           .text:0100124e 00 00                            add    %al,(%eax)
                           .text:01001250 53                               push   %ebx
                           .text:01001251 00 43 00                         add    %al,0x0(%ebx)
                           .text:01001254 3d 00 25 00 30                   cmp    $0x30002500,%eax
                           .text:01001259 00 38                            add    %bh,(%eax)
                           .text:0100125b 00 78 00                         add    %bh,0x0(%eax)
                           .text:0100125e 00 00                            add    %al,(%eax)
                           .text:01001260 53                               push   %ebx
                           .text:01001261 00 65 00                         add    %ah,0x0(%ebp)
                           .text:01001264 73 00                            jae    0x01001266
                           .text:01001266 73 00                            jae    0x01001268
                           .text:01001268 69 00 6f 00 6e 00                imul   $0x6e006f,(%eax),%eax
                           .text:0100126e 20 00                            and    %al,(%eax)
                           .text:01001270 4d                               dec    %ebp
                           .text:01001271 00 61 00                         add    %ah,0x0(%ecx)
                           .text:01001274 6e                               outsb  %ds:(%esi),(%dx)
                           .text:01001275 00 61 00                         add    %ah,0x0(%ecx)
                           .text:01001278 67 00 65 00                      add    %ah,0x0(%di)
                           .text:0100127c 72 00                            jb     0x0100127e
                           .text:0100127e 00 00                            add    %al,(%eax)
                           .text:01001280 53                               push   %ebx
                           .text:01001281 00 79 00                         add    %bh,0x0(%ecx)
                           .text:01001284 73 00                            jae    0x01001286
                           .text:01001286 74 00                            je     0x01001288
                           .text:01001288 65 00 6d 00                      add    %ch,%gs:0x0(%ebp)
                           .text:0100128c 52                               push   %edx
                           .text:0100128d 00 65 00                         add    %ah,0x0(%ebp)
                           .text:01001290 73 00                            jae    0x01001292
                           .text:01001292 74 00                            je     0x01001294
                           .text:01001294 6f                               outsl  %ds:(%esi),(%dx)
                           .text:01001295 00 72 00                         add    %dh,0x0(%edx)
                           .text:01001298 65 00 00                         add    %al,%gs:(%eax)
                           .text:0100129b 00 c8                            add    %cl,%al
                           .text:0100129d 40                               inc    %eax
                           .text:0100129e 00 01                            add    %al,(%ecx)
                           .text:010012a0 18 41 00                         sbb    %al,0x0(%ecx)
                           .text:010012a3 01 52 53                         add    %edx,0x53(%edx)
                           .text:010012a6 44                               inc    %esp
                           .text:010012a7 53                               push   %ebx
                           .text:010012a8 77 19                            ja     0x010012c3
                           .text:010012aa 4a                               dec    %edx
                           .text:010012ab 4f                               dec    %edi
                           .text:010012ac cf                               iret   
                           .text:010012ad 7b f9                            jnp    0x010012a8
                           .text:010012af 4c                               dec    %esp
                           .text:010012b0 81 d3 39 ab 9d cb                adc    $0xcb9dab39,%ebx
                           .text:010012b6 63 d0                            arpl   %dx,%ax
                           .text:010012b8 01 00                            add    %eax,(%eax)
                           .text:010012ba 00 00                            add    %al,(%eax)
                           .text:010012bc 73 72                            jae    0x01001330
                           .text:010012be 64 65 6c                         fs gs insb (%dx),%es:(%edi)
                           .text:010012c1 61                               popa   
                           .text:010012c2 79 65                            jns    0x01001329
                           .text:010012c4 64 2e 70 64                      fs jo,pn 0x0100132c
                           .text:010012c8 62 00                            bound  %eax,(%eax)
                           .text:010012ca 00 00                            add    %al,(%eax)
                           .text:010012cc 00 00                            add    %al,(%eax)
                           .text:010012ce 00 8b ff 55 8b ec                add    %cl,-0x1374aa01(%ebx)
                           .text:010012d4 33 c0                            xor    %eax,%eax
                           .text:010012d6 f7 45 10 00 01 00 00             testl  $0x100,0x10(%ebp)
                           .text:010012dd 74 0b                            je     0x010012ea
                           .text:010012df 39 45 08                         cmp    %eax,0x8(%ebp)
                           .text:010012e2 75 0a                            jne    0x010012ee
                           .text:010012e4 3b c8                            cmp    %eax,%ecx
                           .text:010012e6 75 0b                            jne    0x010012f3
                           .text:010012e8 eb 04                            jmp    0x010012ee
                           .text:010012ea 3b c8                            cmp    %eax,%ecx
                           .text:010012ec 74 05                            je     0x010012f3
                           .text:010012ee 3b 4d 0c                         cmp    0xc(%ebp),%ecx
                           .text:010012f1 76 05                            jbe    0x010012f8
                           .text:010012f3 b8 0d 00 00 c0                   mov    $0xc000000d,%eax
                           .text:010012f8 5d                               pop    %ebp
                           .text:010012f9 c2 0c 00                         ret    $0xc
                           .text:010012fc cc                               int3   
                           .text:010012fd cc                               int3   
                           .text:010012fe cc                               int3   
                           .text:010012ff cc                               int3   
                           .text:01001300 cc                               int3   
                           .text:01001301 8b ff                            mov    %edi,%edi
                           .text:01001303 55                               push   %ebp
                           .text:01001304 8b ec                            mov    %esp,%ebp
                           .text:01001306 51                               push   %ecx
                           .text:01001307 56                               push   %esi
                           .text:01001308 8b 75 08                         mov    0x8(%ebp),%esi
                           .text:0100130b d1 ee                            shr    %esi
                           .text:0100130d 74 1c                            je     0x0100132b
                           .text:0100130f f7 45 10 00 10 00 00             testl  $0x1000,0x10(%ebp)
                           .text:01001316 74 13                            je     0x0100132b
                           .text:01001318 8b 55 0c                         mov    0xc(%ebp),%edx
                           .text:0100131b 8d 04 4f                         lea    (%edi,%ecx,2),%eax
                           .text:0100131e 89 02                            mov    %eax,(%edx)
                           .text:01001320 8b d6                            mov    %esi,%edx
                           .text:01001322 2b d1                            sub    %ecx,%edx
                           .text:01001324 33 c9                            xor    %ecx,%ecx
                           .text:01001326 89 13                            mov    %edx,(%ebx)
                           .text:01001328 66 89 08                         mov    %cx,(%eax)
                           .text:0100132b f7 45 10 00 04 00 00             testl  $0x400,0x10(%ebp)
                           .text:01001332 74 3f                            je     0x01001373
                           .text:01001334 8b 45 10                         mov    0x10(%ebp),%eax
                           .text:01001337 ff 75 08                         pushl  0x8(%ebp)
                           .text:0100133a 25 ff 00 00 00                   and    $0xff,%eax
                           .text:0100133f 50                               push   %eax
                           .text:01001340 57                               push   %edi
                           .text:01001341 89 45 fc                         mov    %eax,-0x4(%ebp)
                           .text:01001344 e8 09 1d 00 00                   call   0x01003052
                           .text:01001349 83 c4 0c                         add    $0xc,%esp
                           .text:0100134c 83 7d fc 00                      cmpl   $0x0,-0x4(%ebp)
                           .text:01001350 75 09                            jne    0x0100135b
                           .text:01001352 8b 45 0c                         mov    0xc(%ebp),%eax
                           .text:01001355 89 38                            mov    %edi,(%eax)
                           .text:01001357 89 33                            mov    %esi,(%ebx)
                           .text:01001359 eb 18                            jmp    0x01001373
                           .text:0100135b 85 f6                            test   %esi,%esi
                           .text:0100135d 76 2d                            jbe    0x0100138c
                           .text:0100135f 8b 4d 0c                         mov    0xc(%ebp),%ecx
                           .text:01001362 8d 44 77 fe                      lea    -0x2(%edi,%esi,2),%eax
                           .text:01001366 89 01                            mov    %eax,(%ecx)
                           .text:01001368 33 c9                            xor    %ecx,%ecx
                           .text:0100136a c7 03 01 00 00 00                movl   $0x1,(%ebx)
                           .text:01001370 66 89 08                         mov    %cx,(%eax)
                           .text:01001373 85 f6                            test   %esi,%esi
                           .text:01001375 76 15                            jbe    0x0100138c
                           .text:01001377 f7 45 10 00 08 00 00             testl  $0x800,0x10(%ebp)
                           .text:0100137e 74 0c                            je     0x0100138c
                           .text:01001380 8b 45 0c                         mov    0xc(%ebp),%eax
                           .text:01001383 89 38                            mov    %edi,(%eax)
                           .text:01001385 33 c0                            xor    %eax,%eax
                           .text:01001387 89 33                            mov    %esi,(%ebx)
                           .text:01001389 66 89 07                         mov    %ax,(%edi)
                           .text:0100138c 33 c0                            xor    %eax,%eax
                           .text:0100138e 5e                               pop    %esi
                           .text:0100138f c9                               leave  
                           .text:01001390 c2 0c 00                         ret    $0xc
                           .text:01001393 cc                               int3   
                           .text:01001394 cc                               int3   
                           .text:01001395 cc                               int3   
                           .text:01001396 cc                               int3   
                           .text:01001397 cc                               int3   
                           .text:01001398 8b ff                            mov    %edi,%edi
                           .text:0100139a 55                               push   %ebp
                           .text:0100139b 8b ec                            mov    %esp,%ebp
                           .text:0100139d 8b 4d 0c                         mov    0xc(%ebp),%ecx
                           .text:010013a0 85 c9                            test   %ecx,%ecx
                           .text:010013a2 75 04                            jne    0x010013a8
                           .text:010013a4 33 c0                            xor    %eax,%eax
                           .text:010013a6 eb 1d                            jmp    0x010013c5
                           .text:010013a8 8b 45 08                         mov    0x8(%ebp),%eax
                           .text:010013ab 83 f8 ff                         cmp    $0xffffffff,%eax
                           .text:010013ae 74 f4                            je     0x010013a4
                           .text:010013b0 ba 80 96 98 00                   mov    $0x989680,%edx
                           .text:010013b5 f7 e2                            mul    %edx
                           .text:010013b7 f7 d8                            neg    %eax
                           .text:010013b9 83 d2 00                         adc    $0x0,%edx
                           .text:010013bc f7 da                            neg    %edx
                           .text:010013be 89 01                            mov    %eax,(%ecx)
                           .text:010013c0 89 51 04                         mov    %edx,0x4(%ecx)
                           .text:010013c3 8b c1                            mov    %ecx,%eax
                           .text:010013c5 5d                               pop    %ebp
                           .text:010013c6 c2 08 00                         ret    $0x8
                           .text:010013c9 cc                               int3   
                           .text:010013ca cc                               int3   
                           .text:010013cb cc                               int3   
                           .text:010013cc cc                               int3   
                           .text:010013cd cc                               int3   
                           .text:010013ce 8b ff                            mov    %edi,%edi
                           .text:010013d0 55                               push   %ebp
                           .text:010013d1 8b ec                            mov    %esp,%ebp
                           .text:010013d3 56                               push   %esi
                           .text:010013d4 8b 75 08                         mov    0x8(%ebp),%esi
                           .text:010013d7 57                               push   %edi
                           .text:010013d8 85 f6                            test   %esi,%esi
                           .text:010013da 0f 84 82 00 00 00                je     0x01001462
                           .text:010013e0 f6 06 01                         testb  $0x1,(%esi)
                           .text:010013e3 75 7d                            jne    0x01001462
                           .text:010013e5 0f b7 46 02                      movzwl 0x2(%esi),%eax
                           .text:010013e9 a8 01                            test   $0x1,%al
                           .text:010013eb 75 75                            jne    0x01001462
                           .text:010013ed 0f b7 f8                         movzwl %ax,%edi
                           .text:010013f0 85 ff                            test   %edi,%edi
                           .text:010013f2 75 03                            jne    0x010013f7
                           .text:010013f4 6a 40                            push   $0x40
                           .text:010013f6 5f                               pop    %edi
                           .text:010013f7 03 ff                            add    %edi,%edi
                           .text:010013f9 b8 fe ff 00 00                   mov    $0xfffe,%eax
                           .text:010013fe 3b f8                            cmp    %eax,%edi
                           .text:01001400 76 02                            jbe    0x01001404
                           .text:01001402 8b f8                            mov    %eax,%edi
                           .text:01001404 0f b7 46 02                      movzwl 0x2(%esi),%eax
                           .text:01001408 3b f8                            cmp    %eax,%edi
                           .text:0100140a 75 07                            jne    0x01001413
                           .text:0100140c b8 06 01 00 c0                   mov    $0xc0000106,%eax
                           .text:01001411 eb 54                            jmp    0x01001467
                           .text:01001413 8b 4e 04                         mov    0x4(%esi),%ecx
                           .text:01001416 64 a1 18 00 00 00                mov    %fs:0x18,%eax
                           .text:0100141c 8b 40 30                         mov    0x30(%eax),%eax
                           .text:0100141f 57                               push   %edi
                           .text:01001420 85 c9                            test   %ecx,%ecx
                           .text:01001422 75 0c                            jne    0x01001430
                           .text:01001424 51                               push   %ecx
                           .text:01001425 ff 70 18                         pushl  0x18(%eax)
                           .text:01001428 ff 15 0c 10 00 01                call   *0x100100c
                           .text:0100142e eb 0c                            jmp    0x0100143c
                           .text:01001430 51                               push   %ecx
                           .text:01001431 6a 00                            push   $0x0
                           .text:01001433 ff 70 18                         pushl  0x18(%eax)
                           .text:01001436 ff 15 08 10 00 01                call   *0x1001008
                           .text:0100143c 85 c0                            test   %eax,%eax
                           .text:0100143e 75 07                            jne    0x01001447
                           .text:01001440 b8 17 00 00 c0                   mov    $0xc0000017,%eax
                           .text:01001445 eb 20                            jmp    0x01001467
                           .text:01001447 89 46 04                         mov    %eax,0x4(%esi)
                           .text:0100144a 0f b7 06                         movzwl (%esi),%eax
                           .text:0100144d 0f b7 cf                         movzwl %di,%ecx
                           .text:01001450 2b c8                            sub    %eax,%ecx
                           .text:01001452 83 f9 02                         cmp    $0x2,%ecx
                           .text:01001455 1b c0                            sbb    %eax,%eax
                           .text:01001457 66 89 7e 02                      mov    %di,0x2(%esi)
                           .text:0100145b 25 06 01 00 c0                   and    $0xc0000106,%eax
                           .text:01001460 eb 05                            jmp    0x01001467
                           .text:01001462 b8 0d 00 00 c0                   mov    $0xc000000d,%eax
                           .text:01001467 5f                               pop    %edi
                           .text:01001468 5e                               pop    %esi
                           .text:01001469 5d                               pop    %ebp
                           .text:0100146a c2 04 00                         ret    $0x4
                           .text:0100146d cc                               int3   
                           .text:0100146e cc                               int3   
                           .text:0100146f cc                               int3   
                           .text:01001470 cc                               int3   
                           .text:01001471 cc                               int3   
                           .text:01001472 8b ff                            mov    %edi,%edi
                           .text:01001474 55                               push   %ebp
                           .text:01001475 8b ec                            mov    %esp,%ebp
                           .text:01001477 56                               push   %esi
                           .text:01001478 8b 75 08                         mov    0x8(%ebp),%esi
                           .text:0100147b 66 8b 06                         mov    (%esi),%ax
                           .text:0100147e 66 3b 46 02                      cmp    0x2(%esi),%ax
                           .text:01001482 72 0a                            jb     0x0100148e
                           .text:01001484 56                               push   %esi
                           .text:01001485 e8 44 ff ff ff                   call   0x010013ce
                           .text:0100148a 85 c0                            test   %eax,%eax
                           .text:0100148c 7c 16                            jl     0x010014a4
                           .text:0100148e 0f b7 06                         movzwl (%esi),%eax
                           .text:01001491 8b 4e 04                         mov    0x4(%esi),%ecx
                           .text:01001494 66 8b 55 0c                      mov    0xc(%ebp),%dx
                           .text:01001498 d1 e8                            shr    %eax
                           .text:0100149a 66 89 14 41                      mov    %dx,(%ecx,%eax,2)
                           .text:0100149e 66 83 06 02                      addw   $0x2,(%esi)
                           .text:010014a2 33 c0                            xor    %eax,%eax
                           .text:010014a4 5e                               pop    %esi
                           .text:010014a5 5d                               pop    %ebp
                           .text:010014a6 c2 08 00                         ret    $0x8
                           .text:010014a9 cc                               int3   
                           .text:010014aa cc                               int3   
                           .text:010014ab cc                               int3   
                           .text:010014ac cc                               int3   
                           .text:010014ad cc                               int3   
                           .text:010014ae 8b ff                            mov    %edi,%edi
                           .text:010014b0 55                               push   %ebp
                           .text:010014b1 8b ec                            mov    %esp,%ebp
                           .text:010014b3 56                               push   %esi
                           .text:010014b4 8b 75 0c                         mov    0xc(%ebp),%esi
                           .text:010014b7 33 c0                            xor    %eax,%eax
                           .text:010014b9 eb 0f                            jmp    0x010014ca
                           .text:010014bb 51                               push   %ecx
                           .text:010014bc ff 75 08                         pushl  0x8(%ebp)
                           .text:010014bf e8 ae ff ff ff                   call   0x01001472
                           .text:010014c4 85 c0                            test   %eax,%eax
                           .text:010014c6 7c 0a                            jl     0x010014d2
                           .text:010014c8 46                               inc    %esi
                           .text:010014c9 46                               inc    %esi
                           .text:010014ca 0f b7 0e                         movzwl (%esi),%ecx
                           .text:010014cd 66 85 c9                         test   %cx,%cx
                           .text:010014d0 75 e9                            jne    0x010014bb
                           .text:010014d2 5e                               pop    %esi
                           .text:010014d3 5d                               pop    %ebp
                           .text:010014d4 c2 08 00                         ret    $0x8
                           .text:010014d7 cc                               int3   
                           .text:010014d8 cc                               int3   
                           .text:010014d9 cc                               int3   
                           .text:010014da cc                               int3   
                           .text:010014db cc                               int3   
                           .text:010014dc 8b ff                            mov    %edi,%edi
                           .text:010014de 55                               push   %ebp
                           .text:010014df 8b ec                            mov    %esp,%ebp
                           .text:010014e1 8b 4d 0c                         mov    0xc(%ebp),%ecx
                           .text:010014e4 33 c0                            xor    %eax,%eax
                           .text:010014e6 66 89 01                         mov    %ax,(%ecx)
                           .text:010014e9 8b 45 08                         mov    0x8(%ebp),%eax
                           .text:010014ec 8d 50 d0                         lea    -0x30(%eax),%edx
                           .text:010014ef 66 83 fa 09                      cmp    $0x9,%dx
                           .text:010014f3 77 07                            ja     0x010014fc
                           .text:010014f5 05 d0 ff 00 00                   add    $0xffd0,%eax
                           .text:010014fa eb 1e                            jmp    0x0100151a
                           .text:010014fc 8d 50 bf                         lea    -0x41(%eax),%edx
                           .text:010014ff 66 83 fa 05                      cmp    $0x5,%dx
                           .text:01001503 77 07                            ja     0x0100150c
                           .text:01001505 05 c9 ff 00 00                   add    $0xffc9,%eax
                           .text:0100150a eb 0e                            jmp    0x0100151a
                           .text:0100150c 8d 50 9f                         lea    -0x61(%eax),%edx
                           .text:0100150f 66 83 fa 05                      cmp    $0x5,%dx
                           .text:01001513 77 0c                            ja     0x01001521
                           .text:01001515 05 a9 ff 00 00                   add    $0xffa9,%eax
                           .text:0100151a 66 89 01                         mov    %ax,(%ecx)
                           .text:0100151d 33 c0                            xor    %eax,%eax
                           .text:0100151f eb 05                            jmp    0x01001526
                           .text:01001521 b8 0d 00 00 c0                   mov    $0xc000000d,%eax
                           .text:01001526 5d                               pop    %ebp
                           .text:01001527 c2 08 00                         ret    $0x8
                           .text:0100152a cc                               int3   
                           .text:0100152b cc                               int3   
                           .text:0100152c cc                               int3   
                           .text:0100152d cc                               int3   
                           .text:0100152e cc                               int3   
                           .text:0100152f 8b ff                            mov    %edi,%edi
                           .text:01001531 55                               push   %ebp
                           .text:01001532 8b ec                            mov    %esp,%ebp
                           .text:01001534 8d 45 08                         lea    0x8(%ebp),%eax
                           .text:01001537 50                               push   %eax
                           .text:01001538 ff 75 08                         pushl  0x8(%ebp)
                           .text:0100153b e8 9c ff ff ff                   call   0x010014dc
                           .text:01001540 85 c0                            test   %eax,%eax
                           .text:01001542 7c 1f                            jl     0x01001563
                           .text:01001544 8d 45 0c                         lea    0xc(%ebp),%eax
                           .text:01001547 50                               push   %eax
                           .text:01001548 ff 75 0c                         pushl  0xc(%ebp)
                           .text:0100154b e8 8c ff ff ff                   call   0x010014dc
                           .text:01001550 85 c0                            test   %eax,%eax
                           .text:01001552 7c 0f                            jl     0x01001563
                           .text:01001554 8b 4d 08                         mov    0x8(%ebp),%ecx
                           .text:01001557 8b 55 10                         mov    0x10(%ebp),%edx
                           .text:0100155a c1 e1 04                         shl    $0x4,%ecx
                           .text:0100155d 0b 4d 0c                         or     0xc(%ebp),%ecx
                           .text:01001560 66 89 0a                         mov    %cx,(%edx)
                           .text:01001563 5d                               pop    %ebp
                           .text:01001564 c2 0c 00                         ret    $0xc
                           .text:01001567 cc                               int3   
                           .text:01001568 cc                               int3   
                           .text:01001569 cc                               int3   
                           .text:0100156a cc                               int3   
                           .text:0100156b cc                               int3   
                           .text:0100156c 8b ff                            mov    %edi,%edi
                           .text:0100156e 55                               push   %ebp
                           .text:0100156f 8b ec                            mov    %esp,%ebp
                           .text:01001571 51                               push   %ecx
                           .text:01001572 8b 4d 08                         mov    0x8(%ebp),%ecx
                           .text:01001575 56                               push   %esi
                           .text:01001576 8b 71 04                         mov    0x4(%ecx),%esi
                           .text:01001579 0f b7 09                         movzwl (%ecx),%ecx
                           .text:0100157c d1 e9                            shr    %ecx
                           .text:0100157e 8d 0c 4e                         lea    (%esi,%ecx,2),%ecx
                           .text:01001581 33 c0                            xor    %eax,%eax
                           .text:01001583 89 45 fc                         mov    %eax,-0x4(%ebp)
                           .text:01001586 89 4d 08                         mov    %ecx,0x8(%ebp)
                           .text:01001589 3b f1                            cmp    %ecx,%esi
                           .text:0100158b 73 5d                            jae    0x010015ea
                           .text:0100158d 53                               push   %ebx
                           .text:0100158e 57                               push   %edi
                           .text:0100158f 8d 5e 02                         lea    0x2(%esi),%ebx
                           .text:01001592 8d 7e 04                         lea    0x4(%esi),%edi
                           .text:01001595 0f b7 06                         movzwl (%esi),%eax
                           .text:01001598 66 83 f8 25                      cmp    $0x25,%ax
                           .text:0100159c 75 2a                            jne    0x010015c8
                           .text:0100159e 3b 5d 08                         cmp    0x8(%ebp),%ebx
                           .text:010015a1 73 25                            jae    0x010015c8
                           .text:010015a3 3b 7d 08                         cmp    0x8(%ebp),%edi
                           .text:010015a6 73 20                            jae    0x010015c8
                           .text:010015a8 8d 45 fc                         lea    -0x4(%ebp),%eax
                           .text:010015ab 50                               push   %eax
                           .text:010015ac 0f b7 07                         movzwl (%edi),%eax
                           .text:010015af 50                               push   %eax
                           .text:010015b0 0f b7 03                         movzwl (%ebx),%eax
                           .text:010015b3 50                               push   %eax
                           .text:010015b4 e8 76 ff ff ff                   call   0x0100152f
                           .text:010015b9 85 c0                            test   %eax,%eax
                           .text:010015bb 7c 2b                            jl     0x010015e8
                           .text:010015bd 83 c6 06                         add    $0x6,%esi
                           .text:010015c0 83 c7 06                         add    $0x6,%edi
                           .text:010015c3 83 c3 06                         add    $0x6,%ebx
                           .text:010015c6 eb 0c                            jmp    0x010015d4
                           .text:010015c8 46                               inc    %esi
                           .text:010015c9 46                               inc    %esi
                           .text:010015ca 47                               inc    %edi
                           .text:010015cb 0f b7 c0                         movzwl %ax,%eax
                           .text:010015ce 47                               inc    %edi
                           .text:010015cf 43                               inc    %ebx
                           .text:010015d0 89 45 fc                         mov    %eax,-0x4(%ebp)
                           .text:010015d3 43                               inc    %ebx
                           .text:010015d4 ff 75 fc                         pushl  -0x4(%ebp)
                           .text:010015d7 ff 75 0c                         pushl  0xc(%ebp)
                           .text:010015da e8 93 fe ff ff                   call   0x01001472
                           .text:010015df 85 c0                            test   %eax,%eax
                           .text:010015e1 7c 05                            jl     0x010015e8
                           .text:010015e3 3b 75 08                         cmp    0x8(%ebp),%esi
                           .text:010015e6 72 ad                            jb     0x01001595
                           .text:010015e8 5f                               pop    %edi
                           .text:010015e9 5b                               pop    %ebx
                           .text:010015ea 5e                               pop    %esi
                           .text:010015eb c9                               leave  
                           .text:010015ec c2 08 00                         ret    $0x8
                           .text:010015ef cc                               int3   
                           .text:010015f0 cc                               int3   
                           .text:010015f1 cc                               int3   
                           .text:010015f2 cc                               int3   
                           .text:010015f3 cc                               int3   
                           .text:010015f4 8b ff                            mov    %edi,%edi
                           .text:010015f6 55                               push   %ebp
                           .text:010015f7 8b ec                            mov    %esp,%ebp
                           .text:010015f9 83 ec 18                         sub    $0x18,%esp
                           .text:010015fc 8b 0d bc 40 00 01                mov    0x10040bc,%ecx
                           .text:01001602 53                               push   %ebx
                           .text:01001603 56                               push   %esi
                           .text:01001604 57                               push   %edi
                           .text:01001605 33 f6                            xor    %esi,%esi
                           .text:01001607 33 c0                            xor    %eax,%eax
                           .text:01001609 03 c9                            add    %ecx,%ecx
                           .text:0100160b 8d 7d f4                         lea    -0xc(%ebp),%edi
                           .text:0100160e 89 75 f0                         mov    %esi,-0x10(%ebp)
                           .text:01001611 ab                               stos   %eax,%es:(%edi)
                           .text:01001612 8b d9                            mov    %ecx,%ebx
                           .text:01001614 03 1d b0 40 00 01                add    0x10040b0,%ebx
                           .text:0100161a 8d 7d fc                         lea    -0x4(%ebp),%edi
                           .text:0100161d 89 75 f8                         mov    %esi,-0x8(%ebp)
                           .text:01001620 ab                               stos   %eax,%es:(%edi)
                           .text:01001621 13 05 b4 40 00 01                adc    0x10040b4,%eax
                           .text:01001627 89 45 ec                         mov    %eax,-0x14(%ebp)
                           .text:0100162a a1 b8 40 00 01                   mov    0x10040b8,%eax
                           .text:0100162f 8d 3c 01                         lea    (%ecx,%eax,1),%edi
                           .text:01001632 8b 0d c0 40 00 01                mov    0x10040c0,%ecx
                           .text:01001638 39 0d bc 40 00 01                cmp    %ecx,0x10040bc
                           .text:0100163e 0f 85 96 00 00 00                jne    0x010016da
                           .text:01001644 3b c6                            cmp    %esi,%eax
                           .text:01001646 75 25                            jne    0x0100166d
                           .text:01001648 64 a1 18 00 00 00                mov    %fs:0x18,%eax
                           .text:0100164e 8b 40 30                         mov    0x30(%eax),%eax
                           .text:01001651 68 00 00 01 00                   push   $0x10000
                           .text:01001656 56                               push   %esi
                           .text:01001657 ff 70 18                         pushl  0x18(%eax)
                           .text:0100165a ff 15 0c 10 00 01                call   *0x100100c
                           .text:01001660 a3 b8 40 00 01                   mov    %eax,0x10040b8
                           .text:01001665 3b c6                            cmp    %esi,%eax
                           .text:01001667 0f 84 b8 00 00 00                je     0x01001725
                           .text:0100166d 8b 0d c0 40 00 01                mov    0x10040c0,%ecx
                           .text:01001673 03 c9                            add    %ecx,%ecx
                           .text:01001675 01 0d b0 40 00 01                add    %ecx,0x10040b0
                           .text:0100167b 8b 0d b0 40 00 01                mov    0x10040b0,%ecx
                           .text:01001681 56                               push   %esi
                           .text:01001682 11 35 b4 40 00 01                adc    %esi,0x10040b4
                           .text:01001688 89 4d f8                         mov    %ecx,-0x8(%ebp)
                           .text:0100168b 8b 0d b4 40 00 01                mov    0x10040b4,%ecx
                           .text:01001691 89 4d fc                         mov    %ecx,-0x4(%ebp)
                           .text:01001694 8d 4d f8                         lea    -0x8(%ebp),%ecx
                           .text:01001697 51                               push   %ecx
                           .text:01001698 68 00 00 01 00                   push   $0x10000
                           .text:0100169d 50                               push   %eax
                           .text:0100169e 8d 45 f0                         lea    -0x10(%ebp),%eax
                           .text:010016a1 50                               push   %eax
                           .text:010016a2 56                               push   %esi
                           .text:010016a3 56                               push   %esi
                           .text:010016a4 56                               push   %esi
                           .text:010016a5 ff 75 08                         pushl  0x8(%ebp)
                           .text:010016a8 89 35 c0 40 00 01                mov    %esi,0x10040c0
                           .text:010016ae 89 35 bc 40 00 01                mov    %esi,0x10040bc
                           .text:010016b4 ff 15 10 10 00 01                call   *0x1001010
                           .text:010016ba 3d 11 00 00 c0                   cmp    $0xc0000011,%eax
                           .text:010016bf 74 6b                            je     0x0100172c
                           .text:010016c1 3b c6                            cmp    %esi,%eax
                           .text:010016c3 0f 8c 83 00 00 00                jl     0x0100174c
                           .text:010016c9 8b 45 f4                         mov    -0xc(%ebp),%eax
                           .text:010016cc d1 e8                            shr    %eax
                           .text:010016ce a3 c0 40 00 01                   mov    %eax,0x10040c0
                           .text:010016d3 a1 b8 40 00 01                   mov    0x10040b8,%eax
                           .text:010016d8 8b f8                            mov    %eax,%edi
                           .text:010016da 0f b7 0f                         movzwl (%edi),%ecx
                           .text:010016dd ff 05 bc 40 00 01                incl   0x10040bc
                           .text:010016e3 ba ff fe 00 00                   mov    $0xfeff,%edx
                           .text:010016e8 66 3b ca                         cmp    %dx,%cx
                           .text:010016eb 75 1e                            jne    0x0100170b
                           .text:010016ed 8b 15 b0 40 00 01                mov    0x10040b0,%edx
                           .text:010016f3 0b 15 b4 40 00 01                or     0x10040b4,%edx
                           .text:010016f9 75 10                            jne    0x0100170b
                           .text:010016fb 83 3d bc 40 00 01 01             cmpl   $0x1,0x10040bc
                           .text:01001702 75 07                            jne    0x0100170b
                           .text:01001704 47                               inc    %edi
                           .text:01001705 47                               inc    %edi
                           .text:01001706 e9 27 ff ff ff                   jmp    0x01001632
                           .text:0100170b 66 3b ce                         cmp    %si,%cx
                           .text:0100170e 74 2f                            je     0x0100173f
                           .text:01001710 51                               push   %ecx
                           .text:01001711 ff 75 0c                         pushl  0xc(%ebp)
                           .text:01001714 e8 59 fd ff ff                   call   0x01001472
                           .text:01001719 a1 b8 40 00 01                   mov    0x10040b8,%eax
                           .text:0100171e 47                               inc    %edi
                           .text:0100171f 47                               inc    %edi
                           .text:01001720 e9 0d ff ff ff                   jmp    0x01001632
                           .text:01001725 b8 17 00 00 c0                   mov    $0xc0000017,%eax
                           .text:0100172a eb 20                            jmp    0x0100174c
                           .text:0100172c 3b 1d b0 40 00 01                cmp    0x10040b0,%ebx
                           .text:01001732 75 0b                            jne    0x0100173f
                           .text:01001734 8b 4d ec                         mov    -0x14(%ebp),%ecx
                           .text:01001737 3b 0d b4 40 00 01                cmp    0x10040b4,%ecx
                           .text:0100173d 74 0d                            je     0x0100174c
                           .text:0100173f 8b 45 10                         mov    0x10(%ebp),%eax
                           .text:01001742 8b 4d ec                         mov    -0x14(%ebp),%ecx
                           .text:01001745 89 18                            mov    %ebx,(%eax)
                           .text:01001747 89 48 04                         mov    %ecx,0x4(%eax)
                           .text:0100174a 33 c0                            xor    %eax,%eax
                           .text:0100174c 5f                               pop    %edi
                           .text:0100174d 5e                               pop    %esi
                           .text:0100174e 5b                               pop    %ebx
                           .text:0100174f c9                               leave  
                           .text:01001750 c2 0c 00                         ret    $0xc
                           .text:01001753 cc                               int3   
                           .text:01001754 cc                               int3   
                           .text:01001755 cc                               int3   
                           .text:01001756 cc                               int3   
                           .text:01001757 cc                               int3   
                           .text:01001758 8b ff                            mov    %edi,%edi
                           .text:0100175a 55                               push   %ebp
                           .text:0100175b 8b ec                            mov    %esp,%ebp
                           .text:0100175d 83 ec 4c                         sub    $0x4c,%esp
                           .text:01001760 56                               push   %esi
                           .text:01001761 57                               push   %edi
                           .text:01001762 33 c0                            xor    %eax,%eax
                           .text:01001764 8d 7d e0                         lea    -0x20(%ebp),%edi
                           .text:01001767 ab                               stos   %eax,%es:(%edi)
                           .text:01001768 ab                               stos   %eax,%es:(%edi)
                           .text:01001769 ab                               stos   %eax,%es:(%edi)
                           .text:0100176a ab                               stos   %eax,%es:(%edi)
                           .text:0100176b ab                               stos   %eax,%es:(%edi)
                           .text:0100176c 33 f6                            xor    %esi,%esi
                           .text:0100176e 33 c0                            xor    %eax,%eax
                           .text:01001770 6a 09                            push   $0x9
                           .text:01001772 59                               pop    %ecx
                           .text:01001773 89 75 f4                         mov    %esi,-0xc(%ebp)
                           .text:01001776 8d 7d f8                         lea    -0x8(%ebp),%edi
                           .text:01001779 ab                               stos   %eax,%es:(%edi)
                           .text:0100177a 68 20 40 20 00                   push   $0x204020
                           .text:0100177f 89 75 b4                         mov    %esi,-0x4c(%ebp)
                           .text:01001782 8d 7d b8                         lea    -0x48(%ebp),%edi
                           .text:01001785 f3 ab                            rep stos %eax,%es:(%edi)
                           .text:01001787 8b 45 08                         mov    0x8(%ebp),%eax
                           .text:0100178a 89 45 e4                         mov    %eax,-0x1c(%ebp)
                           .text:0100178d 6a 03                            push   $0x3
                           .text:0100178f 8d 45 f4                         lea    -0xc(%ebp),%eax
                           .text:01001792 50                               push   %eax
                           .text:01001793 8d 45 dc                         lea    -0x24(%ebp),%eax
                           .text:01001796 50                               push   %eax
                           .text:01001797 68 00 01 10 00                   push   $0x100100
                           .text:0100179c 8d 45 fc                         lea    -0x4(%ebp),%eax
                           .text:0100179f 50                               push   %eax
                           .text:010017a0 89 75 fc                         mov    %esi,-0x4(%ebp)
                           .text:010017a3 c7 45 dc 18 00 00 00             movl   $0x18,-0x24(%ebp)
                           .text:010017aa 89 75 e0                         mov    %esi,-0x20(%ebp)
                           .text:010017ad c7 45 e8 40 00 00 00             movl   $0x40,-0x18(%ebp)
                           .text:010017b4 89 75 ec                         mov    %esi,-0x14(%ebp)
                           .text:010017b7 89 75 f0                         mov    %esi,-0x10(%ebp)
                           .text:010017ba ff 15 1c 10 00 01                call   *0x100101c
                           .text:010017c0 8b f8                            mov    %eax,%edi
                           .text:010017c2 3b fe                            cmp    %esi,%edi
                           .text:010017c4 7c 28                            jl     0x010017ee
                           .text:010017c6 6a 0a                            push   $0xa
                           .text:010017c8 59                               pop    %ecx
                           .text:010017c9 33 c0                            xor    %eax,%eax
                           .text:010017cb 6a 04                            push   $0x4
                           .text:010017cd 8d 7d b4                         lea    -0x4c(%ebp),%edi
                           .text:010017d0 f3 ab                            rep stos %eax,%es:(%edi)
                           .text:010017d2 6a 28                            push   $0x28
                           .text:010017d4 8d 45 b4                         lea    -0x4c(%ebp),%eax
                           .text:010017d7 50                               push   %eax
                           .text:010017d8 8d 45 f4                         lea    -0xc(%ebp),%eax
                           .text:010017db 50                               push   %eax
                           .text:010017dc ff 75 fc                         pushl  -0x4(%ebp)
                           .text:010017df c7 45 d4 80 00 00 00             movl   $0x80,-0x2c(%ebp)
                           .text:010017e6 ff 15 18 10 00 01                call   *0x1001018
                           .text:010017ec 8b f8                            mov    %eax,%edi
                           .text:010017ee 39 75 fc                         cmp    %esi,-0x4(%ebp)
                           .text:010017f1 74 09                            je     0x010017fc
                           .text:010017f3 ff 75 fc                         pushl  -0x4(%ebp)
                           .text:010017f6 ff 15 14 10 00 01                call   *0x1001014
                           .text:010017fc 8b c7                            mov    %edi,%eax
                           .text:010017fe 5f                               pop    %edi
                           .text:010017ff 5e                               pop    %esi
                           .text:01001800 c9                               leave  
                           .text:01001801 c2 04 00                         ret    $0x4
                           .text:01001804 cc                               int3   
                           .text:01001805 cc                               int3   
                           .text:01001806 cc                               int3   
                           .text:01001807 cc                               int3   
                           .text:01001808 cc                               int3   
                           .text:01001809 8b ff                            mov    %edi,%edi
                           .text:0100180b 55                               push   %ebp
                           .text:0100180c 8b ec                            mov    %esp,%ebp
                           .text:0100180e 83 ec 18                         sub    $0x18,%esp
                           .text:01001811 83 65 f8 00                      andl   $0x0,-0x8(%ebp)
                           .text:01001815 83 65 fc 00                      andl   $0x0,-0x4(%ebp)
                           .text:01001819 56                               push   %esi
                           .text:0100181a 57                               push   %edi
                           .text:0100181b 33 c0                            xor    %eax,%eax
                           .text:0100181d 8d 7d ec                         lea    -0x14(%ebp),%edi
                           .text:01001820 ab                               stos   %eax,%es:(%edi)
                           .text:01001821 ab                               stos   %eax,%es:(%edi)
                           .text:01001822 ab                               stos   %eax,%es:(%edi)
                           .text:01001823 8b 45 0c                         mov    0xc(%ebp),%eax
                           .text:01001826 33 c9                            xor    %ecx,%ecx
                           .text:01001828 66 89 08                         mov    %cx,(%eax)
                           .text:0100182b 8b 4d 10                         mov    0x10(%ebp),%ecx
                           .text:0100182e 33 d2                            xor    %edx,%edx
                           .text:01001830 66 89 11                         mov    %dx,(%ecx)
                           .text:01001833 8b 55 14                         mov    0x14(%ebp),%edx
                           .text:01001836 33 f6                            xor    %esi,%esi
                           .text:01001838 66 89 32                         mov    %si,(%edx)
                           .text:0100183b 8b 75 18                         mov    0x18(%ebp),%esi
                           .text:0100183e 33 ff                            xor    %edi,%edi
                           .text:01001840 66 89 3e                         mov    %di,(%esi)
                           .text:01001843 89 75 f4                         mov    %esi,-0xc(%ebp)
                           .text:01001846 89 45 e8                         mov    %eax,-0x18(%ebp)
                           .text:01001849 89 4d ec                         mov    %ecx,-0x14(%ebp)
                           .text:0100184c 89 55 f0                         mov    %edx,-0x10(%ebp)
                           .text:0100184f 33 f6                            xor    %esi,%esi
                           .text:01001851 8d 45 f8                         lea    -0x8(%ebp),%eax
                           .text:01001854 50                               push   %eax
                           .text:01001855 ff 74 b5 e8                      pushl  -0x18(%ebp,%esi,4)
                           .text:01001859 ff 75 08                         pushl  0x8(%ebp)
                           .text:0100185c e8 93 fd ff ff                   call   0x010015f4
                           .text:01001861 85 c0                            test   %eax,%eax
                           .text:01001863 7c 16                            jl     0x0100187b
                           .text:01001865 46                               inc    %esi
                           .text:01001866 83 fe 04                         cmp    $0x4,%esi
                           .text:01001869 72 e6                            jb     0x01001851
                           .text:0100186b 8b 45 1c                         mov    0x1c(%ebp),%eax
                           .text:0100186e 8b 4d f8                         mov    -0x8(%ebp),%ecx
                           .text:01001871 89 08                            mov    %ecx,(%eax)
                           .text:01001873 8b 4d fc                         mov    -0x4(%ebp),%ecx
                           .text:01001876 89 48 04                         mov    %ecx,0x4(%eax)
                           .text:01001879 33 c0                            xor    %eax,%eax
                           .text:0100187b 5f                               pop    %edi
                           .text:0100187c 5e                               pop    %esi
                           .text:0100187d c9                               leave  
                           .text:0100187e c2 18 00                         ret    $0x18
                           .text:01001881 cc                               int3   
                           .text:01001882 cc                               int3   
                           .text:01001883 cc                               int3   
                           .text:01001884 cc                               int3   
                           .text:01001885 cc                               int3   
                           .text:01001886 8b ff                            mov    %edi,%edi
                           .text:01001888 55                               push   %ebp
                           .text:01001889 8b ec                            mov    %esp,%ebp
                           .text:0100188b 83 ec 24                         sub    $0x24,%esp
                           .text:0100188e 56                               push   %esi
                           .text:0100188f 57                               push   %edi
                           .text:01001890 33 c0                            xor    %eax,%eax
                           .text:01001892 33 f6                            xor    %esi,%esi
                           .text:01001894 89 75 f4                         mov    %esi,-0xc(%ebp)
                           .text:01001897 8d 7d f8                         lea    -0x8(%ebp),%edi
                           .text:0100189a ab                               stos   %eax,%es:(%edi)
                           .text:0100189b 8d 7d e0                         lea    -0x20(%ebp),%edi
                           .text:0100189e ab                               stos   %eax,%es:(%edi)
                           .text:0100189f ab                               stos   %eax,%es:(%edi)
                           .text:010018a0 ab                               stos   %eax,%es:(%edi)
                           .text:010018a1 ab                               stos   %eax,%es:(%edi)
                           .text:010018a2 ab                               stos   %eax,%es:(%edi)
                           .text:010018a3 8b 45 08                         mov    0x8(%ebp),%eax
                           .text:010018a6 68 20 40 20 00                   push   $0x204020
                           .text:010018ab 89 45 e4                         mov    %eax,-0x1c(%ebp)
                           .text:010018ae 6a 07                            push   $0x7
                           .text:010018b0 8d 45 f4                         lea    -0xc(%ebp),%eax
                           .text:010018b3 50                               push   %eax
                           .text:010018b4 8d 45 dc                         lea    -0x24(%ebp),%eax
                           .text:010018b7 50                               push   %eax
                           .text:010018b8 68 80 00 10 00                   push   $0x100080
                           .text:010018bd 8d 45 fc                         lea    -0x4(%ebp),%eax
                           .text:010018c0 50                               push   %eax
                           .text:010018c1 89 75 fc                         mov    %esi,-0x4(%ebp)
                           .text:010018c4 c7 45 dc 18 00 00 00             movl   $0x18,-0x24(%ebp)
                           .text:010018cb 89 75 e0                         mov    %esi,-0x20(%ebp)
                           .text:010018ce c7 45 e8 40 00 00 00             movl   $0x40,-0x18(%ebp)
                           .text:010018d5 89 75 ec                         mov    %esi,-0x14(%ebp)
                           .text:010018d8 89 75 f0                         mov    %esi,-0x10(%ebp)
                           .text:010018db ff 15 1c 10 00 01                call   *0x100101c
                           .text:010018e1 8b f8                            mov    %eax,%edi
                           .text:010018e3 3b fe                            cmp    %esi,%edi
                           .text:010018e5 7c 16                            jl     0x010018fd
                           .text:010018e7 6a 04                            push   $0x4
                           .text:010018e9 6a 28                            push   $0x28
                           .text:010018eb ff 75 0c                         pushl  0xc(%ebp)
                           .text:010018ee 8d 45 f4                         lea    -0xc(%ebp),%eax
                           .text:010018f1 50                               push   %eax
                           .text:010018f2 ff 75 fc                         pushl  -0x4(%ebp)
                           .text:010018f5 ff 15 20 10 00 01                call   *0x1001020
                           .text:010018fb 8b f8                            mov    %eax,%edi
                           .text:010018fd 39 75 fc                         cmp    %esi,-0x4(%ebp)
                           .text:01001900 74 09                            je     0x0100190b
                           .text:01001902 ff 75 fc                         pushl  -0x4(%ebp)
                           .text:01001905 ff 15 14 10 00 01                call   *0x1001014
                           .text:0100190b 8b c7                            mov    %edi,%eax
                           .text:0100190d 5f                               pop    %edi
                           .text:0100190e 5e                               pop    %esi
                           .text:0100190f c9                               leave  
                           .text:01001910 c2 08 00                         ret    $0x8
                           .text:01001913 cc                               int3   
                           .text:01001914 cc                               int3   
                           .text:01001915 cc                               int3   
                           .text:01001916 cc                               int3   
                           .text:01001917 cc                               int3   
                           .text:01001918 8b ff                            mov    %edi,%edi
                           .text:0100191a 55                               push   %ebp
                           .text:0100191b 8b ec                            mov    %esp,%ebp
                           .text:0100191d 83 ec 24                         sub    $0x24,%esp
                           .text:01001920 56                               push   %esi
                           .text:01001921 57                               push   %edi
                           .text:01001922 33 c0                            xor    %eax,%eax
                           .text:01001924 33 f6                            xor    %esi,%esi
                           .text:01001926 89 75 f4                         mov    %esi,-0xc(%ebp)
                           .text:01001929 8d 7d f8                         lea    -0x8(%ebp),%edi
                           .text:0100192c ab                               stos   %eax,%es:(%edi)
                           .text:0100192d 8d 7d e0                         lea    -0x20(%ebp),%edi
                           .text:01001930 ab                               stos   %eax,%es:(%edi)
                           .text:01001931 ab                               stos   %eax,%es:(%edi)
                           .text:01001932 ab                               stos   %eax,%es:(%edi)
                           .text:01001933 ab                               stos   %eax,%es:(%edi)
                           .text:01001934 ab                               stos   %eax,%es:(%edi)
                           .text:01001935 8b 45 08                         mov    0x8(%ebp),%eax
                           .text:01001938 68 20 40 20 00                   push   $0x204020
                           .text:0100193d 89 45 e4                         mov    %eax,-0x1c(%ebp)
                           .text:01001940 6a 07                            push   $0x7
                           .text:01001942 8d 45 f4                         lea    -0xc(%ebp),%eax
                           .text:01001945 50                               push   %eax
                           .text:01001946 8d 45 dc                         lea    -0x24(%ebp),%eax
                           .text:01001949 50                               push   %eax
                           .text:0100194a 68 00 01 10 00                   push   $0x100100
                           .text:0100194f 8d 45 fc                         lea    -0x4(%ebp),%eax
                           .text:01001952 50                               push   %eax
                           .text:01001953 89 75 fc                         mov    %esi,-0x4(%ebp)
                           .text:01001956 c7 45 dc 18 00 00 00             movl   $0x18,-0x24(%ebp)
                           .text:0100195d 89 75 e0                         mov    %esi,-0x20(%ebp)
                           .text:01001960 c7 45 e8 40 00 00 00             movl   $0x40,-0x18(%ebp)
                           .text:01001967 89 75 ec                         mov    %esi,-0x14(%ebp)
                           .text:0100196a 89 75 f0                         mov    %esi,-0x10(%ebp)
                           .text:0100196d ff 15 1c 10 00 01                call   *0x100101c
                           .text:01001973 8b f8                            mov    %eax,%edi
                           .text:01001975 3b fe                            cmp    %esi,%edi
                           .text:01001977 7c 16                            jl     0x0100198f
                           .text:01001979 6a 04                            push   $0x4
                           .text:0100197b 6a 28                            push   $0x28
                           .text:0100197d ff 75 0c                         pushl  0xc(%ebp)
                           .text:01001980 8d 45 f4                         lea    -0xc(%ebp),%eax
                           .text:01001983 50                               push   %eax
                           .text:01001984 ff 75 fc                         pushl  -0x4(%ebp)
                           .text:01001987 ff 15 18 10 00 01                call   *0x1001018
                           .text:0100198d 8b f8                            mov    %eax,%edi
                           .text:0100198f 39 75 fc                         cmp    %esi,-0x4(%ebp)
                           .text:01001992 74 09                            je     0x0100199d
                           .text:01001994 ff 75 fc                         pushl  -0x4(%ebp)
                           .text:01001997 ff 15 14 10 00 01                call   *0x1001014
                           .text:0100199d 8b c7                            mov    %edi,%eax
                           .text:0100199f 5f                               pop    %edi
                           .text:010019a0 5e                               pop    %esi
                           .text:010019a1 c9                               leave  
                           .text:010019a2 c2 08 00                         ret    $0x8
                           .text:010019a5 cc                               int3   
                           .text:010019a6 cc                               int3   
                           .text:010019a7 cc                               int3   
                           .text:010019a8 cc                               int3   
                           .text:010019a9 cc                               int3   
                           .text:010019aa 8b ff                            mov    %edi,%edi
                           .text:010019ac 55                               push   %ebp
                           .text:010019ad 8b ec                            mov    %esp,%ebp
                           .text:010019af 83 ec 24                         sub    $0x24,%esp
                           .text:010019b2 56                               push   %esi
                           .text:010019b3 57                               push   %edi
                           .text:010019b4 ff 75 10                         pushl  0x10(%ebp)
                           .text:010019b7 33 c0                            xor    %eax,%eax
                           .text:010019b9 33 f6                            xor    %esi,%esi
                           .text:010019bb 89 75 dc                         mov    %esi,-0x24(%ebp)
                           .text:010019be 89 75 f4                         mov    %esi,-0xc(%ebp)
                           .text:010019c1 8d 7d f8                         lea    -0x8(%ebp),%edi
                           .text:010019c4 ab                               stos   %eax,%es:(%edi)
                           .text:010019c5 8d 7d e0                         lea    -0x20(%ebp),%edi
                           .text:010019c8 ab                               stos   %eax,%es:(%edi)
                           .text:010019c9 ab                               stos   %eax,%es:(%edi)
                           .text:010019ca ab                               stos   %eax,%es:(%edi)
                           .text:010019cb ab                               stos   %eax,%es:(%edi)
                           .text:010019cc 89 75 fc                         mov    %esi,-0x4(%ebp)
                           .text:010019cf ab                               stos   %eax,%es:(%edi)
                           .text:010019d0 e8 83 fd ff ff                   call   0x01001758
                           .text:010019d5 8b f8                            mov    %eax,%edi
                           .text:010019d7 3b fe                            cmp    %esi,%edi
                           .text:010019d9 7d 08                            jge    0x010019e3
                           .text:010019db 81 ff 34 00 00 c0                cmp    $0xc0000034,%edi
                           .text:010019e1 75 6b                            jne    0x01001a4e
                           .text:010019e3 8b 45 0c                         mov    0xc(%ebp),%eax
                           .text:010019e6 68 20 40 20 00                   push   $0x204020
                           .text:010019eb 89 45 e4                         mov    %eax,-0x1c(%ebp)
                           .text:010019ee 6a 07                            push   $0x7
                           .text:010019f0 8d 45 f4                         lea    -0xc(%ebp),%eax
                           .text:010019f3 50                               push   %eax
                           .text:010019f4 8d 45 dc                         lea    -0x24(%ebp),%eax
                           .text:010019f7 50                               push   %eax
                           .text:010019f8 68 80 00 11 00                   push   $0x110080
                           .text:010019fd 8d 45 fc                         lea    -0x4(%ebp),%eax
                           .text:01001a00 50                               push   %eax
                           .text:01001a01 c7 45 dc 18 00 00 00             movl   $0x18,-0x24(%ebp)
                           .text:01001a08 89 75 e0                         mov    %esi,-0x20(%ebp)
                           .text:01001a0b c7 45 e8 40 00 00 00             movl   $0x40,-0x18(%ebp)
                           .text:01001a12 89 75 ec                         mov    %esi,-0x14(%ebp)
                           .text:01001a15 89 75 f0                         mov    %esi,-0x10(%ebp)
                           .text:01001a18 ff 15 1c 10 00 01                call   *0x100101c
                           .text:01001a1e 8b f8                            mov    %eax,%edi
                           .text:01001a20 3b fe                            cmp    %esi,%edi
                           .text:01001a22 7c 2a                            jl     0x01001a4e
                           .text:01001a24 39 75 14                         cmp    %esi,0x14(%ebp)
                           .text:01001a27 74 1a                            je     0x01001a43
                           .text:01001a29 6a 04                            push   $0x4
                           .text:01001a2b 6a 28                            push   $0x28
                           .text:01001a2d ff 75 14                         pushl  0x14(%ebp)
                           .text:01001a30 8d 45 f4                         lea    -0xc(%ebp),%eax
                           .text:01001a33 50                               push   %eax
                           .text:01001a34 ff 75 fc                         pushl  -0x4(%ebp)
                           .text:01001a37 ff 15 20 10 00 01                call   *0x1001020
                           .text:01001a3d 8b f8                            mov    %eax,%edi
                           .text:01001a3f 3b fe                            cmp    %esi,%edi
                           .text:01001a41 7c 0b                            jl     0x01001a4e
                           .text:01001a43 8b 45 fc                         mov    -0x4(%ebp),%eax
                           .text:01001a46 8b 4d 08                         mov    0x8(%ebp),%ecx
                           .text:01001a49 89 01                            mov    %eax,(%ecx)
                           .text:01001a4b 89 75 fc                         mov    %esi,-0x4(%ebp)
                           .text:01001a4e 39 75 fc                         cmp    %esi,-0x4(%ebp)
                           .text:01001a51 74 09                            je     0x01001a5c
                           .text:01001a53 ff 75 fc                         pushl  -0x4(%ebp)
                           .text:01001a56 ff 15 14 10 00 01                call   *0x1001014
                           .text:01001a5c 8b c7                            mov    %edi,%eax
                           .text:01001a5e 5f                               pop    %edi
                           .text:01001a5f 5e                               pop    %esi
                           .text:01001a60 c9                               leave  
                           .text:01001a61 c2 10 00                         ret    $0x10
                           .text:01001a64 cc                               int3   
                           .text:01001a65 cc                               int3   
                           .text:01001a66 cc                               int3   
                           .text:01001a67 cc                               int3   
                           .text:01001a68 cc                               int3   
                           .text:01001a69 8b ff                            mov    %edi,%edi
                           .text:01001a6b 55                               push   %ebp
                           .text:01001a6c 8b ec                            mov    %esp,%ebp
                           .text:01001a6e 51                               push   %ecx
                           .text:01001a6f 8b 55 08                         mov    0x8(%ebp),%edx
                           .text:01001a72 8b 4a 04                         mov    0x4(%edx),%ecx
                           .text:01001a75 0f b7 12                         movzwl (%edx),%edx
                           .text:01001a78 53                               push   %ebx
                           .text:01001a79 56                               push   %esi
                           .text:01001a7a 8b 75 0c                         mov    0xc(%ebp),%esi
                           .text:01001a7d 33 c0                            xor    %eax,%eax
                           .text:01001a7f 33 db                            xor    %ebx,%ebx
                           .text:01001a81 d1 ea                            shr    %edx
                           .text:01001a83 57                               push   %edi
                           .text:01001a84 89 45 fc                         mov    %eax,-0x4(%ebp)
                           .text:01001a87 8d 34 71                         lea    (%ecx,%esi,2),%esi
                           .text:01001a8a 8d 3c 51                         lea    (%ecx,%edx,2),%edi
                           .text:01001a8d eb 1c                            jmp    0x01001aab
                           .text:01001a8f 8d 45 fc                         lea    -0x4(%ebp),%eax
                           .text:01001a92 50                               push   %eax
                           .text:01001a93 0f b7 06                         movzwl (%esi),%eax
                           .text:01001a96 50                               push   %eax
                           .text:01001a97 e8 40 fa ff ff                   call   0x010014dc
                           .text:01001a9c 85 c0                            test   %eax,%eax
                           .text:01001a9e 7c 14                            jl     0x01001ab4
                           .text:01001aa0 0f b7 4d fc                      movzwl -0x4(%ebp),%ecx
                           .text:01001aa4 c1 e3 04                         shl    $0x4,%ebx
                           .text:01001aa7 03 d9                            add    %ecx,%ebx
                           .text:01001aa9 46                               inc    %esi
                           .text:01001aaa 46                               inc    %esi
                           .text:01001aab 3b f7                            cmp    %edi,%esi
                           .text:01001aad 72 e0                            jb     0x01001a8f
                           .text:01001aaf 8b 4d 10                         mov    0x10(%ebp),%ecx
                           .text:01001ab2 89 19                            mov    %ebx,(%ecx)
                           .text:01001ab4 5f                               pop    %edi
                           .text:01001ab5 5e                               pop    %esi
                           .text:01001ab6 5b                               pop    %ebx
                           .text:01001ab7 c9                               leave  
                           .text:01001ab8 c2 0c 00                         ret    $0xc
                           .text:01001abb cc                               int3   
                           .text:01001abc cc                               int3   
                           .text:01001abd cc                               int3   
                           .text:01001abe cc                               int3   
                           .text:01001abf cc                               int3   
                           .text:01001ac0 8b ff                            mov    %edi,%edi
                           .text:01001ac2 55                               push   %ebp
                           .text:01001ac3 8b ec                            mov    %esp,%ebp
                           .text:01001ac5 83 ec 28                         sub    $0x28,%esp
                           .text:01001ac8 83 65 d8 00                      andl   $0x0,-0x28(%ebp)
                           .text:01001acc 57                               push   %edi
                           .text:01001acd 6a 09                            push   $0x9
                           .text:01001acf 59                               pop    %ecx
                           .text:01001ad0 33 c0                            xor    %eax,%eax
                           .text:01001ad2 8d 7d dc                         lea    -0x24(%ebp),%edi
                           .text:01001ad5 f3 ab                            rep stos %eax,%es:(%edi)
                           .text:01001ad7 8d 45 d8                         lea    -0x28(%ebp),%eax
                           .text:01001ada 50                               push   %eax
                           .text:01001adb ff 75 08                         pushl  0x8(%ebp)
                           .text:01001ade e8 a3 fd ff ff                   call   0x01001886
                           .text:01001ae3 33 c9                            xor    %ecx,%ecx
                           .text:01001ae5 85 c0                            test   %eax,%eax
                           .text:01001ae7 0f 9d c1                         setge  %cl
                           .text:01001aea 8a c1                            mov    %cl,%al
                           .text:01001aec 5f                               pop    %edi
                           .text:01001aed c9                               leave  
                           .text:01001aee c2 04 00                         ret    $0x4
                           .text:01001af1 cc                               int3   
                           .text:01001af2 cc                               int3   
                           .text:01001af3 cc                               int3   
                           .text:01001af4 cc                               int3   
                           .text:01001af5 cc                               int3   
                           .text:01001af6 8b ff                            mov    %edi,%edi
                           .text:01001af8 55                               push   %ebp
                           .text:01001af9 8b ec                            mov    %esp,%ebp
                           .text:01001afb 56                               push   %esi
                           .text:01001afc 8b 35 24 10 00 01                mov    0x1001024,%esi
                           .text:01001b02 eb 13                            jmp    0x01001b17
                           .text:01001b04 3d 23 00 00 c0                   cmp    $0xc0000023,%eax
                           .text:01001b09 75 18                            jne    0x01001b23
                           .text:01001b0b ff 75 08                         pushl  0x8(%ebp)
                           .text:01001b0e e8 bb f8 ff ff                   call   0x010013ce
                           .text:01001b13 85 c0                            test   %eax,%eax
                           .text:01001b15 7c 0c                            jl     0x01001b23
                           .text:01001b17 ff 75 0c                         pushl  0xc(%ebp)
                           .text:01001b1a ff 75 08                         pushl  0x8(%ebp)
                           .text:01001b1d ff d6                            call   *%esi
                           .text:01001b1f 85 c0                            test   %eax,%eax
                           .text:01001b21 7c e1                            jl     0x01001b04
                           .text:01001b23 5e                               pop    %esi
                           .text:01001b24 5d                               pop    %ebp
                           .text:01001b25 c2 08 00                         ret    $0x8
                           .text:01001b28 cc                               int3   
                           .text:01001b29 cc                               int3   
                           .text:01001b2a cc                               int3   
                           .text:01001b2b cc                               int3   
                           .text:01001b2c cc                               int3   
                           .text:01001b2d 8b ff                            mov    %edi,%edi
                           .text:01001b2f 55                               push   %ebp
                           .text:01001b30 8b ec                            mov    %esp,%ebp
                           .text:01001b32 83 ec 40                         sub    $0x40,%esp
                           .text:01001b35 57                               push   %edi
                           .text:01001b36 33 c0                            xor    %eax,%eax
                           .text:01001b38 8d 7d ec                         lea    -0x14(%ebp),%edi
                           .text:01001b3b ab                               stos   %eax,%es:(%edi)
                           .text:01001b3c ab                               stos   %eax,%es:(%edi)
                           .text:01001b3d ab                               stos   %eax,%es:(%edi)
                           .text:01001b3e ab                               stos   %eax,%es:(%edi)
                           .text:01001b3f ab                               stos   %eax,%es:(%edi)
                           .text:01001b40 33 d2                            xor    %edx,%edx
                           .text:01001b42 6a 09                            push   $0x9
                           .text:01001b44 33 c0                            xor    %eax,%eax
                           .text:01001b46 59                               pop    %ecx
                           .text:01001b47 89 55 c0                         mov    %edx,-0x40(%ebp)
                           .text:01001b4a 8d 7d c4                         lea    -0x3c(%ebp),%edi
                           .text:01001b4d f3 ab                            rep stos %eax,%es:(%edi)
                           .text:01001b4f 8b 45 08                         mov    0x8(%ebp),%eax
                           .text:01001b52 89 45 f0                         mov    %eax,-0x10(%ebp)
                           .text:01001b55 8d 45 c0                         lea    -0x40(%ebp),%eax
                           .text:01001b58 50                               push   %eax
                           .text:01001b59 8d 45 e8                         lea    -0x18(%ebp),%eax
                           .text:01001b5c 50                               push   %eax
                           .text:01001b5d c7 45 e8 18 00 00 00             movl   $0x18,-0x18(%ebp)
                           .text:01001b64 89 55 ec                         mov    %edx,-0x14(%ebp)
                           .text:01001b67 c7 45 f4 40 00 00 00             movl   $0x40,-0xc(%ebp)
                           .text:01001b6e 89 55 f8                         mov    %edx,-0x8(%ebp)
                           .text:01001b71 89 55 fc                         mov    %edx,-0x4(%ebp)
                           .text:01001b74 ff 15 28 10 00 01                call   *0x1001028
                           .text:01001b7a 33 c9                            xor    %ecx,%ecx
                           .text:01001b7c 85 c0                            test   %eax,%eax
                           .text:01001b7e 0f 9d c1                         setge  %cl
                           .text:01001b81 8a c1                            mov    %cl,%al
                           .text:01001b83 5f                               pop    %edi
                           .text:01001b84 c9                               leave  
                           .text:01001b85 c2 04 00                         ret    $0x4
                           .text:01001b88 cc                               int3   
                           .text:01001b89 cc                               int3   
                           .text:01001b8a cc                               int3   
                           .text:01001b8b cc                               int3   
                           .text:01001b8c cc                               int3   
                           .text:01001b8d 8b ff                            mov    %edi,%edi
                           .text:01001b8f 55                               push   %ebp
                           .text:01001b90 8b ec                            mov    %esp,%ebp
                           .text:01001b92 ff 75 08                         pushl  0x8(%ebp)
                           .text:01001b95 e8 93 ff ff ff                   call   0x01001b2d
                           .text:01001b9a 84 c0                            test   %al,%al
                           .text:01001b9c 75 11                            jne    0x01001baf
                           .text:01001b9e ff 75 0c                         pushl  0xc(%ebp)
                           .text:01001ba1 e8 87 ff ff ff                   call   0x01001b2d
                           .text:01001ba6 84 c0                            test   %al,%al
                           .text:01001ba8 74 05                            je     0x01001baf
                           .text:01001baa 33 c0                            xor    %eax,%eax
                           .text:01001bac 40                               inc    %eax
                           .text:01001bad eb 02                            jmp    0x01001bb1
                           .text:01001baf 33 c0                            xor    %eax,%eax
                           .text:01001bb1 5d                               pop    %ebp
                           .text:01001bb2 c2 08 00                         ret    $0x8
                           .text:01001bb5 cc                               int3   
                           .text:01001bb6 cc                               int3   
                           .text:01001bb7 cc                               int3   
                           .text:01001bb8 cc                               int3   
                           .text:01001bb9 cc                               int3   
                           .text:01001bba 8b ff                            mov    %edi,%edi
                           .text:01001bbc 55                               push   %ebp
                           .text:01001bbd 8b ec                            mov    %esp,%ebp
                           .text:01001bbf 83 ec 34                         sub    $0x34,%esp
                           .text:01001bc2 53                               push   %ebx
                           .text:01001bc3 8b 5d 0c                         mov    0xc(%ebp),%ebx
                           .text:01001bc6 56                               push   %esi
                           .text:01001bc7 57                               push   %edi
                           .text:01001bc8 33 c0                            xor    %eax,%eax
                           .text:01001bca 6a 09                            push   $0x9
                           .text:01001bcc 33 f6                            xor    %esi,%esi
                           .text:01001bce 59                               pop    %ecx
                           .text:01001bcf 89 75 f4                         mov    %esi,-0xc(%ebp)
                           .text:01001bd2 8d 7d f8                         lea    -0x8(%ebp),%edi
                           .text:01001bd5 ab                               stos   %eax,%es:(%edi)
                           .text:01001bd6 89 75 cc                         mov    %esi,-0x34(%ebp)
                           .text:01001bd9 8d 7d d0                         lea    -0x30(%ebp),%edi
                           .text:01001bdc f3 ab                            rep stos %eax,%es:(%edi)
                           .text:01001bde 8d 45 cc                         lea    -0x34(%ebp),%eax
                           .text:01001be1 50                               push   %eax
                           .text:01001be2 53                               push   %ebx
                           .text:01001be3 ff 75 08                         pushl  0x8(%ebp)
                           .text:01001be6 8d 45 fc                         lea    -0x4(%ebp),%eax
                           .text:01001be9 50                               push   %eax
                           .text:01001bea 89 75 fc                         mov    %esi,-0x4(%ebp)
                           .text:01001bed e8 b8 fd ff ff                   call   0x010019aa
                           .text:01001bf2 8b f8                            mov    %eax,%edi
                           .text:01001bf4 85 ff                            test   %edi,%edi
                           .text:01001bf6 7c 67                            jl     0x01001c5f
                           .text:01001bf8 0f b7 3b                         movzwl (%ebx),%edi
                           .text:01001bfb 64 a1 18 00 00 00                mov    %fs:0x18,%eax
                           .text:01001c01 8b 40 30                         mov    0x30(%eax),%eax
                           .text:01001c04 83 c7 10                         add    $0x10,%edi
                           .text:01001c07 57                               push   %edi
                           .text:01001c08 56                               push   %esi
                           .text:01001c09 ff 70 18                         pushl  0x18(%eax)
                           .text:01001c0c ff 15 0c 10 00 01                call   *0x100100c
                           .text:01001c12 8b f0                            mov    %eax,%esi
                           .text:01001c14 85 f6                            test   %esi,%esi
                           .text:01001c16 75 07                            jne    0x01001c1f
                           .text:01001c18 bf 17 00 00 c0                   mov    $0xc0000017,%edi
                           .text:01001c1d eb 40                            jmp    0x01001c5f
                           .text:01001c1f 83 66 04 00                      andl   $0x0,0x4(%esi)
                           .text:01001c23 8d 47 f0                         lea    -0x10(%edi),%eax
                           .text:01001c26 50                               push   %eax
                           .text:01001c27 89 46 08                         mov    %eax,0x8(%esi)
                           .text:01001c2a c6 06 01                         movb   $0x1,(%esi)
                           .text:01001c2d ff 73 04                         pushl  0x4(%ebx)
                           .text:01001c30 8d 46 0c                         lea    0xc(%esi),%eax
                           .text:01001c33 50                               push   %eax
                           .text:01001c34 e8 25 14 00 00                   call   0x0100305e
                           .text:01001c39 83 c4 0c                         add    $0xc,%esp
                           .text:01001c3c 6a 0a                            push   $0xa
                           .text:01001c3e 57                               push   %edi
                           .text:01001c3f 56                               push   %esi
                           .text:01001c40 8d 45 f4                         lea    -0xc(%ebp),%eax
                           .text:01001c43 50                               push   %eax
                           .text:01001c44 ff 75 fc                         pushl  -0x4(%ebp)
                           .text:01001c47 ff 15 18 10 00 01                call   *0x1001018
                           .text:01001c4d 8b f8                            mov    %eax,%edi
                           .text:01001c4f 85 ff                            test   %edi,%edi
                           .text:01001c51 7c 0c                            jl     0x01001c5f
                           .text:01001c53 8d 45 cc                         lea    -0x34(%ebp),%eax
                           .text:01001c56 50                               push   %eax
                           .text:01001c57 53                               push   %ebx
                           .text:01001c58 e8 bb fc ff ff                   call   0x01001918
                           .text:01001c5d 8b f8                            mov    %eax,%edi
                           .text:01001c5f 83 7d fc 00                      cmpl   $0x0,-0x4(%ebp)
                           .text:01001c63 74 09                            je     0x01001c6e
                           .text:01001c65 ff 75 fc                         pushl  -0x4(%ebp)
                           .text:01001c68 ff 15 14 10 00 01                call   *0x1001014
                           .text:01001c6e 85 f6                            test   %esi,%esi
                           .text:01001c70 74 15                            je     0x01001c87
                           .text:01001c72 64 a1 18 00 00 00                mov    %fs:0x18,%eax
                           .text:01001c78 8b 40 30                         mov    0x30(%eax),%eax
                           .text:01001c7b 56                               push   %esi
                           .text:01001c7c 6a 00                            push   $0x0
                           .text:01001c7e ff 70 18                         pushl  0x18(%eax)
                           .text:01001c81 ff 15 2c 10 00 01                call   *0x100102c
                           .text:01001c87 8b c7                            mov    %edi,%eax
                           .text:01001c89 5f                               pop    %edi
                           .text:01001c8a 5e                               pop    %esi
                           .text:01001c8b 5b                               pop    %ebx
                           .text:01001c8c c9                               leave  
                           .text:01001c8d c2 08 00                         ret    $0x8
                           .text:01001c90 cc                               int3   
                           .text:01001c91 cc                               int3   
                           .text:01001c92 cc                               int3   
                           .text:01001c93 cc                               int3   
                           .text:01001c94 cc                               int3   
                           .text:01001c95 8b ff                            mov    %edi,%edi
                           .text:01001c97 55                               push   %ebp
                           .text:01001c98 8b ec                            mov    %esp,%ebp
                           .text:01001c9a ff 75 08                         pushl  0x8(%ebp)
                           .text:01001c9d e8 8b fe ff ff                   call   0x01001b2d
                           .text:01001ca2 33 c9                            xor    %ecx,%ecx
                           .text:01001ca4 84 c0                            test   %al,%al
                           .text:01001ca6 0f 94 c1                         sete   %cl
                           .text:01001ca9 8a c1                            mov    %cl,%al
                           .text:01001cab 5d                               pop    %ebp
                           .text:01001cac c2 04 00                         ret    $0x4
                           .text:01001caf cc                               int3   
                           .text:01001cb0 cc                               int3   
                           .text:01001cb1 cc                               int3   
                           .text:01001cb2 cc                               int3   
                           .text:01001cb3 cc                               int3   
                           .text:01001cb4 8b ff                            mov    %edi,%edi
                           .text:01001cb6 55                               push   %ebp
                           .text:01001cb7 8b ec                            mov    %esp,%ebp
                           .text:01001cb9 81 7d 08 01 01 00 c0             cmpl   $0xc0000101,0x8(%ebp)
                           .text:01001cc0 74 16                            je     0x01001cd8
                           .text:01001cc2 81 7d 08 34 00 00 c0             cmpl   $0xc0000034,0x8(%ebp)
                           .text:01001cc9 74 0d                            je     0x01001cd8
                           .text:01001ccb 81 7d 08 56 00 00 c0             cmpl   $0xc0000056,0x8(%ebp)
                           .text:01001cd2 74 04                            je     0x01001cd8
                           .text:01001cd4 33 c0                            xor    %eax,%eax
                           .text:01001cd6 eb 03                            jmp    0x01001cdb
                           .text:01001cd8 33 c0                            xor    %eax,%eax
                           .text:01001cda 40                               inc    %eax
                           .text:01001cdb 5d                               pop    %ebp
                           .text:01001cdc c2 04 00                         ret    $0x4
                           .text:01001cdf cc                               int3   
                           .text:01001ce0 cc                               int3   
                           .text:01001ce1 cc                               int3   
                           .text:01001ce2 cc                               int3   
                           .text:01001ce3 cc                               int3   
                           .text:01001ce4 8b ff                            mov    %edi,%edi
                           .text:01001ce6 55                               push   %ebp
                           .text:01001ce7 8b ec                            mov    %esp,%ebp
                           .text:01001ce9 ff 75 08                         pushl  0x8(%ebp)
                           .text:01001cec e8 c3 ff ff ff                   call   0x01001cb4
                           .text:01001cf1 84 c0                            test   %al,%al
                           .text:01001cf3 74 04                            je     0x01001cf9
                           .text:01001cf5 b0 01                            mov    $0x1,%al
                           .text:01001cf7 eb 08                            jmp    0x01001d01
                           .text:01001cf9 33 c0                            xor    %eax,%eax
                           .text:01001cfb 39 45 08                         cmp    %eax,0x8(%ebp)
                           .text:01001cfe 0f 9d c0                         setge  %al
                           .text:01001d01 5d                               pop    %ebp
                           .text:01001d02 c2 08 00                         ret    $0x8
                           .text:01001d05 cc                               int3   
                           .text:01001d06 cc                               int3   
                           .text:01001d07 cc                               int3   
                           .text:01001d08 cc                               int3   
                           .text:01001d09 cc                               int3   
                           .text:01001d0a 8b ff                            mov    %edi,%edi
                           .text:01001d0c 55                               push   %ebp
                           .text:01001d0d 8b ec                            mov    %esp,%ebp
                           .text:01001d0f 83 ec 10                         sub    $0x10,%esp
                           .text:01001d12 53                               push   %ebx
                           .text:01001d13 56                               push   %esi
                           .text:01001d14 57                               push   %edi
                           .text:01001d15 33 db                            xor    %ebx,%ebx
                           .text:01001d17 53                               push   %ebx
                           .text:01001d18 ff 75 08                         pushl  0x8(%ebp)
                           .text:01001d1b 33 c0                            xor    %eax,%eax
                           .text:01001d1d ff 75 08                         pushl  0x8(%ebp)
                           .text:01001d20 89 5d f0                         mov    %ebx,-0x10(%ebp)
                           .text:01001d23 8d 7d f4                         lea    -0xc(%ebp),%edi
                           .text:01001d26 ab                               stos   %eax,%es:(%edi)
                           .text:01001d27 8d 45 f8                         lea    -0x8(%ebp),%eax
                           .text:01001d2a 50                               push   %eax
                           .text:01001d2b 89 5d f8                         mov    %ebx,-0x8(%ebp)
                           .text:01001d2e 88 5d ff                         mov    %bl,-0x1(%ebp)
                           .text:01001d31 e8 74 fc ff ff                   call   0x010019aa
                           .text:01001d36 8b f0                            mov    %eax,%esi
                           .text:01001d38 3b f3                            cmp    %ebx,%esi
                           .text:01001d3a 7c 1b                            jl     0x01001d57
                           .text:01001d3c 6a 0d                            push   $0xd
                           .text:01001d3e 6a 01                            push   $0x1
                           .text:01001d40 8d 45 ff                         lea    -0x1(%ebp),%eax
                           .text:01001d43 50                               push   %eax
                           .text:01001d44 8d 45 f0                         lea    -0x10(%ebp),%eax
                           .text:01001d47 50                               push   %eax
                           .text:01001d48 ff 75 f8                         pushl  -0x8(%ebp)
                           .text:01001d4b c6 45 ff 01                      movb   $0x1,-0x1(%ebp)
                           .text:01001d4f ff 15 18 10 00 01                call   *0x1001018
                           .text:01001d55 8b f0                            mov    %eax,%esi
                           .text:01001d57 39 5d f8                         cmp    %ebx,-0x8(%ebp)
                           .text:01001d5a 74 09                            je     0x01001d65
                           .text:01001d5c ff 75 f8                         pushl  -0x8(%ebp)
                           .text:01001d5f ff 15 14 10 00 01                call   *0x1001014
                           .text:01001d65 5f                               pop    %edi
                           .text:01001d66 8b c6                            mov    %esi,%eax
                           .text:01001d68 5e                               pop    %esi
                           .text:01001d69 5b                               pop    %ebx
                           .text:01001d6a c9                               leave  
                           .text:01001d6b c2 04 00                         ret    $0x4
                           .text:01001d6e cc                               int3   
                           .text:01001d6f cc                               int3   
                           .text:01001d70 cc                               int3   
                           .text:01001d71 cc                               int3   
                           .text:01001d72 cc                               int3   
                           .text:01001d73 8b ff                            mov    %edi,%edi
                           .text:01001d75 55                               push   %ebp
                           .text:01001d76 8b ec                            mov    %esp,%ebp
                           .text:01001d78 83 ec 4c                         sub    $0x4c,%esp
                           .text:01001d7b 53                               push   %ebx
                           .text:01001d7c 56                               push   %esi
                           .text:01001d7d 57                               push   %edi
                           .text:01001d7e 33 c0                            xor    %eax,%eax
                           .text:01001d80 8d 7d e0                         lea    -0x20(%ebp),%edi
                           .text:01001d83 ab                               stos   %eax,%es:(%edi)
                           .text:01001d84 ab                               stos   %eax,%es:(%edi)
                           .text:01001d85 ab                               stos   %eax,%es:(%edi)
                           .text:01001d86 ab                               stos   %eax,%es:(%edi)
                           .text:01001d87 ab                               stos   %eax,%es:(%edi)
                           .text:01001d88 33 f6                            xor    %esi,%esi
                           .text:01001d8a 33 c0                            xor    %eax,%eax
                           .text:01001d8c 6a 09                            push   $0x9
                           .text:01001d8e 59                               pop    %ecx
                           .text:01001d8f 89 75 f4                         mov    %esi,-0xc(%ebp)
                           .text:01001d92 8d 7d f8                         lea    -0x8(%ebp),%edi
                           .text:01001d95 ab                               stos   %eax,%es:(%edi)
                           .text:01001d96 68 20 40 20 00                   push   $0x204020
                           .text:01001d9b 89 75 b4                         mov    %esi,-0x4c(%ebp)
                           .text:01001d9e 8d 7d b8                         lea    -0x48(%ebp),%edi
                           .text:01001da1 f3 ab                            rep stos %eax,%es:(%edi)
                           .text:01001da3 8b 45 0c                         mov    0xc(%ebp),%eax
                           .text:01001da6 89 45 e4                         mov    %eax,-0x1c(%ebp)
                           .text:01001da9 6a 03                            push   $0x3
                           .text:01001dab 8d 45 f4                         lea    -0xc(%ebp),%eax
                           .text:01001dae 50                               push   %eax
                           .text:01001daf 8d 45 dc                         lea    -0x24(%ebp),%eax
                           .text:01001db2 50                               push   %eax
                           .text:01001db3 68 80 01 11 00                   push   $0x110180
                           .text:01001db8 8d 45 fc                         lea    -0x4(%ebp),%eax
                           .text:01001dbb 50                               push   %eax
                           .text:01001dbc 89 75 fc                         mov    %esi,-0x4(%ebp)
                           .text:01001dbf c7 45 dc 18 00 00 00             movl   $0x18,-0x24(%ebp)
                           .text:01001dc6 89 75 e0                         mov    %esi,-0x20(%ebp)
                           .text:01001dc9 c7 45 e8 40 00 00 00             movl   $0x40,-0x18(%ebp)
                           .text:01001dd0 89 75 ec                         mov    %esi,-0x14(%ebp)
                           .text:01001dd3 89 75 f0                         mov    %esi,-0x10(%ebp)
                           .text:01001dd6 ff 15 1c 10 00 01                call   *0x100101c
                           .text:01001ddc 8b d8                            mov    %eax,%ebx
                           .text:01001dde 3b de                            cmp    %esi,%ebx
                           .text:01001de0 0f 8c a9 00 00 00                jl     0x01001e8f
                           .text:01001de6 6a 04                            push   $0x4
                           .text:01001de8 6a 28                            push   $0x28
                           .text:01001dea 8d 45 b4                         lea    -0x4c(%ebp),%eax
                           .text:01001ded 50                               push   %eax
                           .text:01001dee 8d 45 f4                         lea    -0xc(%ebp),%eax
                           .text:01001df1 50                               push   %eax
                           .text:01001df2 ff 75 fc                         pushl  -0x4(%ebp)
                           .text:01001df5 ff 15 20 10 00 01                call   *0x1001020
                           .text:01001dfb 8b d8                            mov    %eax,%ebx
                           .text:01001dfd 3b de                            cmp    %esi,%ebx
                           .text:01001dff 0f 8c 8a 00 00 00                jl     0x01001e8f
                           .text:01001e05 8b 75 08                         mov    0x8(%ebp),%esi
                           .text:01001e08 0f b7 1e                         movzwl (%esi),%ebx
                           .text:01001e0b 64 a1 18 00 00 00                mov    %fs:0x18,%eax
                           .text:01001e11 8b 40 30                         mov    0x30(%eax),%eax
                           .text:01001e14 83 c3 06                         add    $0x6,%ebx
                           .text:01001e17 53                               push   %ebx
                           .text:01001e18 6a 00                            push   $0x0
                           .text:01001e1a ff 70 18                         pushl  0x18(%eax)
                           .text:01001e1d ff 15 0c 10 00 01                call   *0x100100c
                           .text:01001e23 8b f8                            mov    %eax,%edi
                           .text:01001e25 85 ff                            test   %edi,%edi
                           .text:01001e27 75 07                            jne    0x01001e30
                           .text:01001e29 bb 17 00 00 c0                   mov    $0xc0000017,%ebx
                           .text:01001e2e eb 44                            jmp    0x01001e74
                           .text:01001e30 0f b7 06                         movzwl (%esi),%eax
                           .text:01001e33 89 07                            mov    %eax,(%edi)
                           .text:01001e35 0f b7 06                         movzwl (%esi),%eax
                           .text:01001e38 50                               push   %eax
                           .text:01001e39 ff 76 04                         pushl  0x4(%esi)
                           .text:01001e3c 8d 47 04                         lea    0x4(%edi),%eax
                           .text:01001e3f 50                               push   %eax
                           .text:01001e40 e8 19 12 00 00                   call   0x0100305e
                           .text:01001e45 8b 35 18 10 00 01                mov    0x1001018,%esi
                           .text:01001e4b 83 c4 0c                         add    $0xc,%esp
                           .text:01001e4e 6a 28                            push   $0x28
                           .text:01001e50 53                               push   %ebx
                           .text:01001e51 57                               push   %edi
                           .text:01001e52 8d 45 f4                         lea    -0xc(%ebp),%eax
                           .text:01001e55 50                               push   %eax
                           .text:01001e56 ff 75 fc                         pushl  -0x4(%ebp)
                           .text:01001e59 ff d6                            call   *%esi
                           .text:01001e5b 8b d8                            mov    %eax,%ebx
                           .text:01001e5d 85 db                            test   %ebx,%ebx
                           .text:01001e5f 7c 13                            jl     0x01001e74
                           .text:01001e61 6a 04                            push   $0x4
                           .text:01001e63 6a 28                            push   $0x28
                           .text:01001e65 8d 45 b4                         lea    -0x4c(%ebp),%eax
                           .text:01001e68 50                               push   %eax
                           .text:01001e69 8d 45 f4                         lea    -0xc(%ebp),%eax
                           .text:01001e6c 50                               push   %eax
                           .text:01001e6d ff 75 fc                         pushl  -0x4(%ebp)
                           .text:01001e70 ff d6                            call   *%esi
                           .text:01001e72 8b d8                            mov    %eax,%ebx
                           .text:01001e74 85 ff                            test   %edi,%edi
                           .text:01001e76 74 15                            je     0x01001e8d
                           .text:01001e78 64 a1 18 00 00 00                mov    %fs:0x18,%eax
                           .text:01001e7e 8b 40 30                         mov    0x30(%eax),%eax
                           .text:01001e81 57                               push   %edi
                           .text:01001e82 6a 00                            push   $0x0
                           .text:01001e84 ff 70 18                         pushl  0x18(%eax)
                           .text:01001e87 ff 15 2c 10 00 01                call   *0x100102c
                           .text:01001e8d 33 f6                            xor    %esi,%esi
                           .text:01001e8f 39 75 fc                         cmp    %esi,-0x4(%ebp)
                           .text:01001e92 74 09                            je     0x01001e9d
                           .text:01001e94 ff 75 fc                         pushl  -0x4(%ebp)
                           .text:01001e97 ff 15 14 10 00 01                call   *0x1001014
                           .text:01001e9d 5f                               pop    %edi
                           .text:01001e9e 5e                               pop    %esi
                           .text:01001e9f 8b c3                            mov    %ebx,%eax
                           .text:01001ea1 5b                               pop    %ebx
                           .text:01001ea2 c9                               leave  
                           .text:01001ea3 c2 08 00                         ret    $0x8
                           .text:01001ea6 cc                               int3   
                           .text:01001ea7 cc                               int3   
                           .text:01001ea8 cc                               int3   
                           .text:01001ea9 cc                               int3   
                           .text:01001eaa cc                               int3   
                           .text:01001eab 8b ff                            mov    %edi,%edi
                           .text:01001ead 55                               push   %ebp
                           .text:01001eae 8b ec                            mov    %esp,%ebp
                           .text:01001eb0 51                               push   %ecx
                           .text:01001eb1 53                               push   %ebx
                           .text:01001eb2 56                               push   %esi
                           .text:01001eb3 8b 35 34 10 00 01                mov    0x1001034,%esi
                           .text:01001eb9 8d 45 ff                         lea    -0x1(%ebp),%eax
                           .text:01001ebc 50                               push   %eax
                           .text:01001ebd 33 db                            xor    %ebx,%ebx
                           .text:01001ebf 53                               push   %ebx
                           .text:01001ec0 6a 01                            push   $0x1
                           .text:01001ec2 6a 11                            push   $0x11
                           .text:01001ec4 88 5d ff                         mov    %bl,-0x1(%ebp)
                           .text:01001ec7 ff d6                            call   *%esi
                           .text:01001ec9 3b c3                            cmp    %ebx,%eax
                           .text:01001ecb 7c 3e                            jl     0x01001f0b
                           .text:01001ecd 8d 45 ff                         lea    -0x1(%ebp),%eax
                           .text:01001ed0 50                               push   %eax
                           .text:01001ed1 53                               push   %ebx
                           .text:01001ed2 6a 01                            push   $0x1
                           .text:01001ed4 6a 12                            push   $0x12
                           .text:01001ed6 ff d6                            call   *%esi
                           .text:01001ed8 3b c3                            cmp    %ebx,%eax
                           .text:01001eda 7c 2f                            jl     0x01001f0b
                           .text:01001edc 8d 45 ff                         lea    -0x1(%ebp),%eax
                           .text:01001edf 50                               push   %eax
                           .text:01001ee0 53                               push   %ebx
                           .text:01001ee1 6a 01                            push   $0x1
                           .text:01001ee3 6a 08                            push   $0x8
                           .text:01001ee5 ff d6                            call   *%esi
                           .text:01001ee7 3b c3                            cmp    %ebx,%eax
                           .text:01001ee9 7c 20                            jl     0x01001f0b
                           .text:01001eeb 8d 45 ff                         lea    -0x1(%ebp),%eax
                           .text:01001eee 50                               push   %eax
                           .text:01001eef 53                               push   %ebx
                           .text:01001ef0 6a 01                            push   $0x1
                           .text:01001ef2 6a 09                            push   $0x9
                           .text:01001ef4 ff d6                            call   *%esi
                           .text:01001ef6 3b c3                            cmp    %ebx,%eax
                           .text:01001ef8 7c 11                            jl     0x01001f0b
                           .text:01001efa 8d 45 ff                         lea    -0x1(%ebp),%eax
                           .text:01001efd 50                               push   %eax
                           .text:01001efe 53                               push   %ebx
                           .text:01001eff 6a 01                            push   $0x1
                           .text:01001f01 6a 13                            push   $0x13
                           .text:01001f03 ff d6                            call   *%esi
                           .text:01001f05 3b c3                            cmp    %ebx,%eax
                           .text:01001f07 7c 02                            jl     0x01001f0b
                           .text:01001f09 33 c0                            xor    %eax,%eax
                           .text:01001f0b 5e                               pop    %esi
                           .text:01001f0c 5b                               pop    %ebx
                           .text:01001f0d c9                               leave  
                           .text:01001f0e c3                               ret    
                           .text:01001f0f cc                               int3   
                           .text:01001f10 cc                               int3   
                           .text:01001f11 cc                               int3   
                           .text:01001f12 cc                               int3   
                           .text:01001f13 cc                               int3   
                           .text:01001f14 8b ff                            mov    %edi,%edi
                           .text:01001f16 55                               push   %ebp
                           .text:01001f17 8b ec                            mov    %esp,%ebp
                           .text:01001f19 83 ec 10                         sub    $0x10,%esp
                           .text:01001f1c 53                               push   %ebx
                           .text:01001f1d 33 c0                            xor    %eax,%eax
                           .text:01001f1f 56                               push   %esi
                           .text:01001f20 57                               push   %edi
                           .text:01001f21 33 db                            xor    %ebx,%ebx
                           .text:01001f23 8d 7d f4                         lea    -0xc(%ebp),%edi
                           .text:01001f26 89 5d f0                         mov    %ebx,-0x10(%ebp)
                           .text:01001f29 ab                               stos   %eax,%es:(%edi)
                           .text:01001f2a 8d 7d fc                         lea    -0x4(%ebp),%edi
                           .text:01001f2d ab                               stos   %eax,%es:(%edi)
                           .text:01001f2e a1 0c 44 00 01                   mov    0x100440c,%eax
                           .text:01001f33 89 45 f8                         mov    %eax,-0x8(%ebp)
                           .text:01001f36 a1 ec 43 00 01                   mov    0x10043ec,%eax
                           .text:01001f3b 89 45 fc                         mov    %eax,-0x4(%ebp)
                           .text:01001f3e 38 1d f4 43 00 01                cmp    %bl,0x10043f4
                           .text:01001f44 74 04                            je     0x01001f4a
                           .text:01001f46 33 f6                            xor    %esi,%esi
                           .text:01001f48 eb 0d                            jmp    0x01001f57
                           .text:01001f4a 8d 45 f0                         lea    -0x10(%ebp),%eax
                           .text:01001f4d 50                               push   %eax
                           .text:01001f4e 6a 3c                            push   $0x3c
                           .text:01001f50 e8 43 f4 ff ff                   call   0x01001398
                           .text:01001f55 8b f0                            mov    %eax,%esi
                           .text:01001f57 56                               push   %esi
                           .text:01001f58 53                               push   %ebx
                           .text:01001f59 6a 01                            push   $0x1
                           .text:01001f5b 8d 45 f8                         lea    -0x8(%ebp),%eax
                           .text:01001f5e 50                               push   %eax
                           .text:01001f5f 6a 02                            push   $0x2
                           .text:01001f61 ff 15 3c 10 00 01                call   *0x100103c
                           .text:01001f67 8b c8                            mov    %eax,%ecx
                           .text:01001f69 2b cb                            sub    %ebx,%ecx
                           .text:01001f6b 74 21                            je     0x01001f8e
                           .text:01001f6d 49                               dec    %ecx
                           .text:01001f6e 74 e7                            je     0x01001f57
                           .text:01001f70 81 e9 01 01 00 00                sub    $0x101,%ecx
                           .text:01001f76 74 0b                            je     0x01001f83
                           .text:01001f78 3b c3                            cmp    %ebx,%eax
                           .text:01001f7a 7d 18                            jge    0x01001f94
                           .text:01001f7c a3 00 40 00 01                   mov    %eax,0x1004000
                           .text:01001f81 eb 11                            jmp    0x01001f94
                           .text:01001f83 68 02 01 00 00                   push   $0x102
                           .text:01001f88 ff 15 38 10 00 01                call   *0x1001038
                           .text:01001f8e 89 1d 00 40 00 01                mov    %ebx,0x1004000
                           .text:01001f94 a1 00 40 00 01                   mov    0x1004000,%eax
                           .text:01001f99 5f                               pop    %edi
                           .text:01001f9a 5e                               pop    %esi
                           .text:01001f9b 5b                               pop    %ebx
                           .text:01001f9c c9                               leave  
                           .text:01001f9d c2 04 00                         ret    $0x4
                           .text:01001fa0 cc                               int3   
                           .text:01001fa1 cc                               int3   
                           .text:01001fa2 cc                               int3   
                           .text:01001fa3 cc                               int3   
                           .text:01001fa4 cc                               int3   
                           .text:01001fa5 8b ff                            mov    %edi,%edi
                           .text:01001fa7 53                               push   %ebx
                           .text:01001fa8 56                               push   %esi
                           .text:01001fa9 57                               push   %edi
                           .text:01001faa 8b 3d 44 10 00 01                mov    0x1001044,%edi
                           .text:01001fb0 33 f6                            xor    %esi,%esi
                           .text:01001fb2 56                               push   %esi
                           .text:01001fb3 56                               push   %esi
                           .text:01001fb4 56                               push   %esi
                           .text:01001fb5 bb 03 00 1f 00                   mov    $0x1f0003,%ebx
                           .text:01001fba 53                               push   %ebx
                           .text:01001fbb 68 0c 44 00 01                   push   $0x100440c
                           .text:01001fc0 ff d7                            call   *%edi
                           .text:01001fc2 3b c6                            cmp    %esi,%eax
                           .text:01001fc4 7c 2e                            jl     0x01001ff4
                           .text:01001fc6 56                               push   %esi
                           .text:01001fc7 6a 01                            push   $0x1
                           .text:01001fc9 56                               push   %esi
                           .text:01001fca 53                               push   %ebx
                           .text:01001fcb 68 ec 43 00 01                   push   $0x10043ec
                           .text:01001fd0 ff d7                            call   *%edi
                           .text:01001fd2 3b c6                            cmp    %esi,%eax
                           .text:01001fd4 7c 1e                            jl     0x01001ff4
                           .text:01001fd6 56                               push   %esi
                           .text:01001fd7 56                               push   %esi
                           .text:01001fd8 56                               push   %esi
                           .text:01001fd9 56                               push   %esi
                           .text:01001fda 56                               push   %esi
                           .text:01001fdb 56                               push   %esi
                           .text:01001fdc 68 14 1f 00 01                   push   $0x1001f14
                           .text:01001fe1 6a ff                            push   $0xffffffff
                           .text:01001fe3 56                               push   %esi
                           .text:01001fe4 68 ff ff 1f 00                   push   $0x1fffff
                           .text:01001fe9 68 f0 43 00 01                   push   $0x10043f0
                           .text:01001fee ff 15 40 10 00 01                call   *0x1001040
                           .text:01001ff4 5f                               pop    %edi
                           .text:01001ff5 5e                               pop    %esi
                           .text:01001ff6 5b                               pop    %ebx
                           .text:01001ff7 c3                               ret    
                           .text:01001ff8 cc                               int3   
                           .text:01001ff9 cc                               int3   
                           .text:01001ffa cc                               int3   
                           .text:01001ffb cc                               int3   
                           .text:01001ffc cc                               int3   
                           .text:01001ffd 6a 00                            push   $0x0
                           .text:01001fff ff 35 ec 43 00 01                pushl  0x10043ec
                           .text:01002005 ff 15 48 10 00 01                call   *0x1001048
                           .text:0100200b c3                               ret    
                           .text:0100200c cc                               int3   
                           .text:0100200d cc                               int3   
                           .text:0100200e cc                               int3   
                           .text:0100200f cc                               int3   
                           .text:01002010 cc                               int3   
                           .text:01002011 8b ff                            mov    %edi,%edi
                           .text:01002013 55                               push   %ebp
                           .text:01002014 8b ec                            mov    %esp,%ebp
                           .text:01002016 51                               push   %ecx
                           .text:01002017 51                               push   %ecx
                           .text:01002018 83 65 f8 00                      andl   $0x0,-0x8(%ebp)
                           .text:0100201c 57                               push   %edi
                           .text:0100201d 33 c0                            xor    %eax,%eax
                           .text:0100201f 8d 7d fc                         lea    -0x4(%ebp),%edi
                           .text:01002022 ab                               stos   %eax,%es:(%edi)
                           .text:01002023 e8 d5 ff ff ff                   call   0x01001ffd
                           .text:01002028 6a 00                            push   $0x0
                           .text:0100202a ff 35 0c 44 00 01                pushl  0x100440c
                           .text:01002030 ff 15 48 10 00 01                call   *0x1001048
                           .text:01002036 5f                               pop    %edi
                           .text:01002037 85 c0                            test   %eax,%eax
                           .text:01002039 7c 23                            jl     0x0100205e
                           .text:0100203b 8d 45 f8                         lea    -0x8(%ebp),%eax
                           .text:0100203e 50                               push   %eax
                           .text:0100203f 6a 3c                            push   $0x3c
                           .text:01002041 e8 52 f3 ff ff                   call   0x01001398
                           .text:01002046 50                               push   %eax
                           .text:01002047 6a 00                            push   $0x0
                           .text:01002049 ff 35 f0 43 00 01                pushl  0x10043f0
                           .text:0100204f ff 15 4c 10 00 01                call   *0x100104c
                           .text:01002055 85 c0                            test   %eax,%eax
                           .text:01002057 7c 05                            jl     0x0100205e
                           .text:01002059 a1 00 40 00 01                   mov    0x1004000,%eax
                           .text:0100205e c9                               leave  
                           .text:0100205f c3                               ret    
                           .text:01002060 cc                               int3   
                           .text:01002061 cc                               int3   
                           .text:01002062 cc                               int3   
                           .text:01002063 cc                               int3   
                           .text:01002064 cc                               int3   
                           .text:01002065 8b ff                            mov    %edi,%edi
                           .text:01002067 55                               push   %ebp
                           .text:01002068 8b ec                            mov    %esp,%ebp
                           .text:0100206a 51                               push   %ecx
                           .text:0100206b 83 65 fc 00                      andl   $0x0,-0x4(%ebp)
                           .text:0100206f 53                               push   %ebx
                           .text:01002070 8b 5d 08                         mov    0x8(%ebp),%ebx
                           .text:01002073 56                               push   %esi
                           .text:01002074 8b 35 04 40 00 01                mov    0x1004004,%esi
                           .text:0100207a 57                               push   %edi
                           .text:0100207b bf 04 40 00 01                   mov    $0x1004004,%edi
                           .text:01002080 eb 13                            jmp    0x01002095
                           .text:01002082 6a 01                            push   $0x1
                           .text:01002084 53                               push   %ebx
                           .text:01002085 8d 46 08                         lea    0x8(%esi),%eax
                           .text:01002088 50                               push   %eax
                           .text:01002089 ff 15 54 10 00 01                call   *0x1001054
                           .text:0100208f 84 c0                            test   %al,%al
                           .text:01002091 75 2b                            jne    0x010020be
                           .text:01002093 8b 36                            mov    (%esi),%esi
                           .text:01002095 3b f7                            cmp    %edi,%esi
                           .text:01002097 75 e9                            jne    0x01002082
                           .text:01002099 64 a1 18 00 00 00                mov    %fs:0x18,%eax
                           .text:0100209f 8b 40 30                         mov    0x30(%eax),%eax
                           .text:010020a2 6a 10                            push   $0x10
                           .text:010020a4 6a 00                            push   $0x0
                           .text:010020a6 ff 70 18                         pushl  0x18(%eax)
                           .text:010020a9 ff 15 0c 10 00 01                call   *0x100100c
                           .text:010020af 8b f0                            mov    %eax,%esi
                           .text:010020b1 85 f6                            test   %esi,%esi
                           .text:010020b3 75 12                            jne    0x010020c7
                           .text:010020b5 c7 45 fc 17 00 00 c0             movl   $0xc0000017,-0x4(%ebp)
                           .text:010020bc eb 69                            jmp    0x01002127
                           .text:010020be c7 45 fc 00 00 00 40             movl   $0x40000000,-0x4(%ebp)
                           .text:010020c5 eb 60                            jmp    0x01002127
                           .text:010020c7 33 c0                            xor    %eax,%eax
                           .text:010020c9 8b fe                            mov    %esi,%edi
                           .text:010020cb ab                               stos   %eax,%es:(%edi)
                           .text:010020cc ab                               stos   %eax,%es:(%edi)
                           .text:010020cd ab                               stos   %eax,%es:(%edi)
                           .text:010020ce ab                               stos   %eax,%es:(%edi)
                           .text:010020cf 89 76 04                         mov    %esi,0x4(%esi)
                           .text:010020d2 89 36                            mov    %esi,(%esi)
                           .text:010020d4 66 8b 03                         mov    (%ebx),%ax
                           .text:010020d7 66 89 46 08                      mov    %ax,0x8(%esi)
                           .text:010020db 66 8b 03                         mov    (%ebx),%ax
                           .text:010020de 66 89 46 0a                      mov    %ax,0xa(%esi)
                           .text:010020e2 64 a1 18 00 00 00                mov    %fs:0x18,%eax
                           .text:010020e8 0f b7 0b                         movzwl (%ebx),%ecx
                           .text:010020eb 8b 40 30                         mov    0x30(%eax),%eax
                           .text:010020ee 51                               push   %ecx
                           .text:010020ef 6a 00                            push   $0x0
                           .text:010020f1 ff 70 18                         pushl  0x18(%eax)
                           .text:010020f4 ff 15 0c 10 00 01                call   *0x100100c
                           .text:010020fa 89 46 0c                         mov    %eax,0xc(%esi)
                           .text:010020fd 85 c0                            test   %eax,%eax
                           .text:010020ff 74 b4                            je     0x010020b5
                           .text:01002101 0f b7 0b                         movzwl (%ebx),%ecx
                           .text:01002104 51                               push   %ecx
                           .text:01002105 ff 73 04                         pushl  0x4(%ebx)
                           .text:01002108 50                               push   %eax
                           .text:01002109 e8 5c 0f 00 00                   call   0x0100306a
                           .text:0100210e a1 08 40 00 01                   mov    0x1004008,%eax
                           .text:01002113 c7 06 04 40 00 01                movl   $0x1004004,(%esi)
                           .text:01002119 89 46 04                         mov    %eax,0x4(%esi)
                           .text:0100211c 89 30                            mov    %esi,(%eax)
                           .text:0100211e 83 c4 0c                         add    $0xc,%esp
                           .text:01002121 89 35 08 40 00 01                mov    %esi,0x1004008
                           .text:01002127 8b 45 fc                         mov    -0x4(%ebp),%eax
                           .text:0100212a 5f                               pop    %edi
                           .text:0100212b 5e                               pop    %esi
                           .text:0100212c 5b                               pop    %ebx
                           .text:0100212d c9                               leave  
                           .text:0100212e c2 04 00                         ret    $0x4
                           .text:01002131 cc                               int3   
                           .text:01002132 cc                               int3   
                           .text:01002133 cc                               int3   
                           .text:01002134 cc                               int3   
                           .text:01002135 cc                               int3   
                           .text:01002136 8b ff                            mov    %edi,%edi
                           .text:01002138 55                               push   %ebp
                           .text:01002139 8b ec                            mov    %esp,%ebp
                           .text:0100213b 53                               push   %ebx
                           .text:0100213c 8b 5d 08                         mov    0x8(%ebp),%ebx
                           .text:0100213f 56                               push   %esi
                           .text:01002140 57                               push   %edi
                           .text:01002141 85 db                            test   %ebx,%ebx
                           .text:01002143 74 4b                            je     0x01002190
                           .text:01002145 8b 7d 10                         mov    0x10(%ebp),%edi
                           .text:01002148 85 ff                            test   %edi,%edi
                           .text:0100214a 74 44                            je     0x01002190
                           .text:0100214c 8b 75 0c                         mov    0xc(%ebp),%esi
                           .text:0100214f 8b 0b                            mov    (%ebx),%ecx
                           .text:01002151 3b 37                            cmp    (%edi),%esi
                           .text:01002153 77 04                            ja     0x01002159
                           .text:01002155 33 c0                            xor    %eax,%eax
                           .text:01002157 eb 3c                            jmp    0x01002195
                           .text:01002159 64 a1 18 00 00 00                mov    %fs:0x18,%eax
                           .text:0100215f 8b 40 30                         mov    0x30(%eax),%eax
                           .text:01002162 56                               push   %esi
                           .text:01002163 85 c9                            test   %ecx,%ecx
                           .text:01002165 75 0c                            jne    0x01002173
                           .text:01002167 51                               push   %ecx
                           .text:01002168 ff 70 18                         pushl  0x18(%eax)
                           .text:0100216b ff 15 0c 10 00 01                call   *0x100100c
                           .text:01002171 eb 0c                            jmp    0x0100217f
                           .text:01002173 51                               push   %ecx
                           .text:01002174 6a 00                            push   $0x0
                           .text:01002176 ff 70 18                         pushl  0x18(%eax)
                           .text:01002179 ff 15 08 10 00 01                call   *0x1001008
                           .text:0100217f 85 c0                            test   %eax,%eax
                           .text:01002181 75 07                            jne    0x0100218a
                           .text:01002183 b8 17 00 00 c0                   mov    $0xc0000017,%eax
                           .text:01002188 eb 0b                            jmp    0x01002195
                           .text:0100218a 89 03                            mov    %eax,(%ebx)
                           .text:0100218c 89 37                            mov    %esi,(%edi)
                           .text:0100218e eb c5                            jmp    0x01002155
                           .text:01002190 b8 0d 00 00 c0                   mov    $0xc000000d,%eax
                           .text:01002195 5f                               pop    %edi
                           .text:01002196 5e                               pop    %esi
                           .text:01002197 5b                               pop    %ebx
                           .text:01002198 5d                               pop    %ebp
                           .text:01002199 c2 0c 00                         ret    $0xc
                           .text:0100219c cc                               int3   
                           .text:0100219d cc                               int3   
                           .text:0100219e cc                               int3   
                           .text:0100219f cc                               int3   
                           .text:010021a0 cc                               int3   
                           .text:010021a1 8b ff                            mov    %edi,%edi
                           .text:010021a3 55                               push   %ebp
                           .text:010021a4 8b ec                            mov    %esp,%ebp
                           .text:010021a6 8b 4d 08                         mov    0x8(%ebp),%ecx
                           .text:010021a9 56                               push   %esi
                           .text:010021aa 57                               push   %edi
                           .text:010021ab 85 c9                            test   %ecx,%ecx
                           .text:010021ad 74 58                            je     0x01002207
                           .text:010021af 8b 55 0c                         mov    0xc(%ebp),%edx
                           .text:010021b2 85 d2                            test   %edx,%edx
                           .text:010021b4 74 51                            je     0x01002207
                           .text:010021b6 83 7d 10 00                      cmpl   $0x0,0x10(%ebp)
                           .text:010021ba 74 4b                            je     0x01002207
                           .text:010021bc 8b 7d 14                         mov    0x14(%ebp),%edi
                           .text:010021bf 85 ff                            test   %edi,%edi
                           .text:010021c1 74 44                            je     0x01002207
                           .text:010021c3 0f b7 02                         movzwl (%edx),%eax
                           .text:010021c6 8d 74 08 02                      lea    0x2(%eax,%ecx,1),%esi
                           .text:010021ca 3b f1                            cmp    %ecx,%esi
                           .text:010021cc 73 07                            jae    0x010021d5
                           .text:010021ce b8 95 00 00 c0                   mov    $0xc0000095,%eax
                           .text:010021d3 eb 37                            jmp    0x0100220c
                           .text:010021d5 3b 75 10                         cmp    0x10(%ebp),%esi
                           .text:010021d8 76 07                            jbe    0x010021e1
                           .text:010021da b8 05 00 00 80                   mov    $0x80000005,%eax
                           .text:010021df eb 2b                            jmp    0x0100220c
                           .text:010021e1 50                               push   %eax
                           .text:010021e2 ff 72 04                         pushl  0x4(%edx)
                           .text:010021e5 8d 34 08                         lea    (%eax,%ecx,1),%esi
                           .text:010021e8 51                               push   %ecx
                           .text:010021e9 e8 7c 0e 00 00                   call   0x0100306a
                           .text:010021ee 6a 02                            push   $0x2
                           .text:010021f0 68 e8 11 00 01                   push   $0x10011e8
                           .text:010021f5 56                               push   %esi
                           .text:010021f6 e8 6f 0e 00 00                   call   0x0100306a
                           .text:010021fb 83 c6 02                         add    $0x2,%esi
                           .text:010021fe 83 c4 18                         add    $0x18,%esp
                           .text:01002201 89 37                            mov    %esi,(%edi)
                           .text:01002203 33 c0                            xor    %eax,%eax
                           .text:01002205 eb 05                            jmp    0x0100220c
                           .text:01002207 b8 0d 00 00 c0                   mov    $0xc000000d,%eax
                           .text:0100220c 5f                               pop    %edi
                           .text:0100220d 5e                               pop    %esi
                           .text:0100220e 5d                               pop    %ebp
                           .text:0100220f c2 10 00                         ret    $0x10
                           .text:01002212 cc                               int3   
                           .text:01002213 cc                               int3   
                           .text:01002214 cc                               int3   
                           .text:01002215 cc                               int3   
                           .text:01002216 cc                               int3   
                           .text:01002217 8b ff                            mov    %edi,%edi
                           .text:01002219 55                               push   %ebp
                           .text:0100221a 8b ec                            mov    %esp,%ebp
                           .text:0100221c 83 ec 24                         sub    $0x24,%esp
                           .text:0100221f 53                               push   %ebx
                           .text:01002220 33 db                            xor    %ebx,%ebx
                           .text:01002222 56                               push   %esi
                           .text:01002223 57                               push   %edi
                           .text:01002224 33 c0                            xor    %eax,%eax
                           .text:01002226 8d 7d e8                         lea    -0x18(%ebp),%edi
                           .text:01002229 89 5d e4                         mov    %ebx,-0x1c(%ebp)
                           .text:0100222c ab                               stos   %eax,%es:(%edi)
                           .text:0100222d 33 f6                            xor    %esi,%esi
                           .text:0100222f 8d 7d e0                         lea    -0x20(%ebp),%edi
                           .text:01002232 89 5d dc                         mov    %ebx,-0x24(%ebp)
                           .text:01002235 ab                               stos   %eax,%es:(%edi)
                           .text:01002236 89 5d f8                         mov    %ebx,-0x8(%ebp)
                           .text:01002239 89 5d fc                         mov    %ebx,-0x4(%ebp)
                           .text:0100223c 89 5d f0                         mov    %ebx,-0x10(%ebp)
                           .text:0100223f 39 5d 08                         cmp    %ebx,0x8(%ebp)
                           .text:01002242 0f 84 6e 01 00 00                je     0x010023b6
                           .text:01002248 8b 4d 0c                         mov    0xc(%ebp),%ecx
                           .text:0100224b 3b cb                            cmp    %ebx,%ecx
                           .text:0100224d 0f 84 63 01 00 00                je     0x010023b6
                           .text:01002253 8b 3d 04 40 00 01                mov    0x1004004,%edi
                           .text:01002259 b8 04 40 00 01                   mov    $0x1004004,%eax
                           .text:0100225e 3b f8                            cmp    %eax,%edi
                           .text:01002260 75 07                            jne    0x01002269
                           .text:01002262 88 19                            mov    %bl,(%ecx)
                           .text:01002264 e9 90 01 00 00                   jmp    0x010023f9
                           .text:01002269 83 05 b0 40 00 01 fe             addl   $0xfffffffe,0x10040b0
                           .text:01002270 83 15 b4 40 00 01 ff             adcl   $0xffffffff,0x10040b4
                           .text:01002277 3b f8                            cmp    %eax,%edi
                           .text:01002279 0f 84 ee 00 00 00                je     0x0100236d
                           .text:0100227f 0f b7 47 08                      movzwl 0x8(%edi),%eax
                           .text:01002283 83 c0 40                         add    $0x40,%eax
                           .text:01002286 8d 4d f0                         lea    -0x10(%ebp),%ecx
                           .text:01002289 51                               push   %ecx
                           .text:0100228a 50                               push   %eax
                           .text:0100228b 89 45 ec                         mov    %eax,-0x14(%ebp)
                           .text:0100228e 8d 45 f8                         lea    -0x8(%ebp),%eax
                           .text:01002291 50                               push   %eax
                           .text:01002292 e8 9f fe ff ff                   call   0x01002136
                           .text:01002297 8b f0                            mov    %eax,%esi
                           .text:01002299 3b f3                            cmp    %ebx,%esi
                           .text:0100229b 0f 8c 1a 01 00 00                jl     0x010023bb
                           .text:010022a1 8b 45 f8                         mov    -0x8(%ebp),%eax
                           .text:010022a4 8b 4d f0                         mov    -0x10(%ebp),%ecx
                           .text:010022a7 8d 55 fc                         lea    -0x4(%ebp),%edx
                           .text:010022aa 52                               push   %edx
                           .text:010022ab 03 c8                            add    %eax,%ecx
                           .text:010022ad 51                               push   %ecx
                           .text:010022ae 68 d0 11 00 01                   push   $0x10011d0
                           .text:010022b3 50                               push   %eax
                           .text:010022b4 89 4d f4                         mov    %ecx,-0xc(%ebp)
                           .text:010022b7 e8 e5 fe ff ff                   call   0x010021a1
                           .text:010022bc 8b f0                            mov    %eax,%esi
                           .text:010022be 3b f3                            cmp    %ebx,%esi
                           .text:010022c0 0f 8c f5 00 00 00                jl     0x010023bb
                           .text:010022c6 8d 45 fc                         lea    -0x4(%ebp),%eax
                           .text:010022c9 50                               push   %eax
                           .text:010022ca ff 75 f4                         pushl  -0xc(%ebp)
                           .text:010022cd 68 e0 11 00 01                   push   $0x10011e0
                           .text:010022d2 ff 75 fc                         pushl  -0x4(%ebp)
                           .text:010022d5 e8 c7 fe ff ff                   call   0x010021a1
                           .text:010022da 8b f0                            mov    %eax,%esi
                           .text:010022dc 3b f3                            cmp    %ebx,%esi
                           .text:010022de 0f 8c d7 00 00 00                jl     0x010023bb
                           .text:010022e4 8d 45 fc                         lea    -0x4(%ebp),%eax
                           .text:010022e7 50                               push   %eax
                           .text:010022e8 ff 75 f4                         pushl  -0xc(%ebp)
                           .text:010022eb 8d 47 08                         lea    0x8(%edi),%eax
                           .text:010022ee 50                               push   %eax
                           .text:010022ef ff 75 fc                         pushl  -0x4(%ebp)
                           .text:010022f2 e8 aa fe ff ff                   call   0x010021a1
                           .text:010022f7 8b f0                            mov    %eax,%esi
                           .text:010022f9 3b f3                            cmp    %ebx,%esi
                           .text:010022fb 0f 8c ba 00 00 00                jl     0x010023bb
                           .text:01002301 8d 45 fc                         lea    -0x4(%ebp),%eax
                           .text:01002304 50                               push   %eax
                           .text:01002305 ff 75 f4                         pushl  -0xc(%ebp)
                           .text:01002308 68 b8 11 00 01                   push   $0x10011b8
                           .text:0100230d ff 75 fc                         pushl  -0x4(%ebp)
                           .text:01002310 e8 8c fe ff ff                   call   0x010021a1
                           .text:01002315 8b f0                            mov    %eax,%esi
                           .text:01002317 3b f3                            cmp    %ebx,%esi
                           .text:01002319 0f 8c 9c 00 00 00                jl     0x010023bb
                           .text:0100231f a1 b0 40 00 01                   mov    0x10040b0,%eax
                           .text:01002324 53                               push   %ebx
                           .text:01002325 89 45 e4                         mov    %eax,-0x1c(%ebp)
                           .text:01002328 a1 b4 40 00 01                   mov    0x10040b4,%eax
                           .text:0100232d 89 45 e8                         mov    %eax,-0x18(%ebp)
                           .text:01002330 8d 45 e4                         lea    -0x1c(%ebp),%eax
                           .text:01002333 50                               push   %eax
                           .text:01002334 ff 75 ec                         pushl  -0x14(%ebp)
                           .text:01002337 8d 45 dc                         lea    -0x24(%ebp),%eax
                           .text:0100233a ff 75 f8                         pushl  -0x8(%ebp)
                           .text:0100233d 50                               push   %eax
                           .text:0100233e 53                               push   %ebx
                           .text:0100233f 53                               push   %ebx
                           .text:01002340 53                               push   %ebx
                           .text:01002341 ff 75 08                         pushl  0x8(%ebp)
                           .text:01002344 ff 15 58 10 00 01                call   *0x1001058
                           .text:0100234a 8b f0                            mov    %eax,%esi
                           .text:0100234c 3b f3                            cmp    %ebx,%esi
                           .text:0100234e 7c 6b                            jl     0x010023bb
                           .text:01002350 8b 45 e0                         mov    -0x20(%ebp),%eax
                           .text:01002353 01 05 b0 40 00 01                add    %eax,0x10040b0
                           .text:01002359 8b 3f                            mov    (%edi),%edi
                           .text:0100235b 11 1d b4 40 00 01                adc    %ebx,0x10040b4
                           .text:01002361 81 ff 04 40 00 01                cmp    $0x1004004,%edi
                           .text:01002367 0f 85 12 ff ff ff                jne    0x0100227f
                           .text:0100236d a1 b0 40 00 01                   mov    0x10040b0,%eax
                           .text:01002372 53                               push   %ebx
                           .text:01002373 89 45 e4                         mov    %eax,-0x1c(%ebp)
                           .text:01002376 a1 b4 40 00 01                   mov    0x10040b4,%eax
                           .text:0100237b 89 45 e8                         mov    %eax,-0x18(%ebp)
                           .text:0100237e 8d 45 e4                         lea    -0x1c(%ebp),%eax
                           .text:01002381 50                               push   %eax
                           .text:01002382 6a 02                            push   $0x2
                           .text:01002384 68 e8 11 00 01                   push   $0x10011e8
                           .text:01002389 8d 45 dc                         lea    -0x24(%ebp),%eax
                           .text:0100238c 50                               push   %eax
                           .text:0100238d 53                               push   %ebx
                           .text:0100238e 53                               push   %ebx
                           .text:0100238f 53                               push   %ebx
                           .text:01002390 ff 75 08                         pushl  0x8(%ebp)
                           .text:01002393 ff 15 58 10 00 01                call   *0x1001058
                           .text:01002399 8b f0                            mov    %eax,%esi
                           .text:0100239b 3b f3                            cmp    %ebx,%esi
                           .text:0100239d 7c 1c                            jl     0x010023bb
                           .text:0100239f 8b 45 e0                         mov    -0x20(%ebp),%eax
                           .text:010023a2 01 05 b0 40 00 01                add    %eax,0x10040b0
                           .text:010023a8 8b 45 0c                         mov    0xc(%ebp),%eax
                           .text:010023ab c6 00 01                         movb   $0x1,(%eax)
                           .text:010023ae 11 1d b4 40 00 01                adc    %ebx,0x10040b4
                           .text:010023b4 eb 05                            jmp    0x010023bb
                           .text:010023b6 be 0d 00 00 c0                   mov    $0xc000000d,%esi
                           .text:010023bb 39 5d f8                         cmp    %ebx,-0x8(%ebp)
                           .text:010023be 74 39                            je     0x010023f9
                           .text:010023c0 ff 75 f8                         pushl  -0x8(%ebp)
                           .text:010023c3 eb 21                            jmp    0x010023e6
                           .text:010023c5 8b 07                            mov    (%edi),%eax
                           .text:010023c7 8b 4f 04                         mov    0x4(%edi),%ecx
                           .text:010023ca 89 01                            mov    %eax,(%ecx)
                           .text:010023cc 89 48 04                         mov    %ecx,0x4(%eax)
                           .text:010023cf ff 77 0c                         pushl  0xc(%edi)
                           .text:010023d2 64 a1 18 00 00 00                mov    %fs:0x18,%eax
                           .text:010023d8 8b 40 30                         mov    0x30(%eax),%eax
                           .text:010023db 53                               push   %ebx
                           .text:010023dc ff 70 18                         pushl  0x18(%eax)
                           .text:010023df ff 15 2c 10 00 01                call   *0x100102c
                           .text:010023e5 57                               push   %edi
                           .text:010023e6 64 a1 18 00 00 00                mov    %fs:0x18,%eax
                           .text:010023ec 8b 40 30                         mov    0x30(%eax),%eax
                           .text:010023ef 53                               push   %ebx
                           .text:010023f0 ff 70 18                         pushl  0x18(%eax)
                           .text:010023f3 ff 15 2c 10 00 01                call   *0x100102c
                           .text:010023f9 8b 3d 04 40 00 01                mov    0x1004004,%edi
                           .text:010023ff 81 ff 04 40 00 01                cmp    $0x1004004,%edi
                           .text:01002405 75 be                            jne    0x010023c5
                           .text:01002407 5f                               pop    %edi
                           .text:01002408 8b c6                            mov    %esi,%eax
                           .text:0100240a 5e                               pop    %esi
                           .text:0100240b 5b                               pop    %ebx
                           .text:0100240c c9                               leave  
                           .text:0100240d c2 08 00                         ret    $0x8
                           .text:01002410 cc                               int3   
                           .text:01002411 cc                               int3   
                           .text:01002412 cc                               int3   
                           .text:01002413 cc                               int3   
                           .text:01002414 cc                               int3   
                           .text:01002415 8b ff                            mov    %edi,%edi
                           .text:01002417 55                               push   %ebp
                           .text:01002418 8b ec                            mov    %esp,%ebp
                           .text:0100241a 83 7d 0c 04                      cmpl   $0x4,0xc(%ebp)
                           .text:0100241e 75 10                            jne    0x01002430
                           .text:01002420 8b 45 10                         mov    0x10(%ebp),%eax
                           .text:01002423 83 38 00                         cmpl   $0x0,(%eax)
                           .text:01002426 74 08                            je     0x01002430
                           .text:01002428 c6 05 f4 43 00 01 01             movb   $0x1,0x10043f4
                           .text:0100242f cc                               int3   
                           .text:01002430 33 c0                            xor    %eax,%eax
                           .text:01002432 5d                               pop    %ebp
                           .text:01002433 c2 18 00                         ret    $0x18
                           .text:01002436 cc                               int3   
                           .text:01002437 cc                               int3   
                           .text:01002438 cc                               int3   
                           .text:01002439 cc                               int3   
                           .text:0100243a cc                               int3   
                           .text:0100243b 8b ff                            mov    %edi,%edi
                           .text:0100243d 55                               push   %ebp
                           .text:0100243e 8b ec                            mov    %esp,%ebp
                           .text:01002440 83 7d 0c 04                      cmpl   $0x4,0xc(%ebp)
                           .text:01002444 75 0a                            jne    0x01002450
                           .text:01002446 8b 45 10                         mov    0x10(%ebp),%eax
                           .text:01002449 8b 00                            mov    (%eax),%eax
                           .text:0100244b a3 c4 40 00 01                   mov    %eax,0x10040c4
                           .text:01002450 33 c0                            xor    %eax,%eax
                           .text:01002452 5d                               pop    %ebp
                           .text:01002453 c2 18 00                         ret    $0x18
                           .text:01002456 cc                               int3   
                           .text:01002457 cc                               int3   
                           .text:01002458 cc                               int3   
                           .text:01002459 cc                               int3   
                           .text:0100245a cc                               int3   
                           .text:0100245b 8b ff                            mov    %edi,%edi
                           .text:0100245d 55                               push   %ebp
                           .text:0100245e 8b ec                            mov    %esp,%ebp
                           .text:01002460 83 ec 10                         sub    $0x10,%esp
                           .text:01002463 56                               push   %esi
                           .text:01002464 57                               push   %edi
                           .text:01002465 33 c0                            xor    %eax,%eax
                           .text:01002467 66 89 45 f0                      mov    %ax,-0x10(%ebp)
                           .text:0100246b 8d 7d f2                         lea    -0xe(%ebp),%edi
                           .text:0100246e ab                               stos   %eax,%es:(%edi)
                           .text:0100246f 66 ab                            stos   %ax,%es:(%edi)
                           .text:01002471 6a 00                            push   $0x0
                           .text:01002473 8d 45 f0                         lea    -0x10(%ebp),%eax
                           .text:01002476 50                               push   %eax
                           .text:01002477 ff 15 5c 10 00 01                call   *0x100105c
                           .text:0100247d ff 35 04 44 00 01                pushl  0x1004404
                           .text:01002483 8d 45 f0                         lea    -0x10(%ebp),%eax
                           .text:01002486 50                               push   %eax
                           .text:01002487 e8 22 f0 ff ff                   call   0x010014ae
                           .text:0100248c 89 45 fc                         mov    %eax,-0x4(%ebp)
                           .text:0100248f 85 c0                            test   %eax,%eax
                           .text:01002491 0f 8c 39 01 00 00                jl     0x010025d0
                           .text:01002497 68 ec 11 00 01                   push   $0x10011ec
                           .text:0100249c 8d 45 f0                         lea    -0x10(%ebp),%eax
                           .text:0100249f 50                               push   %eax
                           .text:010024a0 e8 09 f0 ff ff                   call   0x010014ae
                           .text:010024a5 89 45 fc                         mov    %eax,-0x4(%ebp)
                           .text:010024a8 85 c0                            test   %eax,%eax
                           .text:010024aa 0f 8c 20 01 00 00                jl     0x010025d0
                           .text:010024b0 ff 35 e4 43 00 01                pushl  0x10043e4
                           .text:010024b6 8d 45 f0                         lea    -0x10(%ebp),%eax
                           .text:010024b9 50                               push   %eax
                           .text:010024ba e8 ef ef ff ff                   call   0x010014ae
                           .text:010024bf 89 45 fc                         mov    %eax,-0x4(%ebp)
                           .text:010024c2 85 c0                            test   %eax,%eax
                           .text:010024c4 0f 8c 06 01 00 00                jl     0x010025d0
                           .text:010024ca 6a 00                            push   $0x0
                           .text:010024cc 8d 45 f0                         lea    -0x10(%ebp),%eax
                           .text:010024cf 50                               push   %eax
                           .text:010024d0 e8 9d ef ff ff                   call   0x01001472
                           .text:010024d5 89 45 fc                         mov    %eax,-0x4(%ebp)
                           .text:010024d8 85 c0                            test   %eax,%eax
                           .text:010024da 0f 8c f0 00 00 00                jl     0x010025d0
                           .text:010024e0 8b 4d 14                         mov    0x14(%ebp),%ecx
                           .text:010024e3 8b 45 10                         mov    0x10(%ebp),%eax
                           .text:010024e6 d1 e9                            shr    %ecx
                           .text:010024e8 8d 14 48                         lea    (%eax,%ecx,2),%edx
                           .text:010024eb 33 c9                            xor    %ecx,%ecx
                           .text:010024ed 41                               inc    %ecx
                           .text:010024ee 53                               push   %ebx
                           .text:010024ef 89 45 10                         mov    %eax,0x10(%ebp)
                           .text:010024f2 89 55 f8                         mov    %edx,-0x8(%ebp)
                           .text:010024f5 39 4d 0c                         cmp    %ecx,0xc(%ebp)
                           .text:010024f8 0f 84 99 00 00 00                je     0x01002597
                           .text:010024fe 83 7d 0c 02                      cmpl   $0x2,0xc(%ebp)
                           .text:01002502 0f 84 8f 00 00 00                je     0x01002597
                           .text:01002508 83 7d 0c 07                      cmpl   $0x7,0xc(%ebp)
                           .text:0100250c 0f 85 bd 00 00 00                jne    0x010025cf
                           .text:01002512 88 0d 00 44 00 01                mov    %cl,0x1004400
                           .text:01002518 bb f8 43 00 01                   mov    $0x10043f8,%ebx
                           .text:0100251d 3b c2                            cmp    %edx,%eax
                           .text:0100251f 73 61                            jae    0x01002582
                           .text:01002521 8b 7d 10                         mov    0x10(%ebp),%edi
                           .text:01002524 8b c7                            mov    %edi,%eax
                           .text:01002526 8d 50 02                         lea    0x2(%eax),%edx
                           .text:01002529 66 8b 08                         mov    (%eax),%cx
                           .text:0100252c 40                               inc    %eax
                           .text:0100252d 40                               inc    %eax
                           .text:0100252e 66 85 c9                         test   %cx,%cx
                           .text:01002531 75 f6                            jne    0x01002529
                           .text:01002533 2b c2                            sub    %edx,%eax
                           .text:01002535 d1 f8                            sar    %eax
                           .text:01002537 8b c8                            mov    %eax,%ecx
                           .text:01002539 89 4d 0c                         mov    %ecx,0xc(%ebp)
                           .text:0100253c 74 44                            je     0x01002582
                           .text:0100253e 0f b7 45 f0                      movzwl -0x10(%ebp),%eax
                           .text:01002542 d1 e8                            shr    %eax
                           .text:01002544 3b c8                            cmp    %eax,%ecx
                           .text:01002546 75 09                            jne    0x01002551
                           .text:01002548 8b 75 f4                         mov    -0xc(%ebp),%esi
                           .text:0100254b 33 c0                            xor    %eax,%eax
                           .text:0100254d f3 a6                            repz cmpsb %es:(%edi),%ds:(%esi)
                           .text:0100254f 74 1f                            je     0x01002570
                           .text:01002551 ff 75 10                         pushl  0x10(%ebp)
                           .text:01002554 53                               push   %ebx
                           .text:01002555 e8 54 ef ff ff                   call   0x010014ae
                           .text:0100255a 89 45 fc                         mov    %eax,-0x4(%ebp)
                           .text:0100255d 85 c0                            test   %eax,%eax
                           .text:0100255f 7c 6e                            jl     0x010025cf
                           .text:01002561 6a 00                            push   $0x0
                           .text:01002563 53                               push   %ebx
                           .text:01002564 e8 09 ef ff ff                   call   0x01001472
                           .text:01002569 89 45 fc                         mov    %eax,-0x4(%ebp)
                           .text:0100256c 85 c0                            test   %eax,%eax
                           .text:0100256e 7c 5f                            jl     0x010025cf
                           .text:01002570 8b 45 10                         mov    0x10(%ebp),%eax
                           .text:01002573 8b 4d 0c                         mov    0xc(%ebp),%ecx
                           .text:01002576 8d 44 48 02                      lea    0x2(%eax,%ecx,2),%eax
                           .text:0100257a 89 45 10                         mov    %eax,0x10(%ebp)
                           .text:0100257d 3b 45 f8                         cmp    -0x8(%ebp),%eax
                           .text:01002580 72 9f                            jb     0x01002521
                           .text:01002582 6a 00                            push   $0x0
                           .text:01002584 53                               push   %ebx
                           .text:01002585 e8 e8 ee ff ff                   call   0x01001472
                           .text:0100258a 89 45 fc                         mov    %eax,-0x4(%ebp)
                           .text:0100258d 85 c0                            test   %eax,%eax
                           .text:0100258f 7c 3e                            jl     0x010025cf
                           .text:01002591 83 65 fc 00                      andl   $0x0,-0x4(%ebp)
                           .text:01002595 eb 38                            jmp    0x010025cf
                           .text:01002597 8b 75 f4                         mov    -0xc(%ebp),%esi
                           .text:0100259a 89 0d 08 44 00 01                mov    %ecx,0x1004408
                           .text:010025a0 88 0d 00 44 00 01                mov    %cl,0x1004400
                           .text:010025a6 8b 4d 14                         mov    0x14(%ebp),%ecx
                           .text:010025a9 8b f8                            mov    %eax,%edi
                           .text:010025ab 33 d2                            xor    %edx,%edx
                           .text:010025ad f3 a6                            repz cmpsb %es:(%edi),%ds:(%esi)
                           .text:010025af 74 1e                            je     0x010025cf
                           .text:010025b1 50                               push   %eax
                           .text:010025b2 bb f8 43 00 01                   mov    $0x10043f8,%ebx
                           .text:010025b7 53                               push   %ebx
                           .text:010025b8 e8 f1 ee ff ff                   call   0x010014ae
                           .text:010025bd 89 45 fc                         mov    %eax,-0x4(%ebp)
                           .text:010025c0 85 c0                            test   %eax,%eax
                           .text:010025c2 7c 0b                            jl     0x010025cf
                           .text:010025c4 6a 00                            push   $0x0
                           .text:010025c6 53                               push   %ebx
                           .text:010025c7 e8 a6 ee ff ff                   call   0x01001472
                           .text:010025cc 89 45 fc                         mov    %eax,-0x4(%ebp)
                           .text:010025cf 5b                               pop    %ebx
                           .text:010025d0 33 f6                            xor    %esi,%esi
                           .text:010025d2 39 75 f4                         cmp    %esi,-0xc(%ebp)
                           .text:010025d5 74 21                            je     0x010025f8
                           .text:010025d7 ff 75 f4                         pushl  -0xc(%ebp)
                           .text:010025da 64 a1 18 00 00 00                mov    %fs:0x18,%eax
                           .text:010025e0 8b 40 30                         mov    0x30(%eax),%eax
                           .text:010025e3 56                               push   %esi
                           .text:010025e4 ff 70 18                         pushl  0x18(%eax)
                           .text:010025e7 ff 15 2c 10 00 01                call   *0x100102c
                           .text:010025ed 56                               push   %esi
                           .text:010025ee 8d 45 f0                         lea    -0x10(%ebp),%eax
                           .text:010025f1 50                               push   %eax
                           .text:010025f2 ff 15 5c 10 00 01                call   *0x100105c
                           .text:010025f8 8b 45 fc                         mov    -0x4(%ebp),%eax
                           .text:010025fb 5f                               pop    %edi
                           .text:010025fc 5e                               pop    %esi
                           .text:010025fd c9                               leave  
                           .text:010025fe c2 18 00                         ret    $0x18
                           .text:01002601 cc                               int3   
                           .text:01002602 cc                               int3   
                           .text:01002603 cc                               int3   
                           .text:01002604 cc                               int3   
                           .text:01002605 cc                               int3   
                           .text:01002606 8b ff                            mov    %edi,%edi
                           .text:01002608 55                               push   %ebp
                           .text:01002609 8b ec                            mov    %esp,%ebp
                           .text:0100260b 83 ec 0c                         sub    $0xc,%esp
                           .text:0100260e 53                               push   %ebx
                           .text:0100260f 8b 5d 0c                         mov    0xc(%ebp),%ebx
                           .text:01002612 56                               push   %esi
                           .text:01002613 ff 75 18                         pushl  0x18(%ebp)
                           .text:01002616 8b 75 08                         mov    0x8(%ebp),%esi
                           .text:01002619 68 ff ff ff 7f                   push   $0x7fffffff
                           .text:0100261e d1 eb                            shr    %ebx
                           .text:01002620 56                               push   %esi
                           .text:01002621 8b cb                            mov    %ebx,%ecx
                           .text:01002623 e8 a7 ec ff ff                   call   0x010012cf
                           .text:01002628 33 c9                            xor    %ecx,%ecx
                           .text:0100262a 3b c1                            cmp    %ecx,%eax
                           .text:0100262c 89 45 fc                         mov    %eax,-0x4(%ebp)
                           .text:0100262f 0f 8c 90 00 00 00                jl     0x010026c5
                           .text:01002635 f7 45 18 00 01 00 00             testl  $0x100,0x18(%ebp)
                           .text:0100263c 57                               push   %edi
                           .text:0100263d 8b fe                            mov    %esi,%edi
                           .text:0100263f 89 7d f8                         mov    %edi,-0x8(%ebp)
                           .text:01002642 89 5d f4                         mov    %ebx,-0xc(%ebp)
                           .text:01002645 74 0c                            je     0x01002653
                           .text:01002647 39 4d 1c                         cmp    %ecx,0x1c(%ebp)
                           .text:0100264a 75 07                            jne    0x01002653
                           .text:0100264c c7 45 1c e8 11 00 01             movl   $0x10011e8,0x1c(%ebp)
                           .text:01002653 f7 45 18 00 e0 ff ff             testl  $0xffffe000,0x18(%ebp)
                           .text:0100265a 89 4d fc                         mov    %ecx,-0x4(%ebp)
                           .text:0100265d 74 6d                            je     0x010026cc
                           .text:0100265f c7 45 fc 0d 00 00 c0             movl   $0xc000000d,-0x4(%ebp)
                           .text:01002666 3b d9                            cmp    %ecx,%ebx
                           .text:01002668 74 05                            je     0x0100266f
                           .text:0100266a 33 c0                            xor    %eax,%eax
                           .text:0100266c 66 89 06                         mov    %ax,(%esi)
                           .text:0100266f f7 45 18 00 1c 00 00             testl  $0x1c00,0x18(%ebp)
                           .text:01002676 74 1f                            je     0x01002697
                           .text:01002678 83 7d 0c 00                      cmpl   $0x0,0xc(%ebp)
                           .text:0100267c 74 19                            je     0x01002697
                           .text:0100267e ff 75 18                         pushl  0x18(%ebp)
                           .text:01002681 8d 45 f8                         lea    -0x8(%ebp),%eax
                           .text:01002684 50                               push   %eax
                           .text:01002685 ff 75 0c                         pushl  0xc(%ebp)
                           .text:01002688 8d 5d f4                         lea    -0xc(%ebp),%ebx
                           .text:0100268b 33 c9                            xor    %ecx,%ecx
                           .text:0100268d 8b fe                            mov    %esi,%edi
                           .text:0100268f e8 6d ec ff ff                   call   0x01001301
                           .text:01002694 8b 7d f8                         mov    -0x8(%ebp),%edi
                           .text:01002697 83 7d fc 00                      cmpl   $0x0,-0x4(%ebp)
                           .text:0100269b 7d 09                            jge    0x010026a6
                           .text:0100269d 81 7d fc 05 00 00 80             cmpl   $0x80000005,-0x4(%ebp)
                           .text:010026a4 75 1e                            jne    0x010026c4
                           .text:010026a6 8b 45 10                         mov    0x10(%ebp),%eax
                           .text:010026a9 85 c0                            test   %eax,%eax
                           .text:010026ab 74 02                            je     0x010026af
                           .text:010026ad 89 38                            mov    %edi,(%eax)
                           .text:010026af 8b 45 14                         mov    0x14(%ebp),%eax
                           .text:010026b2 85 c0                            test   %eax,%eax
                           .text:010026b4 74 0e                            je     0x010026c4
                           .text:010026b6 8b 4d 0c                         mov    0xc(%ebp),%ecx
                           .text:010026b9 8b 55 f4                         mov    -0xc(%ebp),%edx
                           .text:010026bc 83 e1 01                         and    $0x1,%ecx
                           .text:010026bf 8d 0c 51                         lea    (%ecx,%edx,2),%ecx
                           .text:010026c2 89 08                            mov    %ecx,(%eax)
                           .text:010026c4 5f                               pop    %edi
                           .text:010026c5 8b 45 fc                         mov    -0x4(%ebp),%eax
                           .text:010026c8 5e                               pop    %esi
                           .text:010026c9 5b                               pop    %ebx
                           .text:010026ca c9                               leave  
                           .text:010026cb c3                               ret    
                           .text:010026cc 3b d9                            cmp    %ecx,%ebx
                           .text:010026ce 75 1d                            jne    0x010026ed
                           .text:010026d0 8b 45 1c                         mov    0x1c(%ebp),%eax
                           .text:010026d3 66 39 08                         cmp    %cx,(%eax)
                           .text:010026d6 74 ce                            je     0x010026a6
                           .text:010026d8 8b c6                            mov    %esi,%eax
                           .text:010026da f7 d8                            neg    %eax
                           .text:010026dc 1b c0                            sbb    %eax,%eax
                           .text:010026de 25 f8 ff ff bf                   and    $0xbffffff8,%eax
                           .text:010026e3 05 0d 00 00 c0                   add    $0xc000000d,%eax
                           .text:010026e8 89 45 fc                         mov    %eax,-0x4(%ebp)
                           .text:010026eb eb 82                            jmp    0x0100266f
                           .text:010026ed 8d 45 20                         lea    0x20(%ebp),%eax
                           .text:010026f0 50                               push   %eax
                           .text:010026f1 ff 75 1c                         pushl  0x1c(%ebp)
                           .text:010026f4 8d 7b ff                         lea    -0x1(%ebx),%edi
                           .text:010026f7 57                               push   %edi
                           .text:010026f8 56                               push   %esi
                           .text:010026f9 89 4d f4                         mov    %ecx,-0xc(%ebp)
                           .text:010026fc e8 45 09 00 00                   call   0x01003046
                           .text:01002701 83 c4 10                         add    $0x10,%esp
                           .text:01002704 85 c0                            test   %eax,%eax
                           .text:01002706 7c 08                            jl     0x01002710
                           .text:01002708 3b c7                            cmp    %edi,%eax
                           .text:0100270a 77 04                            ja     0x01002710
                           .text:0100270c 74 09                            je     0x01002717
                           .text:0100270e eb 0f                            jmp    0x0100271f
                           .text:01002710 c7 45 f4 05 00 00 80             movl   $0x80000005,-0xc(%ebp)
                           .text:01002717 33 c0                            xor    %eax,%eax
                           .text:01002719 66 89 04 7e                      mov    %ax,(%esi,%edi,2)
                           .text:0100271d 8b c7                            mov    %edi,%eax
                           .text:0100271f 8b 4d f4                         mov    -0xc(%ebp),%ecx
                           .text:01002722 2b d8                            sub    %eax,%ebx
                           .text:01002724 8d 3c 46                         lea    (%esi,%eax,2),%edi
                           .text:01002727 89 4d fc                         mov    %ecx,-0x4(%ebp)
                           .text:0100272a 89 7d f8                         mov    %edi,-0x8(%ebp)
                           .text:0100272d 89 5d f4                         mov    %ebx,-0xc(%ebp)
                           .text:01002730 85 c9                            test   %ecx,%ecx
                           .text:01002732 0f 8c 37 ff ff ff                jl     0x0100266f
                           .text:01002738 8b 45 18                         mov    0x18(%ebp),%eax
                           .text:0100273b a9 00 02 00 00                   test   $0x200,%eax
                           .text:01002740 0f 84 60 ff ff ff                je     0x010026a6
                           .text:01002746 8b 4d 0c                         mov    0xc(%ebp),%ecx
                           .text:01002749 83 e1 01                         and    $0x1,%ecx
                           .text:0100274c 8d 0c 59                         lea    (%ecx,%ebx,2),%ecx
                           .text:0100274f 83 f9 02                         cmp    $0x2,%ecx
                           .text:01002752 0f 86 4e ff ff ff                jbe    0x010026a6
                           .text:01002758 83 c1 fe                         add    $0xfffffffe,%ecx
                           .text:0100275b 51                               push   %ecx
                           .text:0100275c 25 ff 00 00 00                   and    $0xff,%eax
                           .text:01002761 50                               push   %eax
                           .text:01002762 8d 47 02                         lea    0x2(%edi),%eax
                           .text:01002765 50                               push   %eax
                           .text:01002766 e8 e7 08 00 00                   call   0x01003052
                           .text:0100276b 83 c4 0c                         add    $0xc,%esp
                           .text:0100276e e9 33 ff ff ff                   jmp    0x010026a6
                           .text:01002773 cc                               int3   
                           .text:01002774 cc                               int3   
                           .text:01002775 cc                               int3   
                           .text:01002776 cc                               int3   
                           .text:01002777 cc                               int3   
                           .text:01002778 8b ff                            mov    %edi,%edi
                           .text:0100277a 55                               push   %ebp
                           .text:0100277b 8b ec                            mov    %esp,%ebp
                           .text:0100277d 83 ec 20                         sub    $0x20,%esp
                           .text:01002780 a1 9c 40 00 01                   mov    0x100409c,%eax
                           .text:01002785 33 c5                            xor    %ebp,%eax
                           .text:01002787 89 45 fc                         mov    %eax,-0x4(%ebp)
                           .text:0100278a 83 65 e0 00                      andl   $0x0,-0x20(%ebp)
                           .text:0100278e 53                               push   %ebx
                           .text:0100278f 8b 5d 08                         mov    0x8(%ebp),%ebx
                           .text:01002792 56                               push   %esi
                           .text:01002793 8b 75 0c                         mov    0xc(%ebp),%esi
                           .text:01002796 a1 e8 43 00 01                   mov    0x10043e8,%eax
                           .text:0100279b ff 05 e8 43 00 01                incl   0x10043e8
                           .text:010027a1 50                               push   %eax
                           .text:010027a2 68 f0 11 00 01                   push   $0x10011f0
                           .text:010027a7 6a 00                            push   $0x0
                           .text:010027a9 6a 00                            push   $0x0
                           .text:010027ab 6a 00                            push   $0x0
                           .text:010027ad 8d 45 e4                         lea    -0x1c(%ebp),%eax
                           .text:010027b0 6a 16                            push   $0x16
                           .text:010027b2 50                               push   %eax
                           .text:010027b3 e8 4e fe ff ff                   call   0x01002606
                           .text:010027b8 83 c4 1c                         add    $0x1c,%esp
                           .text:010027bb 85 c0                            test   %eax,%eax
                           .text:010027bd 7c 3e                            jl     0x010027fd
                           .text:010027bf 56                               push   %esi
                           .text:010027c0 ff 15 64 10 00 01                call   *0x1001064
                           .text:010027c6 56                               push   %esi
                           .text:010027c7 53                               push   %ebx
                           .text:010027c8 6a 03                            push   $0x3
                           .text:010027ca ff 15 60 10 00 01                call   *0x1001060
                           .text:010027d0 85 c0                            test   %eax,%eax
                           .text:010027d2 7c 29                            jl     0x010027fd
                           .text:010027d4 8d 45 e4                         lea    -0x1c(%ebp),%eax
                           .text:010027d7 50                               push   %eax
                           .text:010027d8 56                               push   %esi
                           .text:010027d9 e8 18 f3 ff ff                   call   0x01001af6
                           .text:010027de 85 c0                            test   %eax,%eax
                           .text:010027e0 7c 1b                            jl     0x010027fd
                           .text:010027e2 56                               push   %esi
                           .text:010027e3 e8 d8 f2 ff ff                   call   0x01001ac0
                           .text:010027e8 84 c0                            test   %al,%al
                           .text:010027ea 74 21                            je     0x0100280d
                           .text:010027ec ff 45 e0                         incl   -0x20(%ebp)
                           .text:010027ef 81 7d e0 e8 03 00 00             cmpl   $0x3e8,-0x20(%ebp)
                           .text:010027f6 72 9e                            jb     0x01002796
                           .text:010027f8 b8 06 00 00 80                   mov    $0x80000006,%eax
                           .text:010027fd 8b 4d fc                         mov    -0x4(%ebp),%ecx
                           .text:01002800 5e                               pop    %esi
                           .text:01002801 33 cd                            xor    %ebp,%ecx
                           .text:01002803 5b                               pop    %ebx
                           .text:01002804 e8 28 08 00 00                   call   0x01003031
                           .text:01002809 c9                               leave  
                           .text:0100280a c2 08 00                         ret    $0x8
                           .text:0100280d 33 c0                            xor    %eax,%eax
                           .text:0100280f eb ec                            jmp    0x010027fd
                           .text:01002811 cc                               int3   
                           .text:01002812 cc                               int3   
                           .text:01002813 cc                               int3   
                           .text:01002814 cc                               int3   
                           .text:01002815 cc                               int3   
                           .text:01002816 8b ff                            mov    %edi,%edi
                           .text:01002818 55                               push   %ebp
                           .text:01002819 8b ec                            mov    %esp,%ebp
                           .text:0100281b 81 ec a0 00 00 00                sub    $0xa0,%esp
                           .text:01002821 a1 9c 40 00 01                   mov    0x100409c,%eax
                           .text:01002826 33 c5                            xor    %ebp,%eax
                           .text:01002828 89 45 fc                         mov    %eax,-0x4(%ebp)
                           .text:0100282b 33 c0                            xor    %eax,%eax
                           .text:0100282d 66 89 85 7c ff ff ff             mov    %ax,-0x84(%ebp)
                           .text:01002834 53                               push   %ebx
                           .text:01002835 33 db                            xor    %ebx,%ebx
                           .text:01002837 56                               push   %esi
                           .text:01002838 57                               push   %edi
                           .text:01002839 89 5d 8c                         mov    %ebx,-0x74(%ebp)
                           .text:0100283c 8d 7d 90                         lea    -0x70(%ebp),%edi
                           .text:0100283f ab                               stos   %eax,%es:(%edi)
                           .text:01002840 8d bd 7e ff ff ff                lea    -0x82(%ebp),%edi
                           .text:01002846 ab                               stos   %eax,%es:(%edi)
                           .text:01002847 66 ab                            stos   %ax,%es:(%edi)
                           .text:01002849 33 c0                            xor    %eax,%eax
                           .text:0100284b 66 89 45 84                      mov    %ax,-0x7c(%ebp)
                           .text:0100284f 8d 7d 86                         lea    -0x7a(%ebp),%edi
                           .text:01002852 ab                               stos   %eax,%es:(%edi)
                           .text:01002853 66 ab                            stos   %ax,%es:(%edi)
                           .text:01002855 33 c0                            xor    %eax,%eax
                           .text:01002857 89 9d 60 ff ff ff                mov    %ebx,-0xa0(%ebp)
                           .text:0100285d 8d bd 64 ff ff ff                lea    -0x9c(%ebp),%edi
                           .text:01002863 ab                               stos   %eax,%es:(%edi)
                           .text:01002864 ab                               stos   %eax,%es:(%edi)
                           .text:01002865 ab                               stos   %eax,%es:(%edi)
                           .text:01002866 ab                               stos   %eax,%es:(%edi)
                           .text:01002867 ab                               stos   %eax,%es:(%edi)
                           .text:01002868 33 c0                            xor    %eax,%eax
                           .text:0100286a 66 89 45 b0                      mov    %ax,-0x50(%ebp)
                           .text:0100286e 8d 7d b2                         lea    -0x4e(%ebp),%edi
                           .text:01002871 ab                               stos   %eax,%es:(%edi)
                           .text:01002872 66 ab                            stos   %ax,%es:(%edi)
                           .text:01002874 33 c0                            xor    %eax,%eax
                           .text:01002876 66 89 45 c4                      mov    %ax,-0x3c(%ebp)
                           .text:0100287a 8d 7d c6                         lea    -0x3a(%ebp),%edi
                           .text:0100287d ab                               stos   %eax,%es:(%edi)
                           .text:0100287e 66 ab                            stos   %ax,%es:(%edi)
                           .text:01002880 33 c0                            xor    %eax,%eax
                           .text:01002882 8b 75 0c                         mov    0xc(%ebp),%esi
                           .text:01002885 66 89 45 cc                      mov    %ax,-0x34(%ebp)
                           .text:01002889 8d 7d ce                         lea    -0x32(%ebp),%edi
                           .text:0100288c ab                               stos   %eax,%es:(%edi)
                           .text:0100288d 66 ab                            stos   %ax,%es:(%edi)
                           .text:0100288f 33 c0                            xor    %eax,%eax
                           .text:01002891 66 89 45 bc                      mov    %ax,-0x44(%ebp)
                           .text:01002895 8d 7d be                         lea    -0x42(%ebp),%edi
                           .text:01002898 ab                               stos   %eax,%es:(%edi)
                           .text:01002899 66 ab                            stos   %ax,%es:(%edi)
                           .text:0100289b 33 c0                            xor    %eax,%eax
                           .text:0100289d 66 89 45 a4                      mov    %ax,-0x5c(%ebp)
                           .text:010028a1 8d 7d a6                         lea    -0x5a(%ebp),%edi
                           .text:010028a4 ab                               stos   %eax,%es:(%edi)
                           .text:010028a5 66 ab                            stos   %ax,%es:(%edi)
                           .text:010028a7 33 c0                            xor    %eax,%eax
                           .text:010028a9 89 5d 94                         mov    %ebx,-0x6c(%ebp)
                           .text:010028ac 8d 7d 98                         lea    -0x68(%ebp),%edi
                           .text:010028af 89 5d e0                         mov    %ebx,-0x20(%ebp)
                           .text:010028b2 89 5d b8                         mov    %ebx,-0x48(%ebp)
                           .text:010028b5 89 5d d4                         mov    %ebx,-0x2c(%ebp)
                           .text:010028b8 89 5d 9c                         mov    %ebx,-0x64(%ebp)
                           .text:010028bb 89 5d a0                         mov    %ebx,-0x60(%ebp)
                           .text:010028be ab                               stos   %eax,%es:(%edi)
                           .text:010028bf 88 5d dc                         mov    %bl,-0x24(%ebp)
                           .text:010028c2 c7 85 78 ff ff ff 25 02 00 c0    movl   $0xc0000225,-0x88(%ebp)
                           .text:010028cc c6 45 db 01                      movb   $0x1,-0x25(%ebp)
                           .text:010028d0 89 5d ac                         mov    %ebx,-0x54(%ebp)
                           .text:010028d3 e8 2c 07 00 00                   call   0x01003004
                           .text:010028d8 53                               push   %ebx
                           .text:010028d9 53                               push   %ebx
                           .text:010028da 6a 01                            push   $0x1
                           .text:010028dc 53                               push   %ebx
                           .text:010028dd ff 15 84 10 00 01                call   *0x1001084
                           .text:010028e3 3b c3                            cmp    %ebx,%eax
                           .text:010028e5 89 45 e0                         mov    %eax,-0x20(%ebp)
                           .text:010028e8 7d 08                            jge    0x010028f2
                           .text:010028ea 83 c8 ff                         or     $0xffffffff,%eax
                           .text:010028ed e9 e1 05 00 00                   jmp    0x01002ed3
                           .text:010028f2 83 7d 08 02                      cmpl   $0x2,0x8(%ebp)
                           .text:010028f6 7c f2                            jl     0x010028ea
                           .text:010028f8 8b 06                            mov    (%esi),%eax
                           .text:010028fa 53                               push   %ebx
                           .text:010028fb 53                               push   %ebx
                           .text:010028fc 68 10 40 00 01                   push   $0x1004010
                           .text:01002901 bf 80 12 00 01                   mov    $0x1001280,%edi
                           .text:01002906 a3 04 44 00 01                   mov    %eax,0x1004404
                           .text:0100290b 8b 46 04                         mov    0x4(%esi),%eax
                           .text:0100290e 57                               push   %edi
                           .text:0100290f 6a 03                            push   $0x3
                           .text:01002911 a3 e4 43 00 01                   mov    %eax,0x10043e4
                           .text:01002916 ff 15 80 10 00 01                call   *0x1001080
                           .text:0100291c 3b c3                            cmp    %ebx,%eax
                           .text:0100291e 89 45 e0                         mov    %eax,-0x20(%ebp)
                           .text:01002921 0f 8c 42 04 00 00                jl     0x01002d69
                           .text:01002927 6a 04                            push   $0x4
                           .text:01002929 8d 85 78 ff ff ff                lea    -0x88(%ebp),%eax
                           .text:0100292f 50                               push   %eax
                           .text:01002930 6a 04                            push   $0x4
                           .text:01002932 68 d8 10 00 01                   push   $0x10010d8
                           .text:01002937 57                               push   %edi
                           .text:01002938 6a 03                            push   $0x3
                           .text:0100293a ff 15 7c 10 00 01                call   *0x100107c
                           .text:01002940 3b c3                            cmp    %ebx,%eax
                           .text:01002942 89 45 e0                         mov    %eax,-0x20(%ebp)
                           .text:01002945 0f 8c 1e 04 00 00                jl     0x01002d69
                           .text:0100294b 53                               push   %ebx
                           .text:0100294c 53                               push   %ebx
                           .text:0100294d 68 64 40 00 01                   push   $0x1004064
                           .text:01002952 68 60 12 00 01                   push   $0x1001260
                           .text:01002957 6a 02                            push   $0x2
                           .text:01002959 ff 15 80 10 00 01                call   *0x1001080
                           .text:0100295f 3b c3                            cmp    %ebx,%eax
                           .text:01002961 89 45 e0                         mov    %eax,-0x20(%ebp)
                           .text:01002964 0f 8c ff 03 00 00                jl     0x01002d69
                           .text:0100296a e8 3c f5 ff ff                   call   0x01001eab
                           .text:0100296f 3b c3                            cmp    %ebx,%eax
                           .text:01002971 89 45 e0                         mov    %eax,-0x20(%ebp)
                           .text:01002974 0f 8c ef 03 00 00                jl     0x01002d69
                           .text:0100297a ff 76 04                         pushl  0x4(%esi)
                           .text:0100297d 8d 85 7c ff ff ff                lea    -0x84(%ebp),%eax
                           .text:01002983 50                               push   %eax
                           .text:01002984 ff 15 5c 10 00 01                call   *0x100105c
                           .text:0100298a 8b 35 5c 10 00 01                mov    0x100105c,%esi
                           .text:01002990 53                               push   %ebx
                           .text:01002991 8d 45 84                         lea    -0x7c(%ebp),%eax
                           .text:01002994 50                               push   %eax
                           .text:01002995 ff d6                            call   *%esi
                           .text:01002997 53                               push   %ebx
                           .text:01002998 8d 45 b0                         lea    -0x50(%ebp),%eax
                           .text:0100299b 50                               push   %eax
                           .text:0100299c ff d6                            call   *%esi
                           .text:0100299e 53                               push   %ebx
                           .text:0100299f 8d 45 c4                         lea    -0x3c(%ebp),%eax
                           .text:010029a2 50                               push   %eax
                           .text:010029a3 ff d6                            call   *%esi
                           .text:010029a5 53                               push   %ebx
                           .text:010029a6 8d 45 cc                         lea    -0x34(%ebp),%eax
                           .text:010029a9 50                               push   %eax
                           .text:010029aa ff d6                            call   *%esi
                           .text:010029ac 53                               push   %ebx
                           .text:010029ad 8d 45 bc                         lea    -0x44(%ebp),%eax
                           .text:010029b0 50                               push   %eax
                           .text:010029b1 ff d6                            call   *%esi
                           .text:010029b3 8d 45 84                         lea    -0x7c(%ebp),%eax
                           .text:010029b6 50                               push   %eax
                           .text:010029b7 8d 85 7c ff ff ff                lea    -0x84(%ebp),%eax
                           .text:010029bd 50                               push   %eax
                           .text:010029be e8 a9 eb ff ff                   call   0x0100156c
                           .text:010029c3 3b c3                            cmp    %ebx,%eax
                           .text:010029c5 89 45 e0                         mov    %eax,-0x20(%ebp)
                           .text:010029c8 0f 8c 9b 03 00 00                jl     0x01002d69
                           .text:010029ce 68 22 40 00 00                   push   $0x4022
                           .text:010029d3 8d 45 84                         lea    -0x7c(%ebp),%eax
                           .text:010029d6 89 85 68 ff ff ff                mov    %eax,-0x98(%ebp)
                           .text:010029dc 6a 03                            push   $0x3
                           .text:010029de 8d 45 8c                         lea    -0x74(%ebp),%eax
                           .text:010029e1 50                               push   %eax
                           .text:010029e2 8d 85 60 ff ff ff                lea    -0xa0(%ebp),%eax
                           .text:010029e8 50                               push   %eax
                           .text:010029e9 68 00 00 10 c0                   push   $0xc0100000
                           .text:010029ee 8d 45 d4                         lea    -0x2c(%ebp),%eax
                           .text:010029f1 50                               push   %eax
                           .text:010029f2 c7 85 60 ff ff ff 18 00 00 00    movl   $0x18,-0xa0(%ebp)
                           .text:010029fc 89 9d 64 ff ff ff                mov    %ebx,-0x9c(%ebp)
                           .text:01002a02 c7 85 6c ff ff ff 40 00 00 00    movl   $0x40,-0x94(%ebp)
                           .text:01002a0c 89 9d 70 ff ff ff                mov    %ebx,-0x90(%ebp)
                           .text:01002a12 89 9d 74 ff ff ff                mov    %ebx,-0x8c(%ebp)
                           .text:01002a18 ff 15 1c 10 00 01                call   *0x100101c
                           .text:01002a1e 3b c3                            cmp    %ebx,%eax
                           .text:01002a20 89 45 e0                         mov    %eax,-0x20(%ebp)
                           .text:01002a23 0f 8c 40 03 00 00                jl     0x01002d69
                           .text:01002a29 e8 77 f5 ff ff                   call   0x01001fa5
                           .text:01002a2e 3b c3                            cmp    %ebx,%eax
                           .text:01002a30 89 45 e0                         mov    %eax,-0x20(%ebp)
                           .text:01002a33 0f 8c 30 03 00 00                jl     0x01002d69
                           .text:01002a39 e9 af 02 00 00                   jmp    0x01002ced
                           .text:01002a3e 8b 35 54 10 00 01                mov    0x1001054,%esi
                           .text:01002a44 e8 b4 f5 ff ff                   call   0x01001ffd
                           .text:01002a49 3b c3                            cmp    %ebx,%eax
                           .text:01002a4b 89 45 e0                         mov    %eax,-0x20(%ebp)
                           .text:01002a4e 0f 8c 0b 03 00 00                jl     0x01002d5f
                           .text:01002a54 33 ff                            xor    %edi,%edi
                           .text:01002a56 47                               inc    %edi
                           .text:01002a57 57                               push   %edi
                           .text:01002a58 68 c8 11 00 01                   push   $0x10011c8
                           .text:01002a5d 8d 45 b0                         lea    -0x50(%ebp),%eax
                           .text:01002a60 50                               push   %eax
                           .text:01002a61 88 5d df                         mov    %bl,-0x21(%ebp)
                           .text:01002a64 ff d6                            call   *%esi
                           .text:01002a66 57                               push   %edi
                           .text:01002a67 88 45 dd                         mov    %al,-0x23(%ebp)
                           .text:01002a6a 68 d0 11 00 01                   push   $0x10011d0
                           .text:01002a6f 8d 45 b0                         lea    -0x50(%ebp),%eax
                           .text:01002a72 50                               push   %eax
                           .text:01002a73 ff d6                            call   *%esi
                           .text:01002a75 57                               push   %edi
                           .text:01002a76 88 45 de                         mov    %al,-0x22(%ebp)
                           .text:01002a79 68 d8 11 00 01                   push   $0x10011d8
                           .text:01002a7e 8d 45 b0                         lea    -0x50(%ebp),%eax
                           .text:01002a81 50                               push   %eax
                           .text:01002a82 ff d6                            call   *%esi
                           .text:01002a84 57                               push   %edi
                           .text:01002a85 88 45 da                         mov    %al,-0x26(%ebp)
                           .text:01002a88 68 c0 11 00 01                   push   $0x10011c0
                           .text:01002a8d 8d 45 bc                         lea    -0x44(%ebp),%eax
                           .text:01002a90 50                               push   %eax
                           .text:01002a91 ff d6                            call   *%esi
                           .text:01002a93 84 c0                            test   %al,%al
                           .text:01002a95 74 32                            je     0x01002ac9
                           .text:01002a97 38 5d dd                         cmp    %bl,-0x23(%ebp)
                           .text:01002a9a 74 15                            je     0x01002ab1
                           .text:01002a9c 8d 45 cc                         lea    -0x34(%ebp),%eax
                           .text:01002a9f 50                               push   %eax
                           .text:01002aa0 8d 45 c4                         lea    -0x3c(%ebp),%eax
                           .text:01002aa3 50                               push   %eax
                           .text:01002aa4 e8 e4 f0 ff ff                   call   0x01001b8d
                           .text:01002aa9 84 c0                            test   %al,%al
                           .text:01002aab 0f 85 3c 02 00 00                jne    0x01002ced
                           .text:01002ab1 38 5d de                         cmp    %bl,-0x22(%ebp)
                           .text:01002ab4 74 7c                            je     0x01002b32
                           .text:01002ab6 8d 45 cc                         lea    -0x34(%ebp),%eax
                           .text:01002ab9 50                               push   %eax
                           .text:01002aba e8 d6 f1 ff ff                   call   0x01001c95
                           .text:01002abf 84 c0                            test   %al,%al
                           .text:01002ac1 0f 85 26 02 00 00                jne    0x01002ced
                           .text:01002ac7 eb 69                            jmp    0x01002b32
                           .text:01002ac9 66 83 7d bc 06                   cmpw   $0x6,-0x44(%ebp)
                           .text:01002ace 72 62                            jb     0x01002b32
                           .text:01002ad0 8b 75 c0                         mov    -0x40(%ebp),%esi
                           .text:01002ad3 6a 03                            push   $0x3
                           .text:01002ad5 59                               pop    %ecx
                           .text:01002ad6 bf 9c 11 00 01                   mov    $0x100119c,%edi
                           .text:01002adb 33 c0                            xor    %eax,%eax
                           .text:01002add 66 f3 a7                         repz cmpsw %es:(%edi),%ds:(%esi)
                           .text:01002ae0 75 4a                            jne    0x01002b2c
                           .text:01002ae2 8d 45 b8                         lea    -0x48(%ebp),%eax
                           .text:01002ae5 50                               push   %eax
                           .text:01002ae6 6a 03                            push   $0x3
                           .text:01002ae8 8d 45 bc                         lea    -0x44(%ebp),%eax
                           .text:01002aeb 50                               push   %eax
                           .text:01002aec e8 78 ef ff ff                   call   0x01001a69
                           .text:01002af1 3b c3                            cmp    %ebx,%eax
                           .text:01002af3 89 45 e0                         mov    %eax,-0x20(%ebp)
                           .text:01002af6 0f 8c 63 02 00 00                jl     0x01002d5f
                           .text:01002afc 38 5d dd                         cmp    %bl,-0x23(%ebp)
                           .text:01002aff 74 09                            je     0x01002b0a
                           .text:01002b01 39 5d b8                         cmp    %ebx,-0x48(%ebp)
                           .text:01002b04 0f 8d e3 01 00 00                jge    0x01002ced
                           .text:01002b0a 38 5d de                         cmp    %bl,-0x22(%ebp)
                           .text:01002b0d 74 14                            je     0x01002b23
                           .text:01002b0f 8d 45 cc                         lea    -0x34(%ebp),%eax
                           .text:01002b12 50                               push   %eax
                           .text:01002b13 ff 75 b8                         pushl  -0x48(%ebp)
                           .text:01002b16 e8 c9 f1 ff ff                   call   0x01001ce4
                           .text:01002b1b 84 c0                            test   %al,%al
                           .text:01002b1d 0f 85 ca 01 00 00                jne    0x01002ced
                           .text:01002b23 38 5d da                         cmp    %bl,-0x26(%ebp)
                           .text:01002b26 0f 85 c1 01 00 00                jne    0x01002ced
                           .text:01002b2c 8b 35 54 10 00 01                mov    0x1001054,%esi
                           .text:01002b32 8b 45 9c                         mov    -0x64(%ebp),%eax
                           .text:01002b35 8b 3d 58 10 00 01                mov    0x1001058,%edi
                           .text:01002b3b 53                               push   %ebx
                           .text:01002b3c 89 45 94                         mov    %eax,-0x6c(%ebp)
                           .text:01002b3f 8b 45 a0                         mov    -0x60(%ebp),%eax
                           .text:01002b42 89 45 98                         mov    %eax,-0x68(%ebp)
                           .text:01002b45 8d 45 94                         lea    -0x6c(%ebp),%eax
                           .text:01002b48 50                               push   %eax
                           .text:01002b49 6a 16                            push   $0x16
                           .text:01002b4b 68 6c 11 00 01                   push   $0x100116c
                           .text:01002b50 8d 45 8c                         lea    -0x74(%ebp),%eax
                           .text:01002b53 50                               push   %eax
                           .text:01002b54 53                               push   %ebx
                           .text:01002b55 53                               push   %ebx
                           .text:01002b56 53                               push   %ebx
                           .text:01002b57 ff 75 d4                         pushl  -0x2c(%ebp)
                           .text:01002b5a ff d7                            call   *%edi
                           .text:01002b5c 3b c3                            cmp    %ebx,%eax
                           .text:01002b5e 0f 8c b2 01 00 00                jl     0x01002d16
                           .text:01002b64 38 5d dd                         cmp    %bl,-0x23(%ebp)
                           .text:01002b67 0f 84 89 00 00 00                je     0x01002bf6
                           .text:01002b6d 8d 45 cc                         lea    -0x34(%ebp),%eax
                           .text:01002b70 50                               push   %eax
                           .text:01002b71 e8 94 f1 ff ff                   call   0x01001d0a
                           .text:01002b76 8d 45 cc                         lea    -0x34(%ebp),%eax
                           .text:01002b79 50                               push   %eax
                           .text:01002b7a 8d 45 c4                         lea    -0x3c(%ebp),%eax
                           .text:01002b7d 50                               push   %eax
                           .text:01002b7e e8 37 f0 ff ff                   call   0x01001bba
                           .text:01002b83 89 45 e0                         mov    %eax,-0x20(%ebp)
                           .text:01002b86 3d 22 00 00 c0                   cmp    $0xc0000022,%eax
                           .text:01002b8b 74 19                            je     0x01002ba6
                           .text:01002b8d 3d 43 00 00 c0                   cmp    $0xc0000043,%eax
                           .text:01002b92 74 12                            je     0x01002ba6
                           .text:01002b94 3d 01 00 19 c0                   cmp    $0xc0190001,%eax
                           .text:01002b99 74 0b                            je     0x01002ba6
                           .text:01002b9b 3d 56 00 00 c0                   cmp    $0xc0000056,%eax
                           .text:01002ba0 0f 85 02 01 00 00                jne    0x01002ca8
                           .text:01002ba6 8d 45 a4                         lea    -0x5c(%ebp),%eax
                           .text:01002ba9 50                               push   %eax
                           .text:01002baa 8d 45 cc                         lea    -0x34(%ebp),%eax
                           .text:01002bad 50                               push   %eax
                           .text:01002bae e8 c5 fb ff ff                   call   0x01002778
                           .text:01002bb3 85 c0                            test   %eax,%eax
                           .text:01002bb5 0f 8c a4 01 00 00                jl     0x01002d5f
                           .text:01002bbb 8d 45 a4                         lea    -0x5c(%ebp),%eax
                           .text:01002bbe 50                               push   %eax
                           .text:01002bbf 8d 45 cc                         lea    -0x34(%ebp),%eax
                           .text:01002bc2 50                               push   %eax
                           .text:01002bc3 e8 f2 ef ff ff                   call   0x01001bba
                           .text:01002bc8 85 c0                            test   %eax,%eax
                           .text:01002bca 0f 8c 8f 01 00 00                jl     0x01002d5f
                           .text:01002bd0 8d 45 a4                         lea    -0x5c(%ebp),%eax
                           .text:01002bd3 50                               push   %eax
                           .text:01002bd4 e8 8c f4 ff ff                   call   0x01002065
                           .text:01002bd9 85 c0                            test   %eax,%eax
                           .text:01002bdb 0f 8c 7e 01 00 00                jl     0x01002d5f
                           .text:01002be1 8d 45 cc                         lea    -0x34(%ebp),%eax
                           .text:01002be4 50                               push   %eax
                           .text:01002be5 8d 45 c4                         lea    -0x3c(%ebp),%eax
                           .text:01002be8 50                               push   %eax
                           .text:01002be9 e8 cc ef ff ff                   call   0x01001bba
                           .text:01002bee 89 45 e0                         mov    %eax,-0x20(%ebp)
                           .text:01002bf1 e9 b2 00 00 00                   jmp    0x01002ca8
                           .text:01002bf6 38 5d de                         cmp    %bl,-0x22(%ebp)
                           .text:01002bf9 0f 84 8a 00 00 00                je     0x01002c89
                           .text:01002bff 8d 45 cc                         lea    -0x34(%ebp),%eax
                           .text:01002c02 50                               push   %eax
                           .text:01002c03 e8 02 f1 ff ff                   call   0x01001d0a
                           .text:01002c08 50                               push   %eax
                           .text:01002c09 89 45 e0                         mov    %eax,-0x20(%ebp)
                           .text:01002c0c e8 a3 f0 ff ff                   call   0x01001cb4
                           .text:01002c11 84 c0                            test   %al,%al
                           .text:01002c13 0f 85 85 00 00 00                jne    0x01002c9e
                           .text:01002c19 81 7d e0 21 01 00 c0             cmpl   $0xc0000121,-0x20(%ebp)
                           .text:01002c20 74 12                            je     0x01002c34
                           .text:01002c22 81 7d e0 43 00 00 c0             cmpl   $0xc0000043,-0x20(%ebp)
                           .text:01002c29 74 09                            je     0x01002c34
                           .text:01002c2b 81 7d e0 01 00 19 c0             cmpl   $0xc0190001,-0x20(%ebp)
                           .text:01002c32 75 74                            jne    0x01002ca8
                           .text:01002c34 6a 01                            push   $0x1
                           .text:01002c36 68 e0 11 00 01                   push   $0x10011e0
                           .text:01002c3b 8d 45 c4                         lea    -0x3c(%ebp),%eax
                           .text:01002c3e 50                               push   %eax
                           .text:01002c3f ff d6                            call   *%esi
                           .text:01002c41 84 c0                            test   %al,%al
                           .text:01002c43 0f 85 16 01 00 00                jne    0x01002d5f
                           .text:01002c49 8d 45 a4                         lea    -0x5c(%ebp),%eax
                           .text:01002c4c 50                               push   %eax
                           .text:01002c4d 8d 45 cc                         lea    -0x34(%ebp),%eax
                           .text:01002c50 50                               push   %eax
                           .text:01002c51 e8 22 fb ff ff                   call   0x01002778
                           .text:01002c56 85 c0                            test   %eax,%eax
                           .text:01002c58 0f 8c 01 01 00 00                jl     0x01002d5f
                           .text:01002c5e 8d 45 a4                         lea    -0x5c(%ebp),%eax
                           .text:01002c61 50                               push   %eax
                           .text:01002c62 8d 45 cc                         lea    -0x34(%ebp),%eax
                           .text:01002c65 50                               push   %eax
                           .text:01002c66 e8 4f ef ff ff                   call   0x01001bba
                           .text:01002c6b 85 c0                            test   %eax,%eax
                           .text:01002c6d 0f 8c ec 00 00 00                jl     0x01002d5f
                           .text:01002c73 8d 45 a4                         lea    -0x5c(%ebp),%eax
                           .text:01002c76 50                               push   %eax
                           .text:01002c77 e8 e9 f3 ff ff                   call   0x01002065
                           .text:01002c7c 85 c0                            test   %eax,%eax
                           .text:01002c7e 0f 8c db 00 00 00                jl     0x01002d5f
                           .text:01002c84 89 5d e0                         mov    %ebx,-0x20(%ebp)
                           .text:01002c87 eb 1f                            jmp    0x01002ca8
                           .text:01002c89 38 5d da                         cmp    %bl,-0x26(%ebp)
                           .text:01002c8c 74 16                            je     0x01002ca4
                           .text:01002c8e 8d 45 cc                         lea    -0x34(%ebp),%eax
                           .text:01002c91 50                               push   %eax
                           .text:01002c92 8d 45 c4                         lea    -0x3c(%ebp),%eax
                           .text:01002c95 50                               push   %eax
                           .text:01002c96 e8 d8 f0 ff ff                   call   0x01001d73
                           .text:01002c9b 89 45 e0                         mov    %eax,-0x20(%ebp)
                           .text:01002c9e c6 45 df 01                      movb   $0x1,-0x21(%ebp)
                           .text:01002ca2 eb 04                            jmp    0x01002ca8
                           .text:01002ca4 83 4d e0 ff                      orl    $0xffffffff,-0x20(%ebp)
                           .text:01002ca8 ff 75 e0                         pushl  -0x20(%ebp)
                           .text:01002cab 8d 45 e4                         lea    -0x1c(%ebp),%eax
                           .text:01002cae 68 50 12 00 01                   push   $0x1001250
                           .text:01002cb3 53                               push   %ebx
                           .text:01002cb4 53                               push   %ebx
                           .text:01002cb5 53                               push   %ebx
                           .text:01002cb6 6a 18                            push   $0x18
                           .text:01002cb8 50                               push   %eax
                           .text:01002cb9 e8 48 f9 ff ff                   call   0x01002606
                           .text:01002cbe 83 c4 1c                         add    $0x1c,%esp
                           .text:01002cc1 3b c3                            cmp    %ebx,%eax
                           .text:01002cc3 7c 51                            jl     0x01002d16
                           .text:01002cc5 53                               push   %ebx
                           .text:01002cc6 8d 45 94                         lea    -0x6c(%ebp),%eax
                           .text:01002cc9 50                               push   %eax
                           .text:01002cca 6a 18                            push   $0x18
                           .text:01002ccc 8d 45 e4                         lea    -0x1c(%ebp),%eax
                           .text:01002ccf 50                               push   %eax
                           .text:01002cd0 8d 45 8c                         lea    -0x74(%ebp),%eax
                           .text:01002cd3 50                               push   %eax
                           .text:01002cd4 53                               push   %ebx
                           .text:01002cd5 53                               push   %ebx
                           .text:01002cd6 53                               push   %ebx
                           .text:01002cd7 ff 75 d4                         pushl  -0x2c(%ebp)
                           .text:01002cda ff d7                            call   *%edi
                           .text:01002cdc 3b c3                            cmp    %ebx,%eax
                           .text:01002cde 89 45 b8                         mov    %eax,-0x48(%ebp)
                           .text:01002ce1 7c 33                            jl     0x01002d16
                           .text:01002ce3 38 5d df                         cmp    %bl,-0x21(%ebp)
                           .text:01002ce6 75 05                            jne    0x01002ced
                           .text:01002ce8 39 5d e0                         cmp    %ebx,-0x20(%ebp)
                           .text:01002ceb 7c 2c                            jl     0x01002d19
                           .text:01002ced 8d 45 9c                         lea    -0x64(%ebp),%eax
                           .text:01002cf0 50                               push   %eax
                           .text:01002cf1 8d 45 bc                         lea    -0x44(%ebp),%eax
                           .text:01002cf4 50                               push   %eax
                           .text:01002cf5 8d 45 cc                         lea    -0x34(%ebp),%eax
                           .text:01002cf8 50                               push   %eax
                           .text:01002cf9 8d 45 c4                         lea    -0x3c(%ebp),%eax
                           .text:01002cfc 50                               push   %eax
                           .text:01002cfd 8d 45 b0                         lea    -0x50(%ebp),%eax
                           .text:01002d00 50                               push   %eax
                           .text:01002d01 ff 75 d4                         pushl  -0x2c(%ebp)
                           .text:01002d04 e8 00 eb ff ff                   call   0x01001809
                           .text:01002d09 3b c3                            cmp    %ebx,%eax
                           .text:01002d0b 89 45 e0                         mov    %eax,-0x20(%ebp)
                           .text:01002d0e 0f 8d 2a fd ff ff                jge    0x01002a3e
                           .text:01002d14 eb 03                            jmp    0x01002d19
                           .text:01002d16 89 45 e0                         mov    %eax,-0x20(%ebp)
                           .text:01002d19 be 11 00 00 c0                   mov    $0xc0000011,%esi
                           .text:01002d1e 39 75 e0                         cmp    %esi,-0x20(%ebp)
                           .text:01002d21 75 05                            jne    0x01002d28
                           .text:01002d23 89 5d e0                         mov    %ebx,-0x20(%ebp)
                           .text:01002d26 eb 24                            jmp    0x01002d4c
                           .text:01002d28 8d 45 9c                         lea    -0x64(%ebp),%eax
                           .text:01002d2b 50                               push   %eax
                           .text:01002d2c 8d 45 bc                         lea    -0x44(%ebp),%eax
                           .text:01002d2f 50                               push   %eax
                           .text:01002d30 8d 45 cc                         lea    -0x34(%ebp),%eax
                           .text:01002d33 50                               push   %eax
                           .text:01002d34 8d 45 c4                         lea    -0x3c(%ebp),%eax
                           .text:01002d37 50                               push   %eax
                           .text:01002d38 8d 45 b0                         lea    -0x50(%ebp),%eax
                           .text:01002d3b 50                               push   %eax
                           .text:01002d3c ff 75 d4                         pushl  -0x2c(%ebp)
                           .text:01002d3f e8 c5 ea ff ff                   call   0x01001809
                           .text:01002d44 3b c3                            cmp    %ebx,%eax
                           .text:01002d46 7d e0                            jge    0x01002d28
                           .text:01002d48 3b c6                            cmp    %esi,%eax
                           .text:01002d4a 75 13                            jne    0x01002d5f
                           .text:01002d4c 8d 45 dc                         lea    -0x24(%ebp),%eax
                           .text:01002d4f 50                               push   %eax
                           .text:01002d50 ff 75 d4                         pushl  -0x2c(%ebp)
                           .text:01002d53 e8 bf f4 ff ff                   call   0x01002217
                           .text:01002d58 3b c3                            cmp    %ebx,%eax
                           .text:01002d5a 7d 03                            jge    0x01002d5f
                           .text:01002d5c 89 45 e0                         mov    %eax,-0x20(%ebp)
                           .text:01002d5f e8 ad f2 ff ff                   call   0x01002011
                           .text:01002d64 bf 80 12 00 01                   mov    $0x1001280,%edi
                           .text:01002d69 39 5d d4                         cmp    %ebx,-0x2c(%ebp)
                           .text:01002d6c 74 0c                            je     0x01002d7a
                           .text:01002d6e ff 75 d4                         pushl  -0x2c(%ebp)
                           .text:01002d71 ff 15 14 10 00 01                call   *0x1001014
                           .text:01002d77 89 5d d4                         mov    %ebx,-0x2c(%ebp)
                           .text:01002d7a 38 5d dc                         cmp    %bl,-0x24(%ebp)
                           .text:01002d7d 74 50                            je     0x01002dcf
                           .text:01002d7f 8d 45 ac                         lea    -0x54(%ebp),%eax
                           .text:01002d82 50                               push   %eax
                           .text:01002d83 c6 45 db 01                      movb   $0x1,-0x25(%ebp)
                           .text:01002d87 ff 15 78 10 00 01                call   *0x1001078
                           .text:01002d8d 3b c3                            cmp    %ebx,%eax
                           .text:01002d8f 89 45 e0                         mov    %eax,-0x20(%ebp)
                           .text:01002d92 0f 8c 3b 01 00 00                jl     0x01002ed3
                           .text:01002d98 53                               push   %ebx
                           .text:01002d99 6a 01                            push   $0x1
                           .text:01002d9b 8d 45 db                         lea    -0x25(%ebp),%eax
                           .text:01002d9e 50                               push   %eax
                           .text:01002d9f 6a 04                            push   $0x4
                           .text:01002da1 53                               push   %ebx
                           .text:01002da2 ff 75 ac                         pushl  -0x54(%ebp)
                           .text:01002da5 ff 15 74 10 00 01                call   *0x1001074
                           .text:01002dab ff 75 ac                         pushl  -0x54(%ebp)
                           .text:01002dae 89 45 e0                         mov    %eax,-0x20(%ebp)
                           .text:01002db1 ff 15 70 10 00 01                call   *0x1001070
                           .text:01002db7 8b 45 e0                         mov    -0x20(%ebp),%eax
                           .text:01002dba 3b c3                            cmp    %ebx,%eax
                           .text:01002dbc 0f 8c 11 01 00 00                jl     0x01002ed3
                           .text:01002dc2 6a 01                            push   $0x1
                           .text:01002dc4 ff 15 6c 10 00 01                call   *0x100106c
                           .text:01002dca e9 04 01 00 00                   jmp    0x01002ed3
                           .text:01002dcf be f8 43 00 01                   mov    $0x10043f8,%esi
                           .text:01002dd4 38 1d 00 44 00 01                cmp    %bl,0x1004400
                           .text:01002dda 74 67                            je     0x01002e43
                           .text:01002ddc 8b 0d fc 43 00 01                mov    0x10043fc,%ecx
                           .text:01002de2 3b cb                            cmp    %ebx,%ecx
                           .text:01002de4 74 11                            je     0x01002df7
                           .text:01002de6 66 a1 f8 43 00 01                mov    0x10043f8,%ax
                           .text:01002dec 66 83 f8 01                      cmp    $0x1,%ax
                           .text:01002df0 75 19                            jne    0x01002e0b
                           .text:01002df2 66 39 19                         cmp    %bx,(%ecx)
                           .text:01002df5 75 4c                            jne    0x01002e43
                           .text:01002df7 68 bc 10 00 01                   push   $0x10010bc
                           .text:01002dfc 68 60 12 00 01                   push   $0x1001260
                           .text:01002e01 6a 02                            push   $0x2
                           .text:01002e03 ff 15 68 10 00 01                call   *0x1001068
                           .text:01002e09 eb 38                            jmp    0x01002e43
                           .text:01002e0b 76 36                            jbe    0x01002e43
                           .text:01002e0d 83 3d 08 44 00 01 01             cmpl   $0x1,0x1004408
                           .text:01002e14 75 2d                            jne    0x01002e43
                           .text:01002e16 53                               push   %ebx
                           .text:01002e17 56                               push   %esi
                           .text:01002e18 e8 55 e6 ff ff                   call   0x01001472
                           .text:01002e1d 3b c3                            cmp    %ebx,%eax
                           .text:01002e1f 7c 22                            jl     0x01002e43
                           .text:01002e21 0f b7 05 f8 43 00 01             movzwl 0x10043f8,%eax
                           .text:01002e28 50                               push   %eax
                           .text:01002e29 ff 35 fc 43 00 01                pushl  0x10043fc
                           .text:01002e2f 6a 07                            push   $0x7
                           .text:01002e31 68 bc 10 00 01                   push   $0x10010bc
                           .text:01002e36 68 60 12 00 01                   push   $0x1001260
                           .text:01002e3b 6a 02                            push   $0x2
                           .text:01002e3d ff 15 7c 10 00 01                call   *0x100107c
                           .text:01002e43 a1 fc 43 00 01                   mov    0x10043fc,%eax
                           .text:01002e48 3b c3                            cmp    %ebx,%eax
                           .text:01002e4a 74 1c                            je     0x01002e68
                           .text:01002e4c 50                               push   %eax
                           .text:01002e4d 64 a1 18 00 00 00                mov    %fs:0x18,%eax
                           .text:01002e53 8b 40 30                         mov    0x30(%eax),%eax
                           .text:01002e56 53                               push   %ebx
                           .text:01002e57 ff 70 18                         pushl  0x18(%eax)
                           .text:01002e5a ff 15 2c 10 00 01                call   *0x100102c
                           .text:01002e60 53                               push   %ebx
                           .text:01002e61 56                               push   %esi
                           .text:01002e62 ff 15 5c 10 00 01                call   *0x100105c
                           .text:01002e68 39 5d e0                         cmp    %ebx,-0x20(%ebp)
                           .text:01002e6b 7c 12                            jl     0x01002e7f
                           .text:01002e6d 6a 04                            push   $0x4
                           .text:01002e6f 8d 45 e0                         lea    -0x20(%ebp),%eax
                           .text:01002e72 50                               push   %eax
                           .text:01002e73 6a 04                            push   $0x4
                           .text:01002e75 89 5d e0                         mov    %ebx,-0x20(%ebp)
                           .text:01002e78 68 d8 10 00 01                   push   $0x10010d8
                           .text:01002e7d eb 48                            jmp    0x01002ec7
                           .text:01002e7f ff 75 e0                         pushl  -0x20(%ebp)
                           .text:01002e82 8d 45 e4                         lea    -0x1c(%ebp),%eax
                           .text:01002e85 68 40 12 00 01                   push   $0x1001240
                           .text:01002e8a 53                               push   %ebx
                           .text:01002e8b 53                               push   %ebx
                           .text:01002e8c 53                               push   %ebx
                           .text:01002e8d 6a 18                            push   $0x18
                           .text:01002e8f 50                               push   %eax
                           .text:01002e90 e8 71 f7 ff ff                   call   0x01002606
                           .text:01002e95 83 c4 1c                         add    $0x1c,%esp
                           .text:01002e98 3b c3                            cmp    %ebx,%eax
                           .text:01002e9a 7c 1d                            jl     0x01002eb9
                           .text:01002e9c 8d 45 e4                         lea    -0x1c(%ebp),%eax
                           .text:01002e9f 8d 50 02                         lea    0x2(%eax),%edx
                           .text:01002ea2 66 8b 08                         mov    (%eax),%cx
                           .text:01002ea5 40                               inc    %eax
                           .text:01002ea6 40                               inc    %eax
                           .text:01002ea7 66 3b cb                         cmp    %bx,%cx
                           .text:01002eaa 75 f6                            jne    0x01002ea2
                           .text:01002eac 2b c2                            sub    %edx,%eax
                           .text:01002eae d1 f8                            sar    %eax
                           .text:01002eb0 03 c0                            add    %eax,%eax
                           .text:01002eb2 50                               push   %eax
                           .text:01002eb3 8d 45 e4                         lea    -0x1c(%ebp),%eax
                           .text:01002eb6 50                               push   %eax
                           .text:01002eb7 eb 07                            jmp    0x01002ec0
                           .text:01002eb9 6a 14                            push   $0x14
                           .text:01002ebb 68 28 12 00 01                   push   $0x1001228
                           .text:01002ec0 6a 01                            push   $0x1
                           .text:01002ec2 68 fc 11 00 01                   push   $0x10011fc
                           .text:01002ec7 57                               push   %edi
                           .text:01002ec8 6a 03                            push   $0x3
                           .text:01002eca ff 15 7c 10 00 01                call   *0x100107c
                           .text:01002ed0 8b 45 e0                         mov    -0x20(%ebp),%eax
                           .text:01002ed3 8b 4d fc                         mov    -0x4(%ebp),%ecx
                           .text:01002ed6 5f                               pop    %edi
                           .text:01002ed7 5e                               pop    %esi
                           .text:01002ed8 33 cd                            xor    %ebp,%ecx
                           .text:01002eda 5b                               pop    %ebx
                           .text:01002edb e8 51 01 00 00                   call   0x01003031
                           .text:01002ee0 c9                               leave  
                           .text:01002ee1 c3                               ret    
                           .text:01002ee2 cc                               int3   
                           .text:01002ee3 cc                               int3   
                           .text:01002ee4 cc                               int3   
                           .text:01002ee5 cc                               int3   
                           .text:01002ee6 cc                               int3   
                           .text:01002ee7 8b ff                            mov    %edi,%edi
                           .text:01002ee9 55                               push   %ebp
                           .text:01002eea 8b ec                            mov    %esp,%ebp
                           .text:01002eec 51                               push   %ecx
                           .text:01002eed 51                               push   %ecx
                           .text:01002eee a3 c8 41 00 01                   mov    %eax,0x10041c8
                           .text:01002ef3 89 0d c4 41 00 01                mov    %ecx,0x10041c4
                           .text:01002ef9 89 15 c0 41 00 01                mov    %edx,0x10041c0
                           .text:01002eff 89 1d bc 41 00 01                mov    %ebx,0x10041bc
                           .text:01002f05 89 35 b8 41 00 01                mov    %esi,0x10041b8
                           .text:01002f0b 89 3d b4 41 00 01                mov    %edi,0x10041b4
                           .text:01002f11 66 8c 15 e0 41 00 01             data16 mov %ss,0x10041e0
                           .text:01002f18 66 8c 0d d4 41 00 01             data16 mov %cs,0x10041d4
                           .text:01002f1f 66 8c 1d b0 41 00 01             data16 mov %ds,0x10041b0
                           .text:01002f26 66 8c 05 ac 41 00 01             data16 mov %es,0x10041ac
                           .text:01002f2d 66 8c 25 a8 41 00 01             data16 mov %fs,0x10041a8
                           .text:01002f34 66 8c 2d a4 41 00 01             data16 mov %gs,0x10041a4
                           .text:01002f3b 9c                               pushf  
                           .text:01002f3c 8f 05 d8 41 00 01                popl   0x10041d8
                           .text:01002f42 8b 45 00                         mov    0x0(%ebp),%eax
                           .text:01002f45 a3 cc 41 00 01                   mov    %eax,0x10041cc
                           .text:01002f4a 8b 45 04                         mov    0x4(%ebp),%eax
                           .text:01002f4d a3 d0 41 00 01                   mov    %eax,0x10041d0
                           .text:01002f52 8d 45 08                         lea    0x8(%ebp),%eax
                           .text:01002f55 a3 dc 41 00 01                   mov    %eax,0x10041dc
                           .text:01002f5a a1 d0 41 00 01                   mov    0x10041d0,%eax
                           .text:01002f5f a3 d4 40 00 01                   mov    %eax,0x10040d4
                           .text:01002f64 a1 9c 40 00 01                   mov    0x100409c,%eax
                           .text:01002f69 c7 05 18 41 00 01 01 00 01 00    movl   $0x10001,0x1004118
                           .text:01002f73 c7 05 c8 40 00 01 09 04 00 c0    movl   $0xc0000409,0x10040c8
                           .text:01002f7d c7 05 cc 40 00 01 01 00 00 00    movl   $0x1,0x10040cc
                           .text:01002f87 89 45 f8                         mov    %eax,-0x8(%ebp)
                           .text:01002f8a a1 a0 40 00 01                   mov    0x10040a0,%eax
                           .text:01002f8f 68 9c 12 00 01                   push   $0x100129c
                           .text:01002f94 89 45 fc                         mov    %eax,-0x4(%ebp)
                           .text:01002f97 e8 e6 00 00 00                   call   0x01003082
                           .text:01002f9c 68 09 04 00 c0                   push   $0xc0000409
                           .text:01002fa1 6a ff                            push   $0xffffffff
                           .text:01002fa3 e8 ce 00 00 00                   call   0x01003076
                           .text:01002fa8 c9                               leave  
                           .text:01002fa9 c3                               ret    
                           .text:01002faa cc                               int3   
                           .text:01002fab cc                               int3   
                           .text:01002fac cc                               int3   
                           .text:01002fad cc                               int3   
                           .text:01002fae cc                               int3   
                           .text:01002faf 8b ff                            mov    %edi,%edi
                           .text:01002fb1 55                               push   %ebp
                           .text:01002fb2 8b ec                            mov    %esp,%ebp
                           .text:01002fb4 eb 02                            jmp    0x01002fb8
                           .text:01002fb6 f3 90                            pause  
                           .text:01002fb8 8b 0d 24 03 fe 7f                mov    0x7ffe0324,%ecx
                           .text:01002fbe 8b 15 20 03 fe 7f                mov    0x7ffe0320,%edx
                           .text:01002fc4 a1 28 03 fe 7f                   mov    0x7ffe0328,%eax
                           .text:01002fc9 3b c8                            cmp    %eax,%ecx
                           .text:01002fcb 75 e9                            jne    0x01002fb6
                           .text:01002fcd a1 04 00 fe 7f                   mov    0x7ffe0004,%eax
                           .text:01002fd2 f7 e2                            mul    %edx
                           .text:01002fd4 c1 e1 08                         shl    $0x8,%ecx
                           .text:01002fd7 0f af 0d 04 00 fe 7f             imul   0x7ffe0004,%ecx
                           .text:01002fde 0f ac d0 18                      shrd   $0x18,%edx,%eax
                           .text:01002fe2 03 c1                            add    %ecx,%eax
                           .text:01002fe4 8b 4d 08                         mov    0x8(%ebp),%ecx
                           .text:01002fe7 c1 ea 18                         shr    $0x18,%edx
                           .text:01002fea 33 c1                            xor    %ecx,%eax
                           .text:01002fec 89 01                            mov    %eax,(%ecx)
                           .text:01002fee 74 07                            je     0x01002ff7
                           .text:01002ff0 3d 4e e6 40 bb                   cmp    $0xbb40e64e,%eax
                           .text:01002ff5 75 06                            jne    0x01002ffd
                           .text:01002ff7 c7 01 4f e6 40 bb                movl   $0xbb40e64f,(%ecx)
                           .text:01002ffd 5d                               pop    %ebp
                           .text:01002ffe c3                               ret    
                           .text:01002fff cc                               int3   
                           .text:01003000 cc                               int3   
                           .text:01003001 cc                               int3   
                           .text:01003002 cc                               int3   
                           .text:01003003 cc                               int3   
                           .text:01003004 a1 9c 40 00 01                   mov    0x100409c,%eax
                           .text:01003009 85 c0                            test   %eax,%eax
                           .text:0100300b 74 07                            je     0x01003014
                           .text:0100300d 3d 4e e6 40 bb                   cmp    $0xbb40e64e,%eax
                           .text:01003012 75 10                            jne    0x01003024
                           .text:01003014 68 9c 40 00 01                   push   $0x100409c
                           .text:01003019 e8 91 ff ff ff                   call   0x01002faf
                           .text:0100301e a1 9c 40 00 01                   mov    0x100409c,%eax
                           .text:01003023 59                               pop    %ecx
                           .text:01003024 f7 d0                            not    %eax
                           .text:01003026 a3 a0 40 00 01                   mov    %eax,0x10040a0
                           .text:0100302b c3                               ret    
                           .text:0100302c cc                               int3   
                           .text:0100302d cc                               int3   
                           .text:0100302e cc                               int3   
                           .text:0100302f cc                               int3   
                           .text:01003030 cc                               int3   
                           .text:01003031 3b 0d 9c 40 00 01                cmp    0x100409c,%ecx
                           .text:01003037 75 03                            jne    0x0100303c
                           .text:01003039 c2 00 00                         ret    $0x0
                           .text:0100303c e9 a6 fe ff ff                   jmp    0x01002ee7
                           .text:01003041 cc                               int3   
                           .text:01003042 cc                               int3   
                           .text:01003043 cc                               int3   
                           .text:01003044 cc                               int3   
                           .text:01003045 cc                               int3   
                           .text:01003046 ff 25 00 10 00 01                jmp    *0x1001000
                           .text:0100304c cc                               int3   
                           .text:0100304d cc                               int3   
                           .text:0100304e cc                               int3   
                           .text:0100304f cc                               int3   
                           .text:01003050 cc                               int3   
                           .text:01003051 cc                               int3   
                           .text:01003052 ff 25 04 10 00 01                jmp    *0x1001004
                           .text:01003058 cc                               int3   
                           .text:01003059 cc                               int3   
                           .text:0100305a cc                               int3   
                           .text:0100305b cc                               int3   
                           .text:0100305c cc                               int3   
                           .text:0100305d cc                               int3   
                           .text:0100305e ff 25 30 10 00 01                jmp    *0x1001030
                           .text:01003064 cc                               int3   
                           .text:01003065 cc                               int3   
                           .text:01003066 cc                               int3   
                           .text:01003067 cc                               int3   
                           .text:01003068 cc                               int3   
                           .text:01003069 cc                               int3   
                           .text:0100306a ff 25 50 10 00 01                jmp    *0x1001050
                           .text:01003070 cc                               int3   
                           .text:01003071 cc                               int3   
                           .text:01003072 cc                               int3   
                           .text:01003073 cc                               int3   
                           .text:01003074 cc                               int3   
                           .text:01003075 cc                               int3   
                           .text:01003076 ff 25 88 10 00 01                jmp    *0x1001088
                           .text:0100307c cc                               int3   
                           .text:0100307d cc                               int3   
                           .text:0100307e cc                               int3   
                           .text:0100307f cc                               int3   
                           .text:01003080 cc                               int3   
                           .text:01003081 cc                               int3   
                           .text:01003082 ff 25 8c 10 00 01                jmp    *0x100108c
                           .text:01003088 cc                               int3   
                           .text:01003089 cc                               int3   
                           .text:0100308a cc                               int3   
                           .text:0100308b cc                               int3   
                           .text:0100308c cc                               int3   
                           .text:0100308d 8b ff                            mov    %edi,%edi
                           .text:0100308f 55                               push   %ebp
                           .text:01003090 8b ec                            mov    %esp,%ebp
                           .text:01003092 83 ec 2c                         sub    $0x2c,%esp
                           .text:01003095 8b 45 08                         mov    0x8(%ebp),%eax
                           .text:01003098 53                               push   %ebx
                           .text:01003099 56                               push   %esi
                           .text:0100309a 57                               push   %edi
                           .text:0100309b ff 70 10                         pushl  0x10(%eax)
                           .text:0100309e 33 f6                            xor    %esi,%esi
                           .text:010030a0 89 75 e4                         mov    %esi,-0x1c(%ebp)
                           .text:010030a3 ff 15 94 10 00 01                call   *0x1001094
                           .text:010030a9 8b f8                            mov    %eax,%edi
                           .text:010030ab 8d 45 e4                         lea    -0x1c(%ebp),%eax
                           .text:010030ae 89 45 dc                         mov    %eax,-0x24(%ebp)
                           .text:010030b1 89 45 e0                         mov    %eax,-0x20(%ebp)
                           .text:010030b4 33 c0                            xor    %eax,%eax
                           .text:010030b6 40                               inc    %eax
                           .text:010030b7 89 7d d4                         mov    %edi,-0x2c(%ebp)
                           .text:010030ba 89 75 ec                         mov    %esi,-0x14(%ebp)
                           .text:010030bd 89 75 e8                         mov    %esi,-0x18(%ebp)
                           .text:010030c0 89 75 f8                         mov    %esi,-0x8(%ebp)
                           .text:010030c3 89 45 f0                         mov    %eax,-0x10(%ebp)
                           .text:010030c6 89 75 f4                         mov    %esi,-0xc(%ebp)
                           .text:010030c9 3b fe                            cmp    %esi,%edi
                           .text:010030cb 0f 84 a0 00 00 00                je     0x01003171
                           .text:010030d1 8b 47 0c                         mov    0xc(%edi),%eax
                           .text:010030d4 8d 77 40                         lea    0x40(%edi),%esi
                           .text:010030d7 8b 5e 04                         mov    0x4(%esi),%ebx
                           .text:010030da 89 45 ec                         mov    %eax,-0x14(%ebp)
                           .text:010030dd 85 db                            test   %ebx,%ebx
                           .text:010030df 74 06                            je     0x010030e7
                           .text:010030e1 66 83 3e 00                      cmpw   $0x0,(%esi)
                           .text:010030e5 75 0a                            jne    0x010030f1
                           .text:010030e7 8d 77 38                         lea    0x38(%edi),%esi
                           .text:010030ea 8b 5e 04                         mov    0x4(%esi),%ebx
                           .text:010030ed 85 db                            test   %ebx,%ebx
                           .text:010030ef 74 72                            je     0x01003163
                           .text:010030f1 0f b7 06                         movzwl (%esi),%eax
                           .text:010030f4 89 45 fc                         mov    %eax,-0x4(%ebp)
                           .text:010030f7 85 c0                            test   %eax,%eax
                           .text:010030f9 76 6b                            jbe    0x01003166
                           .text:010030fb 66 83 3b 00                      cmpw   $0x0,(%ebx)
                           .text:010030ff 74 65                            je     0x01003166
                           .text:01003101 83 7d fc 00                      cmpl   $0x0,-0x4(%ebp)
                           .text:01003105 76 1f                            jbe    0x01003126
                           .text:01003107 0f b7 03                         movzwl (%ebx),%eax
                           .text:0100310a 66 85 c0                         test   %ax,%ax
                           .text:0100310d 74 13                            je     0x01003122
                           .text:0100310f 50                               push   %eax
                           .text:01003110 e8 33 02 00 00                   call   0x01003348
                           .text:01003115 59                               pop    %ecx
                           .text:01003116 85 c0                            test   %eax,%eax
                           .text:01003118 74 08                            je     0x01003122
                           .text:0100311a 43                               inc    %ebx
                           .text:0100311b 43                               inc    %ebx
                           .text:0100311c 83 6d fc 02                      subl   $0x2,-0x4(%ebp)
                           .text:01003120 75 e5                            jne    0x01003107
                           .text:01003122 83 7d fc 00                      cmpl   $0x0,-0x4(%ebp)
                           .text:01003126 74 3e                            je     0x01003166
                           .text:01003128 66 83 3b 00                      cmpw   $0x0,(%ebx)
                           .text:0100312c 74 2d                            je     0x0100315b
                           .text:0100312e ff 45 f0                         incl   -0x10(%ebp)
                           .text:01003131 89 5d d8                         mov    %ebx,-0x28(%ebp)
                           .text:01003134 43                               inc    %ebx
                           .text:01003135 43                               inc    %ebx
                           .text:01003136 83 6d fc 02                      subl   $0x2,-0x4(%ebp)
                           .text:0100313a 74 0e                            je     0x0100314a
                           .text:0100313c 0f b7 03                         movzwl (%ebx),%eax
                           .text:0100313f 50                               push   %eax
                           .text:01003140 e8 03 02 00 00                   call   0x01003348
                           .text:01003145 59                               pop    %ecx
                           .text:01003146 85 c0                            test   %eax,%eax
                           .text:01003148 74 ea                            je     0x01003134
                           .text:0100314a 8b 4d f8                         mov    -0x8(%ebp),%ecx
                           .text:0100314d 8b c3                            mov    %ebx,%eax
                           .text:0100314f 2b 45 d8                         sub    -0x28(%ebp),%eax
                           .text:01003152 d1 f8                            sar    %eax
                           .text:01003154 8d 44 41 02                      lea    0x2(%ecx,%eax,2),%eax
                           .text:01003158 89 45 f8                         mov    %eax,-0x8(%ebp)
                           .text:0100315b 83 7d fc 00                      cmpl   $0x0,-0x4(%ebp)
                           .text:0100315f 77 9a                            ja     0x010030fb
                           .text:01003161 eb 03                            jmp    0x01003166
                           .text:01003163 8b 5d 08                         mov    0x8(%ebp),%ebx
                           .text:01003166 ff 77 48                         pushl  0x48(%edi)
                           .text:01003169 e8 6d 01 00 00                   call   0x010032db
                           .text:0100316e 40                               inc    %eax
                           .text:0100316f eb 03                            jmp    0x01003174
                           .text:01003171 8b 5d 08                         mov    0x8(%ebp),%ebx
                           .text:01003174 8b 4d f0                         mov    -0x10(%ebp),%ecx
                           .text:01003177 03 c1                            add    %ecx,%eax
                           .text:01003179 83 f8 02                         cmp    $0x2,%eax
                           .text:0100317c 0f 86 09 01 00 00                jbe    0x0100328b
                           .text:01003182 83 f9 01                         cmp    $0x1,%ecx
                           .text:01003185 76 09                            jbe    0x01003190
                           .text:01003187 0f b7 0e                         movzwl (%esi),%ecx
                           .text:0100318a 8b 5e 04                         mov    0x4(%esi),%ebx
                           .text:0100318d 89 4d fc                         mov    %ecx,-0x4(%ebp)
                           .text:01003190 8b f8                            mov    %eax,%edi
                           .text:01003192 64 a1 18 00 00 00                mov    %fs:0x18,%eax
                           .text:01003198 83 a0 f4 0b 00 00 00             andl   $0x0,0xbf4(%eax)
                           .text:0100319f 8b 45 08                         mov    0x8(%ebp),%eax
                           .text:010031a2 c1 e7 02                         shl    $0x2,%edi
                           .text:010031a5 01 7d f8                         add    %edi,-0x8(%ebp)
                           .text:010031a8 ff 75 f8                         pushl  -0x8(%ebp)
                           .text:010031ab 6a 00                            push   $0x0
                           .text:010031ad ff 70 18                         pushl  0x18(%eax)
                           .text:010031b0 ff 15 0c 10 00 01                call   *0x100100c
                           .text:010031b6 8b f0                            mov    %eax,%esi
                           .text:010031b8 85 f6                            test   %esi,%esi
                           .text:010031ba 75 23                            jne    0x010031df
                           .text:010031bc 64 a1 18 00 00 00                mov    %fs:0x18,%eax
                           .text:010031c2 8b 80 f4 0b 00 00                mov    0xbf4(%eax),%eax
                           .text:010031c8 89 45 f4                         mov    %eax,-0xc(%ebp)
                           .text:010031cb 85 c0                            test   %eax,%eax
                           .text:010031cd 0f 8c b8 00 00 00                jl     0x0100328b
                           .text:010031d3 c7 45 f4 17 00 00 c0             movl   $0xc0000017,-0xc(%ebp)
                           .text:010031da e9 ac 00 00 00                   jmp    0x0100328b
                           .text:010031df 83 7d f0 01                      cmpl   $0x1,-0x10(%ebp)
                           .text:010031e3 89 75 dc                         mov    %esi,-0x24(%ebp)
                           .text:010031e6 0f 86 8a 00 00 00                jbe    0x01003276
                           .text:010031ec 8b 45 f8                         mov    -0x8(%ebp),%eax
                           .text:010031ef 03 c6                            add    %esi,%eax
                           .text:010031f1 89 45 08                         mov    %eax,0x8(%ebp)
                           .text:010031f4 03 fe                            add    %esi,%edi
                           .text:010031f6 eb 78                            jmp    0x01003270
                           .text:010031f8 3b 7d 08                         cmp    0x8(%ebp),%edi
                           .text:010031fb 73 79                            jae    0x01003276
                           .text:010031fd 66 83 3b 00                      cmpw   $0x0,(%ebx)
                           .text:01003201 74 73                            je     0x01003276
                           .text:01003203 83 7d fc 00                      cmpl   $0x0,-0x4(%ebp)
                           .text:01003207 76 1f                            jbe    0x01003228
                           .text:01003209 0f b7 03                         movzwl (%ebx),%eax
                           .text:0100320c 66 85 c0                         test   %ax,%ax
                           .text:0100320f 74 13                            je     0x01003224
                           .text:01003211 50                               push   %eax
                           .text:01003212 e8 31 01 00 00                   call   0x01003348
                           .text:01003217 59                               pop    %ecx
                           .text:01003218 85 c0                            test   %eax,%eax
                           .text:0100321a 74 08                            je     0x01003224
                           .text:0100321c 43                               inc    %ebx
                           .text:0100321d 43                               inc    %ebx
                           .text:0100321e 83 6d fc 02                      subl   $0x2,-0x4(%ebp)
                           .text:01003222 75 e5                            jne    0x01003209
                           .text:01003224 83 7d fc 00                      cmpl   $0x0,-0x4(%ebp)
                           .text:01003228 74 4c                            je     0x01003276
                           .text:0100322a 66 83 3b 00                      cmpw   $0x0,(%ebx)
                           .text:0100322e 74 40                            je     0x01003270
                           .text:01003230 89 3e                            mov    %edi,(%esi)
                           .text:01003232 83 c6 04                         add    $0x4,%esi
                           .text:01003235 ff 45 e8                         incl   -0x18(%ebp)
                           .text:01003238 66 8b 03                         mov    (%ebx),%ax
                           .text:0100323b 66 89 07                         mov    %ax,(%edi)
                           .text:0100323e 47                               inc    %edi
                           .text:0100323f 47                               inc    %edi
                           .text:01003240 43                               inc    %ebx
                           .text:01003241 43                               inc    %ebx
                           .text:01003242 83 6d fc 02                      subl   $0x2,-0x4(%ebp)
                           .text:01003246 74 13                            je     0x0100325b
                           .text:01003248 3b 7d 08                         cmp    0x8(%ebp),%edi
                           .text:0100324b 73 1c                            jae    0x01003269
                           .text:0100324d 0f b7 03                         movzwl (%ebx),%eax
                           .text:01003250 50                               push   %eax
                           .text:01003251 e8 f2 00 00 00                   call   0x01003348
                           .text:01003256 59                               pop    %ecx
                           .text:01003257 85 c0                            test   %eax,%eax
                           .text:01003259 74 dd                            je     0x01003238
                           .text:0100325b 3b 7d 08                         cmp    0x8(%ebp),%edi
                           .text:0100325e 73 09                            jae    0x01003269
                           .text:01003260 33 c0                            xor    %eax,%eax
                           .text:01003262 66 89 07                         mov    %ax,(%edi)
                           .text:01003265 47                               inc    %edi
                           .text:01003266 47                               inc    %edi
                           .text:01003267 eb 07                            jmp    0x01003270
                           .text:01003269 4f                               dec    %edi
                           .text:0100326a 4f                               dec    %edi
                           .text:0100326b 33 c0                            xor    %eax,%eax
                           .text:0100326d 66 89 07                         mov    %ax,(%edi)
                           .text:01003270 83 7d fc 00                      cmpl   $0x0,-0x4(%ebp)
                           .text:01003274 77 82                            ja     0x010031f8
                           .text:01003276 83 26 00                         andl   $0x0,(%esi)
                           .text:01003279 8b 45 d4                         mov    -0x2c(%ebp),%eax
                           .text:0100327c 83 c6 04                         add    $0x4,%esi
                           .text:0100327f 56                               push   %esi
                           .text:01003280 ff 70 48                         pushl  0x48(%eax)
                           .text:01003283 89 75 e0                         mov    %esi,-0x20(%ebp)
                           .text:01003286 e8 7e 00 00 00                   call   0x01003309
                           .text:0100328b 83 7d ec 00                      cmpl   $0x0,-0x14(%ebp)
                           .text:0100328f 5f                               pop    %edi
                           .text:01003290 5e                               pop    %esi
                           .text:01003291 5b                               pop    %ebx
                           .text:01003292 74 01                            je     0x01003295
                           .text:01003294 cc                               int3   
                           .text:01003295 83 7d f4 00                      cmpl   $0x0,-0xc(%ebp)
                           .text:01003299 7c 17                            jl     0x010032b2
                           .text:0100329b ff 75 ec                         pushl  -0x14(%ebp)
                           .text:0100329e ff 75 e0                         pushl  -0x20(%ebp)
                           .text:010032a1 ff 75 dc                         pushl  -0x24(%ebp)
                           .text:010032a4 ff 75 e8                         pushl  -0x18(%ebp)
                           .text:010032a7 e8 6a f5 ff ff                   call   0x01002816
                           .text:010032ac 83 c4 10                         add    $0x10,%esp
                           .text:010032af 89 45 f4                         mov    %eax,-0xc(%ebp)
                           .text:010032b2 ff 75 f4                         pushl  -0xc(%ebp)
                           .text:010032b5 6a ff                            push   $0xffffffff
                           .text:010032b7 ff 15 88 10 00 01                call   *0x1001088
                           .text:010032bd c9                               leave  
                           .text:010032be c2 04 00                         ret    $0x4
                           .text:010032c1 cc                               int3   
                           .text:010032c2 cc                               int3   
                           .text:010032c3 cc                               int3   
                           .text:010032c4 cc                               int3   
                           .text:010032c5 cc                               int3   
                           .text:010032c6 8b ff                            mov    %edi,%edi
                           .text:010032c8 55                               push   %ebp
                           .text:010032c9 8b ec                            mov    %esp,%ebp
                           .text:010032cb e8 34 fd ff ff                   call   0x01003004
                           .text:010032d0 5d                               pop    %ebp
                           .text:010032d1 e9 b7 fd ff ff                   jmp    0x0100308d
                           .text:010032d6 cc                               int3   
                           .text:010032d7 cc                               int3   
                           .text:010032d8 cc                               int3   
                           .text:010032d9 cc                               int3   
                           .text:010032da cc                               int3   
                           .text:010032db 8b ff                            mov    %edi,%edi
                           .text:010032dd 55                               push   %ebp
                           .text:010032de 8b ec                            mov    %esp,%ebp
                           .text:010032e0 8b 4d 08                         mov    0x8(%ebp),%ecx
                           .text:010032e3 33 c0                            xor    %eax,%eax
                           .text:010032e5 85 c9                            test   %ecx,%ecx
                           .text:010032e7 74 17                            je     0x01003300
                           .text:010032e9 66 39 01                         cmp    %ax,(%ecx)
                           .text:010032ec 74 12                            je     0x01003300
                           .text:010032ee 41                               inc    %ecx
                           .text:010032ef 41                               inc    %ecx
                           .text:010032f0 40                               inc    %eax
                           .text:010032f1 66 8b 11                         mov    (%ecx),%dx
                           .text:010032f4 41                               inc    %ecx
                           .text:010032f5 41                               inc    %ecx
                           .text:010032f6 66 85 d2                         test   %dx,%dx
                           .text:010032f9 75 f6                            jne    0x010032f1
                           .text:010032fb 66 39 11                         cmp    %dx,(%ecx)
                           .text:010032fe 75 ee                            jne    0x010032ee
                           .text:01003300 5d                               pop    %ebp
                           .text:01003301 c2 04 00                         ret    $0x4
                           .text:01003304 cc                               int3   
                           .text:01003305 cc                               int3   
                           .text:01003306 cc                               int3   
                           .text:01003307 cc                               int3   
                           .text:01003308 cc                               int3   
                           .text:01003309 8b ff                            mov    %edi,%edi
                           .text:0100330b 55                               push   %ebp
                           .text:0100330c 8b ec                            mov    %esp,%ebp
                           .text:0100330e 8b 45 08                         mov    0x8(%ebp),%eax
                           .text:01003311 33 d2                            xor    %edx,%edx
                           .text:01003313 3b c2                            cmp    %edx,%eax
                           .text:01003315 74 22                            je     0x01003339
                           .text:01003317 66 39 10                         cmp    %dx,(%eax)
                           .text:0100331a 74 1d                            je     0x01003339
                           .text:0100331c 8b 4d 0c                         mov    0xc(%ebp),%ecx
                           .text:0100331f 56                               push   %esi
                           .text:01003320 89 01                            mov    %eax,(%ecx)
                           .text:01003322 83 c1 04                         add    $0x4,%ecx
                           .text:01003325 40                               inc    %eax
                           .text:01003326 40                               inc    %eax
                           .text:01003327 66 8b 30                         mov    (%eax),%si
                           .text:0100332a 40                               inc    %eax
                           .text:0100332b 40                               inc    %eax
                           .text:0100332c 66 85 f6                         test   %si,%si
                           .text:0100332f 75 f6                            jne    0x01003327
                           .text:01003331 66 39 10                         cmp    %dx,(%eax)
                           .text:01003334 75 ea                            jne    0x01003320
                           .text:01003336 5e                               pop    %esi
                           .text:01003337 eb 03                            jmp    0x0100333c
                           .text:01003339 8b 4d 0c                         mov    0xc(%ebp),%ecx
                           .text:0100333c 89 11                            mov    %edx,(%ecx)
                           .text:0100333e 5d                               pop    %ebp
                           .text:0100333f c2 08 00                         ret    $0x8
                           .text:01003342 cc                               int3   
                           .text:01003343 cc                               int3   
                           .text:01003344 cc                               int3   
                           .text:01003345 cc                               int3   
                           .text:01003346 cc                               int3   
                           .text:01003347 cc                               int3   
                           .text:01003348 ff 25 90 10 00 01                jmp    *0x1001090
                           .text:0100334e cc                               int3   
                           .text:0100334f cc                               int3   
                           .text:01003350 78 33                            js     0x01003385
                           .text:01003352 00 00                            add    %al,(%eax)
                           .text:01003354 ff                               (bad)  
                           .text:01003355 ff                               (bad)  
                           .text:01003356 ff                               (bad)  
                           .text:01003357 ff                               (bad)  
                           .text:01003358 ff                               (bad)  
                           .text:01003359 ff                               (bad)  
                           .text:0100335a ff                               (bad)  
                           .text:0100335b ff                               (bad)  
                           .text:0100335c fc                               cld    
                           .text:0100335d 36 00 00                         add    %al,%ss:(%eax)
                           .text:01003360 00 10                            add    %dl,(%eax)
                           .text:01003362 00 00                            add    %al,(%eax)
                           .text:01003364 00 00                            add    %al,(%eax)
                           .text:01003366 00 00                            add    %al,(%eax)
                           .text:01003368 00 00                            add    %al,(%eax)
                           .text:0100336a 00 00                            add    %al,(%eax)
                           .text:0100336c 00 00                            add    %al,(%eax)
                           .text:0100336e 00 00                            add    %al,(%eax)
                           .text:01003370 00 00                            add    %al,(%eax)
                           .text:01003372 00 00                            add    %al,(%eax)
                           .text:01003374 00 00                            add    %al,(%eax)
                           .text:01003376 00 00                            add    %al,(%eax)
                           .text:01003378 14 34                            adc    $0x34,%al
                           .text:0100337a 00 00                            add    %al,(%eax)
                           .text:0100337c 22 34 00                         and    (%eax,%eax,1),%dh
                           .text:0100337f 00 2c 34                         add    %ch,(%esp,%esi,1)
                           .text:01003382 00 00                            add    %al,(%eax)
                           .text:01003384 40                               inc    %eax
                           .text:01003385 34 00                            xor    $0x0,%al
                           .text:01003387 00 52 34                         add    %dl,0x34(%edx)
                           .text:0100338a 00 00                            add    %al,(%eax)
                           .text:0100338c 60                               pusha  
                           .text:0100338d 34 00                            xor    $0x0,%al
                           .text:0100338f 00 6a 34                         add    %ch,0x34(%edx)
                           .text:01003392 00 00                            add    %al,(%eax)
                           .text:01003394 82                               (bad)  
                           .text:01003395 34 00                            xor    $0x0,%al
                           .text:01003397 00 90 34 00 00 aa                add    %dl,-0x55ffffcc(%eax)
                           .text:0100339d 34 00                            xor    $0x0,%al
                           .text:0100339f 00 c6                            add    %al,%dh
                           .text:010033a1 34 00                            xor    $0x0,%al
                           .text:010033a3 00 de                            add    %bl,%dh
                           .text:010033a5 34 00                            xor    $0x0,%al
                           .text:010033a7 00 ec                            add    %ch,%ah
                           .text:010033a9 34 00                            xor    $0x0,%al
                           .text:010033ab 00 f6                            add    %dh,%dh
                           .text:010033ad 34 00                            xor    $0x0,%al
                           .text:010033af 00 0c 35 00 00 22 35             add    %cl,0x35220000(,%esi,1)
                           .text:010033b6 00 00                            add    %al,(%eax)
                           .text:010033b8 3e 35 00 00 52 35                ds xor $0x35520000,%eax
                           .text:010033be 00 00                            add    %al,(%eax)
                           .text:010033c0 62 35 00 00 70 35                bound  %esi,0x35700000
                           .text:010033c6 00 00                            add    %al,(%eax)
                           .text:010033c8 88 35 00 00 92 35                mov    %dh,0x35920000
                           .text:010033ce 00 00                            add    %al,(%eax)
                           .text:010033d0 aa                               stos   %al,%es:(%edi)
                           .text:010033d1 35 00 00 b8 35                   xor    $0x35b80000,%eax
                           .text:010033d6 00 00                            add    %al,(%eax)
                           .text:010033d8 d0                               (bad)  
                           .text:010033d9 35 00 00 ec 35                   xor    $0x35ec0000,%eax
                           .text:010033de 00 00                            add    %al,(%eax)
                           .text:010033e0 04 36                            add    $0x36,%al
                           .text:010033e2 00 00                            add    %al,(%eax)
                           .text:010033e4 1e                               push   %ds
                           .text:010033e5 36 00 00                         add    %al,%ss:(%eax)
                           .text:010033e8 32 36                            xor    (%esi),%dh
                           .text:010033ea 00 00                            add    %al,(%eax)
                           .text:010033ec 4c                               dec    %esp
                           .text:010033ed 36 00 00                         add    %al,%ss:(%eax)
                           .text:010033f0 66 36 00 00                      data16 add %al,%ss:(%eax)
                           .text:010033f4 7e 36                            jle    0x0100342c
                           .text:010033f6 00 00                            add    %al,(%eax)
                           .text:010033f8 96                               xchg   %eax,%esi
                           .text:010033f9 36 00 00                         add    %al,%ss:(%eax)
                           .text:010033fc b0 36                            mov    $0x36,%al
                           .text:010033fe 00 00                            add    %al,(%eax)
                           .text:01003400 c8 36 00 00                      enter  $0x36,$0x0
                           .text:01003404 de 36                            fidiv  (%esi)
                           .text:01003406 00 00                            add    %al,(%eax)
                           .text:01003408 06                               push   %es
                           .text:01003409 37                               aaa    
                           .text:0100340a 00 00                            add    %al,(%eax)
                           .text:0100340c 12 37                            adc    (%edi),%dh
                           .text:0100340e 00 00                            add    %al,(%eax)
                           .text:01003410 00 00                            add    %al,(%eax)
                           .text:01003412 00 00                            add    %al,(%eax)
                           .text:01003414 4b                               dec    %ebx
                           .text:01003415 07                               pop    %es
                           .text:01003416 5f                               pop    %edi
                           .text:01003417 76 73                            jbe    0x0100348c
                           .text:01003419 6e                               outsb  %ds:(%esi),(%dx)
                           .text:0100341a 77 70                            ja     0x0100348c
                           .text:0100341c 72 69                            jb     0x01003487
                           .text:0100341e 6e                               outsb  %ds:(%esi),(%dx)
                           .text:0100341f 74 66                            je     0x01003487
                           .text:01003421 00 7d 07                         add    %bh,0x7(%ebp)
                           .text:01003424 6d                               insl   (%dx),%es:(%edi)
                           .text:01003425 65 6d                            gs insl (%dx),%es:(%edi)
                           .text:01003427 73 65                            jae    0x0100348e
                           .text:01003429 74 00                            je     0x0100342b
                           .text:0100342b 00 46 04                         add    %al,0x4(%esi)
                           .text:0100342e 52                               push   %edx
                           .text:0100342f 74 6c                            je     0x0100349d
                           .text:01003431 52                               push   %edx
                           .text:01003432 65 41                            gs inc %ecx
                           .text:01003434 6c                               insb   (%dx),%es:(%edi)
                           .text:01003435 6c                               insb   (%dx),%es:(%edi)
                           .text:01003436 6f                               outsl  %ds:(%esi),(%dx)
                           .text:01003437 63 61 74                         arpl   %sp,0x74(%ecx)
                           .text:0100343a 65 48                            gs dec %eax
                           .text:0100343c 65 61                            gs popa 
                           .text:0100343e 70 00                            jo     0x01003440
                           .text:01003440 63 02                            arpl   %ax,(%edx)
                           .text:01003442 52                               push   %edx
                           .text:01003443 74 6c                            je     0x010034b1
                           .text:01003445 41                               inc    %ecx
                           .text:01003446 6c                               insb   (%dx),%es:(%edi)
                           .text:01003447 6c                               insb   (%dx),%es:(%edi)
                           .text:01003448 6f                               outsl  %ds:(%esi),(%dx)
                           .text:01003449 63 61 74                         arpl   %sp,0x74(%ecx)
                           .text:0100344c 65 48                            gs dec %eax
                           .text:0100344e 65 61                            gs popa 
                           .text:01003450 70 00                            jo     0x01003452
                           .text:01003452 b5 01                            mov    $0x1,%ch
                           .text:01003454 4e                               dec    %esi
                           .text:01003455 74 52                            je     0x010034a9
                           .text:01003457 65 61                            gs popa 
                           .text:01003459 64 46                            fs inc %esi
                           .text:0100345b 69 6c 65 00 00 d4 00 4e          imul   $0x4e00d400,0x0(%ebp,%eiz,2),%ebp
                           .text:01003463 74 43                            je     0x010034a8
                           .text:01003465 6c                               insb   (%dx),%es:(%edi)
                           .text:01003466 6f                               outsl  %ds:(%esi),(%dx)
                           .text:01003467 73 65                            jae    0x010034ce
                           .text:01003469 00 ed                            add    %ch,%ch
                           .text:0100346b 01 4e 74                         add    %ecx,0x74(%esi)
                           .text:0100346e 53                               push   %ebx
                           .text:0100346f 65 74 49                         gs je  0x010034bb
                           .text:01003472 6e                               outsb  %ds:(%esi),(%dx)
                           .text:01003473 66 6f                            outsw  %ds:(%esi),(%dx)
                           .text:01003475 72 6d                            jb     0x010034e4
                           .text:01003477 61                               popa   
                           .text:01003478 74 69                            je     0x010034e3
                           .text:0100347a 6f                               outsl  %ds:(%esi),(%dx)
                           .text:0100347b 6e                               outsb  %ds:(%esi),(%dx)
                           .text:0100347c 46                               inc    %esi
                           .text:0100347d 69 6c 65 00 00 57 01 4e          imul   $0x4e015700,0x0(%ebp,%eiz,2),%ebp
                           .text:01003485 74 4f                            je     0x010034d6
                           .text:01003487 70 65                            jo     0x010034ee
                           .text:01003489 6e                               outsb  %ds:(%esi),(%dx)
                           .text:0100348a 46                               inc    %esi
                           .text:0100348b 69 6c 65 00 00 8b 01 4e          imul   $0x4e018b00,0x0(%ebp,%eiz,2),%ebp
                           .text:01003493 74 51                            je     0x010034e6
                           .text:01003495 75 65                            jne    0x010034fc
                           .text:01003497 72 79                            jb     0x01003512
                           .text:01003499 49                               dec    %ecx
                           .text:0100349a 6e                               outsb  %ds:(%esi),(%dx)
                           .text:0100349b 66 6f                            outsw  %ds:(%esi),(%dx)
                           .text:0100349d 72 6d                            jb     0x0100350c
                           .text:0100349f 61                               popa   
                           .text:010034a0 74 69                            je     0x0100350b
                           .text:010034a2 6f                               outsl  %ds:(%esi),(%dx)
                           .text:010034a3 6e                               outsb  %ds:(%esi),(%dx)
                           .text:010034a4 46                               inc    %esi
                           .text:010034a5 69 6c 65 00 00 6d 02 52          imul   $0x52026d00,0x0(%ebp,%eiz,2),%ebp
                           .text:010034ad 74 6c                            je     0x0100351b
                           .text:010034af 41                               inc    %ecx
                           .text:010034b0 70 70                            jo     0x01003522
                           .text:010034b2 65 6e                            outsb  %gs:(%esi),(%dx)
                           .text:010034b4 64 55                            fs push %ebp
                           .text:010034b6 6e                               outsb  %ds:(%esi),(%dx)
                           .text:010034b7 69 63 6f 64 65 54 6f             imul   $0x6f546564,0x6f(%ebx),%esp
                           .text:010034be 53                               push   %ebx
                           .text:010034bf 74 72                            je     0x01003533
                           .text:010034c1 69 6e 67 00 00 7d 01             imul   $0x17d0000,0x67(%esi),%ebp
                           .text:010034c8 4e                               dec    %esi
                           .text:010034c9 74 51                            je     0x0100351c
                           .text:010034cb 75 65                            jne    0x01003532
                           .text:010034cd 72 79                            jb     0x01003548
                           .text:010034cf 41                               inc    %ecx
                           .text:010034d0 74 74                            je     0x01003546
                           .text:010034d2 72 69                            jb     0x0100353d
                           .text:010034d4 62 75 74                         bound  %esi,0x74(%ebp)
                           .text:010034d7 65 73 46                         gs jae 0x01003520
                           .text:010034da 69 6c 65 00 47 03 52 74          imul   $0x74520347,0x0(%ebp,%eiz,2),%ebp
                           .text:010034e2 6c                               insb   (%dx),%es:(%edi)
                           .text:010034e3 46                               inc    %esi
                           .text:010034e4 72 65                            jb     0x0100354b
                           .text:010034e6 65 48                            gs dec %eax
                           .text:010034e8 65 61                            gs popa 
                           .text:010034ea 70 00                            jo     0x010034ec
                           .text:010034ec 79 07                            jns    0x010034f5
                           .text:010034ee 6d                               insl   (%dx),%es:(%edi)
                           .text:010034ef 65 6d                            gs insl (%dx),%es:(%edi)
                           .text:010034f1 63 70 79                         arpl   %si,0x79(%eax)
                           .text:010034f4 00 00                            add    %al,(%eax)
                           .text:010034f6 5f                               pop    %edi
                           .text:010034f7 02 52 74                         add    0x74(%edx),%dl
                           .text:010034fa 6c                               insb   (%dx),%es:(%edi)
                           .text:010034fb 41                               inc    %ecx
                           .text:010034fc 64 6a 75                         fs push $0x75
                           .text:010034ff 73 74                            jae    0x01003575
                           .text:01003501 50                               push   %eax
                           .text:01003502 72 69                            jb     0x0100356d
                           .text:01003504 76 69                            jbe    0x0100356f
                           .text:01003506 6c                               insb   (%dx),%es:(%edi)
                           .text:01003507 65 67 65 00 00                   gs add %al,%gs:(%bx,%si)
                           .text:0100350c 1e                               push   %ds
                           .text:0100350d 03 52 74                         add    0x74(%edx),%edx
                           .text:01003510 6c                               insb   (%dx),%es:(%edi)
                           .text:01003511 45                               inc    %ebp
                           .text:01003512 78 69                            js     0x0100357d
                           .text:01003514 74 55                            je     0x0100356b
                           .text:01003516 73 65                            jae    0x0100357d
                           .text:01003518 72 50                            jb     0x0100356a
                           .text:0100351a 72 6f                            jb     0x0100358b
                           .text:0100351c 63 65 73                         arpl   %sp,0x73(%ebp)
                           .text:0100351f 73 00                            jae    0x01003521
                           .text:01003521 00 29                            add    %ch,(%ecx)
                           .text:01003523 02 4e 74                         add    0x74(%esi),%cl
                           .text:01003526 57                               push   %edi
                           .text:01003527 61                               popa   
                           .text:01003528 69 74 46 6f 72 4d 75 6c          imul   $0x6c754d72,0x6f(%esi,%eax,2),%esi
                           .text:01003530 74 69                            je     0x0100359b
                           .text:01003532 70 6c                            jo     0x010035a0
                           .text:01003534 65 4f                            gs dec %edi
                           .text:01003536 62 6a 65                         bound  %ebp,0x65(%edx)
                           .text:01003539 63 74 73 00                      arpl   %si,0x0(%ebx,%esi,2)
                           .text:0100353d 00 fa                            add    %bh,%dl
                           .text:0100353f 00 4e 74                         add    %cl,0x74(%esi)
                           .text:01003542 43                               inc    %ebx
                           .text:01003543 72 65                            jb     0x010035aa
                           .text:01003545 61                               popa   
                           .text:01003546 74 65                            je     0x010035ad
                           .text:01003548 54                               push   %esp
                           .text:01003549 68 72 65 61 64                   push   $0x64616572
                           .text:0100354e 45                               inc    %ebp
                           .text:0100354f 78 00                            js     0x01003551
                           .text:01003551 00 e2                            add    %ah,%dl
                           .text:01003553 00 4e 74                         add    %cl,0x74(%esi)
                           .text:01003556 43                               inc    %ebx
                           .text:01003557 72 65                            jb     0x010035be
                           .text:01003559 61                               popa   
                           .text:0100355a 74 65                            je     0x010035c1
                           .text:0100355c 45                               inc    %ebp
                           .text:0100355d 76 65                            jbe    0x010035c4
                           .text:0100355f 6e                               outsb  %ds:(%esi),(%dx)
                           .text:01003560 74 00                            je     0x01003562
                           .text:01003562 e7 01                            out    %eax,$0x1
                           .text:01003564 4e                               dec    %esi
                           .text:01003565 74 53                            je     0x010035ba
                           .text:01003567 65 74 45                         gs je  0x010035af
                           .text:0100356a 76 65                            jbe    0x010035d1
                           .text:0100356c 6e                               outsb  %ds:(%esi),(%dx)
                           .text:0100356d 74 00                            je     0x0100356f
                           .text:0100356f 00 2b                            add    %ch,(%ebx)
                           .text:01003571 02 4e 74                         add    0x74(%esi),%cl
                           .text:01003574 57                               push   %edi
                           .text:01003575 61                               popa   
                           .text:01003576 69 74 46 6f 72 53 69 6e          imul   $0x6e695372,0x6f(%esi,%eax,2),%esi
                           .text:0100357e 67 6c                            insb   (%dx),%es:(%di)
                           .text:01003580 65 4f                            gs dec %edi
                           .text:01003582 62 6a 65                         bound  %ebp,0x65(%edx)
                           .text:01003585 63 74 00 7b                      arpl   %si,0x7b(%eax,%eax,1)
                           .text:01003589 07                               pop    %es
                           .text:0100358a 6d                               insl   (%dx),%es:(%edi)
                           .text:0100358b 65 6d                            gs insl (%dx),%es:(%edi)
                           .text:0100358d 6d                               insl   (%dx),%es:(%edi)
                           .text:0100358e 6f                               outsl  %ds:(%esi),(%dx)
                           .text:0100358f 76 65                            jbe    0x010035f6
                           .text:01003591 00 18                            add    %bl,(%eax)
                           .text:01003593 03 52 74                         add    0x74(%edx),%edx
                           .text:01003596 6c                               insb   (%dx),%es:(%edi)
                           .text:01003597 45                               inc    %ebp
                           .text:01003598 71 75                            jno    0x0100360f
                           .text:0100359a 61                               popa   
                           .text:0100359b 6c                               insb   (%dx),%es:(%edi)
                           .text:0100359c 55                               push   %ebp
                           .text:0100359d 6e                               outsb  %ds:(%esi),(%dx)
                           .text:0100359e 69 63 6f 64 65 53 74             imul   $0x74536564,0x6f(%ebx),%esp
                           .text:010035a5 72 69                            jb     0x01003610
                           .text:010035a7 6e                               outsb  %ds:(%esi),(%dx)
                           .text:010035a8 67 00 30                         add    %dh,(%bx,%si)
                           .text:010035ab 02 4e 74                         add    0x74(%esi),%cl
                           .text:010035ae 57                               push   %edi
                           .text:010035af 72 69                            jb     0x0100361a
                           .text:010035b1 74 65                            je     0x01003618
                           .text:010035b3 46                               inc    %esi
                           .text:010035b4 69 6c 65 00 9b 03 52 74          imul   $0x7452039b,0x0(%ebp,%eiz,2),%ebp
                           .text:010035bc 6c                               insb   (%dx),%es:(%edi)
                           .text:010035bd 49                               dec    %ecx
                           .text:010035be 6e                               outsb  %ds:(%esi),(%dx)
                           .text:010035bf 69 74 55 6e 69 63 6f 64          imul   $0x646f6369,0x6e(%ebp,%edx,2),%esi
                           .text:010035c7 65 53                            gs push %ebx
                           .text:010035c9 74 72                            je     0x0100363d
                           .text:010035cb 69 6e 67 00 00 ff 02             imul   $0x2ff0000,0x67(%esi),%ebp
                           .text:010035d2 52                               push   %edx
                           .text:010035d3 74 6c                            je     0x01003641
                           .text:010035d5 44                               inc    %esp
                           .text:010035d6 75 70                            jne    0x01003648
                           .text:010035d8 6c                               insb   (%dx),%es:(%edi)
                           .text:010035d9 69 63 61 74 65 55 6e             imul   $0x6e556574,0x61(%ebx),%esp
                           .text:010035e0 69 63 6f 64 65 53 74             imul   $0x74536564,0x6f(%ebx),%esp
                           .text:010035e7 72 69                            jb     0x01003652
                           .text:010035e9 6e                               outsb  %ds:(%esi),(%dx)
                           .text:010035ea 67 00 4c 03                      add    %cl,0x3(%si)
                           .text:010035ee 52                               push   %edx
                           .text:010035ef 74 6c                            je     0x0100365d
                           .text:010035f1 46                               inc    %esi
                           .text:010035f2 72 65                            jb     0x01003659
                           .text:010035f4 65 55                            gs push %ebp
                           .text:010035f6 6e                               outsb  %ds:(%esi),(%dx)
                           .text:010035f7 69 63 6f 64 65 53 74             imul   $0x74536564,0x6f(%ebx),%esp
                           .text:010035fe 72 69                            jb     0x01003669
                           .text:01003600 6e                               outsb  %ds:(%esi),(%dx)
                           .text:01003601 67 00 00                         add    %al,(%bx,%si)
                           .text:01003604 de 02                            fiadd  (%edx)
                           .text:01003606 52                               push   %edx
                           .text:01003607 74 6c                            je     0x01003675
                           .text:01003609 44                               inc    %esp
                           .text:0100360a 65 6c                            gs insb (%dx),%es:(%edi)
                           .text:0100360c 65 74 65                         gs je  0x01003674
                           .text:0100360f 52                               push   %edx
                           .text:01003610 65 67 69 73 74 72 79 56 61       imul   $0x61567972,%gs:0x74(%bp,%di),%esi
                           .text:01003619 6c                               insb   (%dx),%es:(%edi)
                           .text:0100361a 75 65                            jne    0x01003681
                           .text:0100361c 00 00                            add    %al,(%eax)
                           .text:0100361e 0c 02                            or     $0x2,%al
                           .text:01003620 4e                               dec    %esi
                           .text:01003621 74 53                            je     0x01003676
                           .text:01003623 68 75 74 64 6f                   push   $0x6f647475
                           .text:01003628 77 6e                            ja     0x01003698
                           .text:0100362a 53                               push   %ebx
                           .text:0100362b 79 73                            jns    0x010036a0
                           .text:0100362d 74 65                            je     0x01003694
                           .text:0100362f 6d                               insl   (%dx),%es:(%edi)
                           .text:01003630 00 00                            add    %al,(%eax)
                           .text:01003632 cc                               int3   
                           .text:01003633 04 52                            add    $0x52,%al
                           .text:01003635 74 6c                            je     0x010036a3
                           .text:01003637 55                               push   %ebp
                           .text:01003638 6e                               outsb  %ds:(%esi),(%dx)
                           .text:01003639 6c                               insb   (%dx),%es:(%edi)
                           .text:0100363a 6f                               outsl  %ds:(%esi),(%dx)
                           .text:0100363b 63 6b 42                         arpl   %bp,0x42(%ebx)
                           .text:0100363e 6f                               outsl  %ds:(%esi),(%dx)
                           .text:0100363f 6f                               outsl  %ds:(%esi),(%dx)
                           .text:01003640 74 53                            je     0x01003695
                           .text:01003642 74 61                            je     0x010036a5
                           .text:01003644 74 75                            je     0x010036bb
                           .text:01003646 73 44                            jae    0x0100368c
                           .text:01003648 61                               popa   
                           .text:01003649 74 61                            je     0x010036ac
                           .text:0100364b 00 7a 03                         add    %bh,0x3(%edx)
                           .text:0100364e 52                               push   %edx
                           .text:0100364f 74 6c                            je     0x010036bd
                           .text:01003651 47                               inc    %edi
                           .text:01003652 65 74 53                         gs je  0x010036a8
                           .text:01003655 65 74 42                         gs je  0x0100369a
                           .text:01003658 6f                               outsl  %ds:(%esi),(%dx)
                           .text:01003659 6f                               outsl  %ds:(%esi),(%dx)
                           .text:0100365a 74 53                            je     0x010036af
                           .text:0100365c 74 61                            je     0x010036bf
                           .text:0100365e 74 75                            je     0x010036d5
                           .text:01003660 73 44                            jae    0x010036a6
                           .text:01003662 61                               popa   
                           .text:01003663 74 61                            je     0x010036c6
                           .text:01003665 00 f4                            add    %dh,%ah
                           .text:01003667 03 52 74                         add    0x74(%edx),%edx
                           .text:0100366a 6c                               insb   (%dx),%es:(%edi)
                           .text:0100366b 4c                               dec    %esp
                           .text:0100366c 6f                               outsl  %ds:(%esi),(%dx)
                           .text:0100366d 63 6b 42                         arpl   %bp,0x42(%ebx)
                           .text:01003670 6f                               outsl  %ds:(%esi),(%dx)
                           .text:01003671 6f                               outsl  %ds:(%esi),(%dx)
                           .text:01003672 74 53                            je     0x010036c7
                           .text:01003674 74 61                            je     0x010036d7
                           .text:01003676 74 75                            je     0x010036ed
                           .text:01003678 73 44                            jae    0x010036be
                           .text:0100367a 61                               popa   
                           .text:0100367b 74 61                            je     0x010036de
                           .text:0100367d 00 f5                            add    %dh,%ch
                           .text:0100367f 04 52                            add    $0x52,%al
                           .text:01003681 74 6c                            je     0x010036ef
                           .text:01003683 57                               push   %edi
                           .text:01003684 72 69                            jb     0x010036ef
                           .text:01003686 74 65                            je     0x010036ed
                           .text:01003688 52                               push   %edx
                           .text:01003689 65 67 69 73 74 72 79 56 61       imul   $0x61567972,%gs:0x74(%bp,%di),%esi
                           .text:01003692 6c                               insb   (%dx),%es:(%edi)
                           .text:01003693 75 65                            jne    0x010036fa
                           .text:01003695 00 3b                            add    %bh,(%ebx)
                           .text:01003697 04 52                            add    $0x52,%al
                           .text:01003699 74 6c                            je     0x01003707
                           .text:0100369b 51                               push   %ecx
                           .text:0100369c 75 65                            jne    0x01003703
                           .text:0100369e 72 79                            jb     0x01003719
                           .text:010036a0 52                               push   %edx
                           .text:010036a1 65 67 69 73 74 72 79 56 61       imul   $0x61567972,%gs:0x74(%bp,%di),%esi
                           .text:010036aa 6c                               insb   (%dx),%es:(%edi)
                           .text:010036ab 75 65                            jne    0x01003712
                           .text:010036ad 73 00                            jae    0x010036af
                           .text:010036af 00 81 04 52 74 6c                add    %al,0x6c745204(%ecx)
                           .text:010036b5 53                               push   %ebx
                           .text:010036b6 65 74 48                         gs je  0x01003701
                           .text:010036b9 65 61                            gs popa 
                           .text:010036bb 70 49                            jo     0x01003706
                           .text:010036bd 6e                               outsb  %ds:(%esi),(%dx)
                           .text:010036be 66 6f                            outsw  %ds:(%esi),(%dx)
                           .text:010036c0 72 6d                            jb     0x0100372f
                           .text:010036c2 61                               popa   
                           .text:010036c3 74 69                            je     0x0100372e
                           .text:010036c5 6f                               outsl  %ds:(%esi),(%dx)
                           .text:010036c6 6e                               outsb  %ds:(%esi),(%dx)
                           .text:010036c7 00 16                            add    %dl,(%esi)
                           .text:010036c9 02 4e 74                         add    0x74(%esi),%cl
                           .text:010036cc 54                               push   %esp
                           .text:010036cd 65 72 6d                         gs jb  0x0100373d
                           .text:010036d0 69 6e 61 74 65 50 72             imul   $0x72506574,0x61(%esi),%ebp
                           .text:010036d7 6f                               outsl  %ds:(%esi),(%dx)
                           .text:010036d8 63 65 73                         arpl   %sp,0x73(%ebp)
                           .text:010036db 73 00                            jae    0x010036dd
                           .text:010036dd 00 be 04 52 74 6c                add    %bh,0x6c745204(%esi)
                           .text:010036e3 55                               push   %ebp
                           .text:010036e4 6e                               outsb  %ds:(%esi),(%dx)
                           .text:010036e5 68 61 6e 64 6c                   push   $0x6c646e61
                           .text:010036ea 65 64 45                         gs fs inc %ebp
                           .text:010036ed 78 63                            js     0x01003752
                           .text:010036ef 65 70 74                         gs jo  0x01003766
                           .text:010036f2 69 6f 6e 46 69 6c 74             imul   $0x746c6946,0x6e(%edi),%ebp
                           .text:010036f9 65 72 00                         gs jb  0x010036fc
                           .text:010036fc 6e                               outsb  %ds:(%esi),(%dx)
                           .text:010036fd 74 64                            je     0x01003763
                           .text:010036ff 6c                               insb   (%dx),%es:(%edi)
                           .text:01003700 6c                               insb   (%dx),%es:(%edi)
                           .text:01003701 2e 64 6c                         cs fs insb (%dx),%es:(%edi)
                           .text:01003704 6c                               insb   (%dx),%es:(%edi)
                           .text:01003705 00 71 07                         add    %dh,0x7(%ecx)
                           .text:01003708 69 73 77 73 70 61 63             imul   $0x63617073,0x77(%ebx),%esi
                           .text:0100370f 65 00 00                         add    %al,%gs:(%eax)
                           .text:01003712 10 04 52                         adc    %al,(%edx,%edx,2)
                           .text:01003715 74 6c                            je     0x01003783
                           .text:01003717 4e                               dec    %esi
                           .text:01003718 6f                               outsl  %ds:(%esi),(%dx)
                           .text:01003719 72 6d                            jb     0x01003788
                           .text:0100371b 61                               popa   
                           .text:0100371c 6c                               insb   (%dx),%es:(%edi)
                           .text:0100371d 69 7a 65 50 72 6f 63             imul   $0x636f7250,0x65(%edx),%edi
                           .text:01003724 65 73 73                         gs jae 0x0100379a
                           .text:01003727 50                               push   %eax
                           .text:01003728 61                               popa   
                           .text:01003729 72 61                            jb     0x0100378c
                           .text:0100372b 6d                               insl   (%dx),%es:(%edi)
                           .text:0100372c 73 00                            jae    0x0100372e
                           .data:01004000 01                               0x01 
                           .data:01004001 00                               0x00 
                           .data:01004002 00                               0x00 
                           .data:01004003 c0                               0xc0 
                           .data:01004004 04                               0x04 
                           .data:01004005 40                               0x40 '@'
                           .data:01004006 00                               0x00 
                           .data:01004007 01                               0x01 
                           .data:01004008 04                               0x04 
                           .data:01004009 40                               0x40 '@'
                           .data:0100400a 00                               0x00 
                           .data:0100400b 01                               0x01 
                           .data:0100400c 00                               0x00 
                           .data:0100400d 00                               0x00 
                           .data:0100400e 00                               0x00 
                           .data:0100400f 00                               0x00 
                           .data:01004010 15                               0x15 
                           .data:01004011 24                               0x24 '$'
                           .data:01004012 00                               0x00 
                           .data:01004013 01                               0x01 
                           .data:01004014 00                               0x00 
                           .data:01004015 00                               0x00 
                           .data:01004016 00                               0x00 
                           .data:01004017 00                               0x00 
                           .data:01004018 00                               0x00 
                           .data:01004019 11                               0x11 
                           .data:0100401a 00                               0x00 
                           .data:0100401b 01                               0x01 
                           .data:0100401c 00                               0x00 
                           .data:0100401d 00                               0x00 
                           .data:0100401e 00                               0x00 
                           .data:0100401f 00                               0x00 
                           .data:01004020 00                               0x00 
                           .data:01004021 00                               0x00 
                           .data:01004022 00                               0x00 
                           .data:01004023 00                               0x00 
                           .data:01004024 00                               0x00 
                           .data:01004025 00                               0x00 
                           .data:01004026 00                               0x00 
                           .data:01004027 00                               0x00 
                           .data:01004028 00                               0x00 
                           .data:01004029 00                               0x00 
                           .data:0100402a 00                               0x00 
                           .data:0100402b 00                               0x00 
                           .data:0100402c 3b                               0x3b ';'
                           .data:0100402d 24                               0x24 '$'
                           .data:0100402e 00                               0x00 
                           .data:0100402f 01                               0x01 
                           .data:01004030 00                               0x00 
                           .data:01004031 00                               0x00 
                           .data:01004032 00                               0x00 
                           .data:01004033 00                               0x00 
                           .data:01004034 d8                               0xd8 
                           .data:01004035 10                               0x10 
                           .data:01004036 00                               0x00 
                           .data:01004037 01                               0x01 
                           .data:01004038 00                               0x00 
                           .data:01004039 00                               0x00 
                           .data:0100403a 00                               0x00 
                           .data:0100403b 00                               0x00 
                           .data:0100403c 00                               0x00 
                           .data:0100403d 00                               0x00 
                           .data:0100403e 00                               0x00 
                           .data:0100403f 00                               0x00 
                           .data:01004040 00                               0x00 
                           .data:01004041 00                               0x00 
                           .data:01004042 00                               0x00 
                           .data:01004043 00                               0x00 
                           .data:01004044 00                               0x00 
                           .data:01004045 00                               0x00 
                           .data:01004046 00                               0x00 
                           .data:01004047 00                               0x00 
                           .data:01004048 00                               0x00 
                           .data:01004049 00                               0x00 
                           .data:0100404a 00                               0x00 
                           .data:0100404b 00                               0x00 
                           .data:0100404c 00                               0x00 
                           .data:0100404d 00                               0x00 
                           .data:0100404e 00                               0x00 
                           .data:0100404f 00                               0x00 
                           .data:01004050 00                               0x00 
                           .data:01004051 00                               0x00 
                           .data:01004052 00                               0x00 
                           .data:01004053 00                               0x00 
                           .data:01004054 00                               0x00 
                           .data:01004055 00                               0x00 
                           .data:01004056 00                               0x00 
                           .data:01004057 00                               0x00 
                           .data:01004058 00                               0x00 
                           .data:01004059 00                               0x00 
                           .data:0100405a 00                               0x00 
                           .data:0100405b 00                               0x00 
                           .data:0100405c 00                               0x00 
                           .data:0100405d 00                               0x00 
                           .data:0100405e 00                               0x00 
                           .data:0100405f 00                               0x00 
                           .data:01004060 00                               0x00 
                           .data:01004061 00                               0x00 
                           .data:01004062 00                               0x00 
                           .data:01004063 00                               0x00 
                           .data:01004064 5b                               0x5b '['
                           .data:01004065 24                               0x24 '$'
                           .data:01004066 00                               0x00 
                           .data:01004067 01                               0x01 
                           .data:01004068 00                               0x00 
                           .data:01004069 00                               0x00 
                           .data:0100406a 00                               0x00 
                           .data:0100406b 00                               0x00 
                           .data:0100406c bc                               0xbc 
                           .data:0100406d 10                               0x10 
                           .data:0100406e 00                               0x00 
                           .data:0100406f 01                               0x01 
                           .data:01004070 00                               0x00 
                           .data:01004071 00                               0x00 
                           .data:01004072 00                               0x00 
                           .data:01004073 00                               0x00 
                           .data:01004074 00                               0x00 
                           .data:01004075 00                               0x00 
                           .data:01004076 00                               0x00 
                           .data:01004077 00                               0x00 
                           .data:01004078 00                               0x00 
                           .data:01004079 00                               0x00 
                           .data:0100407a 00                               0x00 
                           .data:0100407b 00                               0x00 
                           .data:0100407c 00                               0x00 
                           .data:0100407d 00                               0x00 
                           .data:0100407e 00                               0x00 
                           .data:0100407f 00                               0x00 
                           .data:01004080 00                               0x00 
                           .data:01004081 00                               0x00 
                           .data:01004082 00                               0x00 
                           .data:01004083 00                               0x00 
                           .data:01004084 00                               0x00 
                           .data:01004085 00                               0x00 
                           .data:01004086 00                               0x00 
                           .data:01004087 00                               0x00 
                           .data:01004088 00                               0x00 
                           .data:01004089 00                               0x00 
                           .data:0100408a 00                               0x00 
                           .data:0100408b 00                               0x00 
                           .data:0100408c 00                               0x00 
                           .data:0100408d 00                               0x00 
                           .data:0100408e 00                               0x00 
                           .data:0100408f 00                               0x00 
                           .data:01004090 00                               0x00 
                           .data:01004091 00                               0x00 
                           .data:01004092 00                               0x00 
                           .data:01004093 00                               0x00 
                           .data:01004094 00                               0x00 
                           .data:01004095 00                               0x00 
                           .data:01004096 00                               0x00 
                           .data:01004097 00                               0x00 
                           .data:01004098 00                               0x00 
                           .data:01004099 00                               0x00 
                           .data:0100409a 00                               0x00 
                           .data:0100409b 00                               0x00 
                           .data:0100409c 4e                               0x4e 'N'
                           .data:0100409d e6                               0xe6 
                           .data:0100409e 40                               0x40 '@'
                           .data:0100409f bb                               0xbb 
                           .data:010040a0 b1                               0xb1 
                           .data:010040a1 19                               0x19 
                           .data:010040a2 bf                               0xbf 
                           .data:010040a3 44                               0x44 'D'
                           .data:010040a4 00                               0x00 
                           .data:010040a5 00                               0x00 
                           .data:010040a6 00                               0x00 
                           .data:010040a7 00                               0x00 
                           .data:010040a8 00                               0x00 
                           .data:010040a9 00                               0x00 
                           .data:010040aa 00                               0x00 
                           .data:010040ab 00                               0x00 
                           .data:010040ac 00                               0x00 
                           .data:010040ad 00                               0x00 
                           .data:010040ae 00                               0x00 
                           .data:010040af 00                               0x00 
                           .data:010040b0 00                               0x00 
                           .data:010040b1 00                               0x00 
                           .data:010040b2 00                               0x00 
                           .data:010040b3 00                               0x00 
                           .data:010040b4 00                               0x00 
                           .data:010040b5 00                               0x00 
                           .data:010040b6 00                               0x00 
                           .data:010040b7 00                               0x00 
                           .data:010040b8 00                               0x00 
                           .data:010040b9 00                               0x00 
                           .data:010040ba 00                               0x00 
                           .data:010040bb 00                               0x00 
                           .data:010040bc 00                               0x00 
                           .data:010040bd 00                               0x00 
                           .data:010040be 00                               0x00 
                           .data:010040bf 00                               0x00 
                           .data:010040c0 00                               0x00 
                           .data:010040c1 00                               0x00 
                           .data:010040c2 00                               0x00 
                           .data:010040c3 00                               0x00 
                           .data:010040c4 00                               0x00 
                           .data:010040c5 00                               0x00 
                           .data:010040c6 00                               0x00 
                           .data:010040c7 00                               0x00 
                           .data:010040c8 00                               0x00 
                           .data:010040c9 00                               0x00 
                           .data:010040ca 00                               0x00 
                           .data:010040cb 00                               0x00 
                           .data:010040cc 00                               0x00 
                           .data:010040cd 00                               0x00 
                           .data:010040ce 00                               0x00 
                           .data:010040cf 00                               0x00 
                           .data:010040d0 00                               0x00 
                           .data:010040d1 00                               0x00 
                           .data:010040d2 00                               0x00 
                           .data:010040d3 00                               0x00 
                           .data:010040d4 00                               0x00 
                           .data:010040d5 00                               0x00 
                           .data:010040d6 00                               0x00 
                           .data:010040d7 00                               0x00 
                           .data:010040d8 00                               0x00 
                           .data:010040d9 00                               0x00 
                           .data:010040da 00                               0x00 
                           .data:010040db 00                               0x00 
                           .data:010040dc 00                               0x00 
                           .data:010040dd 00                               0x00 
                           .data:010040de 00                               0x00 
                           .data:010040df 00                               0x00 
                           .data:010040e0 00                               0x00 
                           .data:010040e1 00                               0x00 
                           .data:010040e2 00                               0x00 
                           .data:010040e3 00                               0x00 
                           .data:010040e4 00                               0x00 
                           .data:010040e5 00                               0x00 
                           .data:010040e6 00                               0x00 
                           .data:010040e7 00                               0x00 
                           .data:010040e8 00                               0x00 
                           .data:010040e9 00                               0x00 
                           .data:010040ea 00                               0x00 
                           .data:010040eb 00                               0x00 
                           .data:010040ec 00                               0x00 
                           .data:010040ed 00                               0x00 
                           .data:010040ee 00                               0x00 
                           .data:010040ef 00                               0x00 
                           .data:010040f0 00                               0x00 
                           .data:010040f1 00                               0x00 
                           .data:010040f2 00                               0x00 
                           .data:010040f3 00                               0x00 
                           .data:010040f4 00                               0x00 
                           .data:010040f5 00                               0x00 
                           .data:010040f6 00                               0x00 
                           .data:010040f7 00                               0x00 
                           .data:010040f8 00                               0x00 
                           .data:010040f9 00                               0x00 
                           .data:010040fa 00                               0x00 
                           .data:010040fb 00                               0x00 
                           .data:010040fc 00                               0x00 
                           .data:010040fd 00                               0x00 
                           .data:010040fe 00                               0x00 
                           .data:010040ff 00                               0x00 
                           .data:01004100 00                               0x00 
                           .data:01004101 00                               0x00 
                           .data:01004102 00                               0x00 
                           .data:01004103 00                               0x00 
                           .data:01004104 00                               0x00 
                           .data:01004105 00                               0x00 
                           .data:01004106 00                               0x00 
                           .data:01004107 00                               0x00 
                           .data:01004108 00                               0x00 
                           .data:01004109 00                               0x00 
                           .data:0100410a 00                               0x00 
                           .data:0100410b 00                               0x00 
                           .data:0100410c 00                               0x00 
                           .data:0100410d 00                               0x00 
                           .data:0100410e 00                               0x00 
                           .data:0100410f 00                               0x00 
                           .data:01004110 00                               0x00 
                           .data:01004111 00                               0x00 
                           .data:01004112 00                               0x00 
                           .data:01004113 00                               0x00 
                           .data:01004114 00                               0x00 
                           .data:01004115 00                               0x00 
                           .data:01004116 00                               0x00 
                           .data:01004117 00                               0x00 
                           .data:01004118 00                               0x00 
                           .data:01004119 00                               0x00 
                           .data:0100411a 00                               0x00 
                           .data:0100411b 00                               0x00 
                           .data:0100411c 00                               0x00 
                           .data:0100411d 00                               0x00 
                           .data:0100411e 00                               0x00 
                           .data:0100411f 00                               0x00 
                           .data:01004120 00                               0x00 
                           .data:01004121 00                               0x00 
                           .data:01004122 00                               0x00 
                           .data:01004123 00                               0x00 
                           .data:01004124 00                               0x00 
                           .data:01004125 00                               0x00 
                           .data:01004126 00                               0x00 
                           .data:01004127 00                               0x00 
                           .data:01004128 00                               0x00 
                           .data:01004129 00                               0x00 
                           .data:0100412a 00                               0x00 
                           .data:0100412b 00                               0x00 
                           .data:0100412c 00                               0x00 
                           .data:0100412d 00                               0x00 
                           .data:0100412e 00                               0x00 
                           .data:0100412f 00                               0x00 
                           .data:01004130 00                               0x00 
                           .data:01004131 00                               0x00 
                           .data:01004132 00                               0x00 
                           .data:01004133 00                               0x00 
                           .data:01004134 00                               0x00 
                           .data:01004135 00                               0x00 
                           .data:01004136 00                               0x00 
                           .data:01004137 00                               0x00 
                           .data:01004138 00                               0x00 
                           .data:01004139 00                               0x00 
                           .data:0100413a 00                               0x00 
                           .data:0100413b 00                               0x00 
                           .data:0100413c 00                               0x00 
                           .data:0100413d 00                               0x00 
                           .data:0100413e 00                               0x00 
                           .data:0100413f 00                               0x00 
                           .data:01004140 00                               0x00 
                           .data:01004141 00                               0x00 
                           .data:01004142 00                               0x00 
                           .data:01004143 00                               0x00 
                           .data:01004144 00                               0x00 
                           .data:01004145 00                               0x00 
                           .data:01004146 00                               0x00 
                           .data:01004147 00                               0x00 
                           .data:01004148 00                               0x00 
                           .data:01004149 00                               0x00 
                           .data:0100414a 00                               0x00 
                           .data:0100414b 00                               0x00 
                           .data:0100414c 00                               0x00 
                           .data:0100414d 00                               0x00 
                           .data:0100414e 00                               0x00 
                           .data:0100414f 00                               0x00 
                           .data:01004150 00                               0x00 
                           .data:01004151 00                               0x00 
                           .data:01004152 00                               0x00 
                           .data:01004153 00                               0x00 
                           .data:01004154 00                               0x00 
                           .data:01004155 00                               0x00 
                           .data:01004156 00                               0x00 
                           .data:01004157 00                               0x00 
                           .data:01004158 00                               0x00 
                           .data:01004159 00                               0x00 
                           .data:0100415a 00                               0x00 
                           .data:0100415b 00                               0x00 
                           .data:0100415c 00                               0x00 
                           .data:0100415d 00                               0x00 
                           .data:0100415e 00                               0x00 
                           .data:0100415f 00                               0x00 
                           .data:01004160 00                               0x00 
                           .data:01004161 00                               0x00 
                           .data:01004162 00                               0x00 
                           .data:01004163 00                               0x00 
                           .data:01004164 00                               0x00 
                           .data:01004165 00                               0x00 
                           .data:01004166 00                               0x00 
                           .data:01004167 00                               0x00 
                           .data:01004168 00                               0x00 
                           .data:01004169 00                               0x00 
                           .data:0100416a 00                               0x00 
                           .data:0100416b 00                               0x00 
                           .data:0100416c 00                               0x00 
                           .data:0100416d 00                               0x00 
                           .data:0100416e 00                               0x00 
                           .data:0100416f 00                               0x00 
                           .data:01004170 00                               0x00 
                           .data:01004171 00                               0x00 
                           .data:01004172 00                               0x00 
                           .data:01004173 00                               0x00 
                           .data:01004174 00                               0x00 
                           .data:01004175 00                               0x00 
                           .data:01004176 00                               0x00 
                           .data:01004177 00                               0x00 
                           .data:01004178 00                               0x00 
                           .data:01004179 00                               0x00 
                           .data:0100417a 00                               0x00 
                           .data:0100417b 00                               0x00 
                           .data:0100417c 00                               0x00 
                           .data:0100417d 00                               0x00 
                           .data:0100417e 00                               0x00 
                           .data:0100417f 00                               0x00 
                           .data:01004180 00                               0x00 
                           .data:01004181 00                               0x00 
                           .data:01004182 00                               0x00 
                           .data:01004183 00                               0x00 
                           .data:01004184 00                               0x00 
                           .data:01004185 00                               0x00 
                           .data:01004186 00                               0x00 
                           .data:01004187 00                               0x00 
                           .data:01004188 00                               0x00 
                           .data:01004189 00                               0x00 
                           .data:0100418a 00                               0x00 
                           .data:0100418b 00                               0x00 
                           .data:0100418c 00                               0x00 
                           .data:0100418d 00                               0x00 
                           .data:0100418e 00                               0x00 
                           .data:0100418f 00                               0x00 
                           .data:01004190 00                               0x00 
                           .data:01004191 00                               0x00 
                           .data:01004192 00                               0x00 
                           .data:01004193 00                               0x00 
                           .data:01004194 00                               0x00 
                           .data:01004195 00                               0x00 
                           .data:01004196 00                               0x00 
                           .data:01004197 00                               0x00 
                           .data:01004198 00                               0x00 
                           .data:01004199 00                               0x00 
                           .data:0100419a 00                               0x00 
                           .data:0100419b 00                               0x00 
                           .data:0100419c 00                               0x00 
                           .data:0100419d 00                               0x00 
                           .data:0100419e 00                               0x00 
                           .data:0100419f 00                               0x00 
                           .data:010041a0 00                               0x00 
                           .data:010041a1 00                               0x00 
                           .data:010041a2 00                               0x00 
                           .data:010041a3 00                               0x00 
                           .data:010041a4 00                               0x00 
                           .data:010041a5 00                               0x00 
                           .data:010041a6 00                               0x00 
                           .data:010041a7 00                               0x00 
                           .data:010041a8 00                               0x00 
                           .data:010041a9 00                               0x00 
                           .data:010041aa 00                               0x00 
                           .data:010041ab 00                               0x00 
                           .data:010041ac 00                               0x00 
                           .data:010041ad 00                               0x00 
                           .data:010041ae 00                               0x00 
                           .data:010041af 00                               0x00 
                           .data:010041b0 00                               0x00 
                           .data:010041b1 00                               0x00 
                           .data:010041b2 00                               0x00 
                           .data:010041b3 00                               0x00 
                           .data:010041b4 00                               0x00 
                           .data:010041b5 00                               0x00 
                           .data:010041b6 00                               0x00 
                           .data:010041b7 00                               0x00 
                           .data:010041b8 00                               0x00 
                           .data:010041b9 00                               0x00 
                           .data:010041ba 00                               0x00 
                           .data:010041bb 00                               0x00 
                           .data:010041bc 00                               0x00 
                           .data:010041bd 00                               0x00 
                           .data:010041be 00                               0x00 
                           .data:010041bf 00                               0x00 
                           .data:010041c0 00                               0x00 
                           .data:010041c1 00                               0x00 
                           .data:010041c2 00                               0x00 
                           .data:010041c3 00                               0x00 
                           .data:010041c4 00                               0x00 
                           .data:010041c5 00                               0x00 
                           .data:010041c6 00                               0x00 
                           .data:010041c7 00                               0x00 
                           .data:010041c8 00                               0x00 
                           .data:010041c9 00                               0x00 
                           .data:010041ca 00                               0x00 
                           .data:010041cb 00                               0x00 
                           .data:010041cc 00                               0x00 
                           .data:010041cd 00                               0x00 
                           .data:010041ce 00                               0x00 
                           .data:010041cf 00                               0x00 
                           .data:010041d0 00                               0x00 
                           .data:010041d1 00                               0x00 
                           .data:010041d2 00                               0x00 
                           .data:010041d3 00                               0x00 
                           .data:010041d4 00                               0x00 
                           .data:010041d5 00                               0x00 
                           .data:010041d6 00                               0x00 
                           .data:010041d7 00                               0x00 
                           .data:010041d8 00                               0x00 
                           .data:010041d9 00                               0x00 
                           .data:010041da 00                               0x00 
                           .data:010041db 00                               0x00 
                           .data:010041dc 00                               0x00 
                           .data:010041dd 00                               0x00 
                           .data:010041de 00                               0x00 
                           .data:010041df 00                               0x00 
                           .data:010041e0 00                               0x00 
                           .data:010041e1 00                               0x00 
                           .data:010041e2 00                               0x00 
                           .data:010041e3 00                               0x00 
                           .data:010041e4 00                               0x00 
                           .data:010041e5 00                               0x00 
                           .data:010041e6 00                               0x00 
                           .data:010041e7 00                               0x00 
                           .data:010041e8 00                               0x00 
                           .data:010041e9 00                               0x00 
                           .data:010041ea 00                               0x00 
                           .data:010041eb 00                               0x00 
                           .data:010041ec 00                               0x00 
                           .data:010041ed 00                               0x00 
                           .data:010041ee 00                               0x00 
                           .data:010041ef 00                               0x00 
                           .data:010041f0 00                               0x00 
                           .data:010041f1 00                               0x00 
                           .data:010041f2 00                               0x00 
                           .data:010041f3 00                               0x00 
                           .data:010041f4 00                               0x00 
                           .data:010041f5 00                               0x00 
                           .data:010041f6 00                               0x00 
                           .data:010041f7 00                               0x00 
                           .data:010041f8 00                               0x00 
                           .data:010041f9 00                               0x00 
                           .data:010041fa 00                               0x00 
                           .data:010041fb 00                               0x00 
                           .data:010041fc 00                               0x00 
                           .data:010041fd 00                               0x00 
                           .data:010041fe 00                               0x00 
                           .data:010041ff 00                               0x00 
                           .rsrc:01005000 00                               0x00 
                           .rsrc:01005001 00                               0x00 
                           .rsrc:01005002 00                               0x00 
                           .rsrc:01005003 00                               0x00 
                           .rsrc:01005004 00                               0x00 
                           .rsrc:01005005 00                               0x00 
                           .rsrc:01005006 00                               0x00 
                           .rsrc:01005007 00                               0x00 
                           .rsrc:01005008 00                               0x00 
                           .rsrc:01005009 00                               0x00 
                           .rsrc:0100500a 00                               0x00 
                           .rsrc:0100500b 00                               0x00 
                           .rsrc:0100500c 00                               0x00 
                           .rsrc:0100500d 00                               0x00 
                           .rsrc:0100500e 02                               0x02 
                           .rsrc:0100500f 00                               0x00 
                           .rsrc:01005010 10                               0x10 
                           .rsrc:01005011 00                               0x00 
                           .rsrc:01005012 00                               0x00 
                           .rsrc:01005013 00                               0x00 
                           .rsrc:01005014 20                               0x20 ' '
                           .rsrc:01005015 00                               0x00 
                           .rsrc:01005016 00                               0x00 
                           .rsrc:01005017 80                               0x80 
                           .rsrc:01005018 18                               0x18 
                           .rsrc:01005019 00                               0x00 
                           .rsrc:0100501a 00                               0x00 
                           .rsrc:0100501b 00                               0x00 
                           .rsrc:0100501c 38                               0x38 '8'
                           .rsrc:0100501d 00                               0x00 
                           .rsrc:0100501e 00                               0x00 
                           .rsrc:0100501f 80                               0x80 
                           .rsrc:01005020 00                               0x00 
                           .rsrc:01005021 00                               0x00 
                           .rsrc:01005022 00                               0x00 
                           .rsrc:01005023 00                               0x00 
                           .rsrc:01005024 00                               0x00 
                           .rsrc:01005025 00                               0x00 
                           .rsrc:01005026 00                               0x00 
                           .rsrc:01005027 00                               0x00 
                           .rsrc:01005028 00                               0x00 
                           .rsrc:01005029 00                               0x00 
                           .rsrc:0100502a 00                               0x00 
                           .rsrc:0100502b 00                               0x00 
                           .rsrc:0100502c 00                               0x00 
                           .rsrc:0100502d 00                               0x00 
                           .rsrc:0100502e 01                               0x01 
                           .rsrc:0100502f 00                               0x00 
                           .rsrc:01005030 01                               0x01 
                           .rsrc:01005031 00                               0x00 
                           .rsrc:01005032 00                               0x00 
                           .rsrc:01005033 00                               0x00 
                           .rsrc:01005034 50                               0x50 'P'
                           .rsrc:01005035 00                               0x00 
                           .rsrc:01005036 00                               0x00 
                           .rsrc:01005037 80                               0x80 
                           .rsrc:01005038 00                               0x00 
                           .rsrc:01005039 00                               0x00 
                           .rsrc:0100503a 00                               0x00 
                           .rsrc:0100503b 00                               0x00 
                           .rsrc:0100503c 00                               0x00 
                           .rsrc:0100503d 00                               0x00 
                           .rsrc:0100503e 00                               0x00 
                           .rsrc:0100503f 00                               0x00 
                           .rsrc:01005040 00                               0x00 
                           .rsrc:01005041 00                               0x00 
                           .rsrc:01005042 00                               0x00 
                           .rsrc:01005043 00                               0x00 
                           .rsrc:01005044 00                               0x00 
                           .rsrc:01005045 00                               0x00 
                           .rsrc:01005046 01                               0x01 
                           .rsrc:01005047 00                               0x00 
                           .rsrc:01005048 01                               0x01 
                           .rsrc:01005049 00                               0x00 
                           .rsrc:0100504a 00                               0x00 
                           .rsrc:0100504b 00                               0x00 
                           .rsrc:0100504c 68                               0x68 'h'
                           .rsrc:0100504d 00                               0x00 
                           .rsrc:0100504e 00                               0x00 
                           .rsrc:0100504f 80                               0x80 
                           .rsrc:01005050 00                               0x00 
                           .rsrc:01005051 00                               0x00 
                           .rsrc:01005052 00                               0x00 
                           .rsrc:01005053 00                               0x00 
                           .rsrc:01005054 00                               0x00 
                           .rsrc:01005055 00                               0x00 
                           .rsrc:01005056 00                               0x00 
                           .rsrc:01005057 00                               0x00 
                           .rsrc:01005058 00                               0x00 
                           .rsrc:01005059 00                               0x00 
                           .rsrc:0100505a 00                               0x00 
                           .rsrc:0100505b 00                               0x00 
                           .rsrc:0100505c 00                               0x00 
                           .rsrc:0100505d 00                               0x00 
                           .rsrc:0100505e 01                               0x01 
                           .rsrc:0100505f 00                               0x00 
                           .rsrc:01005060 09                               0x09 '	'
                           .rsrc:01005061 04                               0x04 
                           .rsrc:01005062 00                               0x00 
                           .rsrc:01005063 00                               0x00 
                           .rsrc:01005064 80                               0x80 
                           .rsrc:01005065 00                               0x00 
                           .rsrc:01005066 00                               0x00 
                           .rsrc:01005067 00                               0x00 
                           .rsrc:01005068 00                               0x00 
                           .rsrc:01005069 00                               0x00 
                           .rsrc:0100506a 00                               0x00 
                           .rsrc:0100506b 00                               0x00 
                           .rsrc:0100506c 00                               0x00 
                           .rsrc:0100506d 00                               0x00 
                           .rsrc:0100506e 00                               0x00 
                           .rsrc:0100506f 00                               0x00 
                           .rsrc:01005070 00                               0x00 
                           .rsrc:01005071 00                               0x00 
                           .rsrc:01005072 00                               0x00 
                           .rsrc:01005073 00                               0x00 
                           .rsrc:01005074 00                               0x00 
                           .rsrc:01005075 00                               0x00 
                           .rsrc:01005076 01                               0x01 
                           .rsrc:01005077 00                               0x00 
                           .rsrc:01005078 09                               0x09 '	'
                           .rsrc:01005079 04                               0x04 
                           .rsrc:0100507a 00                               0x00 
                           .rsrc:0100507b 00                               0x00 
                           .rsrc:0100507c 90                               0x90 
                           .rsrc:0100507d 00                               0x00 
                           .rsrc:0100507e 00                               0x00 
                           .rsrc:0100507f 00                               0x00 
                           .rsrc:01005080 48                               0x48 'H'
                           .rsrc:01005081 53                               0x53 'S'
                           .rsrc:01005082 00                               0x00 
                           .rsrc:01005083 00                               0x00 
                           .rsrc:01005084 dc                               0xdc 
                           .rsrc:01005085 03                               0x03 
                           .rsrc:01005086 00                               0x00 
                           .rsrc:01005087 00                               0x00 
                           .rsrc:01005088 00                               0x00 
                           .rsrc:01005089 00                               0x00 
                           .rsrc:0100508a 00                               0x00 
                           .rsrc:0100508b 00                               0x00 
                           .rsrc:0100508c 00                               0x00 
                           .rsrc:0100508d 00                               0x00 
                           .rsrc:0100508e 00                               0x00 
                           .rsrc:0100508f 00                               0x00 
                           .rsrc:01005090 a0                               0xa0 
                           .rsrc:01005091 50                               0x50 'P'
                           .rsrc:01005092 00                               0x00 
                           .rsrc:01005093 00                               0x00 
                           .rsrc:01005094 a6                               0xa6 
                           .rsrc:01005095 02                               0x02 
                           .rsrc:01005096 00                               0x00 
                           .rsrc:01005097 00                               0x00 
                           .rsrc:01005098 00                               0x00 
                           .rsrc:01005099 00                               0x00 
                           .rsrc:0100509a 00                               0x00 
                           .rsrc:0100509b 00                               0x00 
                           .rsrc:0100509c 00                               0x00 
                           .rsrc:0100509d 00                               0x00 
                           .rsrc:0100509e 00                               0x00 
                           .rsrc:0100509f 00                               0x00 
                           .rsrc:010050a0 3c                               0x3c '<'
                           .rsrc:010050a1 3f                               0x3f '?'
                           .rsrc:010050a2 78                               0x78 'x'
                           .rsrc:010050a3 6d                               0x6d 'm'
                           .rsrc:010050a4 6c                               0x6c 'l'
                           .rsrc:010050a5 20                               0x20 ' '
                           .rsrc:010050a6 76                               0x76 'v'
                           .rsrc:010050a7 65                               0x65 'e'
                           .rsrc:010050a8 72                               0x72 'r'
                           .rsrc:010050a9 73                               0x73 's'
                           .rsrc:010050aa 69                               0x69 'i'
                           .rsrc:010050ab 6f                               0x6f 'o'
                           .rsrc:010050ac 6e                               0x6e 'n'
                           .rsrc:010050ad 3d                               0x3d '='
                           .rsrc:010050ae 22                               0x22 '"'
                           .rsrc:010050af 31                               0x31 '1'
                           .rsrc:010050b0 2e                               0x2e '.'
                           .rsrc:010050b1 30                               0x30 '0'
                           .rsrc:010050b2 22                               0x22 '"'
                           .rsrc:010050b3 20                               0x20 ' '
                           .rsrc:010050b4 65                               0x65 'e'
                           .rsrc:010050b5 6e                               0x6e 'n'
                           .rsrc:010050b6 63                               0x63 'c'
                           .rsrc:010050b7 6f                               0x6f 'o'
                           .rsrc:010050b8 64                               0x64 'd'
                           .rsrc:010050b9 69                               0x69 'i'
                           .rsrc:010050ba 6e                               0x6e 'n'
                           .rsrc:010050bb 67                               0x67 'g'
                           .rsrc:010050bc 3d                               0x3d '='
                           .rsrc:010050bd 22                               0x22 '"'
                           .rsrc:010050be 55                               0x55 'U'
                           .rsrc:010050bf 54                               0x54 'T'
                           .rsrc:010050c0 46                               0x46 'F'
                           .rsrc:010050c1 2d                               0x2d '-'
                           .rsrc:010050c2 38                               0x38 '8'
                           .rsrc:010050c3 22                               0x22 '"'
                           .rsrc:010050c4 20                               0x20 ' '
                           .rsrc:010050c5 73                               0x73 's'
                           .rsrc:010050c6 74                               0x74 't'
                           .rsrc:010050c7 61                               0x61 'a'
                           .rsrc:010050c8 6e                               0x6e 'n'
                           .rsrc:010050c9 64                               0x64 'd'
                           .rsrc:010050ca 61                               0x61 'a'
                           .rsrc:010050cb 6c                               0x6c 'l'
                           .rsrc:010050cc 6f                               0x6f 'o'
                           .rsrc:010050cd 6e                               0x6e 'n'
                           .rsrc:010050ce 65                               0x65 'e'
                           .rsrc:010050cf 3d                               0x3d '='
                           .rsrc:010050d0 22                               0x22 '"'
                           .rsrc:010050d1 79                               0x79 'y'
                           .rsrc:010050d2 65                               0x65 'e'
                           .rsrc:010050d3 73                               0x73 's'
                           .rsrc:010050d4 22                               0x22 '"'
                           .rsrc:010050d5 3f                               0x3f '?'
                           .rsrc:010050d6 3e                               0x3e '>'
                           .rsrc:010050d7 0d                               0x0d ''
                           .rsrc:010050d8 0a                               0x0a '
'
                           .rsrc:010050d9 3c                               0x3c '<'
                           .rsrc:010050da 21                               0x21 '!'
                           .rsrc:010050db 2d                               0x2d '-'
                           .rsrc:010050dc 2d                               0x2d '-'
                           .rsrc:010050dd 20                               0x20 ' '
                           .rsrc:010050de 43                               0x43 'C'
                           .rsrc:010050df 6f                               0x6f 'o'
                           .rsrc:010050e0 70                               0x70 'p'
                           .rsrc:010050e1 79                               0x79 'y'
                           .rsrc:010050e2 72                               0x72 'r'
                           .rsrc:010050e3 69                               0x69 'i'
                           .rsrc:010050e4 67                               0x67 'g'
                           .rsrc:010050e5 68                               0x68 'h'
                           .rsrc:010050e6 74                               0x74 't'
                           .rsrc:010050e7 20                               0x20 ' '
                           .rsrc:010050e8 28                               0x28 '('
                           .rsrc:010050e9 63                               0x63 'c'
                           .rsrc:010050ea 29                               0x29 ')'
                           .rsrc:010050eb 20                               0x20 ' '
                           .rsrc:010050ec 4d                               0x4d 'M'
                           .rsrc:010050ed 69                               0x69 'i'
                           .rsrc:010050ee 63                               0x63 'c'
                           .rsrc:010050ef 72                               0x72 'r'
                           .rsrc:010050f0 6f                               0x6f 'o'
                           .rsrc:010050f1 73                               0x73 's'
                           .rsrc:010050f2 6f                               0x6f 'o'
                           .rsrc:010050f3 66                               0x66 'f'
                           .rsrc:010050f4 74                               0x74 't'
                           .rsrc:010050f5 20                               0x20 ' '
                           .rsrc:010050f6 43                               0x43 'C'
                           .rsrc:010050f7 6f                               0x6f 'o'
                           .rsrc:010050f8 72                               0x72 'r'
                           .rsrc:010050f9 70                               0x70 'p'
                           .rsrc:010050fa 6f                               0x6f 'o'
                           .rsrc:010050fb 72                               0x72 'r'
                           .rsrc:010050fc 61                               0x61 'a'
                           .rsrc:010050fd 74                               0x74 't'
                           .rsrc:010050fe 69                               0x69 'i'
                           .rsrc:010050ff 6f                               0x6f 'o'
                           .rsrc:01005100 6e                               0x6e 'n'
                           .rsrc:01005101 20                               0x20 ' '
                           .rsrc:01005102 2d                               0x2d '-'
                           .rsrc:01005103 2d                               0x2d '-'
                           .rsrc:01005104 3e                               0x3e '>'
                           .rsrc:01005105 0d                               0x0d ''
                           .rsrc:01005106 0a                               0x0a '
'
                           .rsrc:01005107 3c                               0x3c '<'
                           .rsrc:01005108 61                               0x61 'a'
                           .rsrc:01005109 73                               0x73 's'
                           .rsrc:0100510a 73                               0x73 's'
                           .rsrc:0100510b 65                               0x65 'e'
                           .rsrc:0100510c 6d                               0x6d 'm'
                           .rsrc:0100510d 62                               0x62 'b'
                           .rsrc:0100510e 6c                               0x6c 'l'
                           .rsrc:0100510f 79                               0x79 'y'
                           .rsrc:01005110 20                               0x20 ' '
                           .rsrc:01005111 78                               0x78 'x'
                           .rsrc:01005112 6d                               0x6d 'm'
                           .rsrc:01005113 6c                               0x6c 'l'
                           .rsrc:01005114 6e                               0x6e 'n'
                           .rsrc:01005115 73                               0x73 's'
                           .rsrc:01005116 3d                               0x3d '='
                           .rsrc:01005117 22                               0x22 '"'
                           .rsrc:01005118 75                               0x75 'u'
                           .rsrc:01005119 72                               0x72 'r'
                           .rsrc:0100511a 6e                               0x6e 'n'
                           .rsrc:0100511b 3a                               0x3a ':'
                           .rsrc:0100511c 73                               0x73 's'
                           .rsrc:0100511d 63                               0x63 'c'
                           .rsrc:0100511e 68                               0x68 'h'
                           .rsrc:0100511f 65                               0x65 'e'
                           .rsrc:01005120 6d                               0x6d 'm'
                           .rsrc:01005121 61                               0x61 'a'
                           .rsrc:01005122 73                               0x73 's'
                           .rsrc:01005123 2d                               0x2d '-'
                           .rsrc:01005124 6d                               0x6d 'm'
                           .rsrc:01005125 69                               0x69 'i'
                           .rsrc:01005126 63                               0x63 'c'
                           .rsrc:01005127 72                               0x72 'r'
                           .rsrc:01005128 6f                               0x6f 'o'
                           .rsrc:01005129 73                               0x73 's'
                           .rsrc:0100512a 6f                               0x6f 'o'
                           .rsrc:0100512b 66                               0x66 'f'
                           .rsrc:0100512c 74                               0x74 't'
                           .rsrc:0100512d 2d                               0x2d '-'
                           .rsrc:0100512e 63                               0x63 'c'
                           .rsrc:0100512f 6f                               0x6f 'o'
                           .rsrc:01005130 6d                               0x6d 'm'
                           .rsrc:01005131 3a                               0x3a ':'
                           .rsrc:01005132 61                               0x61 'a'
                           .rsrc:01005133 73                               0x73 's'
                           .rsrc:01005134 6d                               0x6d 'm'
                           .rsrc:01005135 2e                               0x2e '.'
                           .rsrc:01005136 76                               0x76 'v'
                           .rsrc:01005137 31                               0x31 '1'
                           .rsrc:01005138 22                               0x22 '"'
                           .rsrc:01005139 20                               0x20 ' '
                           .rsrc:0100513a 6d                               0x6d 'm'
                           .rsrc:0100513b 61                               0x61 'a'
                           .rsrc:0100513c 6e                               0x6e 'n'
                           .rsrc:0100513d 69                               0x69 'i'
                           .rsrc:0100513e 66                               0x66 'f'
                           .rsrc:0100513f 65                               0x65 'e'
                           .rsrc:01005140 73                               0x73 's'
                           .rsrc:01005141 74                               0x74 't'
                           .rsrc:01005142 56                               0x56 'V'
                           .rsrc:01005143 65                               0x65 'e'
                           .rsrc:01005144 72                               0x72 'r'
                           .rsrc:01005145 73                               0x73 's'
                           .rsrc:01005146 69                               0x69 'i'
                           .rsrc:01005147 6f                               0x6f 'o'
                           .rsrc:01005148 6e                               0x6e 'n'
                           .rsrc:01005149 3d                               0x3d '='
                           .rsrc:0100514a 22                               0x22 '"'
                           .rsrc:0100514b 31                               0x31 '1'
                           .rsrc:0100514c 2e                               0x2e '.'
                           .rsrc:0100514d 30                               0x30 '0'
                           .rsrc:0100514e 22                               0x22 '"'
                           .rsrc:0100514f 3e                               0x3e '>'
                           .rsrc:01005150 0d                               0x0d ''
                           .rsrc:01005151 0a                               0x0a '
'
                           .rsrc:01005152 3c                               0x3c '<'
                           .rsrc:01005153 61                               0x61 'a'
                           .rsrc:01005154 73                               0x73 's'
                           .rsrc:01005155 73                               0x73 's'
                           .rsrc:01005156 65                               0x65 'e'
                           .rsrc:01005157 6d                               0x6d 'm'
                           .rsrc:01005158 62                               0x62 'b'
                           .rsrc:01005159 6c                               0x6c 'l'
                           .rsrc:0100515a 79                               0x79 'y'
                           .rsrc:0100515b 49                               0x49 'I'
                           .rsrc:0100515c 64                               0x64 'd'
                           .rsrc:0100515d 65                               0x65 'e'
                           .rsrc:0100515e 6e                               0x6e 'n'
                           .rsrc:0100515f 74                               0x74 't'
                           .rsrc:01005160 69                               0x69 'i'
                           .rsrc:01005161 74                               0x74 't'
                           .rsrc:01005162 79                               0x79 'y'
                           .rsrc:01005163 0d                               0x0d ''
                           .rsrc:01005164 0a                               0x0a '
'
                           .rsrc:01005165 20                               0x20 ' '
                           .rsrc:01005166 20                               0x20 ' '
                           .rsrc:01005167 20                               0x20 ' '
                           .rsrc:01005168 20                               0x20 ' '
                           .rsrc:01005169 76                               0x76 'v'
                           .rsrc:0100516a 65                               0x65 'e'
                           .rsrc:0100516b 72                               0x72 'r'
                           .rsrc:0100516c 73                               0x73 's'
                           .rsrc:0100516d 69                               0x69 'i'
                           .rsrc:0100516e 6f                               0x6f 'o'
                           .rsrc:0100516f 6e                               0x6e 'n'
                           .rsrc:01005170 3d                               0x3d '='
                           .rsrc:01005171 22                               0x22 '"'
                           .rsrc:01005172 35                               0x35 '5'
                           .rsrc:01005173 2e                               0x2e '.'
                           .rsrc:01005174 31                               0x31 '1'
                           .rsrc:01005175 2e                               0x2e '.'
                           .rsrc:01005176 30                               0x30 '0'
                           .rsrc:01005177 2e                               0x2e '.'
                           .rsrc:01005178 30                               0x30 '0'
                           .rsrc:01005179 22                               0x22 '"'
                           .rsrc:0100517a 0d                               0x0d ''
                           .rsrc:0100517b 0a                               0x0a '
'
                           .rsrc:0100517c 20                               0x20 ' '
                           .rsrc:0100517d 20                               0x20 ' '
                           .rsrc:0100517e 20                               0x20 ' '
                           .rsrc:0100517f 20                               0x20 ' '
                           .rsrc:01005180 70                               0x70 'p'
                           .rsrc:01005181 72                               0x72 'r'
                           .rsrc:01005182 6f                               0x6f 'o'
                           .rsrc:01005183 63                               0x63 'c'
                           .rsrc:01005184 65                               0x65 'e'
                           .rsrc:01005185 73                               0x73 's'
                           .rsrc:01005186 73                               0x73 's'
                           .rsrc:01005187 6f                               0x6f 'o'
                           .rsrc:01005188 72                               0x72 'r'
                           .rsrc:01005189 41                               0x41 'A'
                           .rsrc:0100518a 72                               0x72 'r'
                           .rsrc:0100518b 63                               0x63 'c'
                           .rsrc:0100518c 68                               0x68 'h'
                           .rsrc:0100518d 69                               0x69 'i'
                           .rsrc:0100518e 74                               0x74 't'
                           .rsrc:0100518f 65                               0x65 'e'
                           .rsrc:01005190 63                               0x63 'c'
                           .rsrc:01005191 74                               0x74 't'
                           .rsrc:01005192 75                               0x75 'u'
                           .rsrc:01005193 72                               0x72 'r'
                           .rsrc:01005194 65                               0x65 'e'
                           .rsrc:01005195 3d                               0x3d '='
                           .rsrc:01005196 22                               0x22 '"'
                           .rsrc:01005197 78                               0x78 'x'
                           .rsrc:01005198 38                               0x38 '8'
                           .rsrc:01005199 36                               0x36 '6'
                           .rsrc:0100519a 22                               0x22 '"'
                           .rsrc:0100519b 0d                               0x0d ''
                           .rsrc:0100519c 0a                               0x0a '
'
                           .rsrc:0100519d 20                               0x20 ' '
                           .rsrc:0100519e 20                               0x20 ' '
                           .rsrc:0100519f 20                               0x20 ' '
                           .rsrc:010051a0 20                               0x20 ' '
                           .rsrc:010051a1 6e                               0x6e 'n'
                           .rsrc:010051a2 61                               0x61 'a'
                           .rsrc:010051a3 6d                               0x6d 'm'
                           .rsrc:010051a4 65                               0x65 'e'
                           .rsrc:010051a5 3d                               0x3d '='
                           .rsrc:010051a6 22                               0x22 '"'
                           .rsrc:010051a7 4d                               0x4d 'M'
                           .rsrc:010051a8 69                               0x69 'i'
                           .rsrc:010051a9 63                               0x63 'c'
                           .rsrc:010051aa 72                               0x72 'r'
                           .rsrc:010051ab 6f                               0x6f 'o'
                           .rsrc:010051ac 73                               0x73 's'
                           .rsrc:010051ad 6f                               0x6f 'o'
                           .rsrc:010051ae 66                               0x66 'f'
                           .rsrc:010051af 74                               0x74 't'
                           .rsrc:010051b0 2e                               0x2e '.'
                           .rsrc:010051b1 57                               0x57 'W'
                           .rsrc:010051b2 69                               0x69 'i'
                           .rsrc:010051b3 6e                               0x6e 'n'
                           .rsrc:010051b4 64                               0x64 'd'
                           .rsrc:010051b5 6f                               0x6f 'o'
                           .rsrc:010051b6 77                               0x77 'w'
                           .rsrc:010051b7 73                               0x73 's'
                           .rsrc:010051b8 2e                               0x2e '.'
                           .rsrc:010051b9 53                               0x53 'S'
                           .rsrc:010051ba 52                               0x52 'R'
                           .rsrc:010051bb 44                               0x44 'D'
                           .rsrc:010051bc 65                               0x65 'e'
                           .rsrc:010051bd 6c                               0x6c 'l'
                           .rsrc:010051be 61                               0x61 'a'
                           .rsrc:010051bf 79                               0x79 'y'
                           .rsrc:010051c0 65                               0x65 'e'
                           .rsrc:010051c1 64                               0x64 'd'
                           .rsrc:010051c2 22                               0x22 '"'
                           .rsrc:010051c3 0d                               0x0d ''
                           .rsrc:010051c4 0a                               0x0a '
'
                           .rsrc:010051c5 20                               0x20 ' '
                           .rsrc:010051c6 20                               0x20 ' '
                           .rsrc:010051c7 20                               0x20 ' '
                           .rsrc:010051c8 20                               0x20 ' '
                           .rsrc:010051c9 74                               0x74 't'
                           .rsrc:010051ca 79                               0x79 'y'
                           .rsrc:010051cb 70                               0x70 'p'
                           .rsrc:010051cc 65                               0x65 'e'
                           .rsrc:010051cd 3d                               0x3d '='
                           .rsrc:010051ce 22                               0x22 '"'
                           .rsrc:010051cf 77                               0x77 'w'
                           .rsrc:010051d0 69                               0x69 'i'
                           .rsrc:010051d1 6e                               0x6e 'n'
                           .rsrc:010051d2 33                               0x33 '3'
                           .rsrc:010051d3 32                               0x32 '2'
                           .rsrc:010051d4 22                               0x22 '"'
                           .rsrc:010051d5 0d                               0x0d ''
                           .rsrc:010051d6 0a                               0x0a '
'
                           .rsrc:010051d7 2f                               0x2f '/'
                           .rsrc:010051d8 3e                               0x3e '>'
                           .rsrc:010051d9 0d                               0x0d ''
                           .rsrc:010051da 0a                               0x0a '
'
                           .rsrc:010051db 3c                               0x3c '<'
                           .rsrc:010051dc 64                               0x64 'd'
                           .rsrc:010051dd 65                               0x65 'e'
                           .rsrc:010051de 73                               0x73 's'
                           .rsrc:010051df 63                               0x63 'c'
                           .rsrc:010051e0 72                               0x72 'r'
                           .rsrc:010051e1 69                               0x69 'i'
                           .rsrc:010051e2 70                               0x70 'p'
                           .rsrc:010051e3 74                               0x74 't'
                           .rsrc:010051e4 69                               0x69 'i'
                           .rsrc:010051e5 6f                               0x6f 'o'
                           .rsrc:010051e6 6e                               0x6e 'n'
                           .rsrc:010051e7 3e                               0x3e '>'
                           .rsrc:010051e8 4d                               0x4d 'M'
                           .rsrc:010051e9 69                               0x69 'i'
                           .rsrc:010051ea 63                               0x63 'c'
                           .rsrc:010051eb 72                               0x72 'r'
                           .rsrc:010051ec 6f                               0x6f 'o'
                           .rsrc:010051ed 73                               0x73 's'
                           .rsrc:010051ee 6f                               0x6f 'o'
                           .rsrc:010051ef 66                               0x66 'f'
                           .rsrc:010051f0 74                               0x74 't'
                           .rsrc:010051f1 20                               0x20 ' '
                           .rsrc:010051f2 53                               0x53 'S'
                           .rsrc:010051f3 79                               0x79 'y'
                           .rsrc:010051f4 73                               0x73 's'
                           .rsrc:010051f5 74                               0x74 't'
                           .rsrc:010051f6 65                               0x65 'e'
                           .rsrc:010051f7 6d                               0x6d 'm'
                           .rsrc:010051f8 20                               0x20 ' '
                           .rsrc:010051f9 52                               0x52 'R'
                           .rsrc:010051fa 65                               0x65 'e'
                           .rsrc:010051fb 73                               0x73 's'
                           .rsrc:010051fc 74                               0x74 't'
                           .rsrc:010051fd 6f                               0x6f 'o'
                           .rsrc:010051fe 72                               0x72 'r'
                           .rsrc:010051ff 65                               0x65 'e'
                           .rsrc:01005200 20                               0x20 ' '
                           .rsrc:01005201 44                               0x44 'D'
                           .rsrc:01005202 65                               0x65 'e'
                           .rsrc:01005203 6c                               0x6c 'l'
                           .rsrc:01005204 61                               0x61 'a'
                           .rsrc:01005205 79                               0x79 'y'
                           .rsrc:01005206 65                               0x65 'e'
                           .rsrc:01005207 64                               0x64 'd'
                           .rsrc:01005208 3c                               0x3c '<'
                           .rsrc:01005209 2f                               0x2f '/'
                           .rsrc:0100520a 64                               0x64 'd'
                           .rsrc:0100520b 65                               0x65 'e'
                           .rsrc:0100520c 73                               0x73 's'
                           .rsrc:0100520d 63                               0x63 'c'
                           .rsrc:0100520e 72                               0x72 'r'
                           .rsrc:0100520f 69                               0x69 'i'
                           .rsrc:01005210 70                               0x70 'p'
                           .rsrc:01005211 74                               0x74 't'
                           .rsrc:01005212 69                               0x69 'i'
                           .rsrc:01005213 6f                               0x6f 'o'
                           .rsrc:01005214 6e                               0x6e 'n'
                           .rsrc:01005215 3e                               0x3e '>'
                           .rsrc:01005216 0d                               0x0d ''
                           .rsrc:01005217 0a                               0x0a '
'
                           .rsrc:01005218 0d                               0x0d ''
                           .rsrc:01005219 0a                               0x0a '
'
                           .rsrc:0100521a 3c                               0x3c '<'
                           .rsrc:0100521b 74                               0x74 't'
                           .rsrc:0100521c 72                               0x72 'r'
                           .rsrc:0100521d 75                               0x75 'u'
                           .rsrc:0100521e 73                               0x73 's'
                           .rsrc:0100521f 74                               0x74 't'
                           .rsrc:01005220 49                               0x49 'I'
                           .rsrc:01005221 6e                               0x6e 'n'
                           .rsrc:01005222 66                               0x66 'f'
                           .rsrc:01005223 6f                               0x6f 'o'
                           .rsrc:01005224 20                               0x20 ' '
                           .rsrc:01005225 78                               0x78 'x'
                           .rsrc:01005226 6d                               0x6d 'm'
                           .rsrc:01005227 6c                               0x6c 'l'
                           .rsrc:01005228 6e                               0x6e 'n'
                           .rsrc:01005229 73                               0x73 's'
                           .rsrc:0100522a 3d                               0x3d '='
                           .rsrc:0100522b 22                               0x22 '"'
                           .rsrc:0100522c 75                               0x75 'u'
                           .rsrc:0100522d 72                               0x72 'r'
                           .rsrc:0100522e 6e                               0x6e 'n'
                           .rsrc:0100522f 3a                               0x3a ':'
                           .rsrc:01005230 73                               0x73 's'
                           .rsrc:01005231 63                               0x63 'c'
                           .rsrc:01005232 68                               0x68 'h'
                           .rsrc:01005233 65                               0x65 'e'
                           .rsrc:01005234 6d                               0x6d 'm'
                           .rsrc:01005235 61                               0x61 'a'
                           .rsrc:01005236 73                               0x73 's'
                           .rsrc:01005237 2d                               0x2d '-'
                           .rsrc:01005238 6d                               0x6d 'm'
                           .rsrc:01005239 69                               0x69 'i'
                           .rsrc:0100523a 63                               0x63 'c'
                           .rsrc:0100523b 72                               0x72 'r'
                           .rsrc:0100523c 6f                               0x6f 'o'
                           .rsrc:0100523d 73                               0x73 's'
                           .rsrc:0100523e 6f                               0x6f 'o'
                           .rsrc:0100523f 66                               0x66 'f'
                           .rsrc:01005240 74                               0x74 't'
                           .rsrc:01005241 2d                               0x2d '-'
                           .rsrc:01005242 63                               0x63 'c'
                           .rsrc:01005243 6f                               0x6f 'o'
                           .rsrc:01005244 6d                               0x6d 'm'
                           .rsrc:01005245 3a                               0x3a ':'
                           .rsrc:01005246 61                               0x61 'a'
                           .rsrc:01005247 73                               0x73 's'
                           .rsrc:01005248 6d                               0x6d 'm'
                           .rsrc:01005249 2e                               0x2e '.'
                           .rsrc:0100524a 76                               0x76 'v'
                           .rsrc:0100524b 33                               0x33 '3'
                           .rsrc:0100524c 22                               0x22 '"'
                           .rsrc:0100524d 3e                               0x3e '>'
                           .rsrc:0100524e 0d                               0x0d ''
                           .rsrc:0100524f 0a                               0x0a '
'
                           .rsrc:01005250 20                               0x20 ' '
                           .rsrc:01005251 20                               0x20 ' '
                           .rsrc:01005252 20                               0x20 ' '
                           .rsrc:01005253 20                               0x20 ' '
                           .rsrc:01005254 3c                               0x3c '<'
                           .rsrc:01005255 73                               0x73 's'
                           .rsrc:01005256 65                               0x65 'e'
                           .rsrc:01005257 63                               0x63 'c'
                           .rsrc:01005258 75                               0x75 'u'
                           .rsrc:01005259 72                               0x72 'r'
                           .rsrc:0100525a 69                               0x69 'i'
                           .rsrc:0100525b 74                               0x74 't'
                           .rsrc:0100525c 79                               0x79 'y'
                           .rsrc:0100525d 3e                               0x3e '>'
                           .rsrc:0100525e 0d                               0x0d ''
                           .rsrc:0100525f 0a                               0x0a '
'
                           .rsrc:01005260 20                               0x20 ' '
                           .rsrc:01005261 20                               0x20 ' '
                           .rsrc:01005262 20                               0x20 ' '
                           .rsrc:01005263 20                               0x20 ' '
                           .rsrc:01005264 20                               0x20 ' '
                           .rsrc:01005265 20                               0x20 ' '
                           .rsrc:01005266 20                               0x20 ' '
                           .rsrc:01005267 20                               0x20 ' '
                           .rsrc:01005268 3c                               0x3c '<'
                           .rsrc:01005269 72                               0x72 'r'
                           .rsrc:0100526a 65                               0x65 'e'
                           .rsrc:0100526b 71                               0x71 'q'
                           .rsrc:0100526c 75                               0x75 'u'
                           .rsrc:0100526d 65                               0x65 'e'
                           .rsrc:0100526e 73                               0x73 's'
                           .rsrc:0100526f 74                               0x74 't'
                           .rsrc:01005270 65                               0x65 'e'
                           .rsrc:01005271 64                               0x64 'd'
                           .rsrc:01005272 50                               0x50 'P'
                           .rsrc:01005273 72                               0x72 'r'
                           .rsrc:01005274 69                               0x69 'i'
                           .rsrc:01005275 76                               0x76 'v'
                           .rsrc:01005276 69                               0x69 'i'
                           .rsrc:01005277 6c                               0x6c 'l'
                           .rsrc:01005278 65                               0x65 'e'
                           .rsrc:01005279 67                               0x67 'g'
                           .rsrc:0100527a 65                               0x65 'e'
                           .rsrc:0100527b 73                               0x73 's'
                           .rsrc:0100527c 3e                               0x3e '>'
                           .rsrc:0100527d 0d                               0x0d ''
                           .rsrc:0100527e 0a                               0x0a '
'
                           .rsrc:0100527f 20                               0x20 ' '
                           .rsrc:01005280 20                               0x20 ' '
                           .rsrc:01005281 20                               0x20 ' '
                           .rsrc:01005282 20                               0x20 ' '
                           .rsrc:01005283 20                               0x20 ' '
                           .rsrc:01005284 20                               0x20 ' '
                           .rsrc:01005285 20                               0x20 ' '
                           .rsrc:01005286 20                               0x20 ' '
                           .rsrc:01005287 20                               0x20 ' '
                           .rsrc:01005288 20                               0x20 ' '
                           .rsrc:01005289 20                               0x20 ' '
                           .rsrc:0100528a 20                               0x20 ' '
                           .rsrc:0100528b 3c                               0x3c '<'
                           .rsrc:0100528c 72                               0x72 'r'
                           .rsrc:0100528d 65                               0x65 'e'
                           .rsrc:0100528e 71                               0x71 'q'
                           .rsrc:0100528f 75                               0x75 'u'
                           .rsrc:01005290 65                               0x65 'e'
                           .rsrc:01005291 73                               0x73 's'
                           .rsrc:01005292 74                               0x74 't'
                           .rsrc:01005293 65                               0x65 'e'
                           .rsrc:01005294 64                               0x64 'd'
                           .rsrc:01005295 45                               0x45 'E'
                           .rsrc:01005296 78                               0x78 'x'
                           .rsrc:01005297 65                               0x65 'e'
                           .rsrc:01005298 63                               0x63 'c'
                           .rsrc:01005299 75                               0x75 'u'
                           .rsrc:0100529a 74                               0x74 't'
                           .rsrc:0100529b 69                               0x69 'i'
                           .rsrc:0100529c 6f                               0x6f 'o'
                           .rsrc:0100529d 6e                               0x6e 'n'
                           .rsrc:0100529e 4c                               0x4c 'L'
                           .rsrc:0100529f 65                               0x65 'e'
                           .rsrc:010052a0 76                               0x76 'v'
                           .rsrc:010052a1 65                               0x65 'e'
                           .rsrc:010052a2 6c                               0x6c 'l'
                           .rsrc:010052a3 0d                               0x0d ''
                           .rsrc:010052a4 0a                               0x0a '
'
                           .rsrc:010052a5 20                               0x20 ' '
                           .rsrc:010052a6 20                               0x20 ' '
                           .rsrc:010052a7 20                               0x20 ' '
                           .rsrc:010052a8 20                               0x20 ' '
                           .rsrc:010052a9 20                               0x20 ' '
                           .rsrc:010052aa 20                               0x20 ' '
                           .rsrc:010052ab 20                               0x20 ' '
                           .rsrc:010052ac 20                               0x20 ' '
                           .rsrc:010052ad 20                               0x20 ' '
                           .rsrc:010052ae 20                               0x20 ' '
                           .rsrc:010052af 20                               0x20 ' '
                           .rsrc:010052b0 20                               0x20 ' '
                           .rsrc:010052b1 20                               0x20 ' '
                           .rsrc:010052b2 20                               0x20 ' '
                           .rsrc:010052b3 20                               0x20 ' '
                           .rsrc:010052b4 20                               0x20 ' '
                           .rsrc:010052b5 6c                               0x6c 'l'
                           .rsrc:010052b6 65                               0x65 'e'
                           .rsrc:010052b7 76                               0x76 'v'
                           .rsrc:010052b8 65                               0x65 'e'
                           .rsrc:010052b9 6c                               0x6c 'l'
                           .rsrc:010052ba 3d                               0x3d '='
                           .rsrc:010052bb 22                               0x22 '"'
                           .rsrc:010052bc 61                               0x61 'a'
                           .rsrc:010052bd 73                               0x73 's'
                           .rsrc:010052be 49                               0x49 'I'
                           .rsrc:010052bf 6e                               0x6e 'n'
                           .rsrc:010052c0 76                               0x76 'v'
                           .rsrc:010052c1 6f                               0x6f 'o'
                           .rsrc:010052c2 6b                               0x6b 'k'
                           .rsrc:010052c3 65                               0x65 'e'
                           .rsrc:010052c4 72                               0x72 'r'
                           .rsrc:010052c5 22                               0x22 '"'
                           .rsrc:010052c6 0d                               0x0d ''
                           .rsrc:010052c7 0a                               0x0a '
'
                           .rsrc:010052c8 20                               0x20 ' '
                           .rsrc:010052c9 20                               0x20 ' '
                           .rsrc:010052ca 20                               0x20 ' '
                           .rsrc:010052cb 20                               0x20 ' '
                           .rsrc:010052cc 20                               0x20 ' '
                           .rsrc:010052cd 20                               0x20 ' '
                           .rsrc:010052ce 20                               0x20 ' '
                           .rsrc:010052cf 20                               0x20 ' '
                           .rsrc:010052d0 20                               0x20 ' '
                           .rsrc:010052d1 20                               0x20 ' '
                           .rsrc:010052d2 20                               0x20 ' '
                           .rsrc:010052d3 20                               0x20 ' '
                           .rsrc:010052d4 20                               0x20 ' '
                           .rsrc:010052d5 20                               0x20 ' '
                           .rsrc:010052d6 20                               0x20 ' '
                           .rsrc:010052d7 20                               0x20 ' '
                           .rsrc:010052d8 75                               0x75 'u'
                           .rsrc:010052d9 69                               0x69 'i'
                           .rsrc:010052da 41                               0x41 'A'
                           .rsrc:010052db 63                               0x63 'c'
                           .rsrc:010052dc 63                               0x63 'c'
                           .rsrc:010052dd 65                               0x65 'e'
                           .rsrc:010052de 73                               0x73 's'
                           .rsrc:010052df 73                               0x73 's'
                           .rsrc:010052e0 3d                               0x3d '='
                           .rsrc:010052e1 22                               0x22 '"'
                           .rsrc:010052e2 66                               0x66 'f'
                           .rsrc:010052e3 61                               0x61 'a'
                           .rsrc:010052e4 6c                               0x6c 'l'
                           .rsrc:010052e5 73                               0x73 's'
                           .rsrc:010052e6 65                               0x65 'e'
                           .rsrc:010052e7 22                               0x22 '"'
                           .rsrc:010052e8 0d                               0x0d ''
                           .rsrc:010052e9 0a                               0x0a '
'
                           .rsrc:010052ea 20                               0x20 ' '
                           .rsrc:010052eb 20                               0x20 ' '
                           .rsrc:010052ec 20                               0x20 ' '
                           .rsrc:010052ed 20                               0x20 ' '
                           .rsrc:010052ee 20                               0x20 ' '
                           .rsrc:010052ef 20                               0x20 ' '
                           .rsrc:010052f0 20                               0x20 ' '
                           .rsrc:010052f1 20                               0x20 ' '
                           .rsrc:010052f2 20                               0x20 ' '
                           .rsrc:010052f3 20                               0x20 ' '
                           .rsrc:010052f4 20                               0x20 ' '
                           .rsrc:010052f5 20                               0x20 ' '
                           .rsrc:010052f6 2f                               0x2f '/'
                           .rsrc:010052f7 3e                               0x3e '>'
                           .rsrc:010052f8 0d                               0x0d ''
                           .rsrc:010052f9 0a                               0x0a '
'
                           .rsrc:010052fa 20                               0x20 ' '
                           .rsrc:010052fb 20                               0x20 ' '
                           .rsrc:010052fc 20                               0x20 ' '
                           .rsrc:010052fd 20                               0x20 ' '
                           .rsrc:010052fe 20                               0x20 ' '
                           .rsrc:010052ff 20                               0x20 ' '
                           .rsrc:01005300 20                               0x20 ' '
                           .rsrc:01005301 20                               0x20 ' '
                           .rsrc:01005302 3c                               0x3c '<'
                           .rsrc:01005303 2f                               0x2f '/'
                           .rsrc:01005304 72                               0x72 'r'
                           .rsrc:01005305 65                               0x65 'e'
                           .rsrc:01005306 71                               0x71 'q'
                           .rsrc:01005307 75                               0x75 'u'
                           .rsrc:01005308 65                               0x65 'e'
                           .rsrc:01005309 73                               0x73 's'
                           .rsrc:0100530a 74                               0x74 't'
                           .rsrc:0100530b 65                               0x65 'e'
                           .rsrc:0100530c 64                               0x64 'd'
                           .rsrc:0100530d 50                               0x50 'P'
                           .rsrc:0100530e 72                               0x72 'r'
                           .rsrc:0100530f 69                               0x69 'i'
                           .rsrc:01005310 76                               0x76 'v'
                           .rsrc:01005311 69                               0x69 'i'
                           .rsrc:01005312 6c                               0x6c 'l'
                           .rsrc:01005313 65                               0x65 'e'
                           .rsrc:01005314 67                               0x67 'g'
                           .rsrc:01005315 65                               0x65 'e'
                           .rsrc:01005316 73                               0x73 's'
                           .rsrc:01005317 3e                               0x3e '>'
                           .rsrc:01005318 0d                               0x0d ''
                           .rsrc:01005319 0a                               0x0a '
'
                           .rsrc:0100531a 20                               0x20 ' '
                           .rsrc:0100531b 20                               0x20 ' '
                           .rsrc:0100531c 20                               0x20 ' '
                           .rsrc:0100531d 20                               0x20 ' '
                           .rsrc:0100531e 3c                               0x3c '<'
                           .rsrc:0100531f 2f                               0x2f '/'
                           .rsrc:01005320 73                               0x73 's'
                           .rsrc:01005321 65                               0x65 'e'
                           .rsrc:01005322 63                               0x63 'c'
                           .rsrc:01005323 75                               0x75 'u'
                           .rsrc:01005324 72                               0x72 'r'
                           .rsrc:01005325 69                               0x69 'i'
                           .rsrc:01005326 74                               0x74 't'
                           .rsrc:01005327 79                               0x79 'y'
                           .rsrc:01005328 3e                               0x3e '>'
                           .rsrc:01005329 0d                               0x0d ''
                           .rsrc:0100532a 0a                               0x0a '
'
                           .rsrc:0100532b 3c                               0x3c '<'
                           .rsrc:0100532c 2f                               0x2f '/'
                           .rsrc:0100532d 74                               0x74 't'
                           .rsrc:0100532e 72                               0x72 'r'
                           .rsrc:0100532f 75                               0x75 'u'
                           .rsrc:01005330 73                               0x73 's'
                           .rsrc:01005331 74                               0x74 't'
                           .rsrc:01005332 49                               0x49 'I'
                           .rsrc:01005333 6e                               0x6e 'n'
                           .rsrc:01005334 66                               0x66 'f'
                           .rsrc:01005335 6f                               0x6f 'o'
                           .rsrc:01005336 3e                               0x3e '>'
                           .rsrc:01005337 0d                               0x0d ''
                           .rsrc:01005338 0a                               0x0a '
'
                           .rsrc:01005339 3c                               0x3c '<'
                           .rsrc:0100533a 2f                               0x2f '/'
                           .rsrc:0100533b 61                               0x61 'a'
                           .rsrc:0100533c 73                               0x73 's'
                           .rsrc:0100533d 73                               0x73 's'
                           .rsrc:0100533e 65                               0x65 'e'
                           .rsrc:0100533f 6d                               0x6d 'm'
                           .rsrc:01005340 62                               0x62 'b'
                           .rsrc:01005341 6c                               0x6c 'l'
                           .rsrc:01005342 79                               0x79 'y'
                           .rsrc:01005343 3e                               0x3e '>'
                           .rsrc:01005344 0d                               0x0d ''
                           .rsrc:01005345 0a                               0x0a '
'
                           .rsrc:01005346 00                               0x00 
                           .rsrc:01005347 00                               0x00 
                           .rsrc:01005348 dc                               0xdc 
                           .rsrc:01005349 03                               0x03 
                           .rsrc:0100534a 34                               0x34 '4'
                           .rsrc:0100534b 00                               0x00 
                           .rsrc:0100534c 00                               0x00 
                           .rsrc:0100534d 00                               0x00 
                           .rsrc:0100534e 56                               0x56 'V'
                           .rsrc:0100534f 00                               0x00 
                           .rsrc:01005350 53                               0x53 'S'
                           .rsrc:01005351 00                               0x00 
                           .rsrc:01005352 5f                               0x5f '_'
                           .rsrc:01005353 00                               0x00 
                           .rsrc:01005354 56                               0x56 'V'
                           .rsrc:01005355 00                               0x00 
                           .rsrc:01005356 45                               0x45 'E'
                           .rsrc:01005357 00                               0x00 
                           .rsrc:01005358 52                               0x52 'R'
                           .rsrc:01005359 00                               0x00 
                           .rsrc:0100535a 53                               0x53 'S'
                           .rsrc:0100535b 00                               0x00 
                           .rsrc:0100535c 49                               0x49 'I'
                           .rsrc:0100535d 00                               0x00 
                           .rsrc:0100535e 4f                               0x4f 'O'
                           .rsrc:0100535f 00                               0x00 
                           .rsrc:01005360 4e                               0x4e 'N'
                           .rsrc:01005361 00                               0x00 
                           .rsrc:01005362 5f                               0x5f '_'
                           .rsrc:01005363 00                               0x00 
                           .rsrc:01005364 49                               0x49 'I'
                           .rsrc:01005365 00                               0x00 
                           .rsrc:01005366 4e                               0x4e 'N'
                           .rsrc:01005367 00                               0x00 
                           .rsrc:01005368 46                               0x46 'F'
                           .rsrc:01005369 00                               0x00 
                           .rsrc:0100536a 4f                               0x4f 'O'
                           .rsrc:0100536b 00                               0x00 
                           .rsrc:0100536c 00                               0x00 
                           .rsrc:0100536d 00                               0x00 
                           .rsrc:0100536e 00                               0x00 
                           .rsrc:0100536f 00                               0x00 
                           .rsrc:01005370 bd                               0xbd 
                           .rsrc:01005371 04                               0x04 
                           .rsrc:01005372 ef                               0xef 
                           .rsrc:01005373 fe                               0xfe 
                           .rsrc:01005374 00                               0x00 
                           .rsrc:01005375 00                               0x00 
                           .rsrc:01005376 01                               0x01 
                           .rsrc:01005377 00                               0x00 
                           .rsrc:01005378 01                               0x01 
                           .rsrc:01005379 00                               0x00 
                           .rsrc:0100537a 06                               0x06 
                           .rsrc:0100537b 00                               0x00 
                           .rsrc:0100537c 01                               0x01 
                           .rsrc:0100537d 40                               0x40 '@'
                           .rsrc:0100537e b0                               0xb0 
                           .rsrc:0100537f 1d                               0x1d 
                           .rsrc:01005380 01                               0x01 
                           .rsrc:01005381 00                               0x00 
                           .rsrc:01005382 06                               0x06 
                           .rsrc:01005383 00                               0x00 
                           .rsrc:01005384 01                               0x01 
                           .rsrc:01005385 40                               0x40 '@'
                           .rsrc:01005386 b0                               0xb0 
                           .rsrc:01005387 1d                               0x1d 
                           .rsrc:01005388 3f                               0x3f '?'
                           .rsrc:01005389 00                               0x00 
                           .rsrc:0100538a 00                               0x00 
                           .rsrc:0100538b 00                               0x00 
                           .rsrc:0100538c 00                               0x00 
                           .rsrc:0100538d 00                               0x00 
                           .rsrc:0100538e 00                               0x00 
                           .rsrc:0100538f 00                               0x00 
                           .rsrc:01005390 04                               0x04 
                           .rsrc:01005391 00                               0x00 
                           .rsrc:01005392 04                               0x04 
                           .rsrc:01005393 00                               0x00 
                           .rsrc:01005394 02                               0x02 
                           .rsrc:01005395 00                               0x00 
                           .rsrc:01005396 00                               0x00 
                           .rsrc:01005397 00                               0x00 
                           .rsrc:01005398 00                               0x00 
                           .rsrc:01005399 00                               0x00 
                           .rsrc:0100539a 00                               0x00 
                           .rsrc:0100539b 00                               0x00 
                           .rsrc:0100539c 00                               0x00 
                           .rsrc:0100539d 00                               0x00 
                           .rsrc:0100539e 00                               0x00 
                           .rsrc:0100539f 00                               0x00 
                           .rsrc:010053a0 00                               0x00 
                           .rsrc:010053a1 00                               0x00 
                           .rsrc:010053a2 00                               0x00 
                           .rsrc:010053a3 00                               0x00 
                           .rsrc:010053a4 3a                               0x3a ':'
                           .rsrc:010053a5 03                               0x03 
                           .rsrc:010053a6 00                               0x00 
                           .rsrc:010053a7 00                               0x00 
                           .rsrc:010053a8 01                               0x01 
                           .rsrc:010053a9 00                               0x00 
                           .rsrc:010053aa 53                               0x53 'S'
                           .rsrc:010053ab 00                               0x00 
                           .rsrc:010053ac 74                               0x74 't'
                           .rsrc:010053ad 00                               0x00 
                           .rsrc:010053ae 72                               0x72 'r'
                           .rsrc:010053af 00                               0x00 
                           .rsrc:010053b0 69                               0x69 'i'
                           .rsrc:010053b1 00                               0x00 
                           .rsrc:010053b2 6e                               0x6e 'n'
                           .rsrc:010053b3 00                               0x00 
                           .rsrc:010053b4 67                               0x67 'g'
                           .rsrc:010053b5 00                               0x00 
                           .rsrc:010053b6 46                               0x46 'F'
                           .rsrc:010053b7 00                               0x00 
                           .rsrc:010053b8 69                               0x69 'i'
                           .rsrc:010053b9 00                               0x00 
                           .rsrc:010053ba 6c                               0x6c 'l'
                           .rsrc:010053bb 00                               0x00 
                           .rsrc:010053bc 65                               0x65 'e'
                           .rsrc:010053bd 00                               0x00 
                           .rsrc:010053be 49                               0x49 'I'
                           .rsrc:010053bf 00                               0x00 
                           .rsrc:010053c0 6e                               0x6e 'n'
                           .rsrc:010053c1 00                               0x00 
                           .rsrc:010053c2 66                               0x66 'f'
                           .rsrc:010053c3 00                               0x00 
                           .rsrc:010053c4 6f                               0x6f 'o'
                           .rsrc:010053c5 00                               0x00 
                           .rsrc:010053c6 00                               0x00 
                           .rsrc:010053c7 00                               0x00 
                           .rsrc:010053c8 16                               0x16 
                           .rsrc:010053c9 03                               0x03 
                           .rsrc:010053ca 00                               0x00 
                           .rsrc:010053cb 00                               0x00 
                           .rsrc:010053cc 01                               0x01 
                           .rsrc:010053cd 00                               0x00 
                           .rsrc:010053ce 30                               0x30 '0'
                           .rsrc:010053cf 00                               0x00 
                           .rsrc:010053d0 34                               0x34 '4'
                           .rsrc:010053d1 00                               0x00 
                           .rsrc:010053d2 30                               0x30 '0'
                           .rsrc:010053d3 00                               0x00 
                           .rsrc:010053d4 39                               0x39 '9'
                           .rsrc:010053d5 00                               0x00 
                           .rsrc:010053d6 30                               0x30 '0'
                           .rsrc:010053d7 00                               0x00 
                           .rsrc:010053d8 34                               0x34 '4'
                           .rsrc:010053d9 00                               0x00 
                           .rsrc:010053da 42                               0x42 'B'
                           .rsrc:010053db 00                               0x00 
                           .rsrc:010053dc 30                               0x30 '0'
                           .rsrc:010053dd 00                               0x00 
                           .rsrc:010053de 00                               0x00 
                           .rsrc:010053df 00                               0x00 
                           .rsrc:010053e0 4c                               0x4c 'L'
                           .rsrc:010053e1 00                               0x00 
                           .rsrc:010053e2 16                               0x16 
                           .rsrc:010053e3 00                               0x00 
                           .rsrc:010053e4 01                               0x01 
                           .rsrc:010053e5 00                               0x00 
                           .rsrc:010053e6 43                               0x43 'C'
                           .rsrc:010053e7 00                               0x00 
                           .rsrc:010053e8 6f                               0x6f 'o'
                           .rsrc:010053e9 00                               0x00 
                           .rsrc:010053ea 6d                               0x6d 'm'
                           .rsrc:010053eb 00                               0x00 
                           .rsrc:010053ec 70                               0x70 'p'
                           .rsrc:010053ed 00                               0x00 
                           .rsrc:010053ee 61                               0x61 'a'
                           .rsrc:010053ef 00                               0x00 
                           .rsrc:010053f0 6e                               0x6e 'n'
                           .rsrc:010053f1 00                               0x00 
                           .rsrc:010053f2 79                               0x79 'y'
                           .rsrc:010053f3 00                               0x00 
                           .rsrc:010053f4 4e                               0x4e 'N'
                           .rsrc:010053f5 00                               0x00 
                           .rsrc:010053f6 61                               0x61 'a'
                           .rsrc:010053f7 00                               0x00 
                           .rsrc:010053f8 6d                               0x6d 'm'
                           .rsrc:010053f9 00                               0x00 
                           .rsrc:010053fa 65                               0x65 'e'
                           .rsrc:010053fb 00                               0x00 
                           .rsrc:010053fc 00                               0x00 
                           .rsrc:010053fd 00                               0x00 
                           .rsrc:010053fe 00                               0x00 
                           .rsrc:010053ff 00                               0x00 
                           .rsrc:01005400 4d                               0x4d 'M'
                           .rsrc:01005401 00                               0x00 
                           .rsrc:01005402 69                               0x69 'i'
                           .rsrc:01005403 00                               0x00 
                           .rsrc:01005404 63                               0x63 'c'
                           .rsrc:01005405 00                               0x00 
                           .rsrc:01005406 72                               0x72 'r'
                           .rsrc:01005407 00                               0x00 
                           .rsrc:01005408 6f                               0x6f 'o'
                           .rsrc:01005409 00                               0x00 
                           .rsrc:0100540a 73                               0x73 's'
                           .rsrc:0100540b 00                               0x00 
                           .rsrc:0100540c 6f                               0x6f 'o'
                           .rsrc:0100540d 00                               0x00 
                           .rsrc:0100540e 66                               0x66 'f'
                           .rsrc:0100540f 00                               0x00 
                           .rsrc:01005410 74                               0x74 't'
                           .rsrc:01005411 00                               0x00 
                           .rsrc:01005412 20                               0x20 ' '
                           .rsrc:01005413 00                               0x00 
                           .rsrc:01005414 43                               0x43 'C'
                           .rsrc:01005415 00                               0x00 
                           .rsrc:01005416 6f                               0x6f 'o'
                           .rsrc:01005417 00                               0x00 
                           .rsrc:01005418 72                               0x72 'r'
                           .rsrc:01005419 00                               0x00 
                           .rsrc:0100541a 70                               0x70 'p'
                           .rsrc:0100541b 00                               0x00 
                           .rsrc:0100541c 6f                               0x6f 'o'
                           .rsrc:0100541d 00                               0x00 
                           .rsrc:0100541e 72                               0x72 'r'
                           .rsrc:0100541f 00                               0x00 
                           .rsrc:01005420 61                               0x61 'a'
                           .rsrc:01005421 00                               0x00 
                           .rsrc:01005422 74                               0x74 't'
                           .rsrc:01005423 00                               0x00 
                           .rsrc:01005424 69                               0x69 'i'
                           .rsrc:01005425 00                               0x00 
                           .rsrc:01005426 6f                               0x6f 'o'
                           .rsrc:01005427 00                               0x00 
                           .rsrc:01005428 6e                               0x6e 'n'
                           .rsrc:01005429 00                               0x00 
                           .rsrc:0100542a 00                               0x00 
                           .rsrc:0100542b 00                               0x00 
                           .rsrc:0100542c 96                               0x96 
                           .rsrc:0100542d 00                               0x00 
                           .rsrc:0100542e 37                               0x37 '7'
                           .rsrc:0100542f 00                               0x00 
                           .rsrc:01005430 01                               0x01 
                           .rsrc:01005431 00                               0x00 
                           .rsrc:01005432 46                               0x46 'F'
                           .rsrc:01005433 00                               0x00 
                           .rsrc:01005434 69                               0x69 'i'
                           .rsrc:01005435 00                               0x00 
                           .rsrc:01005436 6c                               0x6c 'l'
                           .rsrc:01005437 00                               0x00 
                           .rsrc:01005438 65                               0x65 'e'
                           .rsrc:01005439 00                               0x00 
                           .rsrc:0100543a 44                               0x44 'D'
                           .rsrc:0100543b 00                               0x00 
                           .rsrc:0100543c 65                               0x65 'e'
                           .rsrc:0100543d 00                               0x00 
                           .rsrc:0100543e 73                               0x73 's'
                           .rsrc:0100543f 00                               0x00 
                           .rsrc:01005440 63                               0x63 'c'
                           .rsrc:01005441 00                               0x00 
                           .rsrc:01005442 72                               0x72 'r'
                           .rsrc:01005443 00                               0x00 
                           .rsrc:01005444 69                               0x69 'i'
                           .rsrc:01005445 00                               0x00 
                           .rsrc:01005446 70                               0x70 'p'
                           .rsrc:01005447 00                               0x00 
                           .rsrc:01005448 74                               0x74 't'
                           .rsrc:01005449 00                               0x00 
                           .rsrc:0100544a 69                               0x69 'i'
                           .rsrc:0100544b 00                               0x00 
                           .rsrc:0100544c 6f                               0x6f 'o'
                           .rsrc:0100544d 00                               0x00 
                           .rsrc:0100544e 6e                               0x6e 'n'
                           .rsrc:0100544f 00                               0x00 
                           .rsrc:01005450 00                               0x00 
                           .rsrc:01005451 00                               0x00 
                           .rsrc:01005452 00                               0x00 
                           .rsrc:01005453 00                               0x00 
                           .rsrc:01005454 4d                               0x4d 'M'
                           .rsrc:01005455 00                               0x00 
                           .rsrc:01005456 69                               0x69 'i'
                           .rsrc:01005457 00                               0x00 
                           .rsrc:01005458 63                               0x63 'c'
                           .rsrc:01005459 00                               0x00 
                           .rsrc:0100545a 72                               0x72 'r'
                           .rsrc:0100545b 00                               0x00 
                           .rsrc:0100545c 6f                               0x6f 'o'
                           .rsrc:0100545d 00                               0x00 
                           .rsrc:0100545e 73                               0x73 's'
                           .rsrc:0100545f 00                               0x00 
                           .rsrc:01005460 6f                               0x6f 'o'
                           .rsrc:01005461 00                               0x00 
                           .rsrc:01005462 66                               0x66 'f'
                           .rsrc:01005463 00                               0x00 
                           .rsrc:01005464 74                               0x74 't'
                           .rsrc:01005465 00                               0x00 
                           .rsrc:01005466 ae                               0xae 
                           .rsrc:01005467 00                               0x00 
                           .rsrc:01005468 20                               0x20 ' '
                           .rsrc:01005469 00                               0x00 
                           .rsrc:0100546a 57                               0x57 'W'
                           .rsrc:0100546b 00                               0x00 
                           .rsrc:0100546c 69                               0x69 'i'
                           .rsrc:0100546d 00                               0x00 
                           .rsrc:0100546e 6e                               0x6e 'n'
                           .rsrc:0100546f 00                               0x00 
                           .rsrc:01005470 64                               0x64 'd'
                           .rsrc:01005471 00                               0x00 
                           .rsrc:01005472 6f                               0x6f 'o'
                           .rsrc:01005473 00                               0x00 
                           .rsrc:01005474 77                               0x77 'w'
                           .rsrc:01005475 00                               0x00 
                           .rsrc:01005476 73                               0x73 's'
                           .rsrc:01005477 00                               0x00 
                           .rsrc:01005478 20                               0x20 ' '
                           .rsrc:01005479 00                               0x00 
                           .rsrc:0100547a 53                               0x53 'S'
                           .rsrc:0100547b 00                               0x00 
                           .rsrc:0100547c 79                               0x79 'y'
                           .rsrc:0100547d 00                               0x00 
                           .rsrc:0100547e 73                               0x73 's'
                           .rsrc:0100547f 00                               0x00 
                           .rsrc:01005480 74                               0x74 't'
                           .rsrc:01005481 00                               0x00 
                           .rsrc:01005482 65                               0x65 'e'
                           .rsrc:01005483 00                               0x00 
                           .rsrc:01005484 6d                               0x6d 'm'
                           .rsrc:01005485 00                               0x00 
                           .rsrc:01005486 20                               0x20 ' '
                           .rsrc:01005487 00                               0x00 
                           .rsrc:01005488 52                               0x52 'R'
                           .rsrc:01005489 00                               0x00 
                           .rsrc:0100548a 65                               0x65 'e'
                           .rsrc:0100548b 00                               0x00 
                           .rsrc:0100548c 73                               0x73 's'
                           .rsrc:0100548d 00                               0x00 
                           .rsrc:0100548e 74                               0x74 't'
                           .rsrc:0100548f 00                               0x00 
                           .rsrc:01005490 6f                               0x6f 'o'
                           .rsrc:01005491 00                               0x00 
                           .rsrc:01005492 72                               0x72 'r'
                           .rsrc:01005493 00                               0x00 
                           .rsrc:01005494 65                               0x65 'e'
                           .rsrc:01005495 00                               0x00 
                           .rsrc:01005496 20                               0x20 ' '
                           .rsrc:01005497 00                               0x00 
                           .rsrc:01005498 44                               0x44 'D'
                           .rsrc:01005499 00                               0x00 
                           .rsrc:0100549a 65                               0x65 'e'
                           .rsrc:0100549b 00                               0x00 
                           .rsrc:0100549c 6c                               0x6c 'l'
                           .rsrc:0100549d 00                               0x00 
                           .rsrc:0100549e 61                               0x61 'a'
                           .rsrc:0100549f 00                               0x00 
                           .rsrc:010054a0 79                               0x79 'y'
                           .rsrc:010054a1 00                               0x00 
                           .rsrc:010054a2 65                               0x65 'e'
                           .rsrc:010054a3 00                               0x00 
                           .rsrc:010054a4 64                               0x64 'd'
                           .rsrc:010054a5 00                               0x00 
                           .rsrc:010054a6 20                               0x20 ' '
                           .rsrc:010054a7 00                               0x00 
                           .rsrc:010054a8 46                               0x46 'F'
                           .rsrc:010054a9 00                               0x00 
                           .rsrc:010054aa 69                               0x69 'i'
                           .rsrc:010054ab 00                               0x00 
                           .rsrc:010054ac 6c                               0x6c 'l'
                           .rsrc:010054ad 00                               0x00 
                           .rsrc:010054ae 65                               0x65 'e'
                           .rsrc:010054af 00                               0x00 
                           .rsrc:010054b0 20                               0x20 ' '
                           .rsrc:010054b1 00                               0x00 
                           .rsrc:010054b2 52                               0x52 'R'
                           .rsrc:010054b3 00                               0x00 
                           .rsrc:010054b4 65                               0x65 'e'
                           .rsrc:010054b5 00                               0x00 
                           .rsrc:010054b6 6e                               0x6e 'n'
                           .rsrc:010054b7 00                               0x00 
                           .rsrc:010054b8 61                               0x61 'a'
                           .rsrc:010054b9 00                               0x00 
                           .rsrc:010054ba 6d                               0x6d 'm'
                           .rsrc:010054bb 00                               0x00 
                           .rsrc:010054bc 65                               0x65 'e'
                           .rsrc:010054bd 00                               0x00 
                           .rsrc:010054be 72                               0x72 'r'
                           .rsrc:010054bf 00                               0x00 
                           .rsrc:010054c0 00                               0x00 
                           .rsrc:010054c1 00                               0x00 
                           .rsrc:010054c2 00                               0x00 
                           .rsrc:010054c3 00                               0x00 
                           .rsrc:010054c4 6c                               0x6c 'l'
                           .rsrc:010054c5 00                               0x00 
                           .rsrc:010054c6 26                               0x26 '&'
                           .rsrc:010054c7 00                               0x00 
                           .rsrc:010054c8 01                               0x01 
                           .rsrc:010054c9 00                               0x00 
                           .rsrc:010054ca 46                               0x46 'F'
                           .rsrc:010054cb 00                               0x00 
                           .rsrc:010054cc 69                               0x69 'i'
                           .rsrc:010054cd 00                               0x00 
                           .rsrc:010054ce 6c                               0x6c 'l'
                           .rsrc:010054cf 00                               0x00 
                           .rsrc:010054d0 65                               0x65 'e'
                           .rsrc:010054d1 00                               0x00 
                           .rsrc:010054d2 56                               0x56 'V'
                           .rsrc:010054d3 00                               0x00 
                           .rsrc:010054d4 65                               0x65 'e'
                           .rsrc:010054d5 00                               0x00 
                           .rsrc:010054d6 72                               0x72 'r'
                           .rsrc:010054d7 00                               0x00 
                           .rsrc:010054d8 73                               0x73 's'
                           .rsrc:010054d9 00                               0x00 
                           .rsrc:010054da 69                               0x69 'i'
                           .rsrc:010054db 00                               0x00 
                           .rsrc:010054dc 6f                               0x6f 'o'
                           .rsrc:010054dd 00                               0x00 
                           .rsrc:010054de 6e                               0x6e 'n'
                           .rsrc:010054df 00                               0x00 
                           .rsrc:010054e0 00                               0x00 
                           .rsrc:010054e1 00                               0x00 
                           .rsrc:010054e2 00                               0x00 
                           .rsrc:010054e3 00                               0x00 
                           .rsrc:010054e4 36                               0x36 '6'
                           .rsrc:010054e5 00                               0x00 
                           .rsrc:010054e6 2e                               0x2e '.'
                           .rsrc:010054e7 00                               0x00 
                           .rsrc:010054e8 31                               0x31 '1'
                           .rsrc:010054e9 00                               0x00 
                           .rsrc:010054ea 2e                               0x2e '.'
                           .rsrc:010054eb 00                               0x00 
                           .rsrc:010054ec 37                               0x37 '7'
                           .rsrc:010054ed 00                               0x00 
                           .rsrc:010054ee 36                               0x36 '6'
                           .rsrc:010054ef 00                               0x00 
                           .rsrc:010054f0 30                               0x30 '0'
                           .rsrc:010054f1 00                               0x00 
                           .rsrc:010054f2 30                               0x30 '0'
                           .rsrc:010054f3 00                               0x00 
                           .rsrc:010054f4 2e                               0x2e '.'
                           .rsrc:010054f5 00                               0x00 
                           .rsrc:010054f6 31                               0x31 '1'
                           .rsrc:010054f7 00                               0x00 
                           .rsrc:010054f8 36                               0x36 '6'
                           .rsrc:010054f9 00                               0x00 
                           .rsrc:010054fa 33                               0x33 '3'
                           .rsrc:010054fb 00                               0x00 
                           .rsrc:010054fc 38                               0x38 '8'
                           .rsrc:010054fd 00                               0x00 
                           .rsrc:010054fe 35                               0x35 '5'
                           .rsrc:010054ff 00                               0x00 
                           .rsrc:01005500 20                               0x20 ' '
                           .rsrc:01005501 00                               0x00 
                           .rsrc:01005502 28                               0x28 '('
                           .rsrc:01005503 00                               0x00 
                           .rsrc:01005504 77                               0x77 'w'
                           .rsrc:01005505 00                               0x00 
                           .rsrc:01005506 69                               0x69 'i'
                           .rsrc:01005507 00                               0x00 
                           .rsrc:01005508 6e                               0x6e 'n'
                           .rsrc:01005509 00                               0x00 
                           .rsrc:0100550a 37                               0x37 '7'
                           .rsrc:0100550b 00                               0x00 
                           .rsrc:0100550c 5f                               0x5f '_'
                           .rsrc:0100550d 00                               0x00 
                           .rsrc:0100550e 72                               0x72 'r'
                           .rsrc:0100550f 00                               0x00 
                           .rsrc:01005510 74                               0x74 't'
                           .rsrc:01005511 00                               0x00 
                           .rsrc:01005512 6d                               0x6d 'm'
                           .rsrc:01005513 00                               0x00 
                           .rsrc:01005514 2e                               0x2e '.'
                           .rsrc:01005515 00                               0x00 
                           .rsrc:01005516 30                               0x30 '0'
                           .rsrc:01005517 00                               0x00 
                           .rsrc:01005518 39                               0x39 '9'
                           .rsrc:01005519 00                               0x00 
                           .rsrc:0100551a 30                               0x30 '0'
                           .rsrc:0100551b 00                               0x00 
                           .rsrc:0100551c 37                               0x37 '7'
                           .rsrc:0100551d 00                               0x00 
                           .rsrc:0100551e 31                               0x31 '1'
                           .rsrc:0100551f 00                               0x00 
                           .rsrc:01005520 33                               0x33 '3'
                           .rsrc:01005521 00                               0x00 
                           .rsrc:01005522 2d                               0x2d '-'
                           .rsrc:01005523 00                               0x00 
                           .rsrc:01005524 31                               0x31 '1'
                           .rsrc:01005525 00                               0x00 
                           .rsrc:01005526 32                               0x32 '2'
                           .rsrc:01005527 00                               0x00 
                           .rsrc:01005528 35                               0x35 '5'
                           .rsrc:01005529 00                               0x00 
                           .rsrc:0100552a 35                               0x35 '5'
                           .rsrc:0100552b 00                               0x00 
                           .rsrc:0100552c 29                               0x29 ')'
                           .rsrc:0100552d 00                               0x00 
                           .rsrc:0100552e 00                               0x00 
                           .rsrc:0100552f 00                               0x00 
                           .rsrc:01005530 3c                               0x3c '<'
                           .rsrc:01005531 00                               0x00 
                           .rsrc:01005532 0e                               0x0e 
                           .rsrc:01005533 00                               0x00 
                           .rsrc:01005534 01                               0x01 
                           .rsrc:01005535 00                               0x00 
                           .rsrc:01005536 49                               0x49 'I'
                           .rsrc:01005537 00                               0x00 
                           .rsrc:01005538 6e                               0x6e 'n'
                           .rsrc:01005539 00                               0x00 
                           .rsrc:0100553a 74                               0x74 't'
                           .rsrc:0100553b 00                               0x00 
                           .rsrc:0100553c 65                               0x65 'e'
                           .rsrc:0100553d 00                               0x00 
                           .rsrc:0100553e 72                               0x72 'r'
                           .rsrc:0100553f 00                               0x00 
                           .rsrc:01005540 6e                               0x6e 'n'
                           .rsrc:01005541 00                               0x00 
                           .rsrc:01005542 61                               0x61 'a'
                           .rsrc:01005543 00                               0x00 
                           .rsrc:01005544 6c                               0x6c 'l'
                           .rsrc:01005545 00                               0x00 
                           .rsrc:01005546 4e                               0x4e 'N'
                           .rsrc:01005547 00                               0x00 
                           .rsrc:01005548 61                               0x61 'a'
                           .rsrc:01005549 00                               0x00 
                           .rsrc:0100554a 6d                               0x6d 'm'
                           .rsrc:0100554b 00                               0x00 
                           .rsrc:0100554c 65                               0x65 'e'
                           .rsrc:0100554d 00                               0x00 
                           .rsrc:0100554e 00                               0x00 
                           .rsrc:0100554f 00                               0x00 
                           .rsrc:01005550 73                               0x73 's'
                           .rsrc:01005551 00                               0x00 
                           .rsrc:01005552 72                               0x72 'r'
                           .rsrc:01005553 00                               0x00 
                           .rsrc:01005554 64                               0x64 'd'
                           .rsrc:01005555 00                               0x00 
                           .rsrc:01005556 65                               0x65 'e'
                           .rsrc:01005557 00                               0x00 
                           .rsrc:01005558 6c                               0x6c 'l'
                           .rsrc:01005559 00                               0x00 
                           .rsrc:0100555a 61                               0x61 'a'
                           .rsrc:0100555b 00                               0x00 
                           .rsrc:0100555c 79                               0x79 'y'
                           .rsrc:0100555d 00                               0x00 
                           .rsrc:0100555e 65                               0x65 'e'
                           .rsrc:0100555f 00                               0x00 
                           .rsrc:01005560 64                               0x64 'd'
                           .rsrc:01005561 00                               0x00 
                           .rsrc:01005562 2e                               0x2e '.'
                           .rsrc:01005563 00                               0x00 
                           .rsrc:01005564 65                               0x65 'e'
                           .rsrc:01005565 00                               0x00 
                           .rsrc:01005566 78                               0x78 'x'
                           .rsrc:01005567 00                               0x00 
                           .rsrc:01005568 65                               0x65 'e'
                           .rsrc:01005569 00                               0x00 
                           .rsrc:0100556a 00                               0x00 
                           .rsrc:0100556b 00                               0x00 
                           .rsrc:0100556c 80                               0x80 
                           .rsrc:0100556d 00                               0x00 
                           .rsrc:0100556e 2e                               0x2e '.'
                           .rsrc:0100556f 00                               0x00 
                           .rsrc:01005570 01                               0x01 
                           .rsrc:01005571 00                               0x00 
                           .rsrc:01005572 4c                               0x4c 'L'
                           .rsrc:01005573 00                               0x00 
                           .rsrc:01005574 65                               0x65 'e'
                           .rsrc:01005575 00                               0x00 
                           .rsrc:01005576 67                               0x67 'g'
                           .rsrc:01005577 00                               0x00 
                           .rsrc:01005578 61                               0x61 'a'
                           .rsrc:01005579 00                               0x00 
                           .rsrc:0100557a 6c                               0x6c 'l'
                           .rsrc:0100557b 00                               0x00 
                           .rsrc:0100557c 43                               0x43 'C'
                           .rsrc:0100557d 00                               0x00 
                           .rsrc:0100557e 6f                               0x6f 'o'
                           .rsrc:0100557f 00                               0x00 
                           .rsrc:01005580 70                               0x70 'p'
                           .rsrc:01005581 00                               0x00 
                           .rsrc:01005582 79                               0x79 'y'
                           .rsrc:01005583 00                               0x00 
                           .rsrc:01005584 72                               0x72 'r'
                           .rsrc:01005585 00                               0x00 
                           .rsrc:01005586 69                               0x69 'i'
                           .rsrc:01005587 00                               0x00 
                           .rsrc:01005588 67                               0x67 'g'
                           .rsrc:01005589 00                               0x00 
                           .rsrc:0100558a 68                               0x68 'h'
                           .rsrc:0100558b 00                               0x00 
                           .rsrc:0100558c 74                               0x74 't'
                           .rsrc:0100558d 00                               0x00 
                           .rsrc:0100558e 00                               0x00 
                           .rsrc:0100558f 00                               0x00 
                           .rsrc:01005590 a9                               0xa9 
                           .rsrc:01005591 00                               0x00 
                           .rsrc:01005592 20                               0x20 ' '
                           .rsrc:01005593 00                               0x00 
                           .rsrc:01005594 4d                               0x4d 'M'
                           .rsrc:01005595 00                               0x00 
                           .rsrc:01005596 69                               0x69 'i'
                           .rsrc:01005597 00                               0x00 
                           .rsrc:01005598 63                               0x63 'c'
                           .rsrc:01005599 00                               0x00 
                           .rsrc:0100559a 72                               0x72 'r'
                           .rsrc:0100559b 00                               0x00 
                           .rsrc:0100559c 6f                               0x6f 'o'
                           .rsrc:0100559d 00                               0x00 
                           .rsrc:0100559e 73                               0x73 's'
                           .rsrc:0100559f 00                               0x00 
                           .rsrc:010055a0 6f                               0x6f 'o'
                           .rsrc:010055a1 00                               0x00 
                           .rsrc:010055a2 66                               0x66 'f'
                           .rsrc:010055a3 00                               0x00 
                           .rsrc:010055a4 74                               0x74 't'
                           .rsrc:010055a5 00                               0x00 
                           .rsrc:010055a6 20                               0x20 ' '
                           .rsrc:010055a7 00                               0x00 
                           .rsrc:010055a8 43                               0x43 'C'
                           .rsrc:010055a9 00                               0x00 
                           .rsrc:010055aa 6f                               0x6f 'o'
                           .rsrc:010055ab 00                               0x00 
                           .rsrc:010055ac 72                               0x72 'r'
                           .rsrc:010055ad 00                               0x00 
                           .rsrc:010055ae 70                               0x70 'p'
                           .rsrc:010055af 00                               0x00 
                           .rsrc:010055b0 6f                               0x6f 'o'
                           .rsrc:010055b1 00                               0x00 
                           .rsrc:010055b2 72                               0x72 'r'
                           .rsrc:010055b3 00                               0x00 
                           .rsrc:010055b4 61                               0x61 'a'
                           .rsrc:010055b5 00                               0x00 
                           .rsrc:010055b6 74                               0x74 't'
                           .rsrc:010055b7 00                               0x00 
                           .rsrc:010055b8 69                               0x69 'i'
                           .rsrc:010055b9 00                               0x00 
                           .rsrc:010055ba 6f                               0x6f 'o'
                           .rsrc:010055bb 00                               0x00 
                           .rsrc:010055bc 6e                               0x6e 'n'
                           .rsrc:010055bd 00                               0x00 
                           .rsrc:010055be 2e                               0x2e '.'
                           .rsrc:010055bf 00                               0x00 
                           .rsrc:010055c0 20                               0x20 ' '
                           .rsrc:010055c1 00                               0x00 
                           .rsrc:010055c2 41                               0x41 'A'
                           .rsrc:010055c3 00                               0x00 
                           .rsrc:010055c4 6c                               0x6c 'l'
                           .rsrc:010055c5 00                               0x00 
                           .rsrc:010055c6 6c                               0x6c 'l'
                           .rsrc:010055c7 00                               0x00 
                           .rsrc:010055c8 20                               0x20 ' '
                           .rsrc:010055c9 00                               0x00 
                           .rsrc:010055ca 72                               0x72 'r'
                           .rsrc:010055cb 00                               0x00 
                           .rsrc:010055cc 69                               0x69 'i'
                           .rsrc:010055cd 00                               0x00 
                           .rsrc:010055ce 67                               0x67 'g'
                           .rsrc:010055cf 00                               0x00 
                           .rsrc:010055d0 68                               0x68 'h'
                           .rsrc:010055d1 00                               0x00 
                           .rsrc:010055d2 74                               0x74 't'
                           .rsrc:010055d3 00                               0x00 
                           .rsrc:010055d4 73                               0x73 's'
                           .rsrc:010055d5 00                               0x00 
                           .rsrc:010055d6 20                               0x20 ' '
                           .rsrc:010055d7 00                               0x00 
                           .rsrc:010055d8 72                               0x72 'r'
                           .rsrc:010055d9 00                               0x00 
                           .rsrc:010055da 65                               0x65 'e'
                           .rsrc:010055db 00                               0x00 
                           .rsrc:010055dc 73                               0x73 's'
                           .rsrc:010055dd 00                               0x00 
                           .rsrc:010055de 65                               0x65 'e'
                           .rsrc:010055df 00                               0x00 
                           .rsrc:010055e0 72                               0x72 'r'
                           .rsrc:010055e1 00                               0x00 
                           .rsrc:010055e2 76                               0x76 'v'
                           .rsrc:010055e3 00                               0x00 
                           .rsrc:010055e4 65                               0x65 'e'
                           .rsrc:010055e5 00                               0x00 
                           .rsrc:010055e6 64                               0x64 'd'
                           .rsrc:010055e7 00                               0x00 
                           .rsrc:010055e8 2e                               0x2e '.'
                           .rsrc:010055e9 00                               0x00 
                           .rsrc:010055ea 00                               0x00 
                           .rsrc:010055eb 00                               0x00 
                           .rsrc:010055ec 44                               0x44 'D'
                           .rsrc:010055ed 00                               0x00 
                           .rsrc:010055ee 0e                               0x0e 
                           .rsrc:010055ef 00                               0x00 
                           .rsrc:010055f0 01                               0x01 
                           .rsrc:010055f1 00                               0x00 
                           .rsrc:010055f2 4f                               0x4f 'O'
                           .rsrc:010055f3 00                               0x00 
                           .rsrc:010055f4 72                               0x72 'r'
                           .rsrc:010055f5 00                               0x00 
                           .rsrc:010055f6 69                               0x69 'i'
                           .rsrc:010055f7 00                               0x00 
                           .rsrc:010055f8 67                               0x67 'g'
                           .rsrc:010055f9 00                               0x00 
                           .rsrc:010055fa 69                               0x69 'i'
                           .rsrc:010055fb 00                               0x00 
                           .rsrc:010055fc 6e                               0x6e 'n'
                           .rsrc:010055fd 00                               0x00 
                           .rsrc:010055fe 61                               0x61 'a'
                           .rsrc:010055ff 00                               0x00 
                           .rsrc:01005600 6c                               0x6c 'l'
                           .rsrc:01005601 00                               0x00 
                           .rsrc:01005602 46                               0x46 'F'
                           .rsrc:01005603 00                               0x00 
                           .rsrc:01005604 69                               0x69 'i'
                           .rsrc:01005605 00                               0x00 
                           .rsrc:01005606 6c                               0x6c 'l'
                           .rsrc:01005607 00                               0x00 
                           .rsrc:01005608 65                               0x65 'e'
                           .rsrc:01005609 00                               0x00 
                           .rsrc:0100560a 6e                               0x6e 'n'
                           .rsrc:0100560b 00                               0x00 
                           .rsrc:0100560c 61                               0x61 'a'
                           .rsrc:0100560d 00                               0x00 
                           .rsrc:0100560e 6d                               0x6d 'm'
                           .rsrc:0100560f 00                               0x00 
                           .rsrc:01005610 65                               0x65 'e'
                           .rsrc:01005611 00                               0x00 
                           .rsrc:01005612 00                               0x00 
                           .rsrc:01005613 00                               0x00 
                           .rsrc:01005614 73                               0x73 's'
                           .rsrc:01005615 00                               0x00 
                           .rsrc:01005616 72                               0x72 'r'
                           .rsrc:01005617 00                               0x00 
                           .rsrc:01005618 64                               0x64 'd'
                           .rsrc:01005619 00                               0x00 
                           .rsrc:0100561a 65                               0x65 'e'
                           .rsrc:0100561b 00                               0x00 
                           .rsrc:0100561c 6c                               0x6c 'l'
                           .rsrc:0100561d 00                               0x00 
                           .rsrc:0100561e 61                               0x61 'a'
                           .rsrc:0100561f 00                               0x00 
                           .rsrc:01005620 79                               0x79 'y'
                           .rsrc:01005621 00                               0x00 
                           .rsrc:01005622 65                               0x65 'e'
                           .rsrc:01005623 00                               0x00 
                           .rsrc:01005624 64                               0x64 'd'
                           .rsrc:01005625 00                               0x00 
                           .rsrc:01005626 2e                               0x2e '.'
                           .rsrc:01005627 00                               0x00 
                           .rsrc:01005628 65                               0x65 'e'
                           .rsrc:01005629 00                               0x00 
                           .rsrc:0100562a 78                               0x78 'x'
                           .rsrc:0100562b 00                               0x00 
                           .rsrc:0100562c 65                               0x65 'e'
                           .rsrc:0100562d 00                               0x00 
                           .rsrc:0100562e 00                               0x00 
                           .rsrc:0100562f 00                               0x00 
                           .rsrc:01005630 6a                               0x6a 'j'
                           .rsrc:01005631 00                               0x00 
                           .rsrc:01005632 25                               0x25 '%'
                           .rsrc:01005633 00                               0x00 
                           .rsrc:01005634 01                               0x01 
                           .rsrc:01005635 00                               0x00 
                           .rsrc:01005636 50                               0x50 'P'
                           .rsrc:01005637 00                               0x00 
                           .rsrc:01005638 72                               0x72 'r'
                           .rsrc:01005639 00                               0x00 
                           .rsrc:0100563a 6f                               0x6f 'o'
                           .rsrc:0100563b 00                               0x00 
                           .rsrc:0100563c 64                               0x64 'd'
                           .rsrc:0100563d 00                               0x00 
                           .rsrc:0100563e 75                               0x75 'u'
                           .rsrc:0100563f 00                               0x00 
                           .rsrc:01005640 63                               0x63 'c'
                           .rsrc:01005641 00                               0x00 
                           .rsrc:01005642 74                               0x74 't'
                           .rsrc:01005643 00                               0x00 
                           .rsrc:01005644 4e                               0x4e 'N'
                           .rsrc:01005645 00                               0x00 
                           .rsrc:01005646 61                               0x61 'a'
                           .rsrc:01005647 00                               0x00 
                           .rsrc:01005648 6d                               0x6d 'm'
                           .rsrc:01005649 00                               0x00 
                           .rsrc:0100564a 65                               0x65 'e'
                           .rsrc:0100564b 00                               0x00 
                           .rsrc:0100564c 00                               0x00 
                           .rsrc:0100564d 00                               0x00 
                           .rsrc:0100564e 00                               0x00 
                           .rsrc:0100564f 00                               0x00 
                           .rsrc:01005650 4d                               0x4d 'M'
                           .rsrc:01005651 00                               0x00 
                           .rsrc:01005652 69                               0x69 'i'
                           .rsrc:01005653 00                               0x00 
                           .rsrc:01005654 63                               0x63 'c'
                           .rsrc:01005655 00                               0x00 
                           .rsrc:01005656 72                               0x72 'r'
                           .rsrc:01005657 00                               0x00 
                           .rsrc:01005658 6f                               0x6f 'o'
                           .rsrc:01005659 00                               0x00 
                           .rsrc:0100565a 73                               0x73 's'
                           .rsrc:0100565b 00                               0x00 
                           .rsrc:0100565c 6f                               0x6f 'o'
                           .rsrc:0100565d 00                               0x00 
                           .rsrc:0100565e 66                               0x66 'f'
                           .rsrc:0100565f 00                               0x00 
                           .rsrc:01005660 74                               0x74 't'
                           .rsrc:01005661 00                               0x00 
                           .rsrc:01005662 ae                               0xae 
                           .rsrc:01005663 00                               0x00 
                           .rsrc:01005664 20                               0x20 ' '
                           .rsrc:01005665 00                               0x00 
                           .rsrc:01005666 57                               0x57 'W'
                           .rsrc:01005667 00                               0x00 
                           .rsrc:01005668 69                               0x69 'i'
                           .rsrc:01005669 00                               0x00 
                           .rsrc:0100566a 6e                               0x6e 'n'
                           .rsrc:0100566b 00                               0x00 
                           .rsrc:0100566c 64                               0x64 'd'
                           .rsrc:0100566d 00                               0x00 
                           .rsrc:0100566e 6f                               0x6f 'o'
                           .rsrc:0100566f 00                               0x00 
                           .rsrc:01005670 77                               0x77 'w'
                           .rsrc:01005671 00                               0x00 
                           .rsrc:01005672 73                               0x73 's'
                           .rsrc:01005673 00                               0x00 
                           .rsrc:01005674 ae                               0xae 
                           .rsrc:01005675 00                               0x00 
                           .rsrc:01005676 20                               0x20 ' '
                           .rsrc:01005677 00                               0x00 
                           .rsrc:01005678 4f                               0x4f 'O'
                           .rsrc:01005679 00                               0x00 
                           .rsrc:0100567a 70                               0x70 'p'
                           .rsrc:0100567b 00                               0x00 
                           .rsrc:0100567c 65                               0x65 'e'
                           .rsrc:0100567d 00                               0x00 
                           .rsrc:0100567e 72                               0x72 'r'
                           .rsrc:0100567f 00                               0x00 
                           .rsrc:01005680 61                               0x61 'a'
                           .rsrc:01005681 00                               0x00 
                           .rsrc:01005682 74                               0x74 't'
                           .rsrc:01005683 00                               0x00 
                           .rsrc:01005684 69                               0x69 'i'
                           .rsrc:01005685 00                               0x00 
                           .rsrc:01005686 6e                               0x6e 'n'
                           .rsrc:01005687 00                               0x00 
                           .rsrc:01005688 67                               0x67 'g'
                           .rsrc:01005689 00                               0x00 
                           .rsrc:0100568a 20                               0x20 ' '
                           .rsrc:0100568b 00                               0x00 
                           .rsrc:0100568c 53                               0x53 'S'
                           .rsrc:0100568d 00                               0x00 
                           .rsrc:0100568e 79                               0x79 'y'
                           .rsrc:0100568f 00                               0x00 
                           .rsrc:01005690 73                               0x73 's'
                           .rsrc:01005691 00                               0x00 
                           .rsrc:01005692 74                               0x74 't'
                           .rsrc:01005693 00                               0x00 
                           .rsrc:01005694 65                               0x65 'e'
                           .rsrc:01005695 00                               0x00 
                           .rsrc:01005696 6d                               0x6d 'm'
                           .rsrc:01005697 00                               0x00 
                           .rsrc:01005698 00                               0x00 
                           .rsrc:01005699 00                               0x00 
                           .rsrc:0100569a 00                               0x00 
                           .rsrc:0100569b 00                               0x00 
                           .rsrc:0100569c 42                               0x42 'B'
                           .rsrc:0100569d 00                               0x00 
                           .rsrc:0100569e 0f                               0x0f 
                           .rsrc:0100569f 00                               0x00 
                           .rsrc:010056a0 01                               0x01 
                           .rsrc:010056a1 00                               0x00 
                           .rsrc:010056a2 50                               0x50 'P'
                           .rsrc:010056a3 00                               0x00 
                           .rsrc:010056a4 72                               0x72 'r'
                           .rsrc:010056a5 00                               0x00 
                           .rsrc:010056a6 6f                               0x6f 'o'
                           .rsrc:010056a7 00                               0x00 
                           .rsrc:010056a8 64                               0x64 'd'
                           .rsrc:010056a9 00                               0x00 
                           .rsrc:010056aa 75                               0x75 'u'
                           .rsrc:010056ab 00                               0x00 
                           .rsrc:010056ac 63                               0x63 'c'
                           .rsrc:010056ad 00                               0x00 
                           .rsrc:010056ae 74                               0x74 't'
                           .rsrc:010056af 00                               0x00 
                           .rsrc:010056b0 56                               0x56 'V'
                           .rsrc:010056b1 00                               0x00 
                           .rsrc:010056b2 65                               0x65 'e'
                           .rsrc:010056b3 00                               0x00 
                           .rsrc:010056b4 72                               0x72 'r'
                           .rsrc:010056b5 00                               0x00 
                           .rsrc:010056b6 73                               0x73 's'
                           .rsrc:010056b7 00                               0x00 
                           .rsrc:010056b8 69                               0x69 'i'
                           .rsrc:010056b9 00                               0x00 
                           .rsrc:010056ba 6f                               0x6f 'o'
                           .rsrc:010056bb 00                               0x00 
                           .rsrc:010056bc 6e                               0x6e 'n'
                           .rsrc:010056bd 00                               0x00 
                           .rsrc:010056be 00                               0x00 
                           .rsrc:010056bf 00                               0x00 
                           .rsrc:010056c0 36                               0x36 '6'
                           .rsrc:010056c1 00                               0x00 
                           .rsrc:010056c2 2e                               0x2e '.'
                           .rsrc:010056c3 00                               0x00 
                           .rsrc:010056c4 31                               0x31 '1'
                           .rsrc:010056c5 00                               0x00 
                           .rsrc:010056c6 2e                               0x2e '.'
                           .rsrc:010056c7 00                               0x00 
                           .rsrc:010056c8 37                               0x37 '7'
                           .rsrc:010056c9 00                               0x00 
                           .rsrc:010056ca 36                               0x36 '6'
                           .rsrc:010056cb 00                               0x00 
                           .rsrc:010056cc 30                               0x30 '0'
                           .rsrc:010056cd 00                               0x00 
                           .rsrc:010056ce 30                               0x30 '0'
                           .rsrc:010056cf 00                               0x00 
                           .rsrc:010056d0 2e                               0x2e '.'
                           .rsrc:010056d1 00                               0x00 
                           .rsrc:010056d2 31                               0x31 '1'
                           .rsrc:010056d3 00                               0x00 
                           .rsrc:010056d4 36                               0x36 '6'
                           .rsrc:010056d5 00                               0x00 
                           .rsrc:010056d6 33                               0x33 '3'
                           .rsrc:010056d7 00                               0x00 
                           .rsrc:010056d8 38                               0x38 '8'
                           .rsrc:010056d9 00                               0x00 
                           .rsrc:010056da 35                               0x35 '5'
                           .rsrc:010056db 00                               0x00 
                           .rsrc:010056dc 00                               0x00 
                           .rsrc:010056dd 00                               0x00 
                           .rsrc:010056de 00                               0x00 
                           .rsrc:010056df 00                               0x00 
                           .rsrc:010056e0 44                               0x44 'D'
                           .rsrc:010056e1 00                               0x00 
                           .rsrc:010056e2 00                               0x00 
                           .rsrc:010056e3 00                               0x00 
                           .rsrc:010056e4 01                               0x01 
                           .rsrc:010056e5 00                               0x00 
                           .rsrc:010056e6 56                               0x56 'V'
                           .rsrc:010056e7 00                               0x00 
                           .rsrc:010056e8 61                               0x61 'a'
                           .rsrc:010056e9 00                               0x00 
                           .rsrc:010056ea 72                               0x72 'r'
                           .rsrc:010056eb 00                               0x00 
                           .rsrc:010056ec 46                               0x46 'F'
                           .rsrc:010056ed 00                               0x00 
                           .rsrc:010056ee 69                               0x69 'i'
                           .rsrc:010056ef 00                               0x00 
                           .rsrc:010056f0 6c                               0x6c 'l'
                           .rsrc:010056f1 00                               0x00 
                           .rsrc:010056f2 65                               0x65 'e'
                           .rsrc:010056f3 00                               0x00 
                           .rsrc:010056f4 49                               0x49 'I'
                           .rsrc:010056f5 00                               0x00 
                           .rsrc:010056f6 6e                               0x6e 'n'
                           .rsrc:010056f7 00                               0x00 
                           .rsrc:010056f8 66                               0x66 'f'
                           .rsrc:010056f9 00                               0x00 
                           .rsrc:010056fa 6f                               0x6f 'o'
                           .rsrc:010056fb 00                               0x00 
                           .rsrc:010056fc 00                               0x00 
                           .rsrc:010056fd 00                               0x00 
                           .rsrc:010056fe 00                               0x00 
                           .rsrc:010056ff 00                               0x00 
                           .rsrc:01005700 24                               0x24 '$'
                           .rsrc:01005701 00                               0x00 
                           .rsrc:01005702 04                               0x04 
                           .rsrc:01005703 00                               0x00 
                           .rsrc:01005704 00                               0x00 
                           .rsrc:01005705 00                               0x00 
                           .rsrc:01005706 54                               0x54 'T'
                           .rsrc:01005707 00                               0x00 
                           .rsrc:01005708 72                               0x72 'r'
                           .rsrc:01005709 00                               0x00 
                           .rsrc:0100570a 61                               0x61 'a'
                           .rsrc:0100570b 00                               0x00 
                           .rsrc:0100570c 6e                               0x6e 'n'
                           .rsrc:0100570d 00                               0x00 
                           .rsrc:0100570e 73                               0x73 's'
                           .rsrc:0100570f 00                               0x00 
                           .rsrc:01005710 6c                               0x6c 'l'
                           .rsrc:01005711 00                               0x00 
                           .rsrc:01005712 61                               0x61 'a'
                           .rsrc:01005713 00                               0x00 
                           .rsrc:01005714 74                               0x74 't'
                           .rsrc:01005715 00                               0x00 
                           .rsrc:01005716 69                               0x69 'i'
                           .rsrc:01005717 00                               0x00 
                           .rsrc:01005718 6f                               0x6f 'o'
                           .rsrc:01005719 00                               0x00 
                           .rsrc:0100571a 6e                               0x6e 'n'
                           .rsrc:0100571b 00                               0x00 
                           .rsrc:0100571c 00                               0x00 
                           .rsrc:0100571d 00                               0x00 
                           .rsrc:0100571e 00                               0x00 
                           .rsrc:0100571f 00                               0x00 
                           .rsrc:01005720 09                               0x09 '	'
                           .rsrc:01005721 04                               0x04 
                           .rsrc:01005722 b0                               0xb0 
                           .rsrc:01005723 04                               0x04 
                           .rsrc:01005724 00                               0x00 
                           .rsrc:01005725 00                               0x00 
                           .rsrc:01005726 00                               0x00 
                           .rsrc:01005727 00                               0x00 
                          .reloc:01006000 00                               0x00 
                          .reloc:01006001 10                               0x10 
                          .reloc:01006002 00                               0x00 
                          .reloc:01006003 00                               0x00 
                          .reloc:01006004 a4                               0xa4 
                          .reloc:01006005 00                               0x00 
                          .reloc:01006006 00                               0x00 
                          .reloc:01006007 00                               0x00 
                          .reloc:01006008 ac                               0xac 
                          .reloc:01006009 31                               0x31 '1'
                          .reloc:0100600a bc                               0xbc 
                          .reloc:0100600b 31                               0x31 '1'
                          .reloc:0100600c c4                               0xc4 
                          .reloc:0100600d 31                               0x31 '1'
                          .reloc:0100600e cc                               0xcc 
                          .reloc:0100600f 31                               0x31 '1'
                          .reloc:01006010 d4                               0xd4 
                          .reloc:01006011 31                               0x31 '1'
                          .reloc:01006012 dc                               0xdc 
                          .reloc:01006013 31                               0x31 '1'
                          .reloc:01006014 e4                               0xe4 
                          .reloc:01006015 31                               0x31 '1'
                          .reloc:01006016 9c                               0x9c 
                          .reloc:01006017 32                               0x32 '2'
                          .reloc:01006018 a0                               0xa0 
                          .reloc:01006019 32                               0x32 '2'
                          .reloc:0100601a 2a                               0x2a '*'
                          .reloc:0100601b 34                               0x34 '4'
                          .reloc:0100601c 38                               0x38 '8'
                          .reloc:0100601d 34                               0x34 '4'
                          .reloc:0100601e fe                               0xfe 
                          .reloc:0100601f 35                               0x35 '5'
                          .reloc:01006020 16                               0x16 
                          .reloc:01006021 36                               0x36 '6'
                          .reloc:01006022 23                               0x23 '#'
                          .reloc:01006023 36                               0x36 '6'
                          .reloc:01006024 2b                               0x2b '+'
                          .reloc:01006025 36                               0x36 '6'
                          .reloc:01006026 34                               0x34 '4'
                          .reloc:01006027 36                               0x36 '6'
                          .reloc:01006028 3a                               0x3a ':'
                          .reloc:01006029 36                               0x36 '6'
                          .reloc:0100602a 5c                               0x5c '\'
                          .reloc:0100602b 36                               0x36 '6'
                          .reloc:0100602c 61                               0x61 'a'
                          .reloc:0100602d 36                               0x36 '6'
                          .reloc:0100602e 6f                               0x6f 'o'
                          .reloc:0100602f 36                               0x36 '6'
                          .reloc:01006030 77                               0x77 'w'
                          .reloc:01006031 36                               0x36 '6'
                          .reloc:01006032 7d                               0x7d '}'
                          .reloc:01006033 36                               0x36 '6'
                          .reloc:01006034 84                               0x84 
                          .reloc:01006035 36                               0x36 '6'
                          .reloc:01006036 8d                               0x8d 
                          .reloc:01006037 36                               0x36 '6'
                          .reloc:01006038 aa                               0xaa 
                          .reloc:01006039 36                               0x36 '6'
                          .reloc:0100603a b0                               0xb0 
                          .reloc:0100603b 36                               0x36 '6'
                          .reloc:0100603c b6                               0xb6 
                          .reloc:0100603d 36                               0x36 '6'
                          .reloc:0100603e cf                               0xcf 
                          .reloc:0100603f 36                               0x36 '6'
                          .reloc:01006040 d4                               0xd4 
                          .reloc:01006041 36                               0x36 '6'
                          .reloc:01006042 df                               0xdf 
                          .reloc:01006043 36                               0x36 '6'
                          .reloc:01006044 ef                               0xef 
                          .reloc:01006045 36                               0x36 '6'
                          .reloc:01006046 f5                               0xf5 
                          .reloc:01006047 36                               0x36 '6'
                          .reloc:01006048 fd                               0xfd 
                          .reloc:01006049 36                               0x36 '6'
                          .reloc:0100604a 1a                               0x1a 
                          .reloc:0100604b 37                               0x37 '7'
                          .reloc:0100604c 2e                               0x2e '.'
                          .reloc:0100604d 37                               0x37 '7'
                          .reloc:0100604e 39                               0x39 '9'
                          .reloc:0100604f 37                               0x37 '7'
                          .reloc:01006050 bc                               0xbc 
                          .reloc:01006051 37                               0x37 '7'
                          .reloc:01006052 e8                               0xe8 
                          .reloc:01006053 37                               0x37 '7'
                          .reloc:01006054 f8                               0xf8 
                          .reloc:01006055 37                               0x37 '7'
                          .reloc:01006056 dd                               0xdd 
                          .reloc:01006057 38                               0x38 '8'
                          .reloc:01006058 f7                               0xf7 
                          .reloc:01006059 38                               0x38 '8'
                          .reloc:0100605a 07                               0x07 
                          .reloc:0100605b 39                               0x39 '9'
                          .reloc:0100605c 6f                               0x6f 'o'
                          .reloc:0100605d 39                               0x39 '9'
                          .reloc:0100605e 89                               0x89 
                          .reloc:0100605f 39                               0x39 '9'
                          .reloc:01006060 99                               0x99 
                          .reloc:01006061 39                               0x39 '9'
                          .reloc:01006062 1a                               0x1a 
                          .reloc:01006063 3a                               0x3a ':'
                          .reloc:01006064 39                               0x39 '9'
                          .reloc:01006065 3a                               0x3a ':'
                          .reloc:01006066 58                               0x58 'X'
                          .reloc:01006067 3a                               0x3a ':'
                          .reloc:01006068 fe                               0xfe 
                          .reloc:01006069 3a                               0x3a ':'
                          .reloc:0100606a 76                               0x76 'v'
                          .reloc:0100606b 3b                               0x3b ';'
                          .reloc:0100606c 0e                               0x0e 
                          .reloc:0100606d 3c                               0x3c '<'
                          .reloc:0100606e 49                               0x49 'I'
                          .reloc:0100606f 3c                               0x3c '<'
                          .reloc:01006070 6a                               0x6a 'j'
                          .reloc:01006071 3c                               0x3c '<'
                          .reloc:01006072 83                               0x83 
                          .reloc:01006073 3c                               0x3c '<'
                          .reloc:01006074 51                               0x51 'Q'
                          .reloc:01006075 3d                               0x3d '='
                          .reloc:01006076 61                               0x61 'a'
                          .reloc:01006077 3d                               0x3d '='
                          .reloc:01006078 d8                               0xd8 
                          .reloc:01006079 3d                               0x3d '='
                          .reloc:0100607a f7                               0xf7 
                          .reloc:0100607b 3d                               0x3d '='
                          .reloc:0100607c 1f                               0x1f 
                          .reloc:0100607d 3e                               0x3e '>'
                          .reloc:0100607e 47                               0x47 'G'
                          .reloc:0100607f 3e                               0x3e '>'
                          .reloc:01006080 89                               0x89 
                          .reloc:01006081 3e                               0x3e '>'
                          .reloc:01006082 99                               0x99 
                          .reloc:01006083 3e                               0x3e '>'
                          .reloc:01006084 b5                               0xb5 
                          .reloc:01006085 3e                               0x3e '>'
                          .reloc:01006086 2f                               0x2f '/'
                          .reloc:01006087 3f                               0x3f '?'
                          .reloc:01006088 37                               0x37 '7'
                          .reloc:01006089 3f                               0x3f '?'
                          .reloc:0100608a 40                               0x40 '@'
                          .reloc:0100608b 3f                               0x3f '?'
                          .reloc:0100608c 63                               0x63 'c'
                          .reloc:0100608d 3f                               0x3f '?'
                          .reloc:0100608e 7d                               0x7d '}'
                          .reloc:0100608f 3f                               0x3f '?'
                          .reloc:01006090 8a                               0x8a 
                          .reloc:01006091 3f                               0x3f '?'
                          .reloc:01006092 90                               0x90 
                          .reloc:01006093 3f                               0x3f '?'
                          .reloc:01006094 95                               0x95 
                          .reloc:01006095 3f                               0x3f '?'
                          .reloc:01006096 ac                               0xac 
                          .reloc:01006097 3f                               0x3f '?'
                          .reloc:01006098 bc                               0xbc 
                          .reloc:01006099 3f                               0x3f '?'
                          .reloc:0100609a cc                               0xcc 
                          .reloc:0100609b 3f                               0x3f '?'
                          .reloc:0100609c dd                               0xdd 
                          .reloc:0100609d 3f                               0x3f '?'
                          .reloc:0100609e ea                               0xea 
                          .reloc:0100609f 3f                               0x3f '?'
                          .reloc:010060a0 f0                               0xf0 
                          .reloc:010060a1 3f                               0x3f '?'
                          .reloc:010060a2 00                               0x00 
                          .reloc:010060a3 00                               0x00 
                          .reloc:010060a4 00                               0x00 
                          .reloc:010060a5 20                               0x20 ' '
                          .reloc:010060a6 00                               0x00 
                          .reloc:010060a7 00                               0x00 
                          .reloc:010060a8 1c                               0x1c 
                          .reloc:010060a9 01                               0x01 
                          .reloc:010060aa 00                               0x00 
                          .reloc:010060ab 00                               0x00 
                          .reloc:010060ac 01                               0x01 
                          .reloc:010060ad 30                               0x30 '0'
                          .reloc:010060ae 07                               0x07 
                          .reloc:010060af 30                               0x30 '0'
                          .reloc:010060b0 2c                               0x2c ','
                          .reloc:010060b1 30                               0x30 '0'
                          .reloc:010060b2 32                               0x32 '2'
                          .reloc:010060b3 30                               0x30 '0'
                          .reloc:010060b4 4b                               0x4b 'K'
                          .reloc:010060b5 30                               0x30 '0'
                          .reloc:010060b6 51                               0x51 'Q'
                          .reloc:010060b7 30                               0x30 '0'
                          .reloc:010060b8 5a                               0x5a 'Z'
                          .reloc:010060b9 30                               0x30 '0'
                          .reloc:010060ba 76                               0x76 'v'
                          .reloc:010060bb 30                               0x30 '0'
                          .reloc:010060bc 7c                               0x7c '|'
                          .reloc:010060bd 30                               0x30 '0'
                          .reloc:010060be 8b                               0x8b 
                          .reloc:010060bf 30                               0x30 '0'
                          .reloc:010060c0 ab                               0xab 
                          .reloc:010060c1 30                               0x30 '0'
                          .reloc:010060c2 f6                               0xf6 
                          .reloc:010060c3 30                               0x30 '0'
                          .reloc:010060c4 0f                               0x0f 
                          .reloc:010060c5 31                               0x31 '1'
                          .reloc:010060c6 15                               0x15 
                          .reloc:010060c7 31                               0x31 '1'
                          .reloc:010060c8 23                               0x23 '#'
                          .reloc:010060c9 31                               0x31 '1'
                          .reloc:010060ca 6d                               0x6d 'm'
                          .reloc:010060cb 31                               0x31 '1'
                          .reloc:010060cc 7b                               0x7b '{'
                          .reloc:010060cd 31                               0x31 '1'
                          .reloc:010060ce f1                               0xf1 
                          .reloc:010060cf 31                               0x31 '1'
                          .reloc:010060d0 55                               0x55 'U'
                          .reloc:010060d1 32                               0x32 '2'
                          .reloc:010060d2 5a                               0x5a 'Z'
                          .reloc:010060d3 32                               0x32 '2'
                          .reloc:010060d4 6b                               0x6b 'k'
                          .reloc:010060d5 32                               0x32 '2'
                          .reloc:010060d6 72                               0x72 'r'
                          .reloc:010060d7 32                               0x32 '2'
                          .reloc:010060d8 af                               0xaf 
                          .reloc:010060d9 32                               0x32 '2'
                          .reloc:010060da ce                               0xce 
                          .reloc:010060db 32                               0x32 '2'
                          .reloc:010060dc 09                               0x09 '	'
                          .reloc:010060dd 33                               0x33 '3'
                          .reloc:010060de 20                               0x20 ' '
                          .reloc:010060df 33                               0x33 '3'
                          .reloc:010060e0 29                               0x29 ')'
                          .reloc:010060e1 33                               0x33 '3'
                          .reloc:010060e2 46                               0x46 'F'
                          .reloc:010060e3 33                               0x33 '3'
                          .reloc:010060e4 55                               0x55 'U'
                          .reloc:010060e5 33                               0x33 '3'
                          .reloc:010060e6 5d                               0x5d ']'
                          .reloc:010060e7 33                               0x33 '3'
                          .reloc:010060e8 63                               0x63 'c'
                          .reloc:010060e9 33                               0x33 '3'
                          .reloc:010060ea 6e                               0x6e 'n'
                          .reloc:010060eb 33                               0x33 '3'
                          .reloc:010060ec 77                               0x77 'w'
                          .reloc:010060ed 33                               0x33 '3'
                          .reloc:010060ee 85                               0x85 
                          .reloc:010060ef 33                               0x33 '3'
                          .reloc:010060f0 95                               0x95 
                          .reloc:010060f1 33                               0x33 '3'
                          .reloc:010060f2 a4                               0xa4 
                          .reloc:010060f3 33                               0x33 '3'
                          .reloc:010060f4 b0                               0xb0 
                          .reloc:010060f5 33                               0x33 '3'
                          .reloc:010060f6 e1                               0xe1 
                          .reloc:010060f7 33                               0x33 '3'
                          .reloc:010060f8 f5                               0xf5 
                          .reloc:010060f9 33                               0x33 '3'
                          .reloc:010060fa fb                               0xfb 
                          .reloc:010060fb 33                               0x33 '3'
                          .reloc:010060fc 01                               0x01 
                          .reloc:010060fd 34                               0x34 '4'
                          .reloc:010060fe 2a                               0x2a '*'
                          .reloc:010060ff 34                               0x34 '4'
                          .reloc:01006100 4c                               0x4c 'L'
                          .reloc:01006101 34                               0x34 '4'
                          .reloc:01006102 79                               0x79 'y'
                          .reloc:01006103 34                               0x34 '4'
                          .reloc:01006104 7f                               0x7f 
                          .reloc:01006105 34                               0x34 '4'
                          .reloc:01006106 98                               0x98 
                          .reloc:01006107 34                               0x34 '4'
                          .reloc:01006108 b2                               0xb2 
                          .reloc:01006109 34                               0x34 '4'
                          .reloc:0100610a 14                               0x14 
                          .reloc:0100610b 35                               0x35 '5'
                          .reloc:0100610c 19                               0x19 
                          .reloc:0100610d 35                               0x35 '5'
                          .reloc:0100610e 9c                               0x9c 
                          .reloc:0100610f 35                               0x35 '5'
                          .reloc:01006110 a2                               0xa2 
                          .reloc:01006111 35                               0x35 '5'
                          .reloc:01006112 b3                               0xb3 
                          .reloc:01006113 35                               0x35 '5'
                          .reloc:01006114 e9                               0xe9 
                          .reloc:01006115 35                               0x35 '5'
                          .reloc:01006116 f4                               0xf4 
                          .reloc:01006117 35                               0x35 '5'
                          .reloc:01006118 4f                               0x4f 'O'
                          .reloc:01006119 36                               0x36 '6'
                          .reloc:0100611a 81                               0x81 
                          .reloc:0100611b 37                               0x37 '7'
                          .reloc:0100611c 97                               0x97 
                          .reloc:0100611d 37                               0x37 '7'
                          .reloc:0100611e 9d                               0x9d 
                          .reloc:0100611f 37                               0x37 '7'
                          .reloc:01006120 a3                               0xa3 
                          .reloc:01006121 37                               0x37 '7'
                          .reloc:01006122 c2                               0xc2 
                          .reloc:01006123 37                               0x37 '7'
                          .reloc:01006124 cc                               0xcc 
                          .reloc:01006125 37                               0x37 '7'
                          .reloc:01006126 22                               0x22 '"'
                          .reloc:01006127 38                               0x38 '8'
                          .reloc:01006128 df                               0xdf 
                          .reloc:01006129 38                               0x38 '8'
                          .reloc:0100612a fd                               0xfd 
                          .reloc:0100612b 38                               0x38 '8'
                          .reloc:0100612c 02                               0x02 
                          .reloc:0100612d 39                               0x39 '9'
                          .reloc:0100612e 07                               0x07 
                          .reloc:0100612f 39                               0x39 '9'
                          .reloc:01006130 12                               0x12 
                          .reloc:01006131 39                               0x39 '9'
                          .reloc:01006132 18                               0x18 
                          .reloc:01006133 39                               0x39 '9'
                          .reloc:01006134 33                               0x33 '3'
                          .reloc:01006135 39                               0x39 '9'
                          .reloc:01006136 3c                               0x3c '<'
                          .reloc:01006137 39                               0x39 '9'
                          .reloc:01006138 4e                               0x4e 'N'
                          .reloc:01006139 39                               0x39 '9'
                          .reloc:0100613a 53                               0x53 'S'
                          .reloc:0100613b 39                               0x39 '9'
                          .reloc:0100613c 5b                               0x5b '['
                          .reloc:0100613d 39                               0x39 '9'
                          .reloc:0100613e 86                               0x86 
                          .reloc:0100613f 39                               0x39 '9'
                          .reloc:01006140 8c                               0x8c 
                          .reloc:01006141 39                               0x39 '9'
                          .reloc:01006142 1a                               0x1a 
                          .reloc:01006143 3a                               0x3a ':'
                          .reloc:01006144 40                               0x40 '@'
                          .reloc:01006145 3a                               0x3a ':'
                          .reloc:01006146 59                               0x59 'Y'
                          .reloc:01006147 3a                               0x3a ':'
                          .reloc:01006148 6b                               0x6b 'k'
                          .reloc:01006149 3a                               0x3a ':'
                          .reloc:0100614a 7a                               0x7a 'z'
                          .reloc:0100614b 3a                               0x3a ':'
                          .reloc:0100614c 89                               0x89 
                          .reloc:0100614d 3a                               0x3a ':'
                          .reloc:0100614e d7                               0xd7 
                          .reloc:0100614f 3a                               0x3a ':'
                          .reloc:01006150 2e                               0x2e '.'
                          .reloc:01006151 3b                               0x3b ';'
                          .reloc:01006152 37                               0x37 '7'
                          .reloc:01006153 3b                               0x3b ';'
                          .reloc:01006154 4c                               0x4c 'L'
                          .reloc:01006155 3b                               0x3b ';'
                          .reloc:01006156 37                               0x37 '7'
                          .reloc:01006157 3c                               0x3c '<'
                          .reloc:01006158 af                               0xaf 
                          .reloc:01006159 3c                               0x3c '<'
                          .reloc:0100615a 65                               0x65 'e'
                          .reloc:0100615b 3d                               0x3d '='
                          .reloc:0100615c 73                               0x73 's'
                          .reloc:0100615d 3d                               0x3d '='
                          .reloc:0100615e 89                               0x89 
                          .reloc:0100615f 3d                               0x3d '='
                          .reloc:01006160 a7                               0xa7 
                          .reloc:01006161 3d                               0x3d '='
                          .reloc:01006162 b3                               0xb3 
                          .reloc:01006163 3d                               0x3d '='
                          .reloc:01006164 c6                               0xc6 
                          .reloc:01006165 3d                               0x3d '='
                          .reloc:01006166 d0                               0xd0 
                          .reloc:01006167 3d                               0x3d '='
                          .reloc:01006168 d6                               0xd6 
                          .reloc:01006169 3d                               0x3d '='
                          .reloc:0100616a de                               0xde 
                          .reloc:0100616b 3d                               0x3d '='
                          .reloc:0100616c e8                               0xe8 
                          .reloc:0100616d 3d                               0x3d '='
                          .reloc:0100616e f8                               0xf8 
                          .reloc:0100616f 3d                               0x3d '='
                          .reloc:01006170 fd                               0xfd 
                          .reloc:01006171 3d                               0x3d '='
                          .reloc:01006172 05                               0x05 
                          .reloc:01006173 3e                               0x3e '>'
                          .reloc:01006174 0f                               0x0f 
                          .reloc:01006175 3e                               0x3e '>'
                          .reloc:01006176 24                               0x24 '$'
                          .reloc:01006177 3e                               0x3e '>'
                          .reloc:01006178 2b                               0x2b '+'
                          .reloc:01006179 3e                               0x3e '>'
                          .reloc:0100617a 32                               0x32 '2'
                          .reloc:0100617b 3e                               0x3e '>'
                          .reloc:0100617c 37                               0x37 '7'
                          .reloc:0100617d 3e                               0x3e '>'
                          .reloc:0100617e 3f                               0x3f '?'
                          .reloc:0100617f 3e                               0x3e '>'
                          .reloc:01006180 44                               0x44 'D'
                          .reloc:01006181 3e                               0x3e '>'
                          .reloc:01006182 5c                               0x5c '\'
                          .reloc:01006183 3e                               0x3e '>'
                          .reloc:01006184 64                               0x64 'd'
                          .reloc:01006185 3e                               0x3e '>'
                          .reloc:01006186 79                               0x79 'y'
                          .reloc:01006187 3e                               0x3e '>'
                          .reloc:01006188 86                               0x86 
                          .reloc:01006189 3e                               0x3e '>'
                          .reloc:0100618a bc                               0xbc 
                          .reloc:0100618b 3e                               0x3e '>'
                          .reloc:0100618c c3                               0xc3 
                          .reloc:0100618d 3e                               0x3e '>'
                          .reloc:0100618e cc                               0xcc 
                          .reloc:0100618f 3e                               0x3e '>'
                          .reloc:01006190 ef                               0xef 
                          .reloc:01006191 3e                               0x3e '>'
                          .reloc:01006192 f5                               0xf5 
                          .reloc:01006193 3e                               0x3e '>'
                          .reloc:01006194 fb                               0xfb 
                          .reloc:01006195 3e                               0x3e '>'
                          .reloc:01006196 01                               0x01 
                          .reloc:01006197 3f                               0x3f '?'
                          .reloc:01006198 07                               0x07 
                          .reloc:01006199 3f                               0x3f '?'
                          .reloc:0100619a 0d                               0x0d ''
                          .reloc:0100619b 3f                               0x3f '?'
                          .reloc:0100619c 14                               0x14 
                          .reloc:0100619d 3f                               0x3f '?'
                          .reloc:0100619e 1b                               0x1b 
                          .reloc:0100619f 3f                               0x3f '?'
                          .reloc:010061a0 22                               0x22 '"'
                          .reloc:010061a1 3f                               0x3f '?'
                          .reloc:010061a2 29                               0x29 ')'
                          .reloc:010061a3 3f                               0x3f '?'
                          .reloc:010061a4 30                               0x30 '0'
                          .reloc:010061a5 3f                               0x3f '?'
                          .reloc:010061a6 37                               0x37 '7'
                          .reloc:010061a7 3f                               0x3f '?'
                          .reloc:010061a8 3e                               0x3e '>'
                          .reloc:010061a9 3f                               0x3f '?'
                          .reloc:010061aa 46                               0x46 'F'
                          .reloc:010061ab 3f                               0x3f '?'
                          .reloc:010061ac 4e                               0x4e 'N'
                          .reloc:010061ad 3f                               0x3f '?'
                          .reloc:010061ae 56                               0x56 'V'
                          .reloc:010061af 3f                               0x3f '?'
                          .reloc:010061b0 5b                               0x5b '['
                          .reloc:010061b1 3f                               0x3f '?'
                          .reloc:010061b2 60                               0x60 '`'
                          .reloc:010061b3 3f                               0x3f '?'
                          .reloc:010061b4 65                               0x65 'e'
                          .reloc:010061b5 3f                               0x3f '?'
                          .reloc:010061b6 6b                               0x6b 'k'
                          .reloc:010061b7 3f                               0x3f '?'
                          .reloc:010061b8 75                               0x75 'u'
                          .reloc:010061b9 3f                               0x3f '?'
                          .reloc:010061ba 7f                               0x7f 
                          .reloc:010061bb 3f                               0x3f '?'
                          .reloc:010061bc 8b                               0x8b 
                          .reloc:010061bd 3f                               0x3f '?'
                          .reloc:010061be 90                               0x90 
                          .reloc:010061bf 3f                               0x3f '?'
                          .reloc:010061c0 00                               0x00 
                          .reloc:010061c1 30                               0x30 '0'
                          .reloc:010061c2 00                               0x00 
                          .reloc:010061c3 00                               0x00 
                          .reloc:010061c4 28                               0x28 '('
                          .reloc:010061c5 00                               0x00 
                          .reloc:010061c6 00                               0x00 
                          .reloc:010061c7 00                               0x00 
                          .reloc:010061c8 05                               0x05 
                          .reloc:010061c9 30                               0x30 '0'
                          .reloc:010061ca 15                               0x15 
                          .reloc:010061cb 30                               0x30 '0'
                          .reloc:010061cc 1f                               0x1f 
                          .reloc:010061cd 30                               0x30 '0'
                          .reloc:010061ce 27                               0x27 '''
                          .reloc:010061cf 30                               0x30 '0'
                          .reloc:010061d0 33                               0x33 '3'
                          .reloc:010061d1 30                               0x30 '0'
                          .reloc:010061d2 48                               0x48 'H'
                          .reloc:010061d3 30                               0x30 '0'
                          .reloc:010061d4 54                               0x54 'T'
                          .reloc:010061d5 30                               0x30 '0'
                          .reloc:010061d6 60                               0x60 '`'
                          .reloc:010061d7 30                               0x30 '0'
                          .reloc:010061d8 6c                               0x6c 'l'
                          .reloc:010061d9 30                               0x30 '0'
                          .reloc:010061da 78                               0x78 'x'
                          .reloc:010061db 30                               0x30 '0'
                          .reloc:010061dc 84                               0x84 
                          .reloc:010061dd 30                               0x30 '0'
                          .reloc:010061de a5                               0xa5 
                          .reloc:010061df 30                               0x30 '0'
                          .reloc:010061e0 b2                               0xb2 
                          .reloc:010061e1 31                               0x31 '1'
                          .reloc:010061e2 b9                               0xb9 
                          .reloc:010061e3 32                               0x32 '2'
                          .reloc:010061e4 4a                               0x4a 'J'
                          .reloc:010061e5 33                               0x33 '3'
                          .reloc:010061e6 00                               0x00 
                          .reloc:010061e7 00                               0x00 
                          .reloc:010061e8 00                               0x00 
                          .reloc:010061e9 40                               0x40 '@'
                          .reloc:010061ea 00                               0x00 
                          .reloc:010061eb 00                               0x00 
                          .reloc:010061ec 18                               0x18 
                          .reloc:010061ed 00                               0x00 
                          .reloc:010061ee 00                               0x00 
                          .reloc:010061ef 00                               0x00 
                          .reloc:010061f0 04                               0x04 
                          .reloc:010061f1 30                               0x30 '0'
                          .reloc:010061f2 08                               0x08 
                          .reloc:010061f3 30                               0x30 '0'
                          .reloc:010061f4 10                               0x10 
                          .reloc:010061f5 30                               0x30 '0'
                          .reloc:010061f6 18                               0x18 
                          .reloc:010061f7 30                               0x30 '0'
                          .reloc:010061f8 2c                               0x2c ','
                          .reloc:010061f9 30                               0x30 '0'
                          .reloc:010061fa 34                               0x34 '4'
                          .reloc:010061fb 30                               0x30 '0'
                          .reloc:010061fc 64                               0x64 'd'
                          .reloc:010061fd 30                               0x30 '0'
                          .reloc:010061fe 6c                               0x6c 'l'
                          .reloc:010061ff 30                               0x30 '0'
                          .reloc:01006200 00                               0x00 
                          .reloc:01006201 00                               0x00 
                          .reloc:01006202 00                               0x00 
                          .reloc:01006203 00                               0x00 
                          .reloc:01006204 00                               0x00 
                          .reloc:01006205 00                               0x00 
                          .reloc:01006206 00                               0x00 
                          .reloc:01006207 00                               0x00 
                          .reloc:01006208 00                               0x00 
                          .reloc:01006209 00                               0x00 
                          .reloc:0100620a 00                               0x00 
                          .reloc:0100620b 00                               0x00 
                          .reloc:0100620c 00                               0x00 
                          .reloc:0100620d 00                               0x00 
                          .reloc:0100620e 00                               0x00 
                          .reloc:0100620f 00                               0x00 
                          .reloc:01006210 00                               0x00 
                          .reloc:01006211 00                               0x00 
                          .reloc:01006212 00                               0x00 
                          .reloc:01006213 00                               0x00 
                          .reloc:01006214 00                               0x00 
                          .reloc:01006215 00                               0x00 
                          .reloc:01006216 00                               0x00 
                          .reloc:01006217 00                               0x00 
                          .reloc:01006218 00                               0x00 
                          .reloc:01006219 00                               0x00 
                          .reloc:0100621a 00                               0x00 
                          .reloc:0100621b 00                               0x00 
                          .reloc:0100621c 00                               0x00 
                          .reloc:0100621d 00                               0x00 
                          .reloc:0100621e 00                               0x00 
                          .reloc:0100621f 00                               0x00 
                          .reloc:01006220 00                               0x00 
                          .reloc:01006221 00                               0x00 
                          .reloc:01006222 00                               0x00 
                          .reloc:01006223 00                               0x00 
                          .reloc:01006224 00                               0x00 
                          .reloc:01006225 00                               0x00 
                          .reloc:01006226 00                               0x00 
                          .reloc:01006227 00                               0x00 
                          .reloc:01006228 00                               0x00 
                          .reloc:01006229 00                               0x00 
                          .reloc:0100622a 00                               0x00 
                          .reloc:0100622b 00                               0x00 
                          .reloc:0100622c 00                               0x00 
                          .reloc:0100622d 00                               0x00 
                          .reloc:0100622e 00                               0x00 
                          .reloc:0100622f 00                               0x00 
                          .reloc:01006230 00                               0x00 
                          .reloc:01006231 00                               0x00 
                          .reloc:01006232 00                               0x00 
                          .reloc:01006233 00                               0x00 
                          .reloc:01006234 00                               0x00 
                          .reloc:01006235 00                               0x00 
                          .reloc:01006236 00                               0x00 
                          .reloc:01006237 00                               0x00 
                          .reloc:01006238 00                               0x00 
                          .reloc:01006239 00                               0x00 
                          .reloc:0100623a 00                               0x00 
                          .reloc:0100623b 00                               0x00 
                          .reloc:0100623c 00                               0x00 
                          .reloc:0100623d 00                               0x00 
                          .reloc:0100623e 00                               0x00 
                          .reloc:0100623f 00                               0x00 
                          .reloc:01006240 00                               0x00 
                          .reloc:01006241 00                               0x00 
                          .reloc:01006242 00                               0x00 
                          .reloc:01006243 00                               0x00 
                          .reloc:01006244 00                               0x00 
                          .reloc:01006245 00                               0x00 
                          .reloc:01006246 00                               0x00 
                          .reloc:01006247 00                               0x00 
                          .reloc:01006248 00                               0x00 
                          .reloc:01006249 00                               0x00 
                          .reloc:0100624a 00                               0x00 
                          .reloc:0100624b 00                               0x00 
                          .reloc:0100624c 00                               0x00 
                          .reloc:0100624d 00                               0x00 
                          .reloc:0100624e 00                               0x00 
                          .reloc:0100624f 00                               0x00 
                          .reloc:01006250 00                               0x00 
                          .reloc:01006251 00                               0x00 
                          .reloc:01006252 00                               0x00 
                          .reloc:01006253 00                               0x00 
